
riscv-spike.elf:     file format elf32-littleriscv


Disassembly of section .text:

00000000 <boot>:
       0:	00002fb7          	lui	t6,0x2
       4:	800f8f93          	addi	t6,t6,-2048 # 1800 <__stack_init+0x6f0>
       8:	300f9073          	csrw	mstatus,t6
       c:	0340006f          	j	40 <_mstart>
      10:	00000013          	nop
      14:	00000013          	nop
      18:	00000013          	nop
      1c:	00000013          	nop
      20:	00000013          	nop
      24:	00000013          	nop
      28:	00000013          	nop
      2c:	00000013          	nop
      30:	00000013          	nop
      34:	00000013          	nop
      38:	00000013          	nop
      3c:	00000013          	nop

00000040 <_mstart>:
      40:	00000297          	auipc	t0,0x0
      44:	0b428293          	addi	t0,t0,180 # f4 <trap_entry>
      48:	30529073          	csrw	mtvec,t0
      4c:	00000093          	li	ra,0
      50:	00000113          	li	sp,0
      54:	00000193          	li	gp,0
      58:	00000213          	li	tp,0
      5c:	00000293          	li	t0,0
      60:	00000313          	li	t1,0
      64:	00000393          	li	t2,0
      68:	00000413          	li	s0,0
      6c:	00000493          	li	s1,0
      70:	00000513          	li	a0,0
      74:	00000593          	li	a1,0
      78:	00000613          	li	a2,0
      7c:	00000693          	li	a3,0
      80:	00000713          	li	a4,0
      84:	00000793          	li	a5,0
      88:	00000813          	li	a6,0
      8c:	00000893          	li	a7,0
      90:	00000913          	li	s2,0
      94:	00000993          	li	s3,0
      98:	00000a13          	li	s4,0
      9c:	00000a93          	li	s5,0
      a0:	00000b13          	li	s6,0
      a4:	00000b93          	li	s7,0
      a8:	00000c13          	li	s8,0
      ac:	00000c93          	li	s9,0
      b0:	00000d13          	li	s10,0
      b4:	00000d93          	li	s11,0
      b8:	00000e13          	li	t3,0
      bc:	00000e93          	li	t4,0
      c0:	00000f13          	li	t5,0
      c4:	00000f93          	li	t6,0
      c8:	00020197          	auipc	gp,0x20
      cc:	73818193          	addi	gp,gp,1848 # 20800 <__global_pointer$>
      d0:	000ff117          	auipc	sp,0xff
      d4:	f2c10113          	addi	sp,sp,-212 # feffc <__stacktop>
      d8:	00000297          	auipc	t0,0x0
      dc:	01c28293          	addi	t0,t0,28 # f4 <trap_entry>
      e0:	00012503          	lw	a0,0(sp)
      e4:	00000613          	li	a2,0
      e8:	55d000ef          	jal	ra,e44 <main>
      ec:	0000006f          	j	ec <_mstart+0xac>
      f0:	00008067          	ret

000000f4 <trap_entry>:
      f4:	3190006f          	j	c0c <ISR5>
      f8:	30200073          	mret
      fc:	3110006f          	j	c0c <ISR5>
     100:	30200073          	mret
     104:	3090006f          	j	c0c <ISR5>
     108:	30200073          	mret
     10c:	3010006f          	j	c0c <ISR5>
     110:	30200073          	mret
     114:	2f90006f          	j	c0c <ISR5>
     118:	30200073          	mret
     11c:	40d0006f          	j	d28 <ISR6>
     120:	30200073          	mret
	...

00000130 <UART_init>:
     130:	fd010113          	addi	sp,sp,-48
     134:	02812623          	sw	s0,44(sp)
     138:	03010413          	addi	s0,sp,48
     13c:	fca42e23          	sw	a0,-36(s0)
     140:	00058793          	mv	a5,a1
     144:	fcf40da3          	sb	a5,-37(s0)
     148:	fdc42703          	lw	a4,-36(s0)
     14c:	000097b7          	lui	a5,0x9
     150:	60078793          	addi	a5,a5,1536 # 9600 <__stack_init+0x84f0>
     154:	00f71a63          	bne	a4,a5,168 <UART_init+0x38>
     158:	fe0407a3          	sb	zero,-17(s0)
     15c:	fa200793          	li	a5,-94
     160:	fef40723          	sb	a5,-18(s0)
     164:	1180006f          	j	27c <UART_init+0x14c>
     168:	fdc42703          	lw	a4,-36(s0)
     16c:	000027b7          	lui	a5,0x2
     170:	58078793          	addi	a5,a5,1408 # 2580 <__stack_init+0x1470>
     174:	00f71c63          	bne	a4,a5,18c <UART_init+0x5c>
     178:	00200793          	li	a5,2
     17c:	fef407a3          	sb	a5,-17(s0)
     180:	f8b00793          	li	a5,-117
     184:	fef40723          	sb	a5,-18(s0)
     188:	0f40006f          	j	27c <UART_init+0x14c>
     18c:	fdc42703          	lw	a4,-36(s0)
     190:	000057b7          	lui	a5,0x5
     194:	b0078793          	addi	a5,a5,-1280 # 4b00 <__stack_init+0x39f0>
     198:	00f71c63          	bne	a4,a5,1b0 <UART_init+0x80>
     19c:	00100793          	li	a5,1
     1a0:	fef407a3          	sb	a5,-17(s0)
     1a4:	04500793          	li	a5,69
     1a8:	fef40723          	sb	a5,-18(s0)
     1ac:	0d00006f          	j	27c <UART_init+0x14c>
     1b0:	fdc42703          	lw	a4,-36(s0)
     1b4:	0000e7b7          	lui	a5,0xe
     1b8:	10078793          	addi	a5,a5,256 # e100 <__stack_init+0xcff0>
     1bc:	00f71a63          	bne	a4,a5,1d0 <UART_init+0xa0>
     1c0:	fe0407a3          	sb	zero,-17(s0)
     1c4:	03600793          	li	a5,54
     1c8:	fef40723          	sb	a5,-18(s0)
     1cc:	0b00006f          	j	27c <UART_init+0x14c>
     1d0:	fdc42703          	lw	a4,-36(s0)
     1d4:	0001c7b7          	lui	a5,0x1c
     1d8:	20078793          	addi	a5,a5,512 # 1c200 <__stack_init+0x1b0f0>
     1dc:	00f71a63          	bne	a4,a5,1f0 <UART_init+0xc0>
     1e0:	fe0407a3          	sb	zero,-17(s0)
     1e4:	01b00793          	li	a5,27
     1e8:	fef40723          	sb	a5,-18(s0)
     1ec:	0900006f          	j	27c <UART_init+0x14c>
     1f0:	fdc42703          	lw	a4,-36(s0)
     1f4:	000387b7          	lui	a5,0x38
     1f8:	40078793          	addi	a5,a5,1024 # 38400 <__BSS_END__+0x17b3c>
     1fc:	00f71a63          	bne	a4,a5,210 <UART_init+0xe0>
     200:	fe0407a3          	sb	zero,-17(s0)
     204:	00e00793          	li	a5,14
     208:	fef40723          	sb	a5,-18(s0)
     20c:	0700006f          	j	27c <UART_init+0x14c>
     210:	fdc42703          	lw	a4,-36(s0)
     214:	000717b7          	lui	a5,0x71
     218:	80078793          	addi	a5,a5,-2048 # 70800 <__BSS_END__+0x4ff3c>
     21c:	00f71a63          	bne	a4,a5,230 <UART_init+0x100>
     220:	fe0407a3          	sb	zero,-17(s0)
     224:	00700793          	li	a5,7
     228:	fef40723          	sb	a5,-18(s0)
     22c:	0500006f          	j	27c <UART_init+0x14c>
     230:	fdc42703          	lw	a4,-36(s0)
     234:	0017d7b7          	lui	a5,0x17d
     238:	78478793          	addi	a5,a5,1924 # 17d784 <__VMEM_END+0x772e0>
     23c:	00f71a63          	bne	a4,a5,250 <UART_init+0x120>
     240:	fe0407a3          	sb	zero,-17(s0)
     244:	00400793          	li	a5,4
     248:	fef40723          	sb	a5,-18(s0)
     24c:	0300006f          	j	27c <UART_init+0x14c>
     250:	fdc42703          	lw	a4,-36(s0)
     254:	000bf7b7          	lui	a5,0xbf
     258:	bc278793          	addi	a5,a5,-1086 # bebc2 <__BSS_END__+0x9e2fe>
     25c:	00f71a63          	bne	a4,a5,270 <UART_init+0x140>
     260:	fe0407a3          	sb	zero,-17(s0)
     264:	00800793          	li	a5,8
     268:	fef40723          	sb	a5,-18(s0)
     26c:	0100006f          	j	27c <UART_init+0x14c>
     270:	fe0407a3          	sb	zero,-17(s0)
     274:	00100793          	li	a5,1
     278:	fef40723          	sb	a5,-18(s0)
     27c:	fdb44703          	lbu	a4,-37(s0)
     280:	00100793          	li	a5,1
     284:	00f71663          	bne	a4,a5,290 <UART_init+0x160>
     288:	fe0406a3          	sb	zero,-19(s0)
     28c:	03c0006f          	j	2c8 <UART_init+0x198>
     290:	fdb44703          	lbu	a4,-37(s0)
     294:	00400793          	li	a5,4
     298:	00f71863          	bne	a4,a5,2a8 <UART_init+0x178>
     29c:	04000793          	li	a5,64
     2a0:	fef406a3          	sb	a5,-19(s0)
     2a4:	0240006f          	j	2c8 <UART_init+0x198>
     2a8:	fdb44703          	lbu	a4,-37(s0)
     2ac:	00800793          	li	a5,8
     2b0:	00f71863          	bne	a4,a5,2c0 <UART_init+0x190>
     2b4:	f8000793          	li	a5,-128
     2b8:	fef406a3          	sb	a5,-19(s0)
     2bc:	00c0006f          	j	2c8 <UART_init+0x198>
     2c0:	fc000793          	li	a5,-64
     2c4:	fef406a3          	sb	a5,-19(s0)
     2c8:	5f1007b7          	lui	a5,0x5f100
     2cc:	6f478793          	addi	a5,a5,1780 # 5f1006f4 <__VREG_END+0x5ef806f4>
     2d0:	01300713          	li	a4,19
     2d4:	00e78023          	sb	a4,0(a5)
     2d8:	5f1007b7          	lui	a5,0x5f100
     2dc:	6f378793          	addi	a5,a5,1779 # 5f1006f3 <__VREG_END+0x5ef806f3>
     2e0:	04000713          	li	a4,64
     2e4:	00e78023          	sb	a4,0(a5)
     2e8:	5f1007b7          	lui	a5,0x5f100
     2ec:	6f178793          	addi	a5,a5,1777 # 5f1006f1 <__VREG_END+0x5ef806f1>
     2f0:	00100713          	li	a4,1
     2f4:	00e78023          	sb	a4,0(a5)
     2f8:	5f1007b7          	lui	a5,0x5f100
     2fc:	6f478793          	addi	a5,a5,1780 # 5f1006f4 <__VREG_END+0x5ef806f4>
     300:	f9300713          	li	a4,-109
     304:	00e78023          	sb	a4,0(a5)
     308:	5f1007b7          	lui	a5,0x5f100
     30c:	6f178793          	addi	a5,a5,1777 # 5f1006f1 <__VREG_END+0x5ef806f1>
     310:	fef44703          	lbu	a4,-17(s0)
     314:	00e78023          	sb	a4,0(a5)
     318:	5f1007b7          	lui	a5,0x5f100
     31c:	6f078793          	addi	a5,a5,1776 # 5f1006f0 <__VREG_END+0x5ef806f0>
     320:	fee44703          	lbu	a4,-18(s0)
     324:	00e78023          	sb	a4,0(a5)
     328:	5f1007b7          	lui	a5,0x5f100
     32c:	6f478793          	addi	a5,a5,1780 # 5f1006f4 <__VREG_END+0x5ef806f4>
     330:	01300713          	li	a4,19
     334:	00e78023          	sb	a4,0(a5)
     338:	5f1007b7          	lui	a5,0x5f100
     33c:	6f378793          	addi	a5,a5,1779 # 5f1006f3 <__VREG_END+0x5ef806f3>
     340:	fed44703          	lbu	a4,-19(s0)
     344:	00e78023          	sb	a4,0(a5)
     348:	00000013          	nop
     34c:	02c12403          	lw	s0,44(sp)
     350:	03010113          	addi	sp,sp,48
     354:	00008067          	ret

00000358 <UARTCharPut>:
     358:	fe010113          	addi	sp,sp,-32
     35c:	00812e23          	sw	s0,28(sp)
     360:	02010413          	addi	s0,sp,32
     364:	00050793          	mv	a5,a0
     368:	fef407a3          	sb	a5,-17(s0)
     36c:	00000013          	nop
     370:	5f1007b7          	lui	a5,0x5f100
     374:	6f678793          	addi	a5,a5,1782 # 5f1006f6 <__VREG_END+0x5ef806f6>
     378:	0007c783          	lbu	a5,0(a5)
     37c:	0ff7f793          	andi	a5,a5,255
     380:	0207f793          	andi	a5,a5,32
     384:	0ff7f793          	andi	a5,a5,255
     388:	fe0784e3          	beqz	a5,370 <UARTCharPut+0x18>
     38c:	5f1007b7          	lui	a5,0x5f100
     390:	6f078793          	addi	a5,a5,1776 # 5f1006f0 <__VREG_END+0x5ef806f0>
     394:	fef44703          	lbu	a4,-17(s0)
     398:	00e78023          	sb	a4,0(a5)
     39c:	00000013          	nop
     3a0:	01c12403          	lw	s0,28(sp)
     3a4:	02010113          	addi	sp,sp,32
     3a8:	00008067          	ret

000003ac <UART_string>:
     3ac:	fe010113          	addi	sp,sp,-32
     3b0:	00112e23          	sw	ra,28(sp)
     3b4:	00812c23          	sw	s0,24(sp)
     3b8:	02010413          	addi	s0,sp,32
     3bc:	fea42623          	sw	a0,-20(s0)
     3c0:	01c0006f          	j	3dc <UART_string+0x30>
     3c4:	fec42783          	lw	a5,-20(s0)
     3c8:	00178713          	addi	a4,a5,1
     3cc:	fee42623          	sw	a4,-20(s0)
     3d0:	0007c783          	lbu	a5,0(a5)
     3d4:	00078513          	mv	a0,a5
     3d8:	f81ff0ef          	jal	ra,358 <UARTCharPut>
     3dc:	fec42783          	lw	a5,-20(s0)
     3e0:	0007c783          	lbu	a5,0(a5)
     3e4:	fe0790e3          	bnez	a5,3c4 <UART_string+0x18>
     3e8:	00000013          	nop
     3ec:	00000013          	nop
     3f0:	01c12083          	lw	ra,28(sp)
     3f4:	01812403          	lw	s0,24(sp)
     3f8:	02010113          	addi	sp,sp,32
     3fc:	00008067          	ret

00000400 <UART_newline>:
     400:	ff010113          	addi	sp,sp,-16
     404:	00112623          	sw	ra,12(sp)
     408:	00812423          	sw	s0,8(sp)
     40c:	01010413          	addi	s0,sp,16
     410:	00a00513          	li	a0,10
     414:	f45ff0ef          	jal	ra,358 <UARTCharPut>
     418:	00d00513          	li	a0,13
     41c:	f3dff0ef          	jal	ra,358 <UARTCharPut>
     420:	00000013          	nop
     424:	00c12083          	lw	ra,12(sp)
     428:	00812403          	lw	s0,8(sp)
     42c:	01010113          	addi	sp,sp,16
     430:	00008067          	ret

00000434 <UART_Htab>:
     434:	ff010113          	addi	sp,sp,-16
     438:	00112623          	sw	ra,12(sp)
     43c:	00812423          	sw	s0,8(sp)
     440:	01010413          	addi	s0,sp,16
     444:	00900513          	li	a0,9
     448:	f11ff0ef          	jal	ra,358 <UARTCharPut>
     44c:	00000013          	nop
     450:	00c12083          	lw	ra,12(sp)
     454:	00812403          	lw	s0,8(sp)
     458:	01010113          	addi	sp,sp,16
     45c:	00008067          	ret

00000460 <UARTwrite>:
     460:	fd010113          	addi	sp,sp,-48
     464:	02112623          	sw	ra,44(sp)
     468:	02812423          	sw	s0,40(sp)
     46c:	03010413          	addi	s0,sp,48
     470:	fca42e23          	sw	a0,-36(s0)
     474:	fcb42c23          	sw	a1,-40(s0)
     478:	fe042623          	sw	zero,-20(s0)
     47c:	0480006f          	j	4c4 <UARTwrite+0x64>
     480:	fdc42703          	lw	a4,-36(s0)
     484:	fec42783          	lw	a5,-20(s0)
     488:	00f707b3          	add	a5,a4,a5
     48c:	0007c703          	lbu	a4,0(a5)
     490:	00a00793          	li	a5,10
     494:	00f71663          	bne	a4,a5,4a0 <UARTwrite+0x40>
     498:	00d00513          	li	a0,13
     49c:	ebdff0ef          	jal	ra,358 <UARTCharPut>
     4a0:	fdc42703          	lw	a4,-36(s0)
     4a4:	fec42783          	lw	a5,-20(s0)
     4a8:	00f707b3          	add	a5,a4,a5
     4ac:	0007c783          	lbu	a5,0(a5)
     4b0:	00078513          	mv	a0,a5
     4b4:	ea5ff0ef          	jal	ra,358 <UARTCharPut>
     4b8:	fec42783          	lw	a5,-20(s0)
     4bc:	00178793          	addi	a5,a5,1
     4c0:	fef42623          	sw	a5,-20(s0)
     4c4:	fec42703          	lw	a4,-20(s0)
     4c8:	fd842783          	lw	a5,-40(s0)
     4cc:	faf76ae3          	bltu	a4,a5,480 <UARTwrite+0x20>
     4d0:	fec42783          	lw	a5,-20(s0)
     4d4:	00078513          	mv	a0,a5
     4d8:	02c12083          	lw	ra,44(sp)
     4dc:	02812403          	lw	s0,40(sp)
     4e0:	03010113          	addi	sp,sp,48
     4e4:	00008067          	ret

000004e8 <UARTvprintf>:
     4e8:	fa010113          	addi	sp,sp,-96
     4ec:	04112e23          	sw	ra,92(sp)
     4f0:	04812c23          	sw	s0,88(sp)
     4f4:	06010413          	addi	s0,sp,96
     4f8:	faa42623          	sw	a0,-84(s0)
     4fc:	fab42423          	sw	a1,-88(s0)
     500:	4440006f          	j	944 <UARTvprintf+0x45c>
     504:	fe042623          	sw	zero,-20(s0)
     508:	0100006f          	j	518 <UARTvprintf+0x30>
     50c:	fec42783          	lw	a5,-20(s0)
     510:	00178793          	addi	a5,a5,1
     514:	fef42623          	sw	a5,-20(s0)
     518:	fac42703          	lw	a4,-84(s0)
     51c:	fec42783          	lw	a5,-20(s0)
     520:	00f707b3          	add	a5,a4,a5
     524:	0007c703          	lbu	a4,0(a5)
     528:	02500793          	li	a5,37
     52c:	00f70c63          	beq	a4,a5,544 <UARTvprintf+0x5c>
     530:	fac42703          	lw	a4,-84(s0)
     534:	fec42783          	lw	a5,-20(s0)
     538:	00f707b3          	add	a5,a4,a5
     53c:	0007c783          	lbu	a5,0(a5)
     540:	fc0796e3          	bnez	a5,50c <UARTvprintf+0x24>
     544:	fec42583          	lw	a1,-20(s0)
     548:	fac42503          	lw	a0,-84(s0)
     54c:	f15ff0ef          	jal	ra,460 <UARTwrite>
     550:	fac42703          	lw	a4,-84(s0)
     554:	fec42783          	lw	a5,-20(s0)
     558:	00f707b3          	add	a5,a4,a5
     55c:	faf42623          	sw	a5,-84(s0)
     560:	fac42783          	lw	a5,-84(s0)
     564:	0007c703          	lbu	a4,0(a5)
     568:	02500793          	li	a5,37
     56c:	3cf71a63          	bne	a4,a5,940 <UARTvprintf+0x458>
     570:	fac42783          	lw	a5,-84(s0)
     574:	00178793          	addi	a5,a5,1
     578:	faf42623          	sw	a5,-84(s0)
     57c:	fe042223          	sw	zero,-28(s0)
     580:	02000793          	li	a5,32
     584:	fcf40da3          	sb	a5,-37(s0)
     588:	fac42783          	lw	a5,-84(s0)
     58c:	00178713          	addi	a4,a5,1
     590:	fae42623          	sw	a4,-84(s0)
     594:	0007c783          	lbu	a5,0(a5)
     598:	fdb78793          	addi	a5,a5,-37
     59c:	05300713          	li	a4,83
     5a0:	38f76663          	bltu	a4,a5,92c <UARTvprintf+0x444>
     5a4:	00279713          	slli	a4,a5,0x2
     5a8:	000017b7          	lui	a5,0x1
     5ac:	13478793          	addi	a5,a5,308 # 1134 <__stack_init+0x24>
     5b0:	00f707b3          	add	a5,a4,a5
     5b4:	0007a783          	lw	a5,0(a5)
     5b8:	00078067          	jr	a5
     5bc:	fac42783          	lw	a5,-84(s0)
     5c0:	fff78793          	addi	a5,a5,-1
     5c4:	0007c703          	lbu	a4,0(a5)
     5c8:	03000793          	li	a5,48
     5cc:	00f71a63          	bne	a4,a5,5e0 <UARTvprintf+0xf8>
     5d0:	fe442783          	lw	a5,-28(s0)
     5d4:	00079663          	bnez	a5,5e0 <UARTvprintf+0xf8>
     5d8:	03000793          	li	a5,48
     5dc:	fcf40da3          	sb	a5,-37(s0)
     5e0:	fe442703          	lw	a4,-28(s0)
     5e4:	00070793          	mv	a5,a4
     5e8:	00279793          	slli	a5,a5,0x2
     5ec:	00e787b3          	add	a5,a5,a4
     5f0:	00179793          	slli	a5,a5,0x1
     5f4:	fef42223          	sw	a5,-28(s0)
     5f8:	fac42783          	lw	a5,-84(s0)
     5fc:	fff78793          	addi	a5,a5,-1
     600:	0007c783          	lbu	a5,0(a5)
     604:	00078713          	mv	a4,a5
     608:	fe442783          	lw	a5,-28(s0)
     60c:	00f707b3          	add	a5,a4,a5
     610:	fd078793          	addi	a5,a5,-48
     614:	fef42223          	sw	a5,-28(s0)
     618:	f71ff06f          	j	588 <UARTvprintf+0xa0>
     61c:	fa842783          	lw	a5,-88(s0)
     620:	00478713          	addi	a4,a5,4
     624:	fae42423          	sw	a4,-88(s0)
     628:	0007a783          	lw	a5,0(a5)
     62c:	fcf42223          	sw	a5,-60(s0)
     630:	fc440793          	addi	a5,s0,-60
     634:	00100593          	li	a1,1
     638:	00078513          	mv	a0,a5
     63c:	e25ff0ef          	jal	ra,460 <UARTwrite>
     640:	3040006f          	j	944 <UARTvprintf+0x45c>
     644:	fa842783          	lw	a5,-88(s0)
     648:	00478713          	addi	a4,a5,4
     64c:	fae42423          	sw	a4,-88(s0)
     650:	0007a783          	lw	a5,0(a5)
     654:	fcf42223          	sw	a5,-60(s0)
     658:	fe042423          	sw	zero,-24(s0)
     65c:	fc442783          	lw	a5,-60(s0)
     660:	0007de63          	bgez	a5,67c <UARTvprintf+0x194>
     664:	fc442783          	lw	a5,-60(s0)
     668:	40f007b3          	neg	a5,a5
     66c:	fcf42223          	sw	a5,-60(s0)
     670:	00100793          	li	a5,1
     674:	fcf42e23          	sw	a5,-36(s0)
     678:	0080006f          	j	680 <UARTvprintf+0x198>
     67c:	fc042e23          	sw	zero,-36(s0)
     680:	00a00793          	li	a5,10
     684:	fef42023          	sw	a5,-32(s0)
     688:	1040006f          	j	78c <UARTvprintf+0x2a4>
     68c:	fa842783          	lw	a5,-88(s0)
     690:	00778793          	addi	a5,a5,7
     694:	ff87f793          	andi	a5,a5,-8
     698:	00878713          	addi	a4,a5,8
     69c:	fae42423          	sw	a4,-88(s0)
     6a0:	0007a703          	lw	a4,0(a5)
     6a4:	0047a783          	lw	a5,4(a5)
     6a8:	fce42423          	sw	a4,-56(s0)
     6ac:	fcf42623          	sw	a5,-52(s0)
     6b0:	2940006f          	j	944 <UARTvprintf+0x45c>
     6b4:	fa842783          	lw	a5,-88(s0)
     6b8:	00478713          	addi	a4,a5,4
     6bc:	fae42423          	sw	a4,-88(s0)
     6c0:	0007a783          	lw	a5,0(a5)
     6c4:	fcf42a23          	sw	a5,-44(s0)
     6c8:	fe042623          	sw	zero,-20(s0)
     6cc:	0100006f          	j	6dc <UARTvprintf+0x1f4>
     6d0:	fec42783          	lw	a5,-20(s0)
     6d4:	00178793          	addi	a5,a5,1
     6d8:	fef42623          	sw	a5,-20(s0)
     6dc:	fd442703          	lw	a4,-44(s0)
     6e0:	fec42783          	lw	a5,-20(s0)
     6e4:	00f707b3          	add	a5,a4,a5
     6e8:	0007c783          	lbu	a5,0(a5)
     6ec:	fe0792e3          	bnez	a5,6d0 <UARTvprintf+0x1e8>
     6f0:	fec42583          	lw	a1,-20(s0)
     6f4:	fd442503          	lw	a0,-44(s0)
     6f8:	d69ff0ef          	jal	ra,460 <UARTwrite>
     6fc:	fe442703          	lw	a4,-28(s0)
     700:	fec42783          	lw	a5,-20(s0)
     704:	24e7f063          	bgeu	a5,a4,944 <UARTvprintf+0x45c>
     708:	fe442703          	lw	a4,-28(s0)
     70c:	fec42783          	lw	a5,-20(s0)
     710:	40f707b3          	sub	a5,a4,a5
     714:	fef42223          	sw	a5,-28(s0)
     718:	0140006f          	j	72c <UARTvprintf+0x244>
     71c:	00100593          	li	a1,1
     720:	000017b7          	lui	a5,0x1
     724:	12878513          	addi	a0,a5,296 # 1128 <__stack_init+0x18>
     728:	d39ff0ef          	jal	ra,460 <UARTwrite>
     72c:	fe442783          	lw	a5,-28(s0)
     730:	fff78713          	addi	a4,a5,-1
     734:	fee42223          	sw	a4,-28(s0)
     738:	fe0792e3          	bnez	a5,71c <UARTvprintf+0x234>
     73c:	2080006f          	j	944 <UARTvprintf+0x45c>
     740:	fa842783          	lw	a5,-88(s0)
     744:	00478713          	addi	a4,a5,4
     748:	fae42423          	sw	a4,-88(s0)
     74c:	0007a783          	lw	a5,0(a5)
     750:	fcf42223          	sw	a5,-60(s0)
     754:	fe042423          	sw	zero,-24(s0)
     758:	00a00793          	li	a5,10
     75c:	fef42023          	sw	a5,-32(s0)
     760:	fc042e23          	sw	zero,-36(s0)
     764:	0280006f          	j	78c <UARTvprintf+0x2a4>
     768:	fa842783          	lw	a5,-88(s0)
     76c:	00478713          	addi	a4,a5,4
     770:	fae42423          	sw	a4,-88(s0)
     774:	0007a783          	lw	a5,0(a5)
     778:	fcf42223          	sw	a5,-60(s0)
     77c:	fe042423          	sw	zero,-24(s0)
     780:	01000793          	li	a5,16
     784:	fef42023          	sw	a5,-32(s0)
     788:	fc042e23          	sw	zero,-36(s0)
     78c:	00100793          	li	a5,1
     790:	fef42623          	sw	a5,-20(s0)
     794:	0200006f          	j	7b4 <UARTvprintf+0x2cc>
     798:	fec42703          	lw	a4,-20(s0)
     79c:	fe042783          	lw	a5,-32(s0)
     7a0:	02f707b3          	mul	a5,a4,a5
     7a4:	fef42623          	sw	a5,-20(s0)
     7a8:	fe442783          	lw	a5,-28(s0)
     7ac:	fff78793          	addi	a5,a5,-1
     7b0:	fef42223          	sw	a5,-28(s0)
     7b4:	fec42703          	lw	a4,-20(s0)
     7b8:	fe042783          	lw	a5,-32(s0)
     7bc:	02f70733          	mul	a4,a4,a5
     7c0:	fc442783          	lw	a5,-60(s0)
     7c4:	02e7e063          	bltu	a5,a4,7e4 <UARTvprintf+0x2fc>
     7c8:	fec42703          	lw	a4,-20(s0)
     7cc:	fe042783          	lw	a5,-32(s0)
     7d0:	02f70733          	mul	a4,a4,a5
     7d4:	fe042783          	lw	a5,-32(s0)
     7d8:	02f757b3          	divu	a5,a4,a5
     7dc:	fec42703          	lw	a4,-20(s0)
     7e0:	faf70ce3          	beq	a4,a5,798 <UARTvprintf+0x2b0>
     7e4:	fdc42783          	lw	a5,-36(s0)
     7e8:	00078863          	beqz	a5,7f8 <UARTvprintf+0x310>
     7ec:	fe442783          	lw	a5,-28(s0)
     7f0:	fff78793          	addi	a5,a5,-1
     7f4:	fef42223          	sw	a5,-28(s0)
     7f8:	fdc42783          	lw	a5,-36(s0)
     7fc:	02078863          	beqz	a5,82c <UARTvprintf+0x344>
     800:	fdb44703          	lbu	a4,-37(s0)
     804:	03000793          	li	a5,48
     808:	02f71263          	bne	a4,a5,82c <UARTvprintf+0x344>
     80c:	fe842783          	lw	a5,-24(s0)
     810:	00178713          	addi	a4,a5,1
     814:	fee42423          	sw	a4,-24(s0)
     818:	ff040713          	addi	a4,s0,-16
     81c:	00f707b3          	add	a5,a4,a5
     820:	02d00713          	li	a4,45
     824:	fce78223          	sb	a4,-60(a5)
     828:	fc042e23          	sw	zero,-36(s0)
     82c:	fe442703          	lw	a4,-28(s0)
     830:	00100793          	li	a5,1
     834:	04e7f863          	bgeu	a5,a4,884 <UARTvprintf+0x39c>
     838:	fe442703          	lw	a4,-28(s0)
     83c:	00f00793          	li	a5,15
     840:	04e7e263          	bltu	a5,a4,884 <UARTvprintf+0x39c>
     844:	fe442783          	lw	a5,-28(s0)
     848:	fff78793          	addi	a5,a5,-1
     84c:	fef42223          	sw	a5,-28(s0)
     850:	02c0006f          	j	87c <UARTvprintf+0x394>
     854:	fe842783          	lw	a5,-24(s0)
     858:	00178713          	addi	a4,a5,1
     85c:	fee42423          	sw	a4,-24(s0)
     860:	ff040713          	addi	a4,s0,-16
     864:	00f707b3          	add	a5,a4,a5
     868:	fdb44703          	lbu	a4,-37(s0)
     86c:	fce78223          	sb	a4,-60(a5)
     870:	fe442783          	lw	a5,-28(s0)
     874:	fff78793          	addi	a5,a5,-1
     878:	fef42223          	sw	a5,-28(s0)
     87c:	fe442783          	lw	a5,-28(s0)
     880:	fc079ae3          	bnez	a5,854 <UARTvprintf+0x36c>
     884:	fdc42783          	lw	a5,-36(s0)
     888:	06078863          	beqz	a5,8f8 <UARTvprintf+0x410>
     88c:	fe842783          	lw	a5,-24(s0)
     890:	00178713          	addi	a4,a5,1
     894:	fee42423          	sw	a4,-24(s0)
     898:	ff040713          	addi	a4,s0,-16
     89c:	00f707b3          	add	a5,a4,a5
     8a0:	02d00713          	li	a4,45
     8a4:	fce78223          	sb	a4,-60(a5)
     8a8:	0500006f          	j	8f8 <UARTvprintf+0x410>
     8ac:	000017b7          	lui	a5,0x1
     8b0:	11478713          	addi	a4,a5,276 # 1114 <__stack_init+0x4>
     8b4:	fc442683          	lw	a3,-60(s0)
     8b8:	fec42783          	lw	a5,-20(s0)
     8bc:	02f6d6b3          	divu	a3,a3,a5
     8c0:	fe042783          	lw	a5,-32(s0)
     8c4:	02f6f7b3          	remu	a5,a3,a5
     8c8:	00f70733          	add	a4,a4,a5
     8cc:	fe842783          	lw	a5,-24(s0)
     8d0:	00178693          	addi	a3,a5,1
     8d4:	fed42423          	sw	a3,-24(s0)
     8d8:	00074703          	lbu	a4,0(a4)
     8dc:	ff040693          	addi	a3,s0,-16
     8e0:	00f687b3          	add	a5,a3,a5
     8e4:	fce78223          	sb	a4,-60(a5)
     8e8:	fec42703          	lw	a4,-20(s0)
     8ec:	fe042783          	lw	a5,-32(s0)
     8f0:	02f757b3          	divu	a5,a4,a5
     8f4:	fef42623          	sw	a5,-20(s0)
     8f8:	fec42783          	lw	a5,-20(s0)
     8fc:	fa0798e3          	bnez	a5,8ac <UARTvprintf+0x3c4>
     900:	fb440793          	addi	a5,s0,-76
     904:	fe842583          	lw	a1,-24(s0)
     908:	00078513          	mv	a0,a5
     90c:	b55ff0ef          	jal	ra,460 <UARTwrite>
     910:	0340006f          	j	944 <UARTvprintf+0x45c>
     914:	fac42783          	lw	a5,-84(s0)
     918:	fff78793          	addi	a5,a5,-1
     91c:	00100593          	li	a1,1
     920:	00078513          	mv	a0,a5
     924:	b3dff0ef          	jal	ra,460 <UARTwrite>
     928:	01c0006f          	j	944 <UARTvprintf+0x45c>
     92c:	00500593          	li	a1,5
     930:	000017b7          	lui	a5,0x1
     934:	12c78513          	addi	a0,a5,300 # 112c <__stack_init+0x1c>
     938:	b29ff0ef          	jal	ra,460 <UARTwrite>
     93c:	0080006f          	j	944 <UARTvprintf+0x45c>
     940:	00000013          	nop
     944:	fac42783          	lw	a5,-84(s0)
     948:	0007c783          	lbu	a5,0(a5)
     94c:	ba079ce3          	bnez	a5,504 <UARTvprintf+0x1c>
     950:	00000013          	nop
     954:	00000013          	nop
     958:	05c12083          	lw	ra,92(sp)
     95c:	05812403          	lw	s0,88(sp)
     960:	06010113          	addi	sp,sp,96
     964:	00008067          	ret

00000968 <UARTprintf>:
     968:	fb010113          	addi	sp,sp,-80
     96c:	02112623          	sw	ra,44(sp)
     970:	02812423          	sw	s0,40(sp)
     974:	03010413          	addi	s0,sp,48
     978:	fca42e23          	sw	a0,-36(s0)
     97c:	00b42223          	sw	a1,4(s0)
     980:	00c42423          	sw	a2,8(s0)
     984:	00d42623          	sw	a3,12(s0)
     988:	00e42823          	sw	a4,16(s0)
     98c:	00f42a23          	sw	a5,20(s0)
     990:	01042c23          	sw	a6,24(s0)
     994:	01142e23          	sw	a7,28(s0)
     998:	02040793          	addi	a5,s0,32
     99c:	fcf42c23          	sw	a5,-40(s0)
     9a0:	fd842783          	lw	a5,-40(s0)
     9a4:	fe478793          	addi	a5,a5,-28
     9a8:	fef42623          	sw	a5,-20(s0)
     9ac:	fec42783          	lw	a5,-20(s0)
     9b0:	00078593          	mv	a1,a5
     9b4:	fdc42503          	lw	a0,-36(s0)
     9b8:	b31ff0ef          	jal	ra,4e8 <UARTvprintf>
     9bc:	00000013          	nop
     9c0:	02c12083          	lw	ra,44(sp)
     9c4:	02812403          	lw	s0,40(sp)
     9c8:	05010113          	addi	sp,sp,80
     9cc:	00008067          	ret

000009d0 <conv2d>:
     9d0:	fd410113          	addi	sp,sp,-44
     9d4:	00812023          	sw	s0,0(sp)
     9d8:	00912223          	sw	s1,4(sp)
     9dc:	01212423          	sw	s2,8(sp)
     9e0:	01312623          	sw	s3,12(sp)
     9e4:	01412823          	sw	s4,16(sp)
     9e8:	01512a23          	sw	s5,20(sp)
     9ec:	01612c23          	sw	s6,24(sp)
     9f0:	01712e23          	sw	s7,28(sp)
     9f4:	03812023          	sw	s8,32(sp)
     9f8:	03912223          	sw	s9,36(sp)
     9fc:	03a12423          	sw	s10,40(sp)
     a00:	00300293          	li	t0,3
     a04:	00a2b073          	csrc	vxrm,t0
     a08:	ffe68893          	addi	a7,a3,-2
     a0c:	0018d813          	srli	a6,a7,0x1
     a10:	0127fe57          	vsetvli	t3,a5,e32,m4,tu,mu
     a14:	00279e13          	slli	t3,a5,0x2
     a18:	01c604b3          	add	s1,a2,t3
     a1c:	01c48933          	add	s2,s1,t3
     a20:	01c909b3          	add	s3,s2,t3
     a24:	01c98a33          	add	s4,s3,t3
     a28:	01ca0ab3          	add	s5,s4,t3
     a2c:	01ca8b33          	add	s6,s5,t3
     a30:	01cb0bb3          	add	s7,s6,t3
     a34:	01cb8c33          	add	s8,s7,t3
     a38:	02066107          	vle32.v	v2,(a2)
     a3c:	0204e207          	vle32.v	v4,(s1)
     a40:	02096307          	vle32.v	v6,(s2)
     a44:	0209e407          	vle32.v	v8,(s3)
     a48:	020a6507          	vle32.v	v10,(s4)
     a4c:	020ae607          	vle32.v	v12,(s5)
     a50:	020b6707          	vle32.v	v14,(s6)
     a54:	020be807          	vle32.v	v16,(s7)
     a58:	020c6907          	vle32.v	v18,(s8)
     a5c:	02076a07          	vle32.v	v20,(a4)
     a60:	97606b57          	vmul.vx	v22,v22,zero
     a64:	97806c57          	vmul.vx	v24,v24,zero
     a68:	97a06d57          	vmul.vx	v26,v26,zero
     a6c:	97c06e57          	vmul.vx	v28,v28,zero
     a70:	97e06f57          	vmul.vx	v30,v30,zero
     a74:	03c04e57          	vadd.vx	v28,v28,zero
     a78:	00000293          	li	t0,0

00000a7c <OUTER_LOOP>:
     a7c:	00000313          	li	t1,0

00000a80 <INNER_LOOP>:
     a80:	02d283b3          	mul	t2,t0,a3
     a84:	00730e33          	add	t3,t1,t2
     a88:	003e1e13          	slli	t3,t3,0x3
     a8c:	01c58433          	add	s0,a1,t3
     a90:	031283b3          	mul	t2,t0,a7
     a94:	00730e33          	add	t3,t1,t2
     a98:	003e1e13          	slli	t3,t3,0x3
     a9c:	02fe0f33          	mul	t5,t3,a5
     aa0:	01e50d33          	add	s10,a0,t5
     aa4:	00042483          	lw	s1,0(s0)
     aa8:	00442903          	lw	s2,4(s0)
     aac:	00842983          	lw	s3,8(s0)
     ab0:	00c42a03          	lw	s4,12(s0)
     ab4:	b624eb57          	vmacc.vx	v22,s1,v2
     ab8:	b6496b57          	vmacc.vx	v22,s2,v4
     abc:	b669eb57          	vmacc.vx	v22,s3,v6
     ac0:	b6296c57          	vmacc.vx	v24,s2,v2
     ac4:	b649ec57          	vmacc.vx	v24,s3,v4
     ac8:	b66a6c57          	vmacc.vx	v24,s4,v6
     acc:	03c04e57          	vadd.vx	v28,v28,zero
     ad0:	03c04e57          	vadd.vx	v28,v28,zero
     ad4:	00269e13          	slli	t3,a3,0x2
     ad8:	01c40433          	add	s0,s0,t3
     adc:	00042483          	lw	s1,0(s0)
     ae0:	00442903          	lw	s2,4(s0)
     ae4:	00842983          	lw	s3,8(s0)
     ae8:	00c42a03          	lw	s4,12(s0)
     aec:	01c40433          	add	s0,s0,t3
     af0:	00042a83          	lw	s5,0(s0)
     af4:	00442b03          	lw	s6,4(s0)
     af8:	00842b83          	lw	s7,8(s0)
     afc:	00c42c03          	lw	s8,12(s0)
     b00:	b684eb57          	vmacc.vx	v22,s1,v8
     b04:	b6a96b57          	vmacc.vx	v22,s2,v10
     b08:	b6c9eb57          	vmacc.vx	v22,s3,v12
     b0c:	b6896c57          	vmacc.vx	v24,s2,v8
     b10:	b6a9ec57          	vmacc.vx	v24,s3,v10
     b14:	b6ca6c57          	vmacc.vx	v24,s4,v12
     b18:	b624ed57          	vmacc.vx	v26,s1,v2
     b1c:	b6496d57          	vmacc.vx	v26,s2,v4
     b20:	b669ed57          	vmacc.vx	v26,s3,v6
     b24:	b6296e57          	vmacc.vx	v28,s2,v2
     b28:	b649ee57          	vmacc.vx	v28,s3,v4
     b2c:	b66a6e57          	vmacc.vx	v28,s4,v6
     b30:	b6eaeb57          	vmacc.vx	v22,s5,v14
     b34:	b70b6b57          	vmacc.vx	v22,s6,v16
     b38:	b72beb57          	vmacc.vx	v22,s7,v18
     b3c:	b6eb6c57          	vmacc.vx	v24,s6,v14
     b40:	b70bec57          	vmacc.vx	v24,s7,v16
     b44:	b72c6c57          	vmacc.vx	v24,s8,v18
     b48:	b68aed57          	vmacc.vx	v26,s5,v8
     b4c:	b6ab6d57          	vmacc.vx	v26,s6,v10
     b50:	b6cbed57          	vmacc.vx	v26,s7,v12
     b54:	b68b6e57          	vmacc.vx	v28,s6,v8
     b58:	b6abee57          	vmacc.vx	v28,s7,v10
     b5c:	b6cc6e57          	vmacc.vx	v28,s8,v12
     b60:	01c40433          	add	s0,s0,t3
     b64:	00042483          	lw	s1,0(s0)
     b68:	00442903          	lw	s2,4(s0)
     b6c:	00842983          	lw	s3,8(s0)
     b70:	00c42a03          	lw	s4,12(s0)
     b74:	b6e4ed57          	vmacc.vx	v26,s1,v14
     b78:	b7096d57          	vmacc.vx	v26,s2,v16
     b7c:	b729ed57          	vmacc.vx	v26,s3,v18
     b80:	b6e96e57          	vmacc.vx	v28,s2,v14
     b84:	b709ee57          	vmacc.vx	v28,s3,v16
     b88:	b72a6e57          	vmacc.vx	v28,s4,v18
     b8c:	03c04e57          	vadd.vx	v28,v28,zero
     b90:	03c04e57          	vadd.vx	v28,v28,zero
     b94:	00279e13          	slli	t3,a5,0x2
     b98:	01cd04b3          	add	s1,s10,t3
     b9c:	031e0eb3          	mul	t4,t3,a7
     ba0:	01dd0933          	add	s2,s10,t4
     ba4:	01c909b3          	add	s3,s2,t3
     ba8:	020d6b27          	vse32.v	v22,(s10)
     bac:	0204ec27          	vse32.v	v24,(s1)
     bb0:	02096d27          	vse32.v	v26,(s2)
     bb4:	0209ee27          	vse32.v	v28,(s3)
     bb8:	97606b57          	vmul.vx	v22,v22,zero
     bbc:	97806c57          	vmul.vx	v24,v24,zero
     bc0:	97a06d57          	vmul.vx	v26,v26,zero
     bc4:	97c06e57          	vmul.vx	v28,v28,zero
     bc8:	00130313          	addi	t1,t1,1
     bcc:	eb031ae3          	bne	t1,a6,a80 <INNER_LOOP>
     bd0:	00128293          	addi	t0,t0,1
     bd4:	eb0294e3          	bne	t0,a6,a7c <OUTER_LOOP>
     bd8:	00012403          	lw	s0,0(sp)
     bdc:	00412483          	lw	s1,4(sp)
     be0:	00812903          	lw	s2,8(sp)
     be4:	00c12983          	lw	s3,12(sp)
     be8:	01012a03          	lw	s4,16(sp)
     bec:	01412a83          	lw	s5,20(sp)
     bf0:	01812b03          	lw	s6,24(sp)
     bf4:	01c12b83          	lw	s7,28(sp)
     bf8:	02012c03          	lw	s8,32(sp)
     bfc:	02412c83          	lw	s9,36(sp)
     c00:	02812d03          	lw	s10,40(sp)
     c04:	02c10113          	addi	sp,sp,44
     c08:	00008067          	ret

00000c0c <ISR5>:
     c0c:	30047073          	csrci	mstatus,8
     c10:	e8010113          	addi	sp,sp,-384
     c14:	10112023          	sw	ra,256(sp)
     c18:	10212223          	sw	sp,260(sp)
     c1c:	10312423          	sw	gp,264(sp)
     c20:	10412623          	sw	tp,268(sp)
     c24:	10512823          	sw	t0,272(sp)
     c28:	10612a23          	sw	t1,276(sp)
     c2c:	10712c23          	sw	t2,280(sp)
     c30:	10812e23          	sw	s0,284(sp)
     c34:	12912023          	sw	s1,288(sp)
     c38:	12a12223          	sw	a0,292(sp)
     c3c:	12b12423          	sw	a1,296(sp)
     c40:	12c12623          	sw	a2,300(sp)
     c44:	12d12823          	sw	a3,304(sp)
     c48:	12e12a23          	sw	a4,308(sp)
     c4c:	12f12c23          	sw	a5,312(sp)
     c50:	13012e23          	sw	a6,316(sp)
     c54:	15112023          	sw	a7,320(sp)
     c58:	15212223          	sw	s2,324(sp)
     c5c:	15312423          	sw	s3,328(sp)
     c60:	15412623          	sw	s4,332(sp)
     c64:	15512823          	sw	s5,336(sp)
     c68:	15612a23          	sw	s6,340(sp)
     c6c:	15712c23          	sw	s7,344(sp)
     c70:	15812e23          	sw	s8,348(sp)
     c74:	17912023          	sw	s9,352(sp)
     c78:	17a12223          	sw	s10,356(sp)
     c7c:	17b12423          	sw	s11,360(sp)
     c80:	17c12623          	sw	t3,364(sp)
     c84:	17d12823          	sw	t4,368(sp)
     c88:	17e12a23          	sw	t5,372(sp)
     c8c:	17f12c23          	sw	t6,376(sp)
     c90:	341022f3          	csrr	t0,mepc
     c94:	16512e23          	sw	t0,380(sp)
     c98:	2dc000ef          	jal	ra,f74 <ISR5_uart>
     c9c:	30047073          	csrci	mstatus,8
     ca0:	17c12283          	lw	t0,380(sp)
     ca4:	34129073          	csrw	mepc,t0
     ca8:	10012083          	lw	ra,256(sp)
     cac:	10c12203          	lw	tp,268(sp)
     cb0:	11012283          	lw	t0,272(sp)
     cb4:	11412303          	lw	t1,276(sp)
     cb8:	11812383          	lw	t2,280(sp)
     cbc:	11c12403          	lw	s0,284(sp)
     cc0:	12012483          	lw	s1,288(sp)
     cc4:	12412503          	lw	a0,292(sp)
     cc8:	12812583          	lw	a1,296(sp)
     ccc:	12c12603          	lw	a2,300(sp)
     cd0:	13012683          	lw	a3,304(sp)
     cd4:	13412703          	lw	a4,308(sp)
     cd8:	13812783          	lw	a5,312(sp)
     cdc:	13c12803          	lw	a6,316(sp)
     ce0:	14012883          	lw	a7,320(sp)
     ce4:	14412903          	lw	s2,324(sp)
     ce8:	14812983          	lw	s3,328(sp)
     cec:	14c12a03          	lw	s4,332(sp)
     cf0:	15012a83          	lw	s5,336(sp)
     cf4:	15412b03          	lw	s6,340(sp)
     cf8:	15812b83          	lw	s7,344(sp)
     cfc:	15c12c03          	lw	s8,348(sp)
     d00:	16012c83          	lw	s9,352(sp)
     d04:	16412d03          	lw	s10,356(sp)
     d08:	16812d83          	lw	s11,360(sp)
     d0c:	16c12e03          	lw	t3,364(sp)
     d10:	17012e83          	lw	t4,368(sp)
     d14:	17412f03          	lw	t5,372(sp)
     d18:	17812f83          	lw	t6,376(sp)
     d1c:	18010113          	addi	sp,sp,384
     d20:	30046073          	csrsi	mstatus,8
     d24:	30200073          	mret

00000d28 <ISR6>:
     d28:	30047073          	csrci	mstatus,8
     d2c:	e8010113          	addi	sp,sp,-384
     d30:	10112023          	sw	ra,256(sp)
     d34:	10212223          	sw	sp,260(sp)
     d38:	10312423          	sw	gp,264(sp)
     d3c:	10412623          	sw	tp,268(sp)
     d40:	10512823          	sw	t0,272(sp)
     d44:	10612a23          	sw	t1,276(sp)
     d48:	10712c23          	sw	t2,280(sp)
     d4c:	10812e23          	sw	s0,284(sp)
     d50:	12912023          	sw	s1,288(sp)
     d54:	12a12223          	sw	a0,292(sp)
     d58:	12b12423          	sw	a1,296(sp)
     d5c:	12c12623          	sw	a2,300(sp)
     d60:	12d12823          	sw	a3,304(sp)
     d64:	12e12a23          	sw	a4,308(sp)
     d68:	12f12c23          	sw	a5,312(sp)
     d6c:	13012e23          	sw	a6,316(sp)
     d70:	15112023          	sw	a7,320(sp)
     d74:	15212223          	sw	s2,324(sp)
     d78:	15312423          	sw	s3,328(sp)
     d7c:	15412623          	sw	s4,332(sp)
     d80:	15512823          	sw	s5,336(sp)
     d84:	15612a23          	sw	s6,340(sp)
     d88:	15712c23          	sw	s7,344(sp)
     d8c:	15812e23          	sw	s8,348(sp)
     d90:	17912023          	sw	s9,352(sp)
     d94:	17a12223          	sw	s10,356(sp)
     d98:	17b12423          	sw	s11,360(sp)
     d9c:	17c12623          	sw	t3,364(sp)
     da0:	17d12823          	sw	t4,368(sp)
     da4:	17e12a23          	sw	t5,372(sp)
     da8:	17f12c23          	sw	t6,376(sp)
     dac:	341022f3          	csrr	t0,mepc
     db0:	16512e23          	sw	t0,380(sp)
     db4:	340000ef          	jal	ra,10f4 <ISR6_addr_exception>
     db8:	30047073          	csrci	mstatus,8
     dbc:	17c12283          	lw	t0,380(sp)
     dc0:	34129073          	csrw	mepc,t0
     dc4:	10012083          	lw	ra,256(sp)
     dc8:	10c12203          	lw	tp,268(sp)
     dcc:	11012283          	lw	t0,272(sp)
     dd0:	11412303          	lw	t1,276(sp)
     dd4:	11812383          	lw	t2,280(sp)
     dd8:	11c12403          	lw	s0,284(sp)
     ddc:	12012483          	lw	s1,288(sp)
     de0:	12412503          	lw	a0,292(sp)
     de4:	12812583          	lw	a1,296(sp)
     de8:	12c12603          	lw	a2,300(sp)
     dec:	13012683          	lw	a3,304(sp)
     df0:	13412703          	lw	a4,308(sp)
     df4:	13812783          	lw	a5,312(sp)
     df8:	13c12803          	lw	a6,316(sp)
     dfc:	14012883          	lw	a7,320(sp)
     e00:	14412903          	lw	s2,324(sp)
     e04:	14812983          	lw	s3,328(sp)
     e08:	14c12a03          	lw	s4,332(sp)
     e0c:	15012a83          	lw	s5,336(sp)
     e10:	15412b03          	lw	s6,340(sp)
     e14:	15812b83          	lw	s7,344(sp)
     e18:	15c12c03          	lw	s8,348(sp)
     e1c:	16012c83          	lw	s9,352(sp)
     e20:	16412d03          	lw	s10,356(sp)
     e24:	16812d83          	lw	s11,360(sp)
     e28:	16c12e03          	lw	t3,364(sp)
     e2c:	17012e83          	lw	t4,368(sp)
     e30:	17412f03          	lw	t5,372(sp)
     e34:	17812f83          	lw	t6,376(sp)
     e38:	18010113          	addi	sp,sp,384
     e3c:	30046073          	csrsi	mstatus,8
     e40:	30200073          	mret

00000e44 <main>:
     e44:	fd010113          	addi	sp,sp,-48
     e48:	02112623          	sw	ra,44(sp)
     e4c:	02812423          	sw	s0,40(sp)
     e50:	03010413          	addi	s0,sp,48
     e54:	fca42e23          	sw	a0,-36(s0)
     e58:	fcb42c23          	sw	a1,-40(s0)
     e5c:	00100593          	li	a1,1
     e60:	0000e7b7          	lui	a5,0xe
     e64:	10078513          	addi	a0,a5,256 # e100 <__stack_init+0xcff0>
     e68:	ac8ff0ef          	jal	ra,130 <UART_init>
     e6c:	01000793          	li	a5,16
     e70:	00100737          	lui	a4,0x100
     e74:	24070713          	addi	a4,a4,576 # 100240 <bias>
     e78:	01000693          	li	a3,16
     e7c:	00100637          	lui	a2,0x100
     e80:	00060613          	mv	a2,a2
     e84:	000205b7          	lui	a1,0x20
     e88:	00058593          	mv	a1,a1
     e8c:	00103537          	lui	a0,0x103
     e90:	38050513          	addi	a0,a0,896 # 103380 <Y>
     e94:	b3dff0ef          	jal	ra,9d0 <conv2d>
     e98:	00a00793          	li	a5,10
     e9c:	fef42423          	sw	a5,-24(s0)
     ea0:	001067b7          	lui	a5,0x106
     ea4:	4a07a023          	sw	zero,1184(a5) # 1064a0 <err_count>
     ea8:	fe042623          	sw	zero,-20(s0)
     eac:	0a00006f          	j	f4c <main+0x108>
     eb0:	001037b7          	lui	a5,0x103
     eb4:	38078713          	addi	a4,a5,896 # 103380 <Y>
     eb8:	fec42783          	lw	a5,-20(s0)
     ebc:	00279793          	slli	a5,a5,0x2
     ec0:	00f707b3          	add	a5,a4,a5
     ec4:	0007a703          	lw	a4,0(a5)
     ec8:	001007b7          	lui	a5,0x100
     ecc:	28078693          	addi	a3,a5,640 # 100280 <expected_output>
     ed0:	fec42783          	lw	a5,-20(s0)
     ed4:	00279793          	slli	a5,a5,0x2
     ed8:	00f687b3          	add	a5,a3,a5
     edc:	0007a783          	lw	a5,0(a5)
     ee0:	40f707b3          	sub	a5,a4,a5
     ee4:	fe842703          	lw	a4,-24(s0)
     ee8:	04f74263          	blt	a4,a5,f2c <main+0xe8>
     eec:	001037b7          	lui	a5,0x103
     ef0:	38078713          	addi	a4,a5,896 # 103380 <Y>
     ef4:	fec42783          	lw	a5,-20(s0)
     ef8:	00279793          	slli	a5,a5,0x2
     efc:	00f707b3          	add	a5,a4,a5
     f00:	0007a703          	lw	a4,0(a5)
     f04:	001007b7          	lui	a5,0x100
     f08:	28078693          	addi	a3,a5,640 # 100280 <expected_output>
     f0c:	fec42783          	lw	a5,-20(s0)
     f10:	00279793          	slli	a5,a5,0x2
     f14:	00f687b3          	add	a5,a3,a5
     f18:	0007a783          	lw	a5,0(a5)
     f1c:	40f70733          	sub	a4,a4,a5
     f20:	fe842783          	lw	a5,-24(s0)
     f24:	40f007b3          	neg	a5,a5
     f28:	00f75c63          	bge	a4,a5,f40 <main+0xfc>
     f2c:	001067b7          	lui	a5,0x106
     f30:	4a07a783          	lw	a5,1184(a5) # 1064a0 <err_count>
     f34:	00178713          	addi	a4,a5,1
     f38:	001067b7          	lui	a5,0x106
     f3c:	4ae7a023          	sw	a4,1184(a5) # 1064a0 <err_count>
     f40:	fec42783          	lw	a5,-20(s0)
     f44:	00178793          	addi	a5,a5,1
     f48:	fef42623          	sw	a5,-20(s0)
     f4c:	fec42703          	lw	a4,-20(s0)
     f50:	000017b7          	lui	a5,0x1
     f54:	c3f78793          	addi	a5,a5,-961 # c3f <ISR5+0x33>
     f58:	f4e7dce3          	bge	a5,a4,eb0 <main+0x6c>
     f5c:	00000793          	li	a5,0
     f60:	00078513          	mv	a0,a5
     f64:	02c12083          	lw	ra,44(sp)
     f68:	02812403          	lw	s0,40(sp)
     f6c:	03010113          	addi	sp,sp,48
     f70:	00008067          	ret

00000f74 <ISR5_uart>:
     f74:	ff010113          	addi	sp,sp,-16
     f78:	00112623          	sw	ra,12(sp)
     f7c:	00812423          	sw	s0,8(sp)
     f80:	01010413          	addi	s0,sp,16
     f84:	5f1007b7          	lui	a5,0x5f100
     f88:	6f078793          	addi	a5,a5,1776 # 5f1006f0 <__VREG_END+0x5ef806f0>
     f8c:	0007c783          	lbu	a5,0(a5)
     f90:	0ff7f713          	andi	a4,a5,255
     f94:	cae18a23          	sb	a4,-844(gp) # 204b4 <read_val>
     f98:	cb41c783          	lbu	a5,-844(gp) # 204b4 <read_val>
     f9c:	00078513          	mv	a0,a5
     fa0:	bb8ff0ef          	jal	ra,358 <UARTCharPut>
     fa4:	cac1a783          	lw	a5,-852(gp) # 204ac <recv_counter>
     fa8:	00178713          	addi	a4,a5,1
     fac:	cae1a623          	sw	a4,-852(gp) # 204ac <recv_counter>
     fb0:	cbd1c783          	lbu	a5,-835(gp) # 204bd <start_read>
     fb4:	0c079a63          	bnez	a5,1088 <ISR5_uart+0x114>
     fb8:	cbc1c783          	lbu	a5,-836(gp) # 204bc <header_count>
     fbc:	02079663          	bnez	a5,fe8 <ISR5_uart+0x74>
     fc0:	cb41c703          	lbu	a4,-844(gp) # 204b4 <read_val>
     fc4:	0aa00793          	li	a5,170
     fc8:	00f71a63          	bne	a4,a5,fdc <ISR5_uart+0x68>
     fcc:	00100713          	li	a4,1
     fd0:	cae18e23          	sb	a4,-836(gp) # 204bc <header_count>
     fd4:	ca018ea3          	sb	zero,-835(gp) # 204bd <start_read>
     fd8:	0dc0006f          	j	10b4 <ISR5_uart+0x140>
     fdc:	ca018e23          	sb	zero,-836(gp) # 204bc <header_count>
     fe0:	ca018ea3          	sb	zero,-835(gp) # 204bd <start_read>
     fe4:	0d00006f          	j	10b4 <ISR5_uart+0x140>
     fe8:	cbc1c703          	lbu	a4,-836(gp) # 204bc <header_count>
     fec:	00100793          	li	a5,1
     ff0:	02f71663          	bne	a4,a5,101c <ISR5_uart+0xa8>
     ff4:	cb41c703          	lbu	a4,-844(gp) # 204b4 <read_val>
     ff8:	05500793          	li	a5,85
     ffc:	00f71a63          	bne	a4,a5,1010 <ISR5_uart+0x9c>
    1000:	00200713          	li	a4,2
    1004:	cae18e23          	sb	a4,-836(gp) # 204bc <header_count>
    1008:	ca018ea3          	sb	zero,-835(gp) # 204bd <start_read>
    100c:	0a80006f          	j	10b4 <ISR5_uart+0x140>
    1010:	ca018e23          	sb	zero,-836(gp) # 204bc <header_count>
    1014:	ca018ea3          	sb	zero,-835(gp) # 204bd <start_read>
    1018:	09c0006f          	j	10b4 <ISR5_uart+0x140>
    101c:	cbc1c703          	lbu	a4,-836(gp) # 204bc <header_count>
    1020:	00200793          	li	a5,2
    1024:	02f71663          	bne	a4,a5,1050 <ISR5_uart+0xdc>
    1028:	cb41c703          	lbu	a4,-844(gp) # 204b4 <read_val>
    102c:	0bb00793          	li	a5,187
    1030:	00f71a63          	bne	a4,a5,1044 <ISR5_uart+0xd0>
    1034:	00300713          	li	a4,3
    1038:	cae18e23          	sb	a4,-836(gp) # 204bc <header_count>
    103c:	ca018ea3          	sb	zero,-835(gp) # 204bd <start_read>
    1040:	0740006f          	j	10b4 <ISR5_uart+0x140>
    1044:	ca018e23          	sb	zero,-836(gp) # 204bc <header_count>
    1048:	ca018ea3          	sb	zero,-835(gp) # 204bd <start_read>
    104c:	0680006f          	j	10b4 <ISR5_uart+0x140>
    1050:	cbc1c703          	lbu	a4,-836(gp) # 204bc <header_count>
    1054:	00300793          	li	a5,3
    1058:	04f71e63          	bne	a4,a5,10b4 <ISR5_uart+0x140>
    105c:	cb41c703          	lbu	a4,-844(gp) # 204b4 <read_val>
    1060:	06600793          	li	a5,102
    1064:	00f71c63          	bne	a4,a5,107c <ISR5_uart+0x108>
    1068:	00400713          	li	a4,4
    106c:	cae18e23          	sb	a4,-836(gp) # 204bc <header_count>
    1070:	00100713          	li	a4,1
    1074:	cae18ea3          	sb	a4,-835(gp) # 204bd <start_read>
    1078:	03c0006f          	j	10b4 <ISR5_uart+0x140>
    107c:	ca018e23          	sb	zero,-836(gp) # 204bc <header_count>
    1080:	ca018ea3          	sb	zero,-835(gp) # 204bd <start_read>
    1084:	0300006f          	j	10b4 <ISR5_uart+0x140>
    1088:	cb41c783          	lbu	a5,-844(gp) # 204b4 <read_val>
    108c:	00078713          	mv	a4,a5
    1090:	cb01a783          	lw	a5,-848(gp) # 204b0 <recv_num_counter>
    1094:	01071713          	slli	a4,a4,0x10
    1098:	cc418693          	addi	a3,gp,-828 # 204c4 <img_buf>
    109c:	00279793          	slli	a5,a5,0x2
    10a0:	00f687b3          	add	a5,a3,a5
    10a4:	00e7a023          	sw	a4,0(a5)
    10a8:	cb01a783          	lw	a5,-848(gp) # 204b0 <recv_num_counter>
    10ac:	00178713          	addi	a4,a5,1
    10b0:	cae1a823          	sw	a4,-848(gp) # 204b0 <recv_num_counter>
    10b4:	cb01a703          	lw	a4,-848(gp) # 204b0 <recv_num_counter>
    10b8:	10000793          	li	a5,256
    10bc:	02f71063          	bne	a4,a5,10dc <ISR5_uart+0x168>
    10c0:	00100713          	li	a4,1
    10c4:	cae1ac23          	sw	a4,-840(gp) # 204b8 <pflag>
    10c8:	ca01a823          	sw	zero,-848(gp) # 204b0 <recv_num_counter>
    10cc:	ca01a623          	sw	zero,-852(gp) # 204ac <recv_counter>
    10d0:	ca018ea3          	sb	zero,-835(gp) # 204bd <start_read>
    10d4:	ca018e23          	sb	zero,-836(gp) # 204bc <header_count>
    10d8:	0080006f          	j	10e0 <ISR5_uart+0x16c>
    10dc:	ca01ac23          	sw	zero,-840(gp) # 204b8 <pflag>
    10e0:	00000013          	nop
    10e4:	00c12083          	lw	ra,12(sp)
    10e8:	00812403          	lw	s0,8(sp)
    10ec:	01010113          	addi	sp,sp,16
    10f0:	00008067          	ret

000010f4 <ISR6_addr_exception>:
    10f4:	ff010113          	addi	sp,sp,-16
    10f8:	00812623          	sw	s0,12(sp)
    10fc:	01010413          	addi	s0,sp,16
    1100:	00000013          	nop
    1104:	00c12403          	lw	s0,12(sp)
    1108:	01010113          	addi	sp,sp,16
    110c:	00008067          	ret

00001110 <__stack_init>:
    1110:	effc                	fsw	fa5,92(a5)
    1112:	          	fence	unknown,unknown

Disassembly of section .vmem_data:

00100000 <ker>:
  100000:	0001                	nop
  100002:	0000                	unimp
  100004:	0001                	nop
  100006:	0000                	unimp
  100008:	0001                	nop
  10000a:	0000                	unimp
  10000c:	0001                	nop
  10000e:	0000                	unimp
  100010:	0001                	nop
  100012:	0000                	unimp
  100014:	0001                	nop
  100016:	0000                	unimp
  100018:	0001                	nop
  10001a:	0000                	unimp
  10001c:	0001                	nop
  10001e:	0000                	unimp
  100020:	0001                	nop
  100022:	0000                	unimp
  100024:	0001                	nop
  100026:	0000                	unimp
  100028:	0001                	nop
  10002a:	0000                	unimp
  10002c:	0001                	nop
  10002e:	0000                	unimp
  100030:	0001                	nop
  100032:	0000                	unimp
  100034:	0001                	nop
  100036:	0000                	unimp
  100038:	0001                	nop
  10003a:	0000                	unimp
  10003c:	0001                	nop
  10003e:	0000                	unimp
  100040:	0002                	c.slli64	zero
  100042:	0000                	unimp
  100044:	0002                	c.slli64	zero
  100046:	0000                	unimp
  100048:	0002                	c.slli64	zero
  10004a:	0000                	unimp
  10004c:	0002                	c.slli64	zero
  10004e:	0000                	unimp
  100050:	0002                	c.slli64	zero
  100052:	0000                	unimp
  100054:	0002                	c.slli64	zero
  100056:	0000                	unimp
  100058:	0002                	c.slli64	zero
  10005a:	0000                	unimp
  10005c:	0002                	c.slli64	zero
  10005e:	0000                	unimp
  100060:	0002                	c.slli64	zero
  100062:	0000                	unimp
  100064:	0002                	c.slli64	zero
  100066:	0000                	unimp
  100068:	0002                	c.slli64	zero
  10006a:	0000                	unimp
  10006c:	0002                	c.slli64	zero
  10006e:	0000                	unimp
  100070:	0002                	c.slli64	zero
  100072:	0000                	unimp
  100074:	0002                	c.slli64	zero
  100076:	0000                	unimp
  100078:	0002                	c.slli64	zero
  10007a:	0000                	unimp
  10007c:	0002                	c.slli64	zero
  10007e:	0000                	unimp
  100080:	00000003          	lb	zero,0(zero) # 0 <boot>
  100084:	00000003          	lb	zero,0(zero) # 0 <boot>
  100088:	00000003          	lb	zero,0(zero) # 0 <boot>
  10008c:	00000003          	lb	zero,0(zero) # 0 <boot>
  100090:	00000003          	lb	zero,0(zero) # 0 <boot>
  100094:	00000003          	lb	zero,0(zero) # 0 <boot>
  100098:	00000003          	lb	zero,0(zero) # 0 <boot>
  10009c:	00000003          	lb	zero,0(zero) # 0 <boot>
  1000a0:	00000003          	lb	zero,0(zero) # 0 <boot>
  1000a4:	00000003          	lb	zero,0(zero) # 0 <boot>
  1000a8:	00000003          	lb	zero,0(zero) # 0 <boot>
  1000ac:	00000003          	lb	zero,0(zero) # 0 <boot>
  1000b0:	00000003          	lb	zero,0(zero) # 0 <boot>
  1000b4:	00000003          	lb	zero,0(zero) # 0 <boot>
  1000b8:	00000003          	lb	zero,0(zero) # 0 <boot>
  1000bc:	00000003          	lb	zero,0(zero) # 0 <boot>
  1000c0:	0004                	0x4
  1000c2:	0000                	unimp
  1000c4:	0004                	0x4
  1000c6:	0000                	unimp
  1000c8:	0004                	0x4
  1000ca:	0000                	unimp
  1000cc:	0004                	0x4
  1000ce:	0000                	unimp
  1000d0:	0004                	0x4
  1000d2:	0000                	unimp
  1000d4:	0004                	0x4
  1000d6:	0000                	unimp
  1000d8:	0004                	0x4
  1000da:	0000                	unimp
  1000dc:	0004                	0x4
  1000de:	0000                	unimp
  1000e0:	0004                	0x4
  1000e2:	0000                	unimp
  1000e4:	0004                	0x4
  1000e6:	0000                	unimp
  1000e8:	0004                	0x4
  1000ea:	0000                	unimp
  1000ec:	0004                	0x4
  1000ee:	0000                	unimp
  1000f0:	0004                	0x4
  1000f2:	0000                	unimp
  1000f4:	0004                	0x4
  1000f6:	0000                	unimp
  1000f8:	0004                	0x4
  1000fa:	0000                	unimp
  1000fc:	0004                	0x4
  1000fe:	0000                	unimp
  100100:	0005                	c.nop	1
  100102:	0000                	unimp
  100104:	0005                	c.nop	1
  100106:	0000                	unimp
  100108:	0005                	c.nop	1
  10010a:	0000                	unimp
  10010c:	0005                	c.nop	1
  10010e:	0000                	unimp
  100110:	0005                	c.nop	1
  100112:	0000                	unimp
  100114:	0005                	c.nop	1
  100116:	0000                	unimp
  100118:	0005                	c.nop	1
  10011a:	0000                	unimp
  10011c:	0005                	c.nop	1
  10011e:	0000                	unimp
  100120:	0005                	c.nop	1
  100122:	0000                	unimp
  100124:	0005                	c.nop	1
  100126:	0000                	unimp
  100128:	0005                	c.nop	1
  10012a:	0000                	unimp
  10012c:	0005                	c.nop	1
  10012e:	0000                	unimp
  100130:	0005                	c.nop	1
  100132:	0000                	unimp
  100134:	0005                	c.nop	1
  100136:	0000                	unimp
  100138:	0005                	c.nop	1
  10013a:	0000                	unimp
  10013c:	0005                	c.nop	1
  10013e:	0000                	unimp
  100140:	0006                	c.slli	zero,0x1
  100142:	0000                	unimp
  100144:	0006                	c.slli	zero,0x1
  100146:	0000                	unimp
  100148:	0006                	c.slli	zero,0x1
  10014a:	0000                	unimp
  10014c:	0006                	c.slli	zero,0x1
  10014e:	0000                	unimp
  100150:	0006                	c.slli	zero,0x1
  100152:	0000                	unimp
  100154:	0006                	c.slli	zero,0x1
  100156:	0000                	unimp
  100158:	0006                	c.slli	zero,0x1
  10015a:	0000                	unimp
  10015c:	0006                	c.slli	zero,0x1
  10015e:	0000                	unimp
  100160:	0006                	c.slli	zero,0x1
  100162:	0000                	unimp
  100164:	0006                	c.slli	zero,0x1
  100166:	0000                	unimp
  100168:	0006                	c.slli	zero,0x1
  10016a:	0000                	unimp
  10016c:	0006                	c.slli	zero,0x1
  10016e:	0000                	unimp
  100170:	0006                	c.slli	zero,0x1
  100172:	0000                	unimp
  100174:	0006                	c.slli	zero,0x1
  100176:	0000                	unimp
  100178:	0006                	c.slli	zero,0x1
  10017a:	0000                	unimp
  10017c:	0006                	c.slli	zero,0x1
  10017e:	0000                	unimp
  100180:	00000007          	vle8.v	v0,(zero),v0.t
  100184:	00000007          	vle8.v	v0,(zero),v0.t
  100188:	00000007          	vle8.v	v0,(zero),v0.t
  10018c:	00000007          	vle8.v	v0,(zero),v0.t
  100190:	00000007          	vle8.v	v0,(zero),v0.t
  100194:	00000007          	vle8.v	v0,(zero),v0.t
  100198:	00000007          	vle8.v	v0,(zero),v0.t
  10019c:	00000007          	vle8.v	v0,(zero),v0.t
  1001a0:	00000007          	vle8.v	v0,(zero),v0.t
  1001a4:	00000007          	vle8.v	v0,(zero),v0.t
  1001a8:	00000007          	vle8.v	v0,(zero),v0.t
  1001ac:	00000007          	vle8.v	v0,(zero),v0.t
  1001b0:	00000007          	vle8.v	v0,(zero),v0.t
  1001b4:	00000007          	vle8.v	v0,(zero),v0.t
  1001b8:	00000007          	vle8.v	v0,(zero),v0.t
  1001bc:	00000007          	vle8.v	v0,(zero),v0.t
  1001c0:	0008                	0x8
  1001c2:	0000                	unimp
  1001c4:	0008                	0x8
  1001c6:	0000                	unimp
  1001c8:	0008                	0x8
  1001ca:	0000                	unimp
  1001cc:	0008                	0x8
  1001ce:	0000                	unimp
  1001d0:	0008                	0x8
  1001d2:	0000                	unimp
  1001d4:	0008                	0x8
  1001d6:	0000                	unimp
  1001d8:	0008                	0x8
  1001da:	0000                	unimp
  1001dc:	0008                	0x8
  1001de:	0000                	unimp
  1001e0:	0008                	0x8
  1001e2:	0000                	unimp
  1001e4:	0008                	0x8
  1001e6:	0000                	unimp
  1001e8:	0008                	0x8
  1001ea:	0000                	unimp
  1001ec:	0008                	0x8
  1001ee:	0000                	unimp
  1001f0:	0008                	0x8
  1001f2:	0000                	unimp
  1001f4:	0008                	0x8
  1001f6:	0000                	unimp
  1001f8:	0008                	0x8
  1001fa:	0000                	unimp
  1001fc:	0008                	0x8
  1001fe:	0000                	unimp
  100200:	0009                	c.nop	2
  100202:	0000                	unimp
  100204:	0009                	c.nop	2
  100206:	0000                	unimp
  100208:	0009                	c.nop	2
  10020a:	0000                	unimp
  10020c:	0009                	c.nop	2
  10020e:	0000                	unimp
  100210:	0009                	c.nop	2
  100212:	0000                	unimp
  100214:	0009                	c.nop	2
  100216:	0000                	unimp
  100218:	0009                	c.nop	2
  10021a:	0000                	unimp
  10021c:	0009                	c.nop	2
  10021e:	0000                	unimp
  100220:	0009                	c.nop	2
  100222:	0000                	unimp
  100224:	0009                	c.nop	2
  100226:	0000                	unimp
  100228:	0009                	c.nop	2
  10022a:	0000                	unimp
  10022c:	0009                	c.nop	2
  10022e:	0000                	unimp
  100230:	0009                	c.nop	2
  100232:	0000                	unimp
  100234:	0009                	c.nop	2
  100236:	0000                	unimp
  100238:	0009                	c.nop	2
  10023a:	0000                	unimp
  10023c:	0009                	c.nop	2
	...

00100240 <bias>:
	...

00100280 <expected_output>:
  100280:	00000423          	sb	zero,8(zero) # 8 <boot+0x8>
  100284:	00000423          	sb	zero,8(zero) # 8 <boot+0x8>
  100288:	00000423          	sb	zero,8(zero) # 8 <boot+0x8>
  10028c:	00000423          	sb	zero,8(zero) # 8 <boot+0x8>
  100290:	00000423          	sb	zero,8(zero) # 8 <boot+0x8>
  100294:	00000423          	sb	zero,8(zero) # 8 <boot+0x8>
  100298:	00000423          	sb	zero,8(zero) # 8 <boot+0x8>
  10029c:	00000423          	sb	zero,8(zero) # 8 <boot+0x8>
  1002a0:	00000423          	sb	zero,8(zero) # 8 <boot+0x8>
  1002a4:	00000423          	sb	zero,8(zero) # 8 <boot+0x8>
  1002a8:	00000423          	sb	zero,8(zero) # 8 <boot+0x8>
  1002ac:	00000423          	sb	zero,8(zero) # 8 <boot+0x8>
  1002b0:	00000423          	sb	zero,8(zero) # 8 <boot+0x8>
  1002b4:	00000423          	sb	zero,8(zero) # 8 <boot+0x8>
  1002b8:	00000423          	sb	zero,8(zero) # 8 <boot+0x8>
  1002bc:	00000423          	sb	zero,8(zero) # 8 <boot+0x8>
  1002c0:	0450                	addi	a2,sp,516
  1002c2:	0000                	unimp
  1002c4:	0450                	addi	a2,sp,516
  1002c6:	0000                	unimp
  1002c8:	0450                	addi	a2,sp,516
  1002ca:	0000                	unimp
  1002cc:	0450                	addi	a2,sp,516
  1002ce:	0000                	unimp
  1002d0:	0450                	addi	a2,sp,516
  1002d2:	0000                	unimp
  1002d4:	0450                	addi	a2,sp,516
  1002d6:	0000                	unimp
  1002d8:	0450                	addi	a2,sp,516
  1002da:	0000                	unimp
  1002dc:	0450                	addi	a2,sp,516
  1002de:	0000                	unimp
  1002e0:	0450                	addi	a2,sp,516
  1002e2:	0000                	unimp
  1002e4:	0450                	addi	a2,sp,516
  1002e6:	0000                	unimp
  1002e8:	0450                	addi	a2,sp,516
  1002ea:	0000                	unimp
  1002ec:	0450                	addi	a2,sp,516
  1002ee:	0000                	unimp
  1002f0:	0450                	addi	a2,sp,516
  1002f2:	0000                	unimp
  1002f4:	0450                	addi	a2,sp,516
  1002f6:	0000                	unimp
  1002f8:	0450                	addi	a2,sp,516
  1002fa:	0000                	unimp
  1002fc:	0450                	addi	a2,sp,516
  1002fe:	0000                	unimp
  100300:	047d                	addi	s0,s0,31
  100302:	0000                	unimp
  100304:	047d                	addi	s0,s0,31
  100306:	0000                	unimp
  100308:	047d                	addi	s0,s0,31
  10030a:	0000                	unimp
  10030c:	047d                	addi	s0,s0,31
  10030e:	0000                	unimp
  100310:	047d                	addi	s0,s0,31
  100312:	0000                	unimp
  100314:	047d                	addi	s0,s0,31
  100316:	0000                	unimp
  100318:	047d                	addi	s0,s0,31
  10031a:	0000                	unimp
  10031c:	047d                	addi	s0,s0,31
  10031e:	0000                	unimp
  100320:	047d                	addi	s0,s0,31
  100322:	0000                	unimp
  100324:	047d                	addi	s0,s0,31
  100326:	0000                	unimp
  100328:	047d                	addi	s0,s0,31
  10032a:	0000                	unimp
  10032c:	047d                	addi	s0,s0,31
  10032e:	0000                	unimp
  100330:	047d                	addi	s0,s0,31
  100332:	0000                	unimp
  100334:	047d                	addi	s0,s0,31
  100336:	0000                	unimp
  100338:	047d                	addi	s0,s0,31
  10033a:	0000                	unimp
  10033c:	047d                	addi	s0,s0,31
  10033e:	0000                	unimp
  100340:	04aa                	slli	s1,s1,0xa
  100342:	0000                	unimp
  100344:	04aa                	slli	s1,s1,0xa
  100346:	0000                	unimp
  100348:	04aa                	slli	s1,s1,0xa
  10034a:	0000                	unimp
  10034c:	04aa                	slli	s1,s1,0xa
  10034e:	0000                	unimp
  100350:	04aa                	slli	s1,s1,0xa
  100352:	0000                	unimp
  100354:	04aa                	slli	s1,s1,0xa
  100356:	0000                	unimp
  100358:	04aa                	slli	s1,s1,0xa
  10035a:	0000                	unimp
  10035c:	04aa                	slli	s1,s1,0xa
  10035e:	0000                	unimp
  100360:	04aa                	slli	s1,s1,0xa
  100362:	0000                	unimp
  100364:	04aa                	slli	s1,s1,0xa
  100366:	0000                	unimp
  100368:	04aa                	slli	s1,s1,0xa
  10036a:	0000                	unimp
  10036c:	04aa                	slli	s1,s1,0xa
  10036e:	0000                	unimp
  100370:	04aa                	slli	s1,s1,0xa
  100372:	0000                	unimp
  100374:	04aa                	slli	s1,s1,0xa
  100376:	0000                	unimp
  100378:	04aa                	slli	s1,s1,0xa
  10037a:	0000                	unimp
  10037c:	04aa                	slli	s1,s1,0xa
  10037e:	0000                	unimp
  100380:	000004d7          	vadd.vv	v9,v0,v0,v0.t
  100384:	000004d7          	vadd.vv	v9,v0,v0,v0.t
  100388:	000004d7          	vadd.vv	v9,v0,v0,v0.t
  10038c:	000004d7          	vadd.vv	v9,v0,v0,v0.t
  100390:	000004d7          	vadd.vv	v9,v0,v0,v0.t
  100394:	000004d7          	vadd.vv	v9,v0,v0,v0.t
  100398:	000004d7          	vadd.vv	v9,v0,v0,v0.t
  10039c:	000004d7          	vadd.vv	v9,v0,v0,v0.t
  1003a0:	000004d7          	vadd.vv	v9,v0,v0,v0.t
  1003a4:	000004d7          	vadd.vv	v9,v0,v0,v0.t
  1003a8:	000004d7          	vadd.vv	v9,v0,v0,v0.t
  1003ac:	000004d7          	vadd.vv	v9,v0,v0,v0.t
  1003b0:	000004d7          	vadd.vv	v9,v0,v0,v0.t
  1003b4:	000004d7          	vadd.vv	v9,v0,v0,v0.t
  1003b8:	000004d7          	vadd.vv	v9,v0,v0,v0.t
  1003bc:	000004d7          	vadd.vv	v9,v0,v0,v0.t
  1003c0:	0504                	addi	s1,sp,640
  1003c2:	0000                	unimp
  1003c4:	0504                	addi	s1,sp,640
  1003c6:	0000                	unimp
  1003c8:	0504                	addi	s1,sp,640
  1003ca:	0000                	unimp
  1003cc:	0504                	addi	s1,sp,640
  1003ce:	0000                	unimp
  1003d0:	0504                	addi	s1,sp,640
  1003d2:	0000                	unimp
  1003d4:	0504                	addi	s1,sp,640
  1003d6:	0000                	unimp
  1003d8:	0504                	addi	s1,sp,640
  1003da:	0000                	unimp
  1003dc:	0504                	addi	s1,sp,640
  1003de:	0000                	unimp
  1003e0:	0504                	addi	s1,sp,640
  1003e2:	0000                	unimp
  1003e4:	0504                	addi	s1,sp,640
  1003e6:	0000                	unimp
  1003e8:	0504                	addi	s1,sp,640
  1003ea:	0000                	unimp
  1003ec:	0504                	addi	s1,sp,640
  1003ee:	0000                	unimp
  1003f0:	0504                	addi	s1,sp,640
  1003f2:	0000                	unimp
  1003f4:	0504                	addi	s1,sp,640
  1003f6:	0000                	unimp
  1003f8:	0504                	addi	s1,sp,640
  1003fa:	0000                	unimp
  1003fc:	0504                	addi	s1,sp,640
  1003fe:	0000                	unimp
  100400:	0531                	addi	a0,a0,12
  100402:	0000                	unimp
  100404:	0531                	addi	a0,a0,12
  100406:	0000                	unimp
  100408:	0531                	addi	a0,a0,12
  10040a:	0000                	unimp
  10040c:	0531                	addi	a0,a0,12
  10040e:	0000                	unimp
  100410:	0531                	addi	a0,a0,12
  100412:	0000                	unimp
  100414:	0531                	addi	a0,a0,12
  100416:	0000                	unimp
  100418:	0531                	addi	a0,a0,12
  10041a:	0000                	unimp
  10041c:	0531                	addi	a0,a0,12
  10041e:	0000                	unimp
  100420:	0531                	addi	a0,a0,12
  100422:	0000                	unimp
  100424:	0531                	addi	a0,a0,12
  100426:	0000                	unimp
  100428:	0531                	addi	a0,a0,12
  10042a:	0000                	unimp
  10042c:	0531                	addi	a0,a0,12
  10042e:	0000                	unimp
  100430:	0531                	addi	a0,a0,12
  100432:	0000                	unimp
  100434:	0531                	addi	a0,a0,12
  100436:	0000                	unimp
  100438:	0531                	addi	a0,a0,12
  10043a:	0000                	unimp
  10043c:	0531                	addi	a0,a0,12
  10043e:	0000                	unimp
  100440:	055e                	slli	a0,a0,0x17
  100442:	0000                	unimp
  100444:	055e                	slli	a0,a0,0x17
  100446:	0000                	unimp
  100448:	055e                	slli	a0,a0,0x17
  10044a:	0000                	unimp
  10044c:	055e                	slli	a0,a0,0x17
  10044e:	0000                	unimp
  100450:	055e                	slli	a0,a0,0x17
  100452:	0000                	unimp
  100454:	055e                	slli	a0,a0,0x17
  100456:	0000                	unimp
  100458:	055e                	slli	a0,a0,0x17
  10045a:	0000                	unimp
  10045c:	055e                	slli	a0,a0,0x17
  10045e:	0000                	unimp
  100460:	055e                	slli	a0,a0,0x17
  100462:	0000                	unimp
  100464:	055e                	slli	a0,a0,0x17
  100466:	0000                	unimp
  100468:	055e                	slli	a0,a0,0x17
  10046a:	0000                	unimp
  10046c:	055e                	slli	a0,a0,0x17
  10046e:	0000                	unimp
  100470:	055e                	slli	a0,a0,0x17
  100472:	0000                	unimp
  100474:	055e                	slli	a0,a0,0x17
  100476:	0000                	unimp
  100478:	055e                	slli	a0,a0,0x17
  10047a:	0000                	unimp
  10047c:	055e                	slli	a0,a0,0x17
  10047e:	0000                	unimp
  100480:	0000058b          	0x58b
  100484:	0000058b          	0x58b
  100488:	0000058b          	0x58b
  10048c:	0000058b          	0x58b
  100490:	0000058b          	0x58b
  100494:	0000058b          	0x58b
  100498:	0000058b          	0x58b
  10049c:	0000058b          	0x58b
  1004a0:	0000058b          	0x58b
  1004a4:	0000058b          	0x58b
  1004a8:	0000058b          	0x58b
  1004ac:	0000058b          	0x58b
  1004b0:	0000058b          	0x58b
  1004b4:	0000058b          	0x58b
  1004b8:	0000058b          	0x58b
  1004bc:	0000058b          	0x58b
  1004c0:	05b8                	addi	a4,sp,712
  1004c2:	0000                	unimp
  1004c4:	05b8                	addi	a4,sp,712
  1004c6:	0000                	unimp
  1004c8:	05b8                	addi	a4,sp,712
  1004ca:	0000                	unimp
  1004cc:	05b8                	addi	a4,sp,712
  1004ce:	0000                	unimp
  1004d0:	05b8                	addi	a4,sp,712
  1004d2:	0000                	unimp
  1004d4:	05b8                	addi	a4,sp,712
  1004d6:	0000                	unimp
  1004d8:	05b8                	addi	a4,sp,712
  1004da:	0000                	unimp
  1004dc:	05b8                	addi	a4,sp,712
  1004de:	0000                	unimp
  1004e0:	05b8                	addi	a4,sp,712
  1004e2:	0000                	unimp
  1004e4:	05b8                	addi	a4,sp,712
  1004e6:	0000                	unimp
  1004e8:	05b8                	addi	a4,sp,712
  1004ea:	0000                	unimp
  1004ec:	05b8                	addi	a4,sp,712
  1004ee:	0000                	unimp
  1004f0:	05b8                	addi	a4,sp,712
  1004f2:	0000                	unimp
  1004f4:	05b8                	addi	a4,sp,712
  1004f6:	0000                	unimp
  1004f8:	05b8                	addi	a4,sp,712
  1004fa:	0000                	unimp
  1004fc:	05b8                	addi	a4,sp,712
  1004fe:	0000                	unimp
  100500:	05e5                	addi	a1,a1,25
  100502:	0000                	unimp
  100504:	05e5                	addi	a1,a1,25
  100506:	0000                	unimp
  100508:	05e5                	addi	a1,a1,25
  10050a:	0000                	unimp
  10050c:	05e5                	addi	a1,a1,25
  10050e:	0000                	unimp
  100510:	05e5                	addi	a1,a1,25
  100512:	0000                	unimp
  100514:	05e5                	addi	a1,a1,25
  100516:	0000                	unimp
  100518:	05e5                	addi	a1,a1,25
  10051a:	0000                	unimp
  10051c:	05e5                	addi	a1,a1,25
  10051e:	0000                	unimp
  100520:	05e5                	addi	a1,a1,25
  100522:	0000                	unimp
  100524:	05e5                	addi	a1,a1,25
  100526:	0000                	unimp
  100528:	05e5                	addi	a1,a1,25
  10052a:	0000                	unimp
  10052c:	05e5                	addi	a1,a1,25
  10052e:	0000                	unimp
  100530:	05e5                	addi	a1,a1,25
  100532:	0000                	unimp
  100534:	05e5                	addi	a1,a1,25
  100536:	0000                	unimp
  100538:	05e5                	addi	a1,a1,25
  10053a:	0000                	unimp
  10053c:	05e5                	addi	a1,a1,25
  10053e:	0000                	unimp
  100540:	0612                	slli	a2,a2,0x4
  100542:	0000                	unimp
  100544:	0612                	slli	a2,a2,0x4
  100546:	0000                	unimp
  100548:	0612                	slli	a2,a2,0x4
  10054a:	0000                	unimp
  10054c:	0612                	slli	a2,a2,0x4
  10054e:	0000                	unimp
  100550:	0612                	slli	a2,a2,0x4
  100552:	0000                	unimp
  100554:	0612                	slli	a2,a2,0x4
  100556:	0000                	unimp
  100558:	0612                	slli	a2,a2,0x4
  10055a:	0000                	unimp
  10055c:	0612                	slli	a2,a2,0x4
  10055e:	0000                	unimp
  100560:	0612                	slli	a2,a2,0x4
  100562:	0000                	unimp
  100564:	0612                	slli	a2,a2,0x4
  100566:	0000                	unimp
  100568:	0612                	slli	a2,a2,0x4
  10056a:	0000                	unimp
  10056c:	0612                	slli	a2,a2,0x4
  10056e:	0000                	unimp
  100570:	0612                	slli	a2,a2,0x4
  100572:	0000                	unimp
  100574:	0612                	slli	a2,a2,0x4
  100576:	0000                	unimp
  100578:	0612                	slli	a2,a2,0x4
  10057a:	0000                	unimp
  10057c:	0612                	slli	a2,a2,0x4
  10057e:	0000                	unimp
  100580:	0000063f 0000063f 	0x63f0000063f
  100588:	0000063f 0000063f 	0x63f0000063f
  100590:	0000063f 0000063f 	0x63f0000063f
  100598:	0000063f 0000063f 	0x63f0000063f
  1005a0:	0000063f 0000063f 	0x63f0000063f
  1005a8:	0000063f 0000063f 	0x63f0000063f
  1005b0:	0000063f 0000063f 	0x63f0000063f
  1005b8:	0000063f 0000063f 	0x63f0000063f
  1005c0:	066c                	addi	a1,sp,780
  1005c2:	0000                	unimp
  1005c4:	066c                	addi	a1,sp,780
  1005c6:	0000                	unimp
  1005c8:	066c                	addi	a1,sp,780
  1005ca:	0000                	unimp
  1005cc:	066c                	addi	a1,sp,780
  1005ce:	0000                	unimp
  1005d0:	066c                	addi	a1,sp,780
  1005d2:	0000                	unimp
  1005d4:	066c                	addi	a1,sp,780
  1005d6:	0000                	unimp
  1005d8:	066c                	addi	a1,sp,780
  1005da:	0000                	unimp
  1005dc:	066c                	addi	a1,sp,780
  1005de:	0000                	unimp
  1005e0:	066c                	addi	a1,sp,780
  1005e2:	0000                	unimp
  1005e4:	066c                	addi	a1,sp,780
  1005e6:	0000                	unimp
  1005e8:	066c                	addi	a1,sp,780
  1005ea:	0000                	unimp
  1005ec:	066c                	addi	a1,sp,780
  1005ee:	0000                	unimp
  1005f0:	066c                	addi	a1,sp,780
  1005f2:	0000                	unimp
  1005f4:	066c                	addi	a1,sp,780
  1005f6:	0000                	unimp
  1005f8:	066c                	addi	a1,sp,780
  1005fa:	0000                	unimp
  1005fc:	066c                	addi	a1,sp,780
  1005fe:	0000                	unimp
  100600:	000006f3          	0x6f3
  100604:	000006f3          	0x6f3
  100608:	000006f3          	0x6f3
  10060c:	000006f3          	0x6f3
  100610:	000006f3          	0x6f3
  100614:	000006f3          	0x6f3
  100618:	000006f3          	0x6f3
  10061c:	000006f3          	0x6f3
  100620:	000006f3          	0x6f3
  100624:	000006f3          	0x6f3
  100628:	000006f3          	0x6f3
  10062c:	000006f3          	0x6f3
  100630:	000006f3          	0x6f3
  100634:	000006f3          	0x6f3
  100638:	000006f3          	0x6f3
  10063c:	000006f3          	0x6f3
  100640:	0720                	addi	s0,sp,904
  100642:	0000                	unimp
  100644:	0720                	addi	s0,sp,904
  100646:	0000                	unimp
  100648:	0720                	addi	s0,sp,904
  10064a:	0000                	unimp
  10064c:	0720                	addi	s0,sp,904
  10064e:	0000                	unimp
  100650:	0720                	addi	s0,sp,904
  100652:	0000                	unimp
  100654:	0720                	addi	s0,sp,904
  100656:	0000                	unimp
  100658:	0720                	addi	s0,sp,904
  10065a:	0000                	unimp
  10065c:	0720                	addi	s0,sp,904
  10065e:	0000                	unimp
  100660:	0720                	addi	s0,sp,904
  100662:	0000                	unimp
  100664:	0720                	addi	s0,sp,904
  100666:	0000                	unimp
  100668:	0720                	addi	s0,sp,904
  10066a:	0000                	unimp
  10066c:	0720                	addi	s0,sp,904
  10066e:	0000                	unimp
  100670:	0720                	addi	s0,sp,904
  100672:	0000                	unimp
  100674:	0720                	addi	s0,sp,904
  100676:	0000                	unimp
  100678:	0720                	addi	s0,sp,904
  10067a:	0000                	unimp
  10067c:	0720                	addi	s0,sp,904
  10067e:	0000                	unimp
  100680:	074d                	addi	a4,a4,19
  100682:	0000                	unimp
  100684:	074d                	addi	a4,a4,19
  100686:	0000                	unimp
  100688:	074d                	addi	a4,a4,19
  10068a:	0000                	unimp
  10068c:	074d                	addi	a4,a4,19
  10068e:	0000                	unimp
  100690:	074d                	addi	a4,a4,19
  100692:	0000                	unimp
  100694:	074d                	addi	a4,a4,19
  100696:	0000                	unimp
  100698:	074d                	addi	a4,a4,19
  10069a:	0000                	unimp
  10069c:	074d                	addi	a4,a4,19
  10069e:	0000                	unimp
  1006a0:	074d                	addi	a4,a4,19
  1006a2:	0000                	unimp
  1006a4:	074d                	addi	a4,a4,19
  1006a6:	0000                	unimp
  1006a8:	074d                	addi	a4,a4,19
  1006aa:	0000                	unimp
  1006ac:	074d                	addi	a4,a4,19
  1006ae:	0000                	unimp
  1006b0:	074d                	addi	a4,a4,19
  1006b2:	0000                	unimp
  1006b4:	074d                	addi	a4,a4,19
  1006b6:	0000                	unimp
  1006b8:	074d                	addi	a4,a4,19
  1006ba:	0000                	unimp
  1006bc:	074d                	addi	a4,a4,19
  1006be:	0000                	unimp
  1006c0:	077a                	slli	a4,a4,0x1e
  1006c2:	0000                	unimp
  1006c4:	077a                	slli	a4,a4,0x1e
  1006c6:	0000                	unimp
  1006c8:	077a                	slli	a4,a4,0x1e
  1006ca:	0000                	unimp
  1006cc:	077a                	slli	a4,a4,0x1e
  1006ce:	0000                	unimp
  1006d0:	077a                	slli	a4,a4,0x1e
  1006d2:	0000                	unimp
  1006d4:	077a                	slli	a4,a4,0x1e
  1006d6:	0000                	unimp
  1006d8:	077a                	slli	a4,a4,0x1e
  1006da:	0000                	unimp
  1006dc:	077a                	slli	a4,a4,0x1e
  1006de:	0000                	unimp
  1006e0:	077a                	slli	a4,a4,0x1e
  1006e2:	0000                	unimp
  1006e4:	077a                	slli	a4,a4,0x1e
  1006e6:	0000                	unimp
  1006e8:	077a                	slli	a4,a4,0x1e
  1006ea:	0000                	unimp
  1006ec:	077a                	slli	a4,a4,0x1e
  1006ee:	0000                	unimp
  1006f0:	077a                	slli	a4,a4,0x1e
  1006f2:	0000                	unimp
  1006f4:	077a                	slli	a4,a4,0x1e
  1006f6:	0000                	unimp
  1006f8:	077a                	slli	a4,a4,0x1e
  1006fa:	0000                	unimp
  1006fc:	077a                	slli	a4,a4,0x1e
  1006fe:	0000                	unimp
  100700:	000007a7          	vse8.v	v15,(zero),v0.t
  100704:	000007a7          	vse8.v	v15,(zero),v0.t
  100708:	000007a7          	vse8.v	v15,(zero),v0.t
  10070c:	000007a7          	vse8.v	v15,(zero),v0.t
  100710:	000007a7          	vse8.v	v15,(zero),v0.t
  100714:	000007a7          	vse8.v	v15,(zero),v0.t
  100718:	000007a7          	vse8.v	v15,(zero),v0.t
  10071c:	000007a7          	vse8.v	v15,(zero),v0.t
  100720:	000007a7          	vse8.v	v15,(zero),v0.t
  100724:	000007a7          	vse8.v	v15,(zero),v0.t
  100728:	000007a7          	vse8.v	v15,(zero),v0.t
  10072c:	000007a7          	vse8.v	v15,(zero),v0.t
  100730:	000007a7          	vse8.v	v15,(zero),v0.t
  100734:	000007a7          	vse8.v	v15,(zero),v0.t
  100738:	000007a7          	vse8.v	v15,(zero),v0.t
  10073c:	000007a7          	vse8.v	v15,(zero),v0.t
  100740:	07d4                	addi	a3,sp,964
  100742:	0000                	unimp
  100744:	07d4                	addi	a3,sp,964
  100746:	0000                	unimp
  100748:	07d4                	addi	a3,sp,964
  10074a:	0000                	unimp
  10074c:	07d4                	addi	a3,sp,964
  10074e:	0000                	unimp
  100750:	07d4                	addi	a3,sp,964
  100752:	0000                	unimp
  100754:	07d4                	addi	a3,sp,964
  100756:	0000                	unimp
  100758:	07d4                	addi	a3,sp,964
  10075a:	0000                	unimp
  10075c:	07d4                	addi	a3,sp,964
  10075e:	0000                	unimp
  100760:	07d4                	addi	a3,sp,964
  100762:	0000                	unimp
  100764:	07d4                	addi	a3,sp,964
  100766:	0000                	unimp
  100768:	07d4                	addi	a3,sp,964
  10076a:	0000                	unimp
  10076c:	07d4                	addi	a3,sp,964
  10076e:	0000                	unimp
  100770:	07d4                	addi	a3,sp,964
  100772:	0000                	unimp
  100774:	07d4                	addi	a3,sp,964
  100776:	0000                	unimp
  100778:	07d4                	addi	a3,sp,964
  10077a:	0000                	unimp
  10077c:	07d4                	addi	a3,sp,964
  10077e:	0000                	unimp
  100780:	0801                	addi	a6,a6,0
  100782:	0000                	unimp
  100784:	0801                	addi	a6,a6,0
  100786:	0000                	unimp
  100788:	0801                	addi	a6,a6,0
  10078a:	0000                	unimp
  10078c:	0801                	addi	a6,a6,0
  10078e:	0000                	unimp
  100790:	0801                	addi	a6,a6,0
  100792:	0000                	unimp
  100794:	0801                	addi	a6,a6,0
  100796:	0000                	unimp
  100798:	0801                	addi	a6,a6,0
  10079a:	0000                	unimp
  10079c:	0801                	addi	a6,a6,0
  10079e:	0000                	unimp
  1007a0:	0801                	addi	a6,a6,0
  1007a2:	0000                	unimp
  1007a4:	0801                	addi	a6,a6,0
  1007a6:	0000                	unimp
  1007a8:	0801                	addi	a6,a6,0
  1007aa:	0000                	unimp
  1007ac:	0801                	addi	a6,a6,0
  1007ae:	0000                	unimp
  1007b0:	0801                	addi	a6,a6,0
  1007b2:	0000                	unimp
  1007b4:	0801                	addi	a6,a6,0
  1007b6:	0000                	unimp
  1007b8:	0801                	addi	a6,a6,0
  1007ba:	0000                	unimp
  1007bc:	0801                	addi	a6,a6,0
  1007be:	0000                	unimp
  1007c0:	082e                	slli	a6,a6,0xb
  1007c2:	0000                	unimp
  1007c4:	082e                	slli	a6,a6,0xb
  1007c6:	0000                	unimp
  1007c8:	082e                	slli	a6,a6,0xb
  1007ca:	0000                	unimp
  1007cc:	082e                	slli	a6,a6,0xb
  1007ce:	0000                	unimp
  1007d0:	082e                	slli	a6,a6,0xb
  1007d2:	0000                	unimp
  1007d4:	082e                	slli	a6,a6,0xb
  1007d6:	0000                	unimp
  1007d8:	082e                	slli	a6,a6,0xb
  1007da:	0000                	unimp
  1007dc:	082e                	slli	a6,a6,0xb
  1007de:	0000                	unimp
  1007e0:	082e                	slli	a6,a6,0xb
  1007e2:	0000                	unimp
  1007e4:	082e                	slli	a6,a6,0xb
  1007e6:	0000                	unimp
  1007e8:	082e                	slli	a6,a6,0xb
  1007ea:	0000                	unimp
  1007ec:	082e                	slli	a6,a6,0xb
  1007ee:	0000                	unimp
  1007f0:	082e                	slli	a6,a6,0xb
  1007f2:	0000                	unimp
  1007f4:	082e                	slli	a6,a6,0xb
  1007f6:	0000                	unimp
  1007f8:	082e                	slli	a6,a6,0xb
  1007fa:	0000                	unimp
  1007fc:	082e                	slli	a6,a6,0xb
  1007fe:	0000                	unimp
  100800:	0000085b          	0x85b
  100804:	0000085b          	0x85b
  100808:	0000085b          	0x85b
  10080c:	0000085b          	0x85b
  100810:	0000085b          	0x85b
  100814:	0000085b          	0x85b
  100818:	0000085b          	0x85b
  10081c:	0000085b          	0x85b
  100820:	0000085b          	0x85b
  100824:	0000085b          	0x85b
  100828:	0000085b          	0x85b
  10082c:	0000085b          	0x85b
  100830:	0000085b          	0x85b
  100834:	0000085b          	0x85b
  100838:	0000085b          	0x85b
  10083c:	0000085b          	0x85b
  100840:	0888                	addi	a0,sp,80
  100842:	0000                	unimp
  100844:	0888                	addi	a0,sp,80
  100846:	0000                	unimp
  100848:	0888                	addi	a0,sp,80
  10084a:	0000                	unimp
  10084c:	0888                	addi	a0,sp,80
  10084e:	0000                	unimp
  100850:	0888                	addi	a0,sp,80
  100852:	0000                	unimp
  100854:	0888                	addi	a0,sp,80
  100856:	0000                	unimp
  100858:	0888                	addi	a0,sp,80
  10085a:	0000                	unimp
  10085c:	0888                	addi	a0,sp,80
  10085e:	0000                	unimp
  100860:	0888                	addi	a0,sp,80
  100862:	0000                	unimp
  100864:	0888                	addi	a0,sp,80
  100866:	0000                	unimp
  100868:	0888                	addi	a0,sp,80
  10086a:	0000                	unimp
  10086c:	0888                	addi	a0,sp,80
  10086e:	0000                	unimp
  100870:	0888                	addi	a0,sp,80
  100872:	0000                	unimp
  100874:	0888                	addi	a0,sp,80
  100876:	0000                	unimp
  100878:	0888                	addi	a0,sp,80
  10087a:	0000                	unimp
  10087c:	0888                	addi	a0,sp,80
  10087e:	0000                	unimp
  100880:	08b5                	addi	a7,a7,13
  100882:	0000                	unimp
  100884:	08b5                	addi	a7,a7,13
  100886:	0000                	unimp
  100888:	08b5                	addi	a7,a7,13
  10088a:	0000                	unimp
  10088c:	08b5                	addi	a7,a7,13
  10088e:	0000                	unimp
  100890:	08b5                	addi	a7,a7,13
  100892:	0000                	unimp
  100894:	08b5                	addi	a7,a7,13
  100896:	0000                	unimp
  100898:	08b5                	addi	a7,a7,13
  10089a:	0000                	unimp
  10089c:	08b5                	addi	a7,a7,13
  10089e:	0000                	unimp
  1008a0:	08b5                	addi	a7,a7,13
  1008a2:	0000                	unimp
  1008a4:	08b5                	addi	a7,a7,13
  1008a6:	0000                	unimp
  1008a8:	08b5                	addi	a7,a7,13
  1008aa:	0000                	unimp
  1008ac:	08b5                	addi	a7,a7,13
  1008ae:	0000                	unimp
  1008b0:	08b5                	addi	a7,a7,13
  1008b2:	0000                	unimp
  1008b4:	08b5                	addi	a7,a7,13
  1008b6:	0000                	unimp
  1008b8:	08b5                	addi	a7,a7,13
  1008ba:	0000                	unimp
  1008bc:	08b5                	addi	a7,a7,13
  1008be:	0000                	unimp
  1008c0:	08e2                	slli	a7,a7,0x18
  1008c2:	0000                	unimp
  1008c4:	08e2                	slli	a7,a7,0x18
  1008c6:	0000                	unimp
  1008c8:	08e2                	slli	a7,a7,0x18
  1008ca:	0000                	unimp
  1008cc:	08e2                	slli	a7,a7,0x18
  1008ce:	0000                	unimp
  1008d0:	08e2                	slli	a7,a7,0x18
  1008d2:	0000                	unimp
  1008d4:	08e2                	slli	a7,a7,0x18
  1008d6:	0000                	unimp
  1008d8:	08e2                	slli	a7,a7,0x18
  1008da:	0000                	unimp
  1008dc:	08e2                	slli	a7,a7,0x18
  1008de:	0000                	unimp
  1008e0:	08e2                	slli	a7,a7,0x18
  1008e2:	0000                	unimp
  1008e4:	08e2                	slli	a7,a7,0x18
  1008e6:	0000                	unimp
  1008e8:	08e2                	slli	a7,a7,0x18
  1008ea:	0000                	unimp
  1008ec:	08e2                	slli	a7,a7,0x18
  1008ee:	0000                	unimp
  1008f0:	08e2                	slli	a7,a7,0x18
  1008f2:	0000                	unimp
  1008f4:	08e2                	slli	a7,a7,0x18
  1008f6:	0000                	unimp
  1008f8:	08e2                	slli	a7,a7,0x18
  1008fa:	0000                	unimp
  1008fc:	08e2                	slli	a7,a7,0x18
  1008fe:	0000                	unimp
  100900:	0000090f          	0x90f
  100904:	0000090f          	0x90f
  100908:	0000090f          	0x90f
  10090c:	0000090f          	0x90f
  100910:	0000090f          	0x90f
  100914:	0000090f          	0x90f
  100918:	0000090f          	0x90f
  10091c:	0000090f          	0x90f
  100920:	0000090f          	0x90f
  100924:	0000090f          	0x90f
  100928:	0000090f          	0x90f
  10092c:	0000090f          	0x90f
  100930:	0000090f          	0x90f
  100934:	0000090f          	0x90f
  100938:	0000090f          	0x90f
  10093c:	0000090f          	0x90f
  100940:	093c                	addi	a5,sp,152
  100942:	0000                	unimp
  100944:	093c                	addi	a5,sp,152
  100946:	0000                	unimp
  100948:	093c                	addi	a5,sp,152
  10094a:	0000                	unimp
  10094c:	093c                	addi	a5,sp,152
  10094e:	0000                	unimp
  100950:	093c                	addi	a5,sp,152
  100952:	0000                	unimp
  100954:	093c                	addi	a5,sp,152
  100956:	0000                	unimp
  100958:	093c                	addi	a5,sp,152
  10095a:	0000                	unimp
  10095c:	093c                	addi	a5,sp,152
  10095e:	0000                	unimp
  100960:	093c                	addi	a5,sp,152
  100962:	0000                	unimp
  100964:	093c                	addi	a5,sp,152
  100966:	0000                	unimp
  100968:	093c                	addi	a5,sp,152
  10096a:	0000                	unimp
  10096c:	093c                	addi	a5,sp,152
  10096e:	0000                	unimp
  100970:	093c                	addi	a5,sp,152
  100972:	0000                	unimp
  100974:	093c                	addi	a5,sp,152
  100976:	0000                	unimp
  100978:	093c                	addi	a5,sp,152
  10097a:	0000                	unimp
  10097c:	093c                	addi	a5,sp,152
  10097e:	0000                	unimp
  100980:	000009c3          	fmadd.s	fs3,ft0,ft0,ft0,rne
  100984:	000009c3          	fmadd.s	fs3,ft0,ft0,ft0,rne
  100988:	000009c3          	fmadd.s	fs3,ft0,ft0,ft0,rne
  10098c:	000009c3          	fmadd.s	fs3,ft0,ft0,ft0,rne
  100990:	000009c3          	fmadd.s	fs3,ft0,ft0,ft0,rne
  100994:	000009c3          	fmadd.s	fs3,ft0,ft0,ft0,rne
  100998:	000009c3          	fmadd.s	fs3,ft0,ft0,ft0,rne
  10099c:	000009c3          	fmadd.s	fs3,ft0,ft0,ft0,rne
  1009a0:	000009c3          	fmadd.s	fs3,ft0,ft0,ft0,rne
  1009a4:	000009c3          	fmadd.s	fs3,ft0,ft0,ft0,rne
  1009a8:	000009c3          	fmadd.s	fs3,ft0,ft0,ft0,rne
  1009ac:	000009c3          	fmadd.s	fs3,ft0,ft0,ft0,rne
  1009b0:	000009c3          	fmadd.s	fs3,ft0,ft0,ft0,rne
  1009b4:	000009c3          	fmadd.s	fs3,ft0,ft0,ft0,rne
  1009b8:	000009c3          	fmadd.s	fs3,ft0,ft0,ft0,rne
  1009bc:	000009c3          	fmadd.s	fs3,ft0,ft0,ft0,rne
  1009c0:	09f0                	addi	a2,sp,220
  1009c2:	0000                	unimp
  1009c4:	09f0                	addi	a2,sp,220
  1009c6:	0000                	unimp
  1009c8:	09f0                	addi	a2,sp,220
  1009ca:	0000                	unimp
  1009cc:	09f0                	addi	a2,sp,220
  1009ce:	0000                	unimp
  1009d0:	09f0                	addi	a2,sp,220
  1009d2:	0000                	unimp
  1009d4:	09f0                	addi	a2,sp,220
  1009d6:	0000                	unimp
  1009d8:	09f0                	addi	a2,sp,220
  1009da:	0000                	unimp
  1009dc:	09f0                	addi	a2,sp,220
  1009de:	0000                	unimp
  1009e0:	09f0                	addi	a2,sp,220
  1009e2:	0000                	unimp
  1009e4:	09f0                	addi	a2,sp,220
  1009e6:	0000                	unimp
  1009e8:	09f0                	addi	a2,sp,220
  1009ea:	0000                	unimp
  1009ec:	09f0                	addi	a2,sp,220
  1009ee:	0000                	unimp
  1009f0:	09f0                	addi	a2,sp,220
  1009f2:	0000                	unimp
  1009f4:	09f0                	addi	a2,sp,220
  1009f6:	0000                	unimp
  1009f8:	09f0                	addi	a2,sp,220
  1009fa:	0000                	unimp
  1009fc:	09f0                	addi	a2,sp,220
  1009fe:	0000                	unimp
  100a00:	0a1d                	addi	s4,s4,7
  100a02:	0000                	unimp
  100a04:	0a1d                	addi	s4,s4,7
  100a06:	0000                	unimp
  100a08:	0a1d                	addi	s4,s4,7
  100a0a:	0000                	unimp
  100a0c:	0a1d                	addi	s4,s4,7
  100a0e:	0000                	unimp
  100a10:	0a1d                	addi	s4,s4,7
  100a12:	0000                	unimp
  100a14:	0a1d                	addi	s4,s4,7
  100a16:	0000                	unimp
  100a18:	0a1d                	addi	s4,s4,7
  100a1a:	0000                	unimp
  100a1c:	0a1d                	addi	s4,s4,7
  100a1e:	0000                	unimp
  100a20:	0a1d                	addi	s4,s4,7
  100a22:	0000                	unimp
  100a24:	0a1d                	addi	s4,s4,7
  100a26:	0000                	unimp
  100a28:	0a1d                	addi	s4,s4,7
  100a2a:	0000                	unimp
  100a2c:	0a1d                	addi	s4,s4,7
  100a2e:	0000                	unimp
  100a30:	0a1d                	addi	s4,s4,7
  100a32:	0000                	unimp
  100a34:	0a1d                	addi	s4,s4,7
  100a36:	0000                	unimp
  100a38:	0a1d                	addi	s4,s4,7
  100a3a:	0000                	unimp
  100a3c:	0a1d                	addi	s4,s4,7
  100a3e:	0000                	unimp
  100a40:	0a4a                	slli	s4,s4,0x12
  100a42:	0000                	unimp
  100a44:	0a4a                	slli	s4,s4,0x12
  100a46:	0000                	unimp
  100a48:	0a4a                	slli	s4,s4,0x12
  100a4a:	0000                	unimp
  100a4c:	0a4a                	slli	s4,s4,0x12
  100a4e:	0000                	unimp
  100a50:	0a4a                	slli	s4,s4,0x12
  100a52:	0000                	unimp
  100a54:	0a4a                	slli	s4,s4,0x12
  100a56:	0000                	unimp
  100a58:	0a4a                	slli	s4,s4,0x12
  100a5a:	0000                	unimp
  100a5c:	0a4a                	slli	s4,s4,0x12
  100a5e:	0000                	unimp
  100a60:	0a4a                	slli	s4,s4,0x12
  100a62:	0000                	unimp
  100a64:	0a4a                	slli	s4,s4,0x12
  100a66:	0000                	unimp
  100a68:	0a4a                	slli	s4,s4,0x12
  100a6a:	0000                	unimp
  100a6c:	0a4a                	slli	s4,s4,0x12
  100a6e:	0000                	unimp
  100a70:	0a4a                	slli	s4,s4,0x12
  100a72:	0000                	unimp
  100a74:	0a4a                	slli	s4,s4,0x12
  100a76:	0000                	unimp
  100a78:	0a4a                	slli	s4,s4,0x12
  100a7a:	0000                	unimp
  100a7c:	0a4a                	slli	s4,s4,0x12
  100a7e:	0000                	unimp
  100a80:	00000a77          	0xa77
  100a84:	00000a77          	0xa77
  100a88:	00000a77          	0xa77
  100a8c:	00000a77          	0xa77
  100a90:	00000a77          	0xa77
  100a94:	00000a77          	0xa77
  100a98:	00000a77          	0xa77
  100a9c:	00000a77          	0xa77
  100aa0:	00000a77          	0xa77
  100aa4:	00000a77          	0xa77
  100aa8:	00000a77          	0xa77
  100aac:	00000a77          	0xa77
  100ab0:	00000a77          	0xa77
  100ab4:	00000a77          	0xa77
  100ab8:	00000a77          	0xa77
  100abc:	00000a77          	0xa77
  100ac0:	0aa4                	addi	s1,sp,344
  100ac2:	0000                	unimp
  100ac4:	0aa4                	addi	s1,sp,344
  100ac6:	0000                	unimp
  100ac8:	0aa4                	addi	s1,sp,344
  100aca:	0000                	unimp
  100acc:	0aa4                	addi	s1,sp,344
  100ace:	0000                	unimp
  100ad0:	0aa4                	addi	s1,sp,344
  100ad2:	0000                	unimp
  100ad4:	0aa4                	addi	s1,sp,344
  100ad6:	0000                	unimp
  100ad8:	0aa4                	addi	s1,sp,344
  100ada:	0000                	unimp
  100adc:	0aa4                	addi	s1,sp,344
  100ade:	0000                	unimp
  100ae0:	0aa4                	addi	s1,sp,344
  100ae2:	0000                	unimp
  100ae4:	0aa4                	addi	s1,sp,344
  100ae6:	0000                	unimp
  100ae8:	0aa4                	addi	s1,sp,344
  100aea:	0000                	unimp
  100aec:	0aa4                	addi	s1,sp,344
  100aee:	0000                	unimp
  100af0:	0aa4                	addi	s1,sp,344
  100af2:	0000                	unimp
  100af4:	0aa4                	addi	s1,sp,344
  100af6:	0000                	unimp
  100af8:	0aa4                	addi	s1,sp,344
  100afa:	0000                	unimp
  100afc:	0aa4                	addi	s1,sp,344
  100afe:	0000                	unimp
  100b00:	0ad1                	addi	s5,s5,20
  100b02:	0000                	unimp
  100b04:	0ad1                	addi	s5,s5,20
  100b06:	0000                	unimp
  100b08:	0ad1                	addi	s5,s5,20
  100b0a:	0000                	unimp
  100b0c:	0ad1                	addi	s5,s5,20
  100b0e:	0000                	unimp
  100b10:	0ad1                	addi	s5,s5,20
  100b12:	0000                	unimp
  100b14:	0ad1                	addi	s5,s5,20
  100b16:	0000                	unimp
  100b18:	0ad1                	addi	s5,s5,20
  100b1a:	0000                	unimp
  100b1c:	0ad1                	addi	s5,s5,20
  100b1e:	0000                	unimp
  100b20:	0ad1                	addi	s5,s5,20
  100b22:	0000                	unimp
  100b24:	0ad1                	addi	s5,s5,20
  100b26:	0000                	unimp
  100b28:	0ad1                	addi	s5,s5,20
  100b2a:	0000                	unimp
  100b2c:	0ad1                	addi	s5,s5,20
  100b2e:	0000                	unimp
  100b30:	0ad1                	addi	s5,s5,20
  100b32:	0000                	unimp
  100b34:	0ad1                	addi	s5,s5,20
  100b36:	0000                	unimp
  100b38:	0ad1                	addi	s5,s5,20
  100b3a:	0000                	unimp
  100b3c:	0ad1                	addi	s5,s5,20
  100b3e:	0000                	unimp
  100b40:	0afe                	slli	s5,s5,0x1f
  100b42:	0000                	unimp
  100b44:	0afe                	slli	s5,s5,0x1f
  100b46:	0000                	unimp
  100b48:	0afe                	slli	s5,s5,0x1f
  100b4a:	0000                	unimp
  100b4c:	0afe                	slli	s5,s5,0x1f
  100b4e:	0000                	unimp
  100b50:	0afe                	slli	s5,s5,0x1f
  100b52:	0000                	unimp
  100b54:	0afe                	slli	s5,s5,0x1f
  100b56:	0000                	unimp
  100b58:	0afe                	slli	s5,s5,0x1f
  100b5a:	0000                	unimp
  100b5c:	0afe                	slli	s5,s5,0x1f
  100b5e:	0000                	unimp
  100b60:	0afe                	slli	s5,s5,0x1f
  100b62:	0000                	unimp
  100b64:	0afe                	slli	s5,s5,0x1f
  100b66:	0000                	unimp
  100b68:	0afe                	slli	s5,s5,0x1f
  100b6a:	0000                	unimp
  100b6c:	0afe                	slli	s5,s5,0x1f
  100b6e:	0000                	unimp
  100b70:	0afe                	slli	s5,s5,0x1f
  100b72:	0000                	unimp
  100b74:	0afe                	slli	s5,s5,0x1f
  100b76:	0000                	unimp
  100b78:	0afe                	slli	s5,s5,0x1f
  100b7a:	0000                	unimp
  100b7c:	0afe                	slli	s5,s5,0x1f
  100b7e:	0000                	unimp
  100b80:	00000b2b          	0xb2b
  100b84:	00000b2b          	0xb2b
  100b88:	00000b2b          	0xb2b
  100b8c:	00000b2b          	0xb2b
  100b90:	00000b2b          	0xb2b
  100b94:	00000b2b          	0xb2b
  100b98:	00000b2b          	0xb2b
  100b9c:	00000b2b          	0xb2b
  100ba0:	00000b2b          	0xb2b
  100ba4:	00000b2b          	0xb2b
  100ba8:	00000b2b          	0xb2b
  100bac:	00000b2b          	0xb2b
  100bb0:	00000b2b          	0xb2b
  100bb4:	00000b2b          	0xb2b
  100bb8:	00000b2b          	0xb2b
  100bbc:	00000b2b          	0xb2b
  100bc0:	0b58                	addi	a4,sp,404
  100bc2:	0000                	unimp
  100bc4:	0b58                	addi	a4,sp,404
  100bc6:	0000                	unimp
  100bc8:	0b58                	addi	a4,sp,404
  100bca:	0000                	unimp
  100bcc:	0b58                	addi	a4,sp,404
  100bce:	0000                	unimp
  100bd0:	0b58                	addi	a4,sp,404
  100bd2:	0000                	unimp
  100bd4:	0b58                	addi	a4,sp,404
  100bd6:	0000                	unimp
  100bd8:	0b58                	addi	a4,sp,404
  100bda:	0000                	unimp
  100bdc:	0b58                	addi	a4,sp,404
  100bde:	0000                	unimp
  100be0:	0b58                	addi	a4,sp,404
  100be2:	0000                	unimp
  100be4:	0b58                	addi	a4,sp,404
  100be6:	0000                	unimp
  100be8:	0b58                	addi	a4,sp,404
  100bea:	0000                	unimp
  100bec:	0b58                	addi	a4,sp,404
  100bee:	0000                	unimp
  100bf0:	0b58                	addi	a4,sp,404
  100bf2:	0000                	unimp
  100bf4:	0b58                	addi	a4,sp,404
  100bf6:	0000                	unimp
  100bf8:	0b58                	addi	a4,sp,404
  100bfa:	0000                	unimp
  100bfc:	0b58                	addi	a4,sp,404
  100bfe:	0000                	unimp
  100c00:	0b85                	addi	s7,s7,1
  100c02:	0000                	unimp
  100c04:	0b85                	addi	s7,s7,1
  100c06:	0000                	unimp
  100c08:	0b85                	addi	s7,s7,1
  100c0a:	0000                	unimp
  100c0c:	0b85                	addi	s7,s7,1
  100c0e:	0000                	unimp
  100c10:	0b85                	addi	s7,s7,1
  100c12:	0000                	unimp
  100c14:	0b85                	addi	s7,s7,1
  100c16:	0000                	unimp
  100c18:	0b85                	addi	s7,s7,1
  100c1a:	0000                	unimp
  100c1c:	0b85                	addi	s7,s7,1
  100c1e:	0000                	unimp
  100c20:	0b85                	addi	s7,s7,1
  100c22:	0000                	unimp
  100c24:	0b85                	addi	s7,s7,1
  100c26:	0000                	unimp
  100c28:	0b85                	addi	s7,s7,1
  100c2a:	0000                	unimp
  100c2c:	0b85                	addi	s7,s7,1
  100c2e:	0000                	unimp
  100c30:	0b85                	addi	s7,s7,1
  100c32:	0000                	unimp
  100c34:	0b85                	addi	s7,s7,1
  100c36:	0000                	unimp
  100c38:	0b85                	addi	s7,s7,1
  100c3a:	0000                	unimp
  100c3c:	0b85                	addi	s7,s7,1
  100c3e:	0000                	unimp
  100c40:	0bb2                	slli	s7,s7,0xc
  100c42:	0000                	unimp
  100c44:	0bb2                	slli	s7,s7,0xc
  100c46:	0000                	unimp
  100c48:	0bb2                	slli	s7,s7,0xc
  100c4a:	0000                	unimp
  100c4c:	0bb2                	slli	s7,s7,0xc
  100c4e:	0000                	unimp
  100c50:	0bb2                	slli	s7,s7,0xc
  100c52:	0000                	unimp
  100c54:	0bb2                	slli	s7,s7,0xc
  100c56:	0000                	unimp
  100c58:	0bb2                	slli	s7,s7,0xc
  100c5a:	0000                	unimp
  100c5c:	0bb2                	slli	s7,s7,0xc
  100c5e:	0000                	unimp
  100c60:	0bb2                	slli	s7,s7,0xc
  100c62:	0000                	unimp
  100c64:	0bb2                	slli	s7,s7,0xc
  100c66:	0000                	unimp
  100c68:	0bb2                	slli	s7,s7,0xc
  100c6a:	0000                	unimp
  100c6c:	0bb2                	slli	s7,s7,0xc
  100c6e:	0000                	unimp
  100c70:	0bb2                	slli	s7,s7,0xc
  100c72:	0000                	unimp
  100c74:	0bb2                	slli	s7,s7,0xc
  100c76:	0000                	unimp
  100c78:	0bb2                	slli	s7,s7,0xc
  100c7a:	0000                	unimp
  100c7c:	0bb2                	slli	s7,s7,0xc
  100c7e:	0000                	unimp
  100c80:	0bdf 0000 0bdf      	0xbdf00000bdf
  100c86:	0000                	unimp
  100c88:	0bdf 0000 0bdf      	0xbdf00000bdf
  100c8e:	0000                	unimp
  100c90:	0bdf 0000 0bdf      	0xbdf00000bdf
  100c96:	0000                	unimp
  100c98:	0bdf 0000 0bdf      	0xbdf00000bdf
  100c9e:	0000                	unimp
  100ca0:	0bdf 0000 0bdf      	0xbdf00000bdf
  100ca6:	0000                	unimp
  100ca8:	0bdf 0000 0bdf      	0xbdf00000bdf
  100cae:	0000                	unimp
  100cb0:	0bdf 0000 0bdf      	0xbdf00000bdf
  100cb6:	0000                	unimp
  100cb8:	0bdf 0000 0bdf      	0xbdf00000bdf
  100cbe:	0000                	unimp
  100cc0:	0c0c                	addi	a1,sp,528
  100cc2:	0000                	unimp
  100cc4:	0c0c                	addi	a1,sp,528
  100cc6:	0000                	unimp
  100cc8:	0c0c                	addi	a1,sp,528
  100cca:	0000                	unimp
  100ccc:	0c0c                	addi	a1,sp,528
  100cce:	0000                	unimp
  100cd0:	0c0c                	addi	a1,sp,528
  100cd2:	0000                	unimp
  100cd4:	0c0c                	addi	a1,sp,528
  100cd6:	0000                	unimp
  100cd8:	0c0c                	addi	a1,sp,528
  100cda:	0000                	unimp
  100cdc:	0c0c                	addi	a1,sp,528
  100cde:	0000                	unimp
  100ce0:	0c0c                	addi	a1,sp,528
  100ce2:	0000                	unimp
  100ce4:	0c0c                	addi	a1,sp,528
  100ce6:	0000                	unimp
  100ce8:	0c0c                	addi	a1,sp,528
  100cea:	0000                	unimp
  100cec:	0c0c                	addi	a1,sp,528
  100cee:	0000                	unimp
  100cf0:	0c0c                	addi	a1,sp,528
  100cf2:	0000                	unimp
  100cf4:	0c0c                	addi	a1,sp,528
  100cf6:	0000                	unimp
  100cf8:	0c0c                	addi	a1,sp,528
  100cfa:	0000                	unimp
  100cfc:	0c0c                	addi	a1,sp,528
  100cfe:	0000                	unimp
  100d00:	00000c93          	li	s9,0
  100d04:	00000c93          	li	s9,0
  100d08:	00000c93          	li	s9,0
  100d0c:	00000c93          	li	s9,0
  100d10:	00000c93          	li	s9,0
  100d14:	00000c93          	li	s9,0
  100d18:	00000c93          	li	s9,0
  100d1c:	00000c93          	li	s9,0
  100d20:	00000c93          	li	s9,0
  100d24:	00000c93          	li	s9,0
  100d28:	00000c93          	li	s9,0
  100d2c:	00000c93          	li	s9,0
  100d30:	00000c93          	li	s9,0
  100d34:	00000c93          	li	s9,0
  100d38:	00000c93          	li	s9,0
  100d3c:	00000c93          	li	s9,0
  100d40:	0cc0                	addi	s0,sp,596
  100d42:	0000                	unimp
  100d44:	0cc0                	addi	s0,sp,596
  100d46:	0000                	unimp
  100d48:	0cc0                	addi	s0,sp,596
  100d4a:	0000                	unimp
  100d4c:	0cc0                	addi	s0,sp,596
  100d4e:	0000                	unimp
  100d50:	0cc0                	addi	s0,sp,596
  100d52:	0000                	unimp
  100d54:	0cc0                	addi	s0,sp,596
  100d56:	0000                	unimp
  100d58:	0cc0                	addi	s0,sp,596
  100d5a:	0000                	unimp
  100d5c:	0cc0                	addi	s0,sp,596
  100d5e:	0000                	unimp
  100d60:	0cc0                	addi	s0,sp,596
  100d62:	0000                	unimp
  100d64:	0cc0                	addi	s0,sp,596
  100d66:	0000                	unimp
  100d68:	0cc0                	addi	s0,sp,596
  100d6a:	0000                	unimp
  100d6c:	0cc0                	addi	s0,sp,596
  100d6e:	0000                	unimp
  100d70:	0cc0                	addi	s0,sp,596
  100d72:	0000                	unimp
  100d74:	0cc0                	addi	s0,sp,596
  100d76:	0000                	unimp
  100d78:	0cc0                	addi	s0,sp,596
  100d7a:	0000                	unimp
  100d7c:	0cc0                	addi	s0,sp,596
  100d7e:	0000                	unimp
  100d80:	0ced                	addi	s9,s9,27
  100d82:	0000                	unimp
  100d84:	0ced                	addi	s9,s9,27
  100d86:	0000                	unimp
  100d88:	0ced                	addi	s9,s9,27
  100d8a:	0000                	unimp
  100d8c:	0ced                	addi	s9,s9,27
  100d8e:	0000                	unimp
  100d90:	0ced                	addi	s9,s9,27
  100d92:	0000                	unimp
  100d94:	0ced                	addi	s9,s9,27
  100d96:	0000                	unimp
  100d98:	0ced                	addi	s9,s9,27
  100d9a:	0000                	unimp
  100d9c:	0ced                	addi	s9,s9,27
  100d9e:	0000                	unimp
  100da0:	0ced                	addi	s9,s9,27
  100da2:	0000                	unimp
  100da4:	0ced                	addi	s9,s9,27
  100da6:	0000                	unimp
  100da8:	0ced                	addi	s9,s9,27
  100daa:	0000                	unimp
  100dac:	0ced                	addi	s9,s9,27
  100dae:	0000                	unimp
  100db0:	0ced                	addi	s9,s9,27
  100db2:	0000                	unimp
  100db4:	0ced                	addi	s9,s9,27
  100db6:	0000                	unimp
  100db8:	0ced                	addi	s9,s9,27
  100dba:	0000                	unimp
  100dbc:	0ced                	addi	s9,s9,27
  100dbe:	0000                	unimp
  100dc0:	0d1a                	slli	s10,s10,0x6
  100dc2:	0000                	unimp
  100dc4:	0d1a                	slli	s10,s10,0x6
  100dc6:	0000                	unimp
  100dc8:	0d1a                	slli	s10,s10,0x6
  100dca:	0000                	unimp
  100dcc:	0d1a                	slli	s10,s10,0x6
  100dce:	0000                	unimp
  100dd0:	0d1a                	slli	s10,s10,0x6
  100dd2:	0000                	unimp
  100dd4:	0d1a                	slli	s10,s10,0x6
  100dd6:	0000                	unimp
  100dd8:	0d1a                	slli	s10,s10,0x6
  100dda:	0000                	unimp
  100ddc:	0d1a                	slli	s10,s10,0x6
  100dde:	0000                	unimp
  100de0:	0d1a                	slli	s10,s10,0x6
  100de2:	0000                	unimp
  100de4:	0d1a                	slli	s10,s10,0x6
  100de6:	0000                	unimp
  100de8:	0d1a                	slli	s10,s10,0x6
  100dea:	0000                	unimp
  100dec:	0d1a                	slli	s10,s10,0x6
  100dee:	0000                	unimp
  100df0:	0d1a                	slli	s10,s10,0x6
  100df2:	0000                	unimp
  100df4:	0d1a                	slli	s10,s10,0x6
  100df6:	0000                	unimp
  100df8:	0d1a                	slli	s10,s10,0x6
  100dfa:	0000                	unimp
  100dfc:	0d1a                	slli	s10,s10,0x6
  100dfe:	0000                	unimp
  100e00:	00000d47          	fmsub.s	fs10,ft0,ft0,ft0,rne
  100e04:	00000d47          	fmsub.s	fs10,ft0,ft0,ft0,rne
  100e08:	00000d47          	fmsub.s	fs10,ft0,ft0,ft0,rne
  100e0c:	00000d47          	fmsub.s	fs10,ft0,ft0,ft0,rne
  100e10:	00000d47          	fmsub.s	fs10,ft0,ft0,ft0,rne
  100e14:	00000d47          	fmsub.s	fs10,ft0,ft0,ft0,rne
  100e18:	00000d47          	fmsub.s	fs10,ft0,ft0,ft0,rne
  100e1c:	00000d47          	fmsub.s	fs10,ft0,ft0,ft0,rne
  100e20:	00000d47          	fmsub.s	fs10,ft0,ft0,ft0,rne
  100e24:	00000d47          	fmsub.s	fs10,ft0,ft0,ft0,rne
  100e28:	00000d47          	fmsub.s	fs10,ft0,ft0,ft0,rne
  100e2c:	00000d47          	fmsub.s	fs10,ft0,ft0,ft0,rne
  100e30:	00000d47          	fmsub.s	fs10,ft0,ft0,ft0,rne
  100e34:	00000d47          	fmsub.s	fs10,ft0,ft0,ft0,rne
  100e38:	00000d47          	fmsub.s	fs10,ft0,ft0,ft0,rne
  100e3c:	00000d47          	fmsub.s	fs10,ft0,ft0,ft0,rne
  100e40:	0d74                	addi	a3,sp,668
  100e42:	0000                	unimp
  100e44:	0d74                	addi	a3,sp,668
  100e46:	0000                	unimp
  100e48:	0d74                	addi	a3,sp,668
  100e4a:	0000                	unimp
  100e4c:	0d74                	addi	a3,sp,668
  100e4e:	0000                	unimp
  100e50:	0d74                	addi	a3,sp,668
  100e52:	0000                	unimp
  100e54:	0d74                	addi	a3,sp,668
  100e56:	0000                	unimp
  100e58:	0d74                	addi	a3,sp,668
  100e5a:	0000                	unimp
  100e5c:	0d74                	addi	a3,sp,668
  100e5e:	0000                	unimp
  100e60:	0d74                	addi	a3,sp,668
  100e62:	0000                	unimp
  100e64:	0d74                	addi	a3,sp,668
  100e66:	0000                	unimp
  100e68:	0d74                	addi	a3,sp,668
  100e6a:	0000                	unimp
  100e6c:	0d74                	addi	a3,sp,668
  100e6e:	0000                	unimp
  100e70:	0d74                	addi	a3,sp,668
  100e72:	0000                	unimp
  100e74:	0d74                	addi	a3,sp,668
  100e76:	0000                	unimp
  100e78:	0d74                	addi	a3,sp,668
  100e7a:	0000                	unimp
  100e7c:	0d74                	addi	a3,sp,668
  100e7e:	0000                	unimp
  100e80:	0da1                	addi	s11,s11,8
  100e82:	0000                	unimp
  100e84:	0da1                	addi	s11,s11,8
  100e86:	0000                	unimp
  100e88:	0da1                	addi	s11,s11,8
  100e8a:	0000                	unimp
  100e8c:	0da1                	addi	s11,s11,8
  100e8e:	0000                	unimp
  100e90:	0da1                	addi	s11,s11,8
  100e92:	0000                	unimp
  100e94:	0da1                	addi	s11,s11,8
  100e96:	0000                	unimp
  100e98:	0da1                	addi	s11,s11,8
  100e9a:	0000                	unimp
  100e9c:	0da1                	addi	s11,s11,8
  100e9e:	0000                	unimp
  100ea0:	0da1                	addi	s11,s11,8
  100ea2:	0000                	unimp
  100ea4:	0da1                	addi	s11,s11,8
  100ea6:	0000                	unimp
  100ea8:	0da1                	addi	s11,s11,8
  100eaa:	0000                	unimp
  100eac:	0da1                	addi	s11,s11,8
  100eae:	0000                	unimp
  100eb0:	0da1                	addi	s11,s11,8
  100eb2:	0000                	unimp
  100eb4:	0da1                	addi	s11,s11,8
  100eb6:	0000                	unimp
  100eb8:	0da1                	addi	s11,s11,8
  100eba:	0000                	unimp
  100ebc:	0da1                	addi	s11,s11,8
  100ebe:	0000                	unimp
  100ec0:	0dce                	slli	s11,s11,0x13
  100ec2:	0000                	unimp
  100ec4:	0dce                	slli	s11,s11,0x13
  100ec6:	0000                	unimp
  100ec8:	0dce                	slli	s11,s11,0x13
  100eca:	0000                	unimp
  100ecc:	0dce                	slli	s11,s11,0x13
  100ece:	0000                	unimp
  100ed0:	0dce                	slli	s11,s11,0x13
  100ed2:	0000                	unimp
  100ed4:	0dce                	slli	s11,s11,0x13
  100ed6:	0000                	unimp
  100ed8:	0dce                	slli	s11,s11,0x13
  100eda:	0000                	unimp
  100edc:	0dce                	slli	s11,s11,0x13
  100ede:	0000                	unimp
  100ee0:	0dce                	slli	s11,s11,0x13
  100ee2:	0000                	unimp
  100ee4:	0dce                	slli	s11,s11,0x13
  100ee6:	0000                	unimp
  100ee8:	0dce                	slli	s11,s11,0x13
  100eea:	0000                	unimp
  100eec:	0dce                	slli	s11,s11,0x13
  100eee:	0000                	unimp
  100ef0:	0dce                	slli	s11,s11,0x13
  100ef2:	0000                	unimp
  100ef4:	0dce                	slli	s11,s11,0x13
  100ef6:	0000                	unimp
  100ef8:	0dce                	slli	s11,s11,0x13
  100efa:	0000                	unimp
  100efc:	0dce                	slli	s11,s11,0x13
  100efe:	0000                	unimp
  100f00:	00000dfb          	0xdfb
  100f04:	00000dfb          	0xdfb
  100f08:	00000dfb          	0xdfb
  100f0c:	00000dfb          	0xdfb
  100f10:	00000dfb          	0xdfb
  100f14:	00000dfb          	0xdfb
  100f18:	00000dfb          	0xdfb
  100f1c:	00000dfb          	0xdfb
  100f20:	00000dfb          	0xdfb
  100f24:	00000dfb          	0xdfb
  100f28:	00000dfb          	0xdfb
  100f2c:	00000dfb          	0xdfb
  100f30:	00000dfb          	0xdfb
  100f34:	00000dfb          	0xdfb
  100f38:	00000dfb          	0xdfb
  100f3c:	00000dfb          	0xdfb
  100f40:	0e28                	addi	a0,sp,792
  100f42:	0000                	unimp
  100f44:	0e28                	addi	a0,sp,792
  100f46:	0000                	unimp
  100f48:	0e28                	addi	a0,sp,792
  100f4a:	0000                	unimp
  100f4c:	0e28                	addi	a0,sp,792
  100f4e:	0000                	unimp
  100f50:	0e28                	addi	a0,sp,792
  100f52:	0000                	unimp
  100f54:	0e28                	addi	a0,sp,792
  100f56:	0000                	unimp
  100f58:	0e28                	addi	a0,sp,792
  100f5a:	0000                	unimp
  100f5c:	0e28                	addi	a0,sp,792
  100f5e:	0000                	unimp
  100f60:	0e28                	addi	a0,sp,792
  100f62:	0000                	unimp
  100f64:	0e28                	addi	a0,sp,792
  100f66:	0000                	unimp
  100f68:	0e28                	addi	a0,sp,792
  100f6a:	0000                	unimp
  100f6c:	0e28                	addi	a0,sp,792
  100f6e:	0000                	unimp
  100f70:	0e28                	addi	a0,sp,792
  100f72:	0000                	unimp
  100f74:	0e28                	addi	a0,sp,792
  100f76:	0000                	unimp
  100f78:	0e28                	addi	a0,sp,792
  100f7a:	0000                	unimp
  100f7c:	0e28                	addi	a0,sp,792
  100f7e:	0000                	unimp
  100f80:	0e55                	addi	t3,t3,21
  100f82:	0000                	unimp
  100f84:	0e55                	addi	t3,t3,21
  100f86:	0000                	unimp
  100f88:	0e55                	addi	t3,t3,21
  100f8a:	0000                	unimp
  100f8c:	0e55                	addi	t3,t3,21
  100f8e:	0000                	unimp
  100f90:	0e55                	addi	t3,t3,21
  100f92:	0000                	unimp
  100f94:	0e55                	addi	t3,t3,21
  100f96:	0000                	unimp
  100f98:	0e55                	addi	t3,t3,21
  100f9a:	0000                	unimp
  100f9c:	0e55                	addi	t3,t3,21
  100f9e:	0000                	unimp
  100fa0:	0e55                	addi	t3,t3,21
  100fa2:	0000                	unimp
  100fa4:	0e55                	addi	t3,t3,21
  100fa6:	0000                	unimp
  100fa8:	0e55                	addi	t3,t3,21
  100faa:	0000                	unimp
  100fac:	0e55                	addi	t3,t3,21
  100fae:	0000                	unimp
  100fb0:	0e55                	addi	t3,t3,21
  100fb2:	0000                	unimp
  100fb4:	0e55                	addi	t3,t3,21
  100fb6:	0000                	unimp
  100fb8:	0e55                	addi	t3,t3,21
  100fba:	0000                	unimp
  100fbc:	0e55                	addi	t3,t3,21
  100fbe:	0000                	unimp
  100fc0:	0e82                	c.slli64	t4
  100fc2:	0000                	unimp
  100fc4:	0e82                	c.slli64	t4
  100fc6:	0000                	unimp
  100fc8:	0e82                	c.slli64	t4
  100fca:	0000                	unimp
  100fcc:	0e82                	c.slli64	t4
  100fce:	0000                	unimp
  100fd0:	0e82                	c.slli64	t4
  100fd2:	0000                	unimp
  100fd4:	0e82                	c.slli64	t4
  100fd6:	0000                	unimp
  100fd8:	0e82                	c.slli64	t4
  100fda:	0000                	unimp
  100fdc:	0e82                	c.slli64	t4
  100fde:	0000                	unimp
  100fe0:	0e82                	c.slli64	t4
  100fe2:	0000                	unimp
  100fe4:	0e82                	c.slli64	t4
  100fe6:	0000                	unimp
  100fe8:	0e82                	c.slli64	t4
  100fea:	0000                	unimp
  100fec:	0e82                	c.slli64	t4
  100fee:	0000                	unimp
  100ff0:	0e82                	c.slli64	t4
  100ff2:	0000                	unimp
  100ff4:	0e82                	c.slli64	t4
  100ff6:	0000                	unimp
  100ff8:	0e82                	c.slli64	t4
  100ffa:	0000                	unimp
  100ffc:	0e82                	c.slli64	t4
  100ffe:	0000                	unimp
  101000:	00000eaf          	vamoaddei8.v	zero,(zero),v0,v29,v0.t
  101004:	00000eaf          	vamoaddei8.v	zero,(zero),v0,v29,v0.t
  101008:	00000eaf          	vamoaddei8.v	zero,(zero),v0,v29,v0.t
  10100c:	00000eaf          	vamoaddei8.v	zero,(zero),v0,v29,v0.t
  101010:	00000eaf          	vamoaddei8.v	zero,(zero),v0,v29,v0.t
  101014:	00000eaf          	vamoaddei8.v	zero,(zero),v0,v29,v0.t
  101018:	00000eaf          	vamoaddei8.v	zero,(zero),v0,v29,v0.t
  10101c:	00000eaf          	vamoaddei8.v	zero,(zero),v0,v29,v0.t
  101020:	00000eaf          	vamoaddei8.v	zero,(zero),v0,v29,v0.t
  101024:	00000eaf          	vamoaddei8.v	zero,(zero),v0,v29,v0.t
  101028:	00000eaf          	vamoaddei8.v	zero,(zero),v0,v29,v0.t
  10102c:	00000eaf          	vamoaddei8.v	zero,(zero),v0,v29,v0.t
  101030:	00000eaf          	vamoaddei8.v	zero,(zero),v0,v29,v0.t
  101034:	00000eaf          	vamoaddei8.v	zero,(zero),v0,v29,v0.t
  101038:	00000eaf          	vamoaddei8.v	zero,(zero),v0,v29,v0.t
  10103c:	00000eaf          	vamoaddei8.v	zero,(zero),v0,v29,v0.t
  101040:	0edc                	addi	a5,sp,852
  101042:	0000                	unimp
  101044:	0edc                	addi	a5,sp,852
  101046:	0000                	unimp
  101048:	0edc                	addi	a5,sp,852
  10104a:	0000                	unimp
  10104c:	0edc                	addi	a5,sp,852
  10104e:	0000                	unimp
  101050:	0edc                	addi	a5,sp,852
  101052:	0000                	unimp
  101054:	0edc                	addi	a5,sp,852
  101056:	0000                	unimp
  101058:	0edc                	addi	a5,sp,852
  10105a:	0000                	unimp
  10105c:	0edc                	addi	a5,sp,852
  10105e:	0000                	unimp
  101060:	0edc                	addi	a5,sp,852
  101062:	0000                	unimp
  101064:	0edc                	addi	a5,sp,852
  101066:	0000                	unimp
  101068:	0edc                	addi	a5,sp,852
  10106a:	0000                	unimp
  10106c:	0edc                	addi	a5,sp,852
  10106e:	0000                	unimp
  101070:	0edc                	addi	a5,sp,852
  101072:	0000                	unimp
  101074:	0edc                	addi	a5,sp,852
  101076:	0000                	unimp
  101078:	0edc                	addi	a5,sp,852
  10107a:	0000                	unimp
  10107c:	0edc                	addi	a5,sp,852
  10107e:	0000                	unimp
  101080:	00000f63          	beqz	zero,10109e <expected_output+0xe1e>
  101084:	00000f63          	beqz	zero,1010a2 <expected_output+0xe22>
  101088:	00000f63          	beqz	zero,1010a6 <expected_output+0xe26>
  10108c:	00000f63          	beqz	zero,1010aa <expected_output+0xe2a>
  101090:	00000f63          	beqz	zero,1010ae <expected_output+0xe2e>
  101094:	00000f63          	beqz	zero,1010b2 <expected_output+0xe32>
  101098:	00000f63          	beqz	zero,1010b6 <expected_output+0xe36>
  10109c:	00000f63          	beqz	zero,1010ba <expected_output+0xe3a>
  1010a0:	00000f63          	beqz	zero,1010be <expected_output+0xe3e>
  1010a4:	00000f63          	beqz	zero,1010c2 <expected_output+0xe42>
  1010a8:	00000f63          	beqz	zero,1010c6 <expected_output+0xe46>
  1010ac:	00000f63          	beqz	zero,1010ca <expected_output+0xe4a>
  1010b0:	00000f63          	beqz	zero,1010ce <expected_output+0xe4e>
  1010b4:	00000f63          	beqz	zero,1010d2 <expected_output+0xe52>
  1010b8:	00000f63          	beqz	zero,1010d6 <expected_output+0xe56>
  1010bc:	00000f63          	beqz	zero,1010da <expected_output+0xe5a>
  1010c0:	0f90                	addi	a2,sp,976
  1010c2:	0000                	unimp
  1010c4:	0f90                	addi	a2,sp,976
  1010c6:	0000                	unimp
  1010c8:	0f90                	addi	a2,sp,976
  1010ca:	0000                	unimp
  1010cc:	0f90                	addi	a2,sp,976
  1010ce:	0000                	unimp
  1010d0:	0f90                	addi	a2,sp,976
  1010d2:	0000                	unimp
  1010d4:	0f90                	addi	a2,sp,976
  1010d6:	0000                	unimp
  1010d8:	0f90                	addi	a2,sp,976
  1010da:	0000                	unimp
  1010dc:	0f90                	addi	a2,sp,976
  1010de:	0000                	unimp
  1010e0:	0f90                	addi	a2,sp,976
  1010e2:	0000                	unimp
  1010e4:	0f90                	addi	a2,sp,976
  1010e6:	0000                	unimp
  1010e8:	0f90                	addi	a2,sp,976
  1010ea:	0000                	unimp
  1010ec:	0f90                	addi	a2,sp,976
  1010ee:	0000                	unimp
  1010f0:	0f90                	addi	a2,sp,976
  1010f2:	0000                	unimp
  1010f4:	0f90                	addi	a2,sp,976
  1010f6:	0000                	unimp
  1010f8:	0f90                	addi	a2,sp,976
  1010fa:	0000                	unimp
  1010fc:	0f90                	addi	a2,sp,976
  1010fe:	0000                	unimp
  101100:	0fbd                	addi	t6,t6,15
  101102:	0000                	unimp
  101104:	0fbd                	addi	t6,t6,15
  101106:	0000                	unimp
  101108:	0fbd                	addi	t6,t6,15
  10110a:	0000                	unimp
  10110c:	0fbd                	addi	t6,t6,15
  10110e:	0000                	unimp
  101110:	0fbd                	addi	t6,t6,15
  101112:	0000                	unimp
  101114:	0fbd                	addi	t6,t6,15
  101116:	0000                	unimp
  101118:	0fbd                	addi	t6,t6,15
  10111a:	0000                	unimp
  10111c:	0fbd                	addi	t6,t6,15
  10111e:	0000                	unimp
  101120:	0fbd                	addi	t6,t6,15
  101122:	0000                	unimp
  101124:	0fbd                	addi	t6,t6,15
  101126:	0000                	unimp
  101128:	0fbd                	addi	t6,t6,15
  10112a:	0000                	unimp
  10112c:	0fbd                	addi	t6,t6,15
  10112e:	0000                	unimp
  101130:	0fbd                	addi	t6,t6,15
  101132:	0000                	unimp
  101134:	0fbd                	addi	t6,t6,15
  101136:	0000                	unimp
  101138:	0fbd                	addi	t6,t6,15
  10113a:	0000                	unimp
  10113c:	0fbd                	addi	t6,t6,15
  10113e:	0000                	unimp
  101140:	0fea                	slli	t6,t6,0x1a
  101142:	0000                	unimp
  101144:	0fea                	slli	t6,t6,0x1a
  101146:	0000                	unimp
  101148:	0fea                	slli	t6,t6,0x1a
  10114a:	0000                	unimp
  10114c:	0fea                	slli	t6,t6,0x1a
  10114e:	0000                	unimp
  101150:	0fea                	slli	t6,t6,0x1a
  101152:	0000                	unimp
  101154:	0fea                	slli	t6,t6,0x1a
  101156:	0000                	unimp
  101158:	0fea                	slli	t6,t6,0x1a
  10115a:	0000                	unimp
  10115c:	0fea                	slli	t6,t6,0x1a
  10115e:	0000                	unimp
  101160:	0fea                	slli	t6,t6,0x1a
  101162:	0000                	unimp
  101164:	0fea                	slli	t6,t6,0x1a
  101166:	0000                	unimp
  101168:	0fea                	slli	t6,t6,0x1a
  10116a:	0000                	unimp
  10116c:	0fea                	slli	t6,t6,0x1a
  10116e:	0000                	unimp
  101170:	0fea                	slli	t6,t6,0x1a
  101172:	0000                	unimp
  101174:	0fea                	slli	t6,t6,0x1a
  101176:	0000                	unimp
  101178:	0fea                	slli	t6,t6,0x1a
  10117a:	0000                	unimp
  10117c:	0fea                	slli	t6,t6,0x1a
  10117e:	0000                	unimp
  101180:	00001017          	auipc	zero,0x1
  101184:	00001017          	auipc	zero,0x1
  101188:	00001017          	auipc	zero,0x1
  10118c:	00001017          	auipc	zero,0x1
  101190:	00001017          	auipc	zero,0x1
  101194:	00001017          	auipc	zero,0x1
  101198:	00001017          	auipc	zero,0x1
  10119c:	00001017          	auipc	zero,0x1
  1011a0:	00001017          	auipc	zero,0x1
  1011a4:	00001017          	auipc	zero,0x1
  1011a8:	00001017          	auipc	zero,0x1
  1011ac:	00001017          	auipc	zero,0x1
  1011b0:	00001017          	auipc	zero,0x1
  1011b4:	00001017          	auipc	zero,0x1
  1011b8:	00001017          	auipc	zero,0x1
  1011bc:	00001017          	auipc	zero,0x1
  1011c0:	1044                	addi	s1,sp,36
  1011c2:	0000                	unimp
  1011c4:	1044                	addi	s1,sp,36
  1011c6:	0000                	unimp
  1011c8:	1044                	addi	s1,sp,36
  1011ca:	0000                	unimp
  1011cc:	1044                	addi	s1,sp,36
  1011ce:	0000                	unimp
  1011d0:	1044                	addi	s1,sp,36
  1011d2:	0000                	unimp
  1011d4:	1044                	addi	s1,sp,36
  1011d6:	0000                	unimp
  1011d8:	1044                	addi	s1,sp,36
  1011da:	0000                	unimp
  1011dc:	1044                	addi	s1,sp,36
  1011de:	0000                	unimp
  1011e0:	1044                	addi	s1,sp,36
  1011e2:	0000                	unimp
  1011e4:	1044                	addi	s1,sp,36
  1011e6:	0000                	unimp
  1011e8:	1044                	addi	s1,sp,36
  1011ea:	0000                	unimp
  1011ec:	1044                	addi	s1,sp,36
  1011ee:	0000                	unimp
  1011f0:	1044                	addi	s1,sp,36
  1011f2:	0000                	unimp
  1011f4:	1044                	addi	s1,sp,36
  1011f6:	0000                	unimp
  1011f8:	1044                	addi	s1,sp,36
  1011fa:	0000                	unimp
  1011fc:	1044                	addi	s1,sp,36
  1011fe:	0000                	unimp
  101200:	1071                	c.nop	-4
  101202:	0000                	unimp
  101204:	1071                	c.nop	-4
  101206:	0000                	unimp
  101208:	1071                	c.nop	-4
  10120a:	0000                	unimp
  10120c:	1071                	c.nop	-4
  10120e:	0000                	unimp
  101210:	1071                	c.nop	-4
  101212:	0000                	unimp
  101214:	1071                	c.nop	-4
  101216:	0000                	unimp
  101218:	1071                	c.nop	-4
  10121a:	0000                	unimp
  10121c:	1071                	c.nop	-4
  10121e:	0000                	unimp
  101220:	1071                	c.nop	-4
  101222:	0000                	unimp
  101224:	1071                	c.nop	-4
  101226:	0000                	unimp
  101228:	1071                	c.nop	-4
  10122a:	0000                	unimp
  10122c:	1071                	c.nop	-4
  10122e:	0000                	unimp
  101230:	1071                	c.nop	-4
  101232:	0000                	unimp
  101234:	1071                	c.nop	-4
  101236:	0000                	unimp
  101238:	1071                	c.nop	-4
  10123a:	0000                	unimp
  10123c:	1071                	c.nop	-4
  10123e:	0000                	unimp
  101240:	109e                	slli	ra,ra,0x27
  101242:	0000                	unimp
  101244:	109e                	slli	ra,ra,0x27
  101246:	0000                	unimp
  101248:	109e                	slli	ra,ra,0x27
  10124a:	0000                	unimp
  10124c:	109e                	slli	ra,ra,0x27
  10124e:	0000                	unimp
  101250:	109e                	slli	ra,ra,0x27
  101252:	0000                	unimp
  101254:	109e                	slli	ra,ra,0x27
  101256:	0000                	unimp
  101258:	109e                	slli	ra,ra,0x27
  10125a:	0000                	unimp
  10125c:	109e                	slli	ra,ra,0x27
  10125e:	0000                	unimp
  101260:	109e                	slli	ra,ra,0x27
  101262:	0000                	unimp
  101264:	109e                	slli	ra,ra,0x27
  101266:	0000                	unimp
  101268:	109e                	slli	ra,ra,0x27
  10126a:	0000                	unimp
  10126c:	109e                	slli	ra,ra,0x27
  10126e:	0000                	unimp
  101270:	109e                	slli	ra,ra,0x27
  101272:	0000                	unimp
  101274:	109e                	slli	ra,ra,0x27
  101276:	0000                	unimp
  101278:	109e                	slli	ra,ra,0x27
  10127a:	0000                	unimp
  10127c:	109e                	slli	ra,ra,0x27
  10127e:	0000                	unimp
  101280:	000010cb          	fnmsub.s	ft1,ft0,ft0,ft0,rtz
  101284:	000010cb          	fnmsub.s	ft1,ft0,ft0,ft0,rtz
  101288:	000010cb          	fnmsub.s	ft1,ft0,ft0,ft0,rtz
  10128c:	000010cb          	fnmsub.s	ft1,ft0,ft0,ft0,rtz
  101290:	000010cb          	fnmsub.s	ft1,ft0,ft0,ft0,rtz
  101294:	000010cb          	fnmsub.s	ft1,ft0,ft0,ft0,rtz
  101298:	000010cb          	fnmsub.s	ft1,ft0,ft0,ft0,rtz
  10129c:	000010cb          	fnmsub.s	ft1,ft0,ft0,ft0,rtz
  1012a0:	000010cb          	fnmsub.s	ft1,ft0,ft0,ft0,rtz
  1012a4:	000010cb          	fnmsub.s	ft1,ft0,ft0,ft0,rtz
  1012a8:	000010cb          	fnmsub.s	ft1,ft0,ft0,ft0,rtz
  1012ac:	000010cb          	fnmsub.s	ft1,ft0,ft0,ft0,rtz
  1012b0:	000010cb          	fnmsub.s	ft1,ft0,ft0,ft0,rtz
  1012b4:	000010cb          	fnmsub.s	ft1,ft0,ft0,ft0,rtz
  1012b8:	000010cb          	fnmsub.s	ft1,ft0,ft0,ft0,rtz
  1012bc:	000010cb          	fnmsub.s	ft1,ft0,ft0,ft0,rtz
  1012c0:	10f8                	addi	a4,sp,108
  1012c2:	0000                	unimp
  1012c4:	10f8                	addi	a4,sp,108
  1012c6:	0000                	unimp
  1012c8:	10f8                	addi	a4,sp,108
  1012ca:	0000                	unimp
  1012cc:	10f8                	addi	a4,sp,108
  1012ce:	0000                	unimp
  1012d0:	10f8                	addi	a4,sp,108
  1012d2:	0000                	unimp
  1012d4:	10f8                	addi	a4,sp,108
  1012d6:	0000                	unimp
  1012d8:	10f8                	addi	a4,sp,108
  1012da:	0000                	unimp
  1012dc:	10f8                	addi	a4,sp,108
  1012de:	0000                	unimp
  1012e0:	10f8                	addi	a4,sp,108
  1012e2:	0000                	unimp
  1012e4:	10f8                	addi	a4,sp,108
  1012e6:	0000                	unimp
  1012e8:	10f8                	addi	a4,sp,108
  1012ea:	0000                	unimp
  1012ec:	10f8                	addi	a4,sp,108
  1012ee:	0000                	unimp
  1012f0:	10f8                	addi	a4,sp,108
  1012f2:	0000                	unimp
  1012f4:	10f8                	addi	a4,sp,108
  1012f6:	0000                	unimp
  1012f8:	10f8                	addi	a4,sp,108
  1012fa:	0000                	unimp
  1012fc:	10f8                	addi	a4,sp,108
  1012fe:	0000                	unimp
  101300:	1125                	addi	sp,sp,-23
  101302:	0000                	unimp
  101304:	1125                	addi	sp,sp,-23
  101306:	0000                	unimp
  101308:	1125                	addi	sp,sp,-23
  10130a:	0000                	unimp
  10130c:	1125                	addi	sp,sp,-23
  10130e:	0000                	unimp
  101310:	1125                	addi	sp,sp,-23
  101312:	0000                	unimp
  101314:	1125                	addi	sp,sp,-23
  101316:	0000                	unimp
  101318:	1125                	addi	sp,sp,-23
  10131a:	0000                	unimp
  10131c:	1125                	addi	sp,sp,-23
  10131e:	0000                	unimp
  101320:	1125                	addi	sp,sp,-23
  101322:	0000                	unimp
  101324:	1125                	addi	sp,sp,-23
  101326:	0000                	unimp
  101328:	1125                	addi	sp,sp,-23
  10132a:	0000                	unimp
  10132c:	1125                	addi	sp,sp,-23
  10132e:	0000                	unimp
  101330:	1125                	addi	sp,sp,-23
  101332:	0000                	unimp
  101334:	1125                	addi	sp,sp,-23
  101336:	0000                	unimp
  101338:	1125                	addi	sp,sp,-23
  10133a:	0000                	unimp
  10133c:	1125                	addi	sp,sp,-23
  10133e:	0000                	unimp
  101340:	1152                	slli	sp,sp,0x34
  101342:	0000                	unimp
  101344:	1152                	slli	sp,sp,0x34
  101346:	0000                	unimp
  101348:	1152                	slli	sp,sp,0x34
  10134a:	0000                	unimp
  10134c:	1152                	slli	sp,sp,0x34
  10134e:	0000                	unimp
  101350:	1152                	slli	sp,sp,0x34
  101352:	0000                	unimp
  101354:	1152                	slli	sp,sp,0x34
  101356:	0000                	unimp
  101358:	1152                	slli	sp,sp,0x34
  10135a:	0000                	unimp
  10135c:	1152                	slli	sp,sp,0x34
  10135e:	0000                	unimp
  101360:	1152                	slli	sp,sp,0x34
  101362:	0000                	unimp
  101364:	1152                	slli	sp,sp,0x34
  101366:	0000                	unimp
  101368:	1152                	slli	sp,sp,0x34
  10136a:	0000                	unimp
  10136c:	1152                	slli	sp,sp,0x34
  10136e:	0000                	unimp
  101370:	1152                	slli	sp,sp,0x34
  101372:	0000                	unimp
  101374:	1152                	slli	sp,sp,0x34
  101376:	0000                	unimp
  101378:	1152                	slli	sp,sp,0x34
  10137a:	0000                	unimp
  10137c:	1152                	slli	sp,sp,0x34
  10137e:	0000                	unimp
  101380:	117f                	0x117f
  101382:	0000                	unimp
  101384:	117f                	0x117f
  101386:	0000                	unimp
  101388:	117f                	0x117f
  10138a:	0000                	unimp
  10138c:	117f                	0x117f
  10138e:	0000                	unimp
  101390:	117f                	0x117f
  101392:	0000                	unimp
  101394:	117f                	0x117f
  101396:	0000                	unimp
  101398:	117f                	0x117f
  10139a:	0000                	unimp
  10139c:	117f                	0x117f
  10139e:	0000                	unimp
  1013a0:	117f                	0x117f
  1013a2:	0000                	unimp
  1013a4:	117f                	0x117f
  1013a6:	0000                	unimp
  1013a8:	117f                	0x117f
  1013aa:	0000                	unimp
  1013ac:	117f                	0x117f
  1013ae:	0000                	unimp
  1013b0:	117f                	0x117f
  1013b2:	0000                	unimp
  1013b4:	117f                	0x117f
  1013b6:	0000                	unimp
  1013b8:	117f                	0x117f
  1013ba:	0000                	unimp
  1013bc:	117f                	0x117f
  1013be:	0000                	unimp
  1013c0:	11ac                	addi	a1,sp,232
  1013c2:	0000                	unimp
  1013c4:	11ac                	addi	a1,sp,232
  1013c6:	0000                	unimp
  1013c8:	11ac                	addi	a1,sp,232
  1013ca:	0000                	unimp
  1013cc:	11ac                	addi	a1,sp,232
  1013ce:	0000                	unimp
  1013d0:	11ac                	addi	a1,sp,232
  1013d2:	0000                	unimp
  1013d4:	11ac                	addi	a1,sp,232
  1013d6:	0000                	unimp
  1013d8:	11ac                	addi	a1,sp,232
  1013da:	0000                	unimp
  1013dc:	11ac                	addi	a1,sp,232
  1013de:	0000                	unimp
  1013e0:	11ac                	addi	a1,sp,232
  1013e2:	0000                	unimp
  1013e4:	11ac                	addi	a1,sp,232
  1013e6:	0000                	unimp
  1013e8:	11ac                	addi	a1,sp,232
  1013ea:	0000                	unimp
  1013ec:	11ac                	addi	a1,sp,232
  1013ee:	0000                	unimp
  1013f0:	11ac                	addi	a1,sp,232
  1013f2:	0000                	unimp
  1013f4:	11ac                	addi	a1,sp,232
  1013f6:	0000                	unimp
  1013f8:	11ac                	addi	a1,sp,232
  1013fa:	0000                	unimp
  1013fc:	11ac                	addi	a1,sp,232
  1013fe:	0000                	unimp
  101400:	00001233          	sll	tp,zero,zero
  101404:	00001233          	sll	tp,zero,zero
  101408:	00001233          	sll	tp,zero,zero
  10140c:	00001233          	sll	tp,zero,zero
  101410:	00001233          	sll	tp,zero,zero
  101414:	00001233          	sll	tp,zero,zero
  101418:	00001233          	sll	tp,zero,zero
  10141c:	00001233          	sll	tp,zero,zero
  101420:	00001233          	sll	tp,zero,zero
  101424:	00001233          	sll	tp,zero,zero
  101428:	00001233          	sll	tp,zero,zero
  10142c:	00001233          	sll	tp,zero,zero
  101430:	00001233          	sll	tp,zero,zero
  101434:	00001233          	sll	tp,zero,zero
  101438:	00001233          	sll	tp,zero,zero
  10143c:	00001233          	sll	tp,zero,zero
  101440:	1260                	addi	s0,sp,300
  101442:	0000                	unimp
  101444:	1260                	addi	s0,sp,300
  101446:	0000                	unimp
  101448:	1260                	addi	s0,sp,300
  10144a:	0000                	unimp
  10144c:	1260                	addi	s0,sp,300
  10144e:	0000                	unimp
  101450:	1260                	addi	s0,sp,300
  101452:	0000                	unimp
  101454:	1260                	addi	s0,sp,300
  101456:	0000                	unimp
  101458:	1260                	addi	s0,sp,300
  10145a:	0000                	unimp
  10145c:	1260                	addi	s0,sp,300
  10145e:	0000                	unimp
  101460:	1260                	addi	s0,sp,300
  101462:	0000                	unimp
  101464:	1260                	addi	s0,sp,300
  101466:	0000                	unimp
  101468:	1260                	addi	s0,sp,300
  10146a:	0000                	unimp
  10146c:	1260                	addi	s0,sp,300
  10146e:	0000                	unimp
  101470:	1260                	addi	s0,sp,300
  101472:	0000                	unimp
  101474:	1260                	addi	s0,sp,300
  101476:	0000                	unimp
  101478:	1260                	addi	s0,sp,300
  10147a:	0000                	unimp
  10147c:	1260                	addi	s0,sp,300
  10147e:	0000                	unimp
  101480:	128d                	addi	t0,t0,-29
  101482:	0000                	unimp
  101484:	128d                	addi	t0,t0,-29
  101486:	0000                	unimp
  101488:	128d                	addi	t0,t0,-29
  10148a:	0000                	unimp
  10148c:	128d                	addi	t0,t0,-29
  10148e:	0000                	unimp
  101490:	128d                	addi	t0,t0,-29
  101492:	0000                	unimp
  101494:	128d                	addi	t0,t0,-29
  101496:	0000                	unimp
  101498:	128d                	addi	t0,t0,-29
  10149a:	0000                	unimp
  10149c:	128d                	addi	t0,t0,-29
  10149e:	0000                	unimp
  1014a0:	128d                	addi	t0,t0,-29
  1014a2:	0000                	unimp
  1014a4:	128d                	addi	t0,t0,-29
  1014a6:	0000                	unimp
  1014a8:	128d                	addi	t0,t0,-29
  1014aa:	0000                	unimp
  1014ac:	128d                	addi	t0,t0,-29
  1014ae:	0000                	unimp
  1014b0:	128d                	addi	t0,t0,-29
  1014b2:	0000                	unimp
  1014b4:	128d                	addi	t0,t0,-29
  1014b6:	0000                	unimp
  1014b8:	128d                	addi	t0,t0,-29
  1014ba:	0000                	unimp
  1014bc:	128d                	addi	t0,t0,-29
  1014be:	0000                	unimp
  1014c0:	12ba                	slli	t0,t0,0x2e
  1014c2:	0000                	unimp
  1014c4:	12ba                	slli	t0,t0,0x2e
  1014c6:	0000                	unimp
  1014c8:	12ba                	slli	t0,t0,0x2e
  1014ca:	0000                	unimp
  1014cc:	12ba                	slli	t0,t0,0x2e
  1014ce:	0000                	unimp
  1014d0:	12ba                	slli	t0,t0,0x2e
  1014d2:	0000                	unimp
  1014d4:	12ba                	slli	t0,t0,0x2e
  1014d6:	0000                	unimp
  1014d8:	12ba                	slli	t0,t0,0x2e
  1014da:	0000                	unimp
  1014dc:	12ba                	slli	t0,t0,0x2e
  1014de:	0000                	unimp
  1014e0:	12ba                	slli	t0,t0,0x2e
  1014e2:	0000                	unimp
  1014e4:	12ba                	slli	t0,t0,0x2e
  1014e6:	0000                	unimp
  1014e8:	12ba                	slli	t0,t0,0x2e
  1014ea:	0000                	unimp
  1014ec:	12ba                	slli	t0,t0,0x2e
  1014ee:	0000                	unimp
  1014f0:	12ba                	slli	t0,t0,0x2e
  1014f2:	0000                	unimp
  1014f4:	12ba                	slli	t0,t0,0x2e
  1014f6:	0000                	unimp
  1014f8:	12ba                	slli	t0,t0,0x2e
  1014fa:	0000                	unimp
  1014fc:	12ba                	slli	t0,t0,0x2e
  1014fe:	0000                	unimp
  101500:	000012e7          	0x12e7
  101504:	000012e7          	0x12e7
  101508:	000012e7          	0x12e7
  10150c:	000012e7          	0x12e7
  101510:	000012e7          	0x12e7
  101514:	000012e7          	0x12e7
  101518:	000012e7          	0x12e7
  10151c:	000012e7          	0x12e7
  101520:	000012e7          	0x12e7
  101524:	000012e7          	0x12e7
  101528:	000012e7          	0x12e7
  10152c:	000012e7          	0x12e7
  101530:	000012e7          	0x12e7
  101534:	000012e7          	0x12e7
  101538:	000012e7          	0x12e7
  10153c:	000012e7          	0x12e7
  101540:	1314                	addi	a3,sp,416
  101542:	0000                	unimp
  101544:	1314                	addi	a3,sp,416
  101546:	0000                	unimp
  101548:	1314                	addi	a3,sp,416
  10154a:	0000                	unimp
  10154c:	1314                	addi	a3,sp,416
  10154e:	0000                	unimp
  101550:	1314                	addi	a3,sp,416
  101552:	0000                	unimp
  101554:	1314                	addi	a3,sp,416
  101556:	0000                	unimp
  101558:	1314                	addi	a3,sp,416
  10155a:	0000                	unimp
  10155c:	1314                	addi	a3,sp,416
  10155e:	0000                	unimp
  101560:	1314                	addi	a3,sp,416
  101562:	0000                	unimp
  101564:	1314                	addi	a3,sp,416
  101566:	0000                	unimp
  101568:	1314                	addi	a3,sp,416
  10156a:	0000                	unimp
  10156c:	1314                	addi	a3,sp,416
  10156e:	0000                	unimp
  101570:	1314                	addi	a3,sp,416
  101572:	0000                	unimp
  101574:	1314                	addi	a3,sp,416
  101576:	0000                	unimp
  101578:	1314                	addi	a3,sp,416
  10157a:	0000                	unimp
  10157c:	1314                	addi	a3,sp,416
  10157e:	0000                	unimp
  101580:	1341                	addi	t1,t1,-16
  101582:	0000                	unimp
  101584:	1341                	addi	t1,t1,-16
  101586:	0000                	unimp
  101588:	1341                	addi	t1,t1,-16
  10158a:	0000                	unimp
  10158c:	1341                	addi	t1,t1,-16
  10158e:	0000                	unimp
  101590:	1341                	addi	t1,t1,-16
  101592:	0000                	unimp
  101594:	1341                	addi	t1,t1,-16
  101596:	0000                	unimp
  101598:	1341                	addi	t1,t1,-16
  10159a:	0000                	unimp
  10159c:	1341                	addi	t1,t1,-16
  10159e:	0000                	unimp
  1015a0:	1341                	addi	t1,t1,-16
  1015a2:	0000                	unimp
  1015a4:	1341                	addi	t1,t1,-16
  1015a6:	0000                	unimp
  1015a8:	1341                	addi	t1,t1,-16
  1015aa:	0000                	unimp
  1015ac:	1341                	addi	t1,t1,-16
  1015ae:	0000                	unimp
  1015b0:	1341                	addi	t1,t1,-16
  1015b2:	0000                	unimp
  1015b4:	1341                	addi	t1,t1,-16
  1015b6:	0000                	unimp
  1015b8:	1341                	addi	t1,t1,-16
  1015ba:	0000                	unimp
  1015bc:	1341                	addi	t1,t1,-16
  1015be:	0000                	unimp
  1015c0:	136e                	slli	t1,t1,0x3b
  1015c2:	0000                	unimp
  1015c4:	136e                	slli	t1,t1,0x3b
  1015c6:	0000                	unimp
  1015c8:	136e                	slli	t1,t1,0x3b
  1015ca:	0000                	unimp
  1015cc:	136e                	slli	t1,t1,0x3b
  1015ce:	0000                	unimp
  1015d0:	136e                	slli	t1,t1,0x3b
  1015d2:	0000                	unimp
  1015d4:	136e                	slli	t1,t1,0x3b
  1015d6:	0000                	unimp
  1015d8:	136e                	slli	t1,t1,0x3b
  1015da:	0000                	unimp
  1015dc:	136e                	slli	t1,t1,0x3b
  1015de:	0000                	unimp
  1015e0:	136e                	slli	t1,t1,0x3b
  1015e2:	0000                	unimp
  1015e4:	136e                	slli	t1,t1,0x3b
  1015e6:	0000                	unimp
  1015e8:	136e                	slli	t1,t1,0x3b
  1015ea:	0000                	unimp
  1015ec:	136e                	slli	t1,t1,0x3b
  1015ee:	0000                	unimp
  1015f0:	136e                	slli	t1,t1,0x3b
  1015f2:	0000                	unimp
  1015f4:	136e                	slli	t1,t1,0x3b
  1015f6:	0000                	unimp
  1015f8:	136e                	slli	t1,t1,0x3b
  1015fa:	0000                	unimp
  1015fc:	136e                	slli	t1,t1,0x3b
  1015fe:	0000                	unimp
  101600:	0000139b          	0x139b
  101604:	0000139b          	0x139b
  101608:	0000139b          	0x139b
  10160c:	0000139b          	0x139b
  101610:	0000139b          	0x139b
  101614:	0000139b          	0x139b
  101618:	0000139b          	0x139b
  10161c:	0000139b          	0x139b
  101620:	0000139b          	0x139b
  101624:	0000139b          	0x139b
  101628:	0000139b          	0x139b
  10162c:	0000139b          	0x139b
  101630:	0000139b          	0x139b
  101634:	0000139b          	0x139b
  101638:	0000139b          	0x139b
  10163c:	0000139b          	0x139b
  101640:	13c8                	addi	a0,sp,484
  101642:	0000                	unimp
  101644:	13c8                	addi	a0,sp,484
  101646:	0000                	unimp
  101648:	13c8                	addi	a0,sp,484
  10164a:	0000                	unimp
  10164c:	13c8                	addi	a0,sp,484
  10164e:	0000                	unimp
  101650:	13c8                	addi	a0,sp,484
  101652:	0000                	unimp
  101654:	13c8                	addi	a0,sp,484
  101656:	0000                	unimp
  101658:	13c8                	addi	a0,sp,484
  10165a:	0000                	unimp
  10165c:	13c8                	addi	a0,sp,484
  10165e:	0000                	unimp
  101660:	13c8                	addi	a0,sp,484
  101662:	0000                	unimp
  101664:	13c8                	addi	a0,sp,484
  101666:	0000                	unimp
  101668:	13c8                	addi	a0,sp,484
  10166a:	0000                	unimp
  10166c:	13c8                	addi	a0,sp,484
  10166e:	0000                	unimp
  101670:	13c8                	addi	a0,sp,484
  101672:	0000                	unimp
  101674:	13c8                	addi	a0,sp,484
  101676:	0000                	unimp
  101678:	13c8                	addi	a0,sp,484
  10167a:	0000                	unimp
  10167c:	13c8                	addi	a0,sp,484
  10167e:	0000                	unimp
  101680:	13f5                	addi	t2,t2,-3
  101682:	0000                	unimp
  101684:	13f5                	addi	t2,t2,-3
  101686:	0000                	unimp
  101688:	13f5                	addi	t2,t2,-3
  10168a:	0000                	unimp
  10168c:	13f5                	addi	t2,t2,-3
  10168e:	0000                	unimp
  101690:	13f5                	addi	t2,t2,-3
  101692:	0000                	unimp
  101694:	13f5                	addi	t2,t2,-3
  101696:	0000                	unimp
  101698:	13f5                	addi	t2,t2,-3
  10169a:	0000                	unimp
  10169c:	13f5                	addi	t2,t2,-3
  10169e:	0000                	unimp
  1016a0:	13f5                	addi	t2,t2,-3
  1016a2:	0000                	unimp
  1016a4:	13f5                	addi	t2,t2,-3
  1016a6:	0000                	unimp
  1016a8:	13f5                	addi	t2,t2,-3
  1016aa:	0000                	unimp
  1016ac:	13f5                	addi	t2,t2,-3
  1016ae:	0000                	unimp
  1016b0:	13f5                	addi	t2,t2,-3
  1016b2:	0000                	unimp
  1016b4:	13f5                	addi	t2,t2,-3
  1016b6:	0000                	unimp
  1016b8:	13f5                	addi	t2,t2,-3
  1016ba:	0000                	unimp
  1016bc:	13f5                	addi	t2,t2,-3
  1016be:	0000                	unimp
  1016c0:	1422                	slli	s0,s0,0x28
  1016c2:	0000                	unimp
  1016c4:	1422                	slli	s0,s0,0x28
  1016c6:	0000                	unimp
  1016c8:	1422                	slli	s0,s0,0x28
  1016ca:	0000                	unimp
  1016cc:	1422                	slli	s0,s0,0x28
  1016ce:	0000                	unimp
  1016d0:	1422                	slli	s0,s0,0x28
  1016d2:	0000                	unimp
  1016d4:	1422                	slli	s0,s0,0x28
  1016d6:	0000                	unimp
  1016d8:	1422                	slli	s0,s0,0x28
  1016da:	0000                	unimp
  1016dc:	1422                	slli	s0,s0,0x28
  1016de:	0000                	unimp
  1016e0:	1422                	slli	s0,s0,0x28
  1016e2:	0000                	unimp
  1016e4:	1422                	slli	s0,s0,0x28
  1016e6:	0000                	unimp
  1016e8:	1422                	slli	s0,s0,0x28
  1016ea:	0000                	unimp
  1016ec:	1422                	slli	s0,s0,0x28
  1016ee:	0000                	unimp
  1016f0:	1422                	slli	s0,s0,0x28
  1016f2:	0000                	unimp
  1016f4:	1422                	slli	s0,s0,0x28
  1016f6:	0000                	unimp
  1016f8:	1422                	slli	s0,s0,0x28
  1016fa:	0000                	unimp
  1016fc:	1422                	slli	s0,s0,0x28
  1016fe:	0000                	unimp
  101700:	0000144f          	fnmadd.s	fs0,ft0,ft0,ft0,rtz
  101704:	0000144f          	fnmadd.s	fs0,ft0,ft0,ft0,rtz
  101708:	0000144f          	fnmadd.s	fs0,ft0,ft0,ft0,rtz
  10170c:	0000144f          	fnmadd.s	fs0,ft0,ft0,ft0,rtz
  101710:	0000144f          	fnmadd.s	fs0,ft0,ft0,ft0,rtz
  101714:	0000144f          	fnmadd.s	fs0,ft0,ft0,ft0,rtz
  101718:	0000144f          	fnmadd.s	fs0,ft0,ft0,ft0,rtz
  10171c:	0000144f          	fnmadd.s	fs0,ft0,ft0,ft0,rtz
  101720:	0000144f          	fnmadd.s	fs0,ft0,ft0,ft0,rtz
  101724:	0000144f          	fnmadd.s	fs0,ft0,ft0,ft0,rtz
  101728:	0000144f          	fnmadd.s	fs0,ft0,ft0,ft0,rtz
  10172c:	0000144f          	fnmadd.s	fs0,ft0,ft0,ft0,rtz
  101730:	0000144f          	fnmadd.s	fs0,ft0,ft0,ft0,rtz
  101734:	0000144f          	fnmadd.s	fs0,ft0,ft0,ft0,rtz
  101738:	0000144f          	fnmadd.s	fs0,ft0,ft0,ft0,rtz
  10173c:	0000144f          	fnmadd.s	fs0,ft0,ft0,ft0,rtz
  101740:	147c                	addi	a5,sp,556
  101742:	0000                	unimp
  101744:	147c                	addi	a5,sp,556
  101746:	0000                	unimp
  101748:	147c                	addi	a5,sp,556
  10174a:	0000                	unimp
  10174c:	147c                	addi	a5,sp,556
  10174e:	0000                	unimp
  101750:	147c                	addi	a5,sp,556
  101752:	0000                	unimp
  101754:	147c                	addi	a5,sp,556
  101756:	0000                	unimp
  101758:	147c                	addi	a5,sp,556
  10175a:	0000                	unimp
  10175c:	147c                	addi	a5,sp,556
  10175e:	0000                	unimp
  101760:	147c                	addi	a5,sp,556
  101762:	0000                	unimp
  101764:	147c                	addi	a5,sp,556
  101766:	0000                	unimp
  101768:	147c                	addi	a5,sp,556
  10176a:	0000                	unimp
  10176c:	147c                	addi	a5,sp,556
  10176e:	0000                	unimp
  101770:	147c                	addi	a5,sp,556
  101772:	0000                	unimp
  101774:	147c                	addi	a5,sp,556
  101776:	0000                	unimp
  101778:	147c                	addi	a5,sp,556
  10177a:	0000                	unimp
  10177c:	147c                	addi	a5,sp,556
  10177e:	0000                	unimp
  101780:	00001503          	lh	a0,0(zero) # 0 <boot>
  101784:	00001503          	lh	a0,0(zero) # 0 <boot>
  101788:	00001503          	lh	a0,0(zero) # 0 <boot>
  10178c:	00001503          	lh	a0,0(zero) # 0 <boot>
  101790:	00001503          	lh	a0,0(zero) # 0 <boot>
  101794:	00001503          	lh	a0,0(zero) # 0 <boot>
  101798:	00001503          	lh	a0,0(zero) # 0 <boot>
  10179c:	00001503          	lh	a0,0(zero) # 0 <boot>
  1017a0:	00001503          	lh	a0,0(zero) # 0 <boot>
  1017a4:	00001503          	lh	a0,0(zero) # 0 <boot>
  1017a8:	00001503          	lh	a0,0(zero) # 0 <boot>
  1017ac:	00001503          	lh	a0,0(zero) # 0 <boot>
  1017b0:	00001503          	lh	a0,0(zero) # 0 <boot>
  1017b4:	00001503          	lh	a0,0(zero) # 0 <boot>
  1017b8:	00001503          	lh	a0,0(zero) # 0 <boot>
  1017bc:	00001503          	lh	a0,0(zero) # 0 <boot>
  1017c0:	1530                	addi	a2,sp,680
  1017c2:	0000                	unimp
  1017c4:	1530                	addi	a2,sp,680
  1017c6:	0000                	unimp
  1017c8:	1530                	addi	a2,sp,680
  1017ca:	0000                	unimp
  1017cc:	1530                	addi	a2,sp,680
  1017ce:	0000                	unimp
  1017d0:	1530                	addi	a2,sp,680
  1017d2:	0000                	unimp
  1017d4:	1530                	addi	a2,sp,680
  1017d6:	0000                	unimp
  1017d8:	1530                	addi	a2,sp,680
  1017da:	0000                	unimp
  1017dc:	1530                	addi	a2,sp,680
  1017de:	0000                	unimp
  1017e0:	1530                	addi	a2,sp,680
  1017e2:	0000                	unimp
  1017e4:	1530                	addi	a2,sp,680
  1017e6:	0000                	unimp
  1017e8:	1530                	addi	a2,sp,680
  1017ea:	0000                	unimp
  1017ec:	1530                	addi	a2,sp,680
  1017ee:	0000                	unimp
  1017f0:	1530                	addi	a2,sp,680
  1017f2:	0000                	unimp
  1017f4:	1530                	addi	a2,sp,680
  1017f6:	0000                	unimp
  1017f8:	1530                	addi	a2,sp,680
  1017fa:	0000                	unimp
  1017fc:	1530                	addi	a2,sp,680
  1017fe:	0000                	unimp
  101800:	155d                	addi	a0,a0,-9
  101802:	0000                	unimp
  101804:	155d                	addi	a0,a0,-9
  101806:	0000                	unimp
  101808:	155d                	addi	a0,a0,-9
  10180a:	0000                	unimp
  10180c:	155d                	addi	a0,a0,-9
  10180e:	0000                	unimp
  101810:	155d                	addi	a0,a0,-9
  101812:	0000                	unimp
  101814:	155d                	addi	a0,a0,-9
  101816:	0000                	unimp
  101818:	155d                	addi	a0,a0,-9
  10181a:	0000                	unimp
  10181c:	155d                	addi	a0,a0,-9
  10181e:	0000                	unimp
  101820:	155d                	addi	a0,a0,-9
  101822:	0000                	unimp
  101824:	155d                	addi	a0,a0,-9
  101826:	0000                	unimp
  101828:	155d                	addi	a0,a0,-9
  10182a:	0000                	unimp
  10182c:	155d                	addi	a0,a0,-9
  10182e:	0000                	unimp
  101830:	155d                	addi	a0,a0,-9
  101832:	0000                	unimp
  101834:	155d                	addi	a0,a0,-9
  101836:	0000                	unimp
  101838:	155d                	addi	a0,a0,-9
  10183a:	0000                	unimp
  10183c:	155d                	addi	a0,a0,-9
  10183e:	0000                	unimp
  101840:	158a                	slli	a1,a1,0x22
  101842:	0000                	unimp
  101844:	158a                	slli	a1,a1,0x22
  101846:	0000                	unimp
  101848:	158a                	slli	a1,a1,0x22
  10184a:	0000                	unimp
  10184c:	158a                	slli	a1,a1,0x22
  10184e:	0000                	unimp
  101850:	158a                	slli	a1,a1,0x22
  101852:	0000                	unimp
  101854:	158a                	slli	a1,a1,0x22
  101856:	0000                	unimp
  101858:	158a                	slli	a1,a1,0x22
  10185a:	0000                	unimp
  10185c:	158a                	slli	a1,a1,0x22
  10185e:	0000                	unimp
  101860:	158a                	slli	a1,a1,0x22
  101862:	0000                	unimp
  101864:	158a                	slli	a1,a1,0x22
  101866:	0000                	unimp
  101868:	158a                	slli	a1,a1,0x22
  10186a:	0000                	unimp
  10186c:	158a                	slli	a1,a1,0x22
  10186e:	0000                	unimp
  101870:	158a                	slli	a1,a1,0x22
  101872:	0000                	unimp
  101874:	158a                	slli	a1,a1,0x22
  101876:	0000                	unimp
  101878:	158a                	slli	a1,a1,0x22
  10187a:	0000                	unimp
  10187c:	158a                	slli	a1,a1,0x22
  10187e:	0000                	unimp
  101880:	000015b7          	lui	a1,0x1
  101884:	000015b7          	lui	a1,0x1
  101888:	000015b7          	lui	a1,0x1
  10188c:	000015b7          	lui	a1,0x1
  101890:	000015b7          	lui	a1,0x1
  101894:	000015b7          	lui	a1,0x1
  101898:	000015b7          	lui	a1,0x1
  10189c:	000015b7          	lui	a1,0x1
  1018a0:	000015b7          	lui	a1,0x1
  1018a4:	000015b7          	lui	a1,0x1
  1018a8:	000015b7          	lui	a1,0x1
  1018ac:	000015b7          	lui	a1,0x1
  1018b0:	000015b7          	lui	a1,0x1
  1018b4:	000015b7          	lui	a1,0x1
  1018b8:	000015b7          	lui	a1,0x1
  1018bc:	000015b7          	lui	a1,0x1
  1018c0:	15e4                	addi	s1,sp,748
  1018c2:	0000                	unimp
  1018c4:	15e4                	addi	s1,sp,748
  1018c6:	0000                	unimp
  1018c8:	15e4                	addi	s1,sp,748
  1018ca:	0000                	unimp
  1018cc:	15e4                	addi	s1,sp,748
  1018ce:	0000                	unimp
  1018d0:	15e4                	addi	s1,sp,748
  1018d2:	0000                	unimp
  1018d4:	15e4                	addi	s1,sp,748
  1018d6:	0000                	unimp
  1018d8:	15e4                	addi	s1,sp,748
  1018da:	0000                	unimp
  1018dc:	15e4                	addi	s1,sp,748
  1018de:	0000                	unimp
  1018e0:	15e4                	addi	s1,sp,748
  1018e2:	0000                	unimp
  1018e4:	15e4                	addi	s1,sp,748
  1018e6:	0000                	unimp
  1018e8:	15e4                	addi	s1,sp,748
  1018ea:	0000                	unimp
  1018ec:	15e4                	addi	s1,sp,748
  1018ee:	0000                	unimp
  1018f0:	15e4                	addi	s1,sp,748
  1018f2:	0000                	unimp
  1018f4:	15e4                	addi	s1,sp,748
  1018f6:	0000                	unimp
  1018f8:	15e4                	addi	s1,sp,748
  1018fa:	0000                	unimp
  1018fc:	15e4                	addi	s1,sp,748
  1018fe:	0000                	unimp
  101900:	1611                	addi	a2,a2,-28
  101902:	0000                	unimp
  101904:	1611                	addi	a2,a2,-28
  101906:	0000                	unimp
  101908:	1611                	addi	a2,a2,-28
  10190a:	0000                	unimp
  10190c:	1611                	addi	a2,a2,-28
  10190e:	0000                	unimp
  101910:	1611                	addi	a2,a2,-28
  101912:	0000                	unimp
  101914:	1611                	addi	a2,a2,-28
  101916:	0000                	unimp
  101918:	1611                	addi	a2,a2,-28
  10191a:	0000                	unimp
  10191c:	1611                	addi	a2,a2,-28
  10191e:	0000                	unimp
  101920:	1611                	addi	a2,a2,-28
  101922:	0000                	unimp
  101924:	1611                	addi	a2,a2,-28
  101926:	0000                	unimp
  101928:	1611                	addi	a2,a2,-28
  10192a:	0000                	unimp
  10192c:	1611                	addi	a2,a2,-28
  10192e:	0000                	unimp
  101930:	1611                	addi	a2,a2,-28
  101932:	0000                	unimp
  101934:	1611                	addi	a2,a2,-28
  101936:	0000                	unimp
  101938:	1611                	addi	a2,a2,-28
  10193a:	0000                	unimp
  10193c:	1611                	addi	a2,a2,-28
  10193e:	0000                	unimp
  101940:	163e                	slli	a2,a2,0x2f
  101942:	0000                	unimp
  101944:	163e                	slli	a2,a2,0x2f
  101946:	0000                	unimp
  101948:	163e                	slli	a2,a2,0x2f
  10194a:	0000                	unimp
  10194c:	163e                	slli	a2,a2,0x2f
  10194e:	0000                	unimp
  101950:	163e                	slli	a2,a2,0x2f
  101952:	0000                	unimp
  101954:	163e                	slli	a2,a2,0x2f
  101956:	0000                	unimp
  101958:	163e                	slli	a2,a2,0x2f
  10195a:	0000                	unimp
  10195c:	163e                	slli	a2,a2,0x2f
  10195e:	0000                	unimp
  101960:	163e                	slli	a2,a2,0x2f
  101962:	0000                	unimp
  101964:	163e                	slli	a2,a2,0x2f
  101966:	0000                	unimp
  101968:	163e                	slli	a2,a2,0x2f
  10196a:	0000                	unimp
  10196c:	163e                	slli	a2,a2,0x2f
  10196e:	0000                	unimp
  101970:	163e                	slli	a2,a2,0x2f
  101972:	0000                	unimp
  101974:	163e                	slli	a2,a2,0x2f
  101976:	0000                	unimp
  101978:	163e                	slli	a2,a2,0x2f
  10197a:	0000                	unimp
  10197c:	163e                	slli	a2,a2,0x2f
  10197e:	0000                	unimp
  101980:	0000166b          	0x166b
  101984:	0000166b          	0x166b
  101988:	0000166b          	0x166b
  10198c:	0000166b          	0x166b
  101990:	0000166b          	0x166b
  101994:	0000166b          	0x166b
  101998:	0000166b          	0x166b
  10199c:	0000166b          	0x166b
  1019a0:	0000166b          	0x166b
  1019a4:	0000166b          	0x166b
  1019a8:	0000166b          	0x166b
  1019ac:	0000166b          	0x166b
  1019b0:	0000166b          	0x166b
  1019b4:	0000166b          	0x166b
  1019b8:	0000166b          	0x166b
  1019bc:	0000166b          	0x166b
  1019c0:	1698                	addi	a4,sp,864
  1019c2:	0000                	unimp
  1019c4:	1698                	addi	a4,sp,864
  1019c6:	0000                	unimp
  1019c8:	1698                	addi	a4,sp,864
  1019ca:	0000                	unimp
  1019cc:	1698                	addi	a4,sp,864
  1019ce:	0000                	unimp
  1019d0:	1698                	addi	a4,sp,864
  1019d2:	0000                	unimp
  1019d4:	1698                	addi	a4,sp,864
  1019d6:	0000                	unimp
  1019d8:	1698                	addi	a4,sp,864
  1019da:	0000                	unimp
  1019dc:	1698                	addi	a4,sp,864
  1019de:	0000                	unimp
  1019e0:	1698                	addi	a4,sp,864
  1019e2:	0000                	unimp
  1019e4:	1698                	addi	a4,sp,864
  1019e6:	0000                	unimp
  1019e8:	1698                	addi	a4,sp,864
  1019ea:	0000                	unimp
  1019ec:	1698                	addi	a4,sp,864
  1019ee:	0000                	unimp
  1019f0:	1698                	addi	a4,sp,864
  1019f2:	0000                	unimp
  1019f4:	1698                	addi	a4,sp,864
  1019f6:	0000                	unimp
  1019f8:	1698                	addi	a4,sp,864
  1019fa:	0000                	unimp
  1019fc:	1698                	addi	a4,sp,864
  1019fe:	0000                	unimp
  101a00:	16c5                	addi	a3,a3,-15
  101a02:	0000                	unimp
  101a04:	16c5                	addi	a3,a3,-15
  101a06:	0000                	unimp
  101a08:	16c5                	addi	a3,a3,-15
  101a0a:	0000                	unimp
  101a0c:	16c5                	addi	a3,a3,-15
  101a0e:	0000                	unimp
  101a10:	16c5                	addi	a3,a3,-15
  101a12:	0000                	unimp
  101a14:	16c5                	addi	a3,a3,-15
  101a16:	0000                	unimp
  101a18:	16c5                	addi	a3,a3,-15
  101a1a:	0000                	unimp
  101a1c:	16c5                	addi	a3,a3,-15
  101a1e:	0000                	unimp
  101a20:	16c5                	addi	a3,a3,-15
  101a22:	0000                	unimp
  101a24:	16c5                	addi	a3,a3,-15
  101a26:	0000                	unimp
  101a28:	16c5                	addi	a3,a3,-15
  101a2a:	0000                	unimp
  101a2c:	16c5                	addi	a3,a3,-15
  101a2e:	0000                	unimp
  101a30:	16c5                	addi	a3,a3,-15
  101a32:	0000                	unimp
  101a34:	16c5                	addi	a3,a3,-15
  101a36:	0000                	unimp
  101a38:	16c5                	addi	a3,a3,-15
  101a3a:	0000                	unimp
  101a3c:	16c5                	addi	a3,a3,-15
  101a3e:	0000                	unimp
  101a40:	16f2                	slli	a3,a3,0x3c
  101a42:	0000                	unimp
  101a44:	16f2                	slli	a3,a3,0x3c
  101a46:	0000                	unimp
  101a48:	16f2                	slli	a3,a3,0x3c
  101a4a:	0000                	unimp
  101a4c:	16f2                	slli	a3,a3,0x3c
  101a4e:	0000                	unimp
  101a50:	16f2                	slli	a3,a3,0x3c
  101a52:	0000                	unimp
  101a54:	16f2                	slli	a3,a3,0x3c
  101a56:	0000                	unimp
  101a58:	16f2                	slli	a3,a3,0x3c
  101a5a:	0000                	unimp
  101a5c:	16f2                	slli	a3,a3,0x3c
  101a5e:	0000                	unimp
  101a60:	16f2                	slli	a3,a3,0x3c
  101a62:	0000                	unimp
  101a64:	16f2                	slli	a3,a3,0x3c
  101a66:	0000                	unimp
  101a68:	16f2                	slli	a3,a3,0x3c
  101a6a:	0000                	unimp
  101a6c:	16f2                	slli	a3,a3,0x3c
  101a6e:	0000                	unimp
  101a70:	16f2                	slli	a3,a3,0x3c
  101a72:	0000                	unimp
  101a74:	16f2                	slli	a3,a3,0x3c
  101a76:	0000                	unimp
  101a78:	16f2                	slli	a3,a3,0x3c
  101a7a:	0000                	unimp
  101a7c:	16f2                	slli	a3,a3,0x3c
  101a7e:	0000                	unimp
  101a80:	171f 0000 171f      	0x171f0000171f
  101a86:	0000                	unimp
  101a88:	171f 0000 171f      	0x171f0000171f
  101a8e:	0000                	unimp
  101a90:	171f 0000 171f      	0x171f0000171f
  101a96:	0000                	unimp
  101a98:	171f 0000 171f      	0x171f0000171f
  101a9e:	0000                	unimp
  101aa0:	171f 0000 171f      	0x171f0000171f
  101aa6:	0000                	unimp
  101aa8:	171f 0000 171f      	0x171f0000171f
  101aae:	0000                	unimp
  101ab0:	171f 0000 171f      	0x171f0000171f
  101ab6:	0000                	unimp
  101ab8:	171f 0000 171f      	0x171f0000171f
  101abe:	0000                	unimp
  101ac0:	174c                	addi	a1,sp,932
  101ac2:	0000                	unimp
  101ac4:	174c                	addi	a1,sp,932
  101ac6:	0000                	unimp
  101ac8:	174c                	addi	a1,sp,932
  101aca:	0000                	unimp
  101acc:	174c                	addi	a1,sp,932
  101ace:	0000                	unimp
  101ad0:	174c                	addi	a1,sp,932
  101ad2:	0000                	unimp
  101ad4:	174c                	addi	a1,sp,932
  101ad6:	0000                	unimp
  101ad8:	174c                	addi	a1,sp,932
  101ada:	0000                	unimp
  101adc:	174c                	addi	a1,sp,932
  101ade:	0000                	unimp
  101ae0:	174c                	addi	a1,sp,932
  101ae2:	0000                	unimp
  101ae4:	174c                	addi	a1,sp,932
  101ae6:	0000                	unimp
  101ae8:	174c                	addi	a1,sp,932
  101aea:	0000                	unimp
  101aec:	174c                	addi	a1,sp,932
  101aee:	0000                	unimp
  101af0:	174c                	addi	a1,sp,932
  101af2:	0000                	unimp
  101af4:	174c                	addi	a1,sp,932
  101af6:	0000                	unimp
  101af8:	174c                	addi	a1,sp,932
  101afa:	0000                	unimp
  101afc:	174c                	addi	a1,sp,932
  101afe:	0000                	unimp
  101b00:	000017d3          	fadd.s	fa5,ft0,ft0,rtz
  101b04:	000017d3          	fadd.s	fa5,ft0,ft0,rtz
  101b08:	000017d3          	fadd.s	fa5,ft0,ft0,rtz
  101b0c:	000017d3          	fadd.s	fa5,ft0,ft0,rtz
  101b10:	000017d3          	fadd.s	fa5,ft0,ft0,rtz
  101b14:	000017d3          	fadd.s	fa5,ft0,ft0,rtz
  101b18:	000017d3          	fadd.s	fa5,ft0,ft0,rtz
  101b1c:	000017d3          	fadd.s	fa5,ft0,ft0,rtz
  101b20:	000017d3          	fadd.s	fa5,ft0,ft0,rtz
  101b24:	000017d3          	fadd.s	fa5,ft0,ft0,rtz
  101b28:	000017d3          	fadd.s	fa5,ft0,ft0,rtz
  101b2c:	000017d3          	fadd.s	fa5,ft0,ft0,rtz
  101b30:	000017d3          	fadd.s	fa5,ft0,ft0,rtz
  101b34:	000017d3          	fadd.s	fa5,ft0,ft0,rtz
  101b38:	000017d3          	fadd.s	fa5,ft0,ft0,rtz
  101b3c:	000017d3          	fadd.s	fa5,ft0,ft0,rtz
  101b40:	1800                	addi	s0,sp,48
  101b42:	0000                	unimp
  101b44:	1800                	addi	s0,sp,48
  101b46:	0000                	unimp
  101b48:	1800                	addi	s0,sp,48
  101b4a:	0000                	unimp
  101b4c:	1800                	addi	s0,sp,48
  101b4e:	0000                	unimp
  101b50:	1800                	addi	s0,sp,48
  101b52:	0000                	unimp
  101b54:	1800                	addi	s0,sp,48
  101b56:	0000                	unimp
  101b58:	1800                	addi	s0,sp,48
  101b5a:	0000                	unimp
  101b5c:	1800                	addi	s0,sp,48
  101b5e:	0000                	unimp
  101b60:	1800                	addi	s0,sp,48
  101b62:	0000                	unimp
  101b64:	1800                	addi	s0,sp,48
  101b66:	0000                	unimp
  101b68:	1800                	addi	s0,sp,48
  101b6a:	0000                	unimp
  101b6c:	1800                	addi	s0,sp,48
  101b6e:	0000                	unimp
  101b70:	1800                	addi	s0,sp,48
  101b72:	0000                	unimp
  101b74:	1800                	addi	s0,sp,48
  101b76:	0000                	unimp
  101b78:	1800                	addi	s0,sp,48
  101b7a:	0000                	unimp
  101b7c:	1800                	addi	s0,sp,48
  101b7e:	0000                	unimp
  101b80:	182d                	addi	a6,a6,-21
  101b82:	0000                	unimp
  101b84:	182d                	addi	a6,a6,-21
  101b86:	0000                	unimp
  101b88:	182d                	addi	a6,a6,-21
  101b8a:	0000                	unimp
  101b8c:	182d                	addi	a6,a6,-21
  101b8e:	0000                	unimp
  101b90:	182d                	addi	a6,a6,-21
  101b92:	0000                	unimp
  101b94:	182d                	addi	a6,a6,-21
  101b96:	0000                	unimp
  101b98:	182d                	addi	a6,a6,-21
  101b9a:	0000                	unimp
  101b9c:	182d                	addi	a6,a6,-21
  101b9e:	0000                	unimp
  101ba0:	182d                	addi	a6,a6,-21
  101ba2:	0000                	unimp
  101ba4:	182d                	addi	a6,a6,-21
  101ba6:	0000                	unimp
  101ba8:	182d                	addi	a6,a6,-21
  101baa:	0000                	unimp
  101bac:	182d                	addi	a6,a6,-21
  101bae:	0000                	unimp
  101bb0:	182d                	addi	a6,a6,-21
  101bb2:	0000                	unimp
  101bb4:	182d                	addi	a6,a6,-21
  101bb6:	0000                	unimp
  101bb8:	182d                	addi	a6,a6,-21
  101bba:	0000                	unimp
  101bbc:	182d                	addi	a6,a6,-21
  101bbe:	0000                	unimp
  101bc0:	185a                	slli	a6,a6,0x36
  101bc2:	0000                	unimp
  101bc4:	185a                	slli	a6,a6,0x36
  101bc6:	0000                	unimp
  101bc8:	185a                	slli	a6,a6,0x36
  101bca:	0000                	unimp
  101bcc:	185a                	slli	a6,a6,0x36
  101bce:	0000                	unimp
  101bd0:	185a                	slli	a6,a6,0x36
  101bd2:	0000                	unimp
  101bd4:	185a                	slli	a6,a6,0x36
  101bd6:	0000                	unimp
  101bd8:	185a                	slli	a6,a6,0x36
  101bda:	0000                	unimp
  101bdc:	185a                	slli	a6,a6,0x36
  101bde:	0000                	unimp
  101be0:	185a                	slli	a6,a6,0x36
  101be2:	0000                	unimp
  101be4:	185a                	slli	a6,a6,0x36
  101be6:	0000                	unimp
  101be8:	185a                	slli	a6,a6,0x36
  101bea:	0000                	unimp
  101bec:	185a                	slli	a6,a6,0x36
  101bee:	0000                	unimp
  101bf0:	185a                	slli	a6,a6,0x36
  101bf2:	0000                	unimp
  101bf4:	185a                	slli	a6,a6,0x36
  101bf6:	0000                	unimp
  101bf8:	185a                	slli	a6,a6,0x36
  101bfa:	0000                	unimp
  101bfc:	185a                	slli	a6,a6,0x36
  101bfe:	0000                	unimp
  101c00:	00001887          	flh	fa7,0(zero) # 0 <boot>
  101c04:	00001887          	flh	fa7,0(zero) # 0 <boot>
  101c08:	00001887          	flh	fa7,0(zero) # 0 <boot>
  101c0c:	00001887          	flh	fa7,0(zero) # 0 <boot>
  101c10:	00001887          	flh	fa7,0(zero) # 0 <boot>
  101c14:	00001887          	flh	fa7,0(zero) # 0 <boot>
  101c18:	00001887          	flh	fa7,0(zero) # 0 <boot>
  101c1c:	00001887          	flh	fa7,0(zero) # 0 <boot>
  101c20:	00001887          	flh	fa7,0(zero) # 0 <boot>
  101c24:	00001887          	flh	fa7,0(zero) # 0 <boot>
  101c28:	00001887          	flh	fa7,0(zero) # 0 <boot>
  101c2c:	00001887          	flh	fa7,0(zero) # 0 <boot>
  101c30:	00001887          	flh	fa7,0(zero) # 0 <boot>
  101c34:	00001887          	flh	fa7,0(zero) # 0 <boot>
  101c38:	00001887          	flh	fa7,0(zero) # 0 <boot>
  101c3c:	00001887          	flh	fa7,0(zero) # 0 <boot>
  101c40:	18b4                	addi	a3,sp,120
  101c42:	0000                	unimp
  101c44:	18b4                	addi	a3,sp,120
  101c46:	0000                	unimp
  101c48:	18b4                	addi	a3,sp,120
  101c4a:	0000                	unimp
  101c4c:	18b4                	addi	a3,sp,120
  101c4e:	0000                	unimp
  101c50:	18b4                	addi	a3,sp,120
  101c52:	0000                	unimp
  101c54:	18b4                	addi	a3,sp,120
  101c56:	0000                	unimp
  101c58:	18b4                	addi	a3,sp,120
  101c5a:	0000                	unimp
  101c5c:	18b4                	addi	a3,sp,120
  101c5e:	0000                	unimp
  101c60:	18b4                	addi	a3,sp,120
  101c62:	0000                	unimp
  101c64:	18b4                	addi	a3,sp,120
  101c66:	0000                	unimp
  101c68:	18b4                	addi	a3,sp,120
  101c6a:	0000                	unimp
  101c6c:	18b4                	addi	a3,sp,120
  101c6e:	0000                	unimp
  101c70:	18b4                	addi	a3,sp,120
  101c72:	0000                	unimp
  101c74:	18b4                	addi	a3,sp,120
  101c76:	0000                	unimp
  101c78:	18b4                	addi	a3,sp,120
  101c7a:	0000                	unimp
  101c7c:	18b4                	addi	a3,sp,120
  101c7e:	0000                	unimp
  101c80:	18e1                	addi	a7,a7,-8
  101c82:	0000                	unimp
  101c84:	18e1                	addi	a7,a7,-8
  101c86:	0000                	unimp
  101c88:	18e1                	addi	a7,a7,-8
  101c8a:	0000                	unimp
  101c8c:	18e1                	addi	a7,a7,-8
  101c8e:	0000                	unimp
  101c90:	18e1                	addi	a7,a7,-8
  101c92:	0000                	unimp
  101c94:	18e1                	addi	a7,a7,-8
  101c96:	0000                	unimp
  101c98:	18e1                	addi	a7,a7,-8
  101c9a:	0000                	unimp
  101c9c:	18e1                	addi	a7,a7,-8
  101c9e:	0000                	unimp
  101ca0:	18e1                	addi	a7,a7,-8
  101ca2:	0000                	unimp
  101ca4:	18e1                	addi	a7,a7,-8
  101ca6:	0000                	unimp
  101ca8:	18e1                	addi	a7,a7,-8
  101caa:	0000                	unimp
  101cac:	18e1                	addi	a7,a7,-8
  101cae:	0000                	unimp
  101cb0:	18e1                	addi	a7,a7,-8
  101cb2:	0000                	unimp
  101cb4:	18e1                	addi	a7,a7,-8
  101cb6:	0000                	unimp
  101cb8:	18e1                	addi	a7,a7,-8
  101cba:	0000                	unimp
  101cbc:	18e1                	addi	a7,a7,-8
  101cbe:	0000                	unimp
  101cc0:	190e                	slli	s2,s2,0x23
  101cc2:	0000                	unimp
  101cc4:	190e                	slli	s2,s2,0x23
  101cc6:	0000                	unimp
  101cc8:	190e                	slli	s2,s2,0x23
  101cca:	0000                	unimp
  101ccc:	190e                	slli	s2,s2,0x23
  101cce:	0000                	unimp
  101cd0:	190e                	slli	s2,s2,0x23
  101cd2:	0000                	unimp
  101cd4:	190e                	slli	s2,s2,0x23
  101cd6:	0000                	unimp
  101cd8:	190e                	slli	s2,s2,0x23
  101cda:	0000                	unimp
  101cdc:	190e                	slli	s2,s2,0x23
  101cde:	0000                	unimp
  101ce0:	190e                	slli	s2,s2,0x23
  101ce2:	0000                	unimp
  101ce4:	190e                	slli	s2,s2,0x23
  101ce6:	0000                	unimp
  101ce8:	190e                	slli	s2,s2,0x23
  101cea:	0000                	unimp
  101cec:	190e                	slli	s2,s2,0x23
  101cee:	0000                	unimp
  101cf0:	190e                	slli	s2,s2,0x23
  101cf2:	0000                	unimp
  101cf4:	190e                	slli	s2,s2,0x23
  101cf6:	0000                	unimp
  101cf8:	190e                	slli	s2,s2,0x23
  101cfa:	0000                	unimp
  101cfc:	190e                	slli	s2,s2,0x23
  101cfe:	0000                	unimp
  101d00:	0000193b          	0x193b
  101d04:	0000193b          	0x193b
  101d08:	0000193b          	0x193b
  101d0c:	0000193b          	0x193b
  101d10:	0000193b          	0x193b
  101d14:	0000193b          	0x193b
  101d18:	0000193b          	0x193b
  101d1c:	0000193b          	0x193b
  101d20:	0000193b          	0x193b
  101d24:	0000193b          	0x193b
  101d28:	0000193b          	0x193b
  101d2c:	0000193b          	0x193b
  101d30:	0000193b          	0x193b
  101d34:	0000193b          	0x193b
  101d38:	0000193b          	0x193b
  101d3c:	0000193b          	0x193b
  101d40:	1968                	addi	a0,sp,188
  101d42:	0000                	unimp
  101d44:	1968                	addi	a0,sp,188
  101d46:	0000                	unimp
  101d48:	1968                	addi	a0,sp,188
  101d4a:	0000                	unimp
  101d4c:	1968                	addi	a0,sp,188
  101d4e:	0000                	unimp
  101d50:	1968                	addi	a0,sp,188
  101d52:	0000                	unimp
  101d54:	1968                	addi	a0,sp,188
  101d56:	0000                	unimp
  101d58:	1968                	addi	a0,sp,188
  101d5a:	0000                	unimp
  101d5c:	1968                	addi	a0,sp,188
  101d5e:	0000                	unimp
  101d60:	1968                	addi	a0,sp,188
  101d62:	0000                	unimp
  101d64:	1968                	addi	a0,sp,188
  101d66:	0000                	unimp
  101d68:	1968                	addi	a0,sp,188
  101d6a:	0000                	unimp
  101d6c:	1968                	addi	a0,sp,188
  101d6e:	0000                	unimp
  101d70:	1968                	addi	a0,sp,188
  101d72:	0000                	unimp
  101d74:	1968                	addi	a0,sp,188
  101d76:	0000                	unimp
  101d78:	1968                	addi	a0,sp,188
  101d7a:	0000                	unimp
  101d7c:	1968                	addi	a0,sp,188
  101d7e:	0000                	unimp
  101d80:	1995                	addi	s3,s3,-27
  101d82:	0000                	unimp
  101d84:	1995                	addi	s3,s3,-27
  101d86:	0000                	unimp
  101d88:	1995                	addi	s3,s3,-27
  101d8a:	0000                	unimp
  101d8c:	1995                	addi	s3,s3,-27
  101d8e:	0000                	unimp
  101d90:	1995                	addi	s3,s3,-27
  101d92:	0000                	unimp
  101d94:	1995                	addi	s3,s3,-27
  101d96:	0000                	unimp
  101d98:	1995                	addi	s3,s3,-27
  101d9a:	0000                	unimp
  101d9c:	1995                	addi	s3,s3,-27
  101d9e:	0000                	unimp
  101da0:	1995                	addi	s3,s3,-27
  101da2:	0000                	unimp
  101da4:	1995                	addi	s3,s3,-27
  101da6:	0000                	unimp
  101da8:	1995                	addi	s3,s3,-27
  101daa:	0000                	unimp
  101dac:	1995                	addi	s3,s3,-27
  101dae:	0000                	unimp
  101db0:	1995                	addi	s3,s3,-27
  101db2:	0000                	unimp
  101db4:	1995                	addi	s3,s3,-27
  101db6:	0000                	unimp
  101db8:	1995                	addi	s3,s3,-27
  101dba:	0000                	unimp
  101dbc:	1995                	addi	s3,s3,-27
  101dbe:	0000                	unimp
  101dc0:	19c2                	slli	s3,s3,0x30
  101dc2:	0000                	unimp
  101dc4:	19c2                	slli	s3,s3,0x30
  101dc6:	0000                	unimp
  101dc8:	19c2                	slli	s3,s3,0x30
  101dca:	0000                	unimp
  101dcc:	19c2                	slli	s3,s3,0x30
  101dce:	0000                	unimp
  101dd0:	19c2                	slli	s3,s3,0x30
  101dd2:	0000                	unimp
  101dd4:	19c2                	slli	s3,s3,0x30
  101dd6:	0000                	unimp
  101dd8:	19c2                	slli	s3,s3,0x30
  101dda:	0000                	unimp
  101ddc:	19c2                	slli	s3,s3,0x30
  101dde:	0000                	unimp
  101de0:	19c2                	slli	s3,s3,0x30
  101de2:	0000                	unimp
  101de4:	19c2                	slli	s3,s3,0x30
  101de6:	0000                	unimp
  101de8:	19c2                	slli	s3,s3,0x30
  101dea:	0000                	unimp
  101dec:	19c2                	slli	s3,s3,0x30
  101dee:	0000                	unimp
  101df0:	19c2                	slli	s3,s3,0x30
  101df2:	0000                	unimp
  101df4:	19c2                	slli	s3,s3,0x30
  101df6:	0000                	unimp
  101df8:	19c2                	slli	s3,s3,0x30
  101dfa:	0000                	unimp
  101dfc:	19c2                	slli	s3,s3,0x30
  101dfe:	0000                	unimp
  101e00:	000019ef          	jal	s3,102e00 <expected_output+0x2b80>
  101e04:	000019ef          	jal	s3,102e04 <expected_output+0x2b84>
  101e08:	000019ef          	jal	s3,102e08 <expected_output+0x2b88>
  101e0c:	000019ef          	jal	s3,102e0c <expected_output+0x2b8c>
  101e10:	000019ef          	jal	s3,102e10 <expected_output+0x2b90>
  101e14:	000019ef          	jal	s3,102e14 <expected_output+0x2b94>
  101e18:	000019ef          	jal	s3,102e18 <expected_output+0x2b98>
  101e1c:	000019ef          	jal	s3,102e1c <expected_output+0x2b9c>
  101e20:	000019ef          	jal	s3,102e20 <expected_output+0x2ba0>
  101e24:	000019ef          	jal	s3,102e24 <expected_output+0x2ba4>
  101e28:	000019ef          	jal	s3,102e28 <expected_output+0x2ba8>
  101e2c:	000019ef          	jal	s3,102e2c <expected_output+0x2bac>
  101e30:	000019ef          	jal	s3,102e30 <expected_output+0x2bb0>
  101e34:	000019ef          	jal	s3,102e34 <expected_output+0x2bb4>
  101e38:	000019ef          	jal	s3,102e38 <expected_output+0x2bb8>
  101e3c:	000019ef          	jal	s3,102e3c <expected_output+0x2bbc>
  101e40:	1a1c                	addi	a5,sp,304
  101e42:	0000                	unimp
  101e44:	1a1c                	addi	a5,sp,304
  101e46:	0000                	unimp
  101e48:	1a1c                	addi	a5,sp,304
  101e4a:	0000                	unimp
  101e4c:	1a1c                	addi	a5,sp,304
  101e4e:	0000                	unimp
  101e50:	1a1c                	addi	a5,sp,304
  101e52:	0000                	unimp
  101e54:	1a1c                	addi	a5,sp,304
  101e56:	0000                	unimp
  101e58:	1a1c                	addi	a5,sp,304
  101e5a:	0000                	unimp
  101e5c:	1a1c                	addi	a5,sp,304
  101e5e:	0000                	unimp
  101e60:	1a1c                	addi	a5,sp,304
  101e62:	0000                	unimp
  101e64:	1a1c                	addi	a5,sp,304
  101e66:	0000                	unimp
  101e68:	1a1c                	addi	a5,sp,304
  101e6a:	0000                	unimp
  101e6c:	1a1c                	addi	a5,sp,304
  101e6e:	0000                	unimp
  101e70:	1a1c                	addi	a5,sp,304
  101e72:	0000                	unimp
  101e74:	1a1c                	addi	a5,sp,304
  101e76:	0000                	unimp
  101e78:	1a1c                	addi	a5,sp,304
  101e7a:	0000                	unimp
  101e7c:	1a1c                	addi	a5,sp,304
  101e7e:	0000                	unimp
  101e80:	00001aa3          	sh	zero,21(zero) # 15 <boot+0x15>
  101e84:	00001aa3          	sh	zero,21(zero) # 15 <boot+0x15>
  101e88:	00001aa3          	sh	zero,21(zero) # 15 <boot+0x15>
  101e8c:	00001aa3          	sh	zero,21(zero) # 15 <boot+0x15>
  101e90:	00001aa3          	sh	zero,21(zero) # 15 <boot+0x15>
  101e94:	00001aa3          	sh	zero,21(zero) # 15 <boot+0x15>
  101e98:	00001aa3          	sh	zero,21(zero) # 15 <boot+0x15>
  101e9c:	00001aa3          	sh	zero,21(zero) # 15 <boot+0x15>
  101ea0:	00001aa3          	sh	zero,21(zero) # 15 <boot+0x15>
  101ea4:	00001aa3          	sh	zero,21(zero) # 15 <boot+0x15>
  101ea8:	00001aa3          	sh	zero,21(zero) # 15 <boot+0x15>
  101eac:	00001aa3          	sh	zero,21(zero) # 15 <boot+0x15>
  101eb0:	00001aa3          	sh	zero,21(zero) # 15 <boot+0x15>
  101eb4:	00001aa3          	sh	zero,21(zero) # 15 <boot+0x15>
  101eb8:	00001aa3          	sh	zero,21(zero) # 15 <boot+0x15>
  101ebc:	00001aa3          	sh	zero,21(zero) # 15 <boot+0x15>
  101ec0:	1ad0                	addi	a2,sp,372
  101ec2:	0000                	unimp
  101ec4:	1ad0                	addi	a2,sp,372
  101ec6:	0000                	unimp
  101ec8:	1ad0                	addi	a2,sp,372
  101eca:	0000                	unimp
  101ecc:	1ad0                	addi	a2,sp,372
  101ece:	0000                	unimp
  101ed0:	1ad0                	addi	a2,sp,372
  101ed2:	0000                	unimp
  101ed4:	1ad0                	addi	a2,sp,372
  101ed6:	0000                	unimp
  101ed8:	1ad0                	addi	a2,sp,372
  101eda:	0000                	unimp
  101edc:	1ad0                	addi	a2,sp,372
  101ede:	0000                	unimp
  101ee0:	1ad0                	addi	a2,sp,372
  101ee2:	0000                	unimp
  101ee4:	1ad0                	addi	a2,sp,372
  101ee6:	0000                	unimp
  101ee8:	1ad0                	addi	a2,sp,372
  101eea:	0000                	unimp
  101eec:	1ad0                	addi	a2,sp,372
  101eee:	0000                	unimp
  101ef0:	1ad0                	addi	a2,sp,372
  101ef2:	0000                	unimp
  101ef4:	1ad0                	addi	a2,sp,372
  101ef6:	0000                	unimp
  101ef8:	1ad0                	addi	a2,sp,372
  101efa:	0000                	unimp
  101efc:	1ad0                	addi	a2,sp,372
  101efe:	0000                	unimp
  101f00:	1afd                	addi	s5,s5,-1
  101f02:	0000                	unimp
  101f04:	1afd                	addi	s5,s5,-1
  101f06:	0000                	unimp
  101f08:	1afd                	addi	s5,s5,-1
  101f0a:	0000                	unimp
  101f0c:	1afd                	addi	s5,s5,-1
  101f0e:	0000                	unimp
  101f10:	1afd                	addi	s5,s5,-1
  101f12:	0000                	unimp
  101f14:	1afd                	addi	s5,s5,-1
  101f16:	0000                	unimp
  101f18:	1afd                	addi	s5,s5,-1
  101f1a:	0000                	unimp
  101f1c:	1afd                	addi	s5,s5,-1
  101f1e:	0000                	unimp
  101f20:	1afd                	addi	s5,s5,-1
  101f22:	0000                	unimp
  101f24:	1afd                	addi	s5,s5,-1
  101f26:	0000                	unimp
  101f28:	1afd                	addi	s5,s5,-1
  101f2a:	0000                	unimp
  101f2c:	1afd                	addi	s5,s5,-1
  101f2e:	0000                	unimp
  101f30:	1afd                	addi	s5,s5,-1
  101f32:	0000                	unimp
  101f34:	1afd                	addi	s5,s5,-1
  101f36:	0000                	unimp
  101f38:	1afd                	addi	s5,s5,-1
  101f3a:	0000                	unimp
  101f3c:	1afd                	addi	s5,s5,-1
  101f3e:	0000                	unimp
  101f40:	1b2a                	slli	s6,s6,0x2a
  101f42:	0000                	unimp
  101f44:	1b2a                	slli	s6,s6,0x2a
  101f46:	0000                	unimp
  101f48:	1b2a                	slli	s6,s6,0x2a
  101f4a:	0000                	unimp
  101f4c:	1b2a                	slli	s6,s6,0x2a
  101f4e:	0000                	unimp
  101f50:	1b2a                	slli	s6,s6,0x2a
  101f52:	0000                	unimp
  101f54:	1b2a                	slli	s6,s6,0x2a
  101f56:	0000                	unimp
  101f58:	1b2a                	slli	s6,s6,0x2a
  101f5a:	0000                	unimp
  101f5c:	1b2a                	slli	s6,s6,0x2a
  101f5e:	0000                	unimp
  101f60:	1b2a                	slli	s6,s6,0x2a
  101f62:	0000                	unimp
  101f64:	1b2a                	slli	s6,s6,0x2a
  101f66:	0000                	unimp
  101f68:	1b2a                	slli	s6,s6,0x2a
  101f6a:	0000                	unimp
  101f6c:	1b2a                	slli	s6,s6,0x2a
  101f6e:	0000                	unimp
  101f70:	1b2a                	slli	s6,s6,0x2a
  101f72:	0000                	unimp
  101f74:	1b2a                	slli	s6,s6,0x2a
  101f76:	0000                	unimp
  101f78:	1b2a                	slli	s6,s6,0x2a
  101f7a:	0000                	unimp
  101f7c:	1b2a                	slli	s6,s6,0x2a
  101f7e:	0000                	unimp
  101f80:	00001b57          	vfadd.vv	v22,v0,v0,v0.t
  101f84:	00001b57          	vfadd.vv	v22,v0,v0,v0.t
  101f88:	00001b57          	vfadd.vv	v22,v0,v0,v0.t
  101f8c:	00001b57          	vfadd.vv	v22,v0,v0,v0.t
  101f90:	00001b57          	vfadd.vv	v22,v0,v0,v0.t
  101f94:	00001b57          	vfadd.vv	v22,v0,v0,v0.t
  101f98:	00001b57          	vfadd.vv	v22,v0,v0,v0.t
  101f9c:	00001b57          	vfadd.vv	v22,v0,v0,v0.t
  101fa0:	00001b57          	vfadd.vv	v22,v0,v0,v0.t
  101fa4:	00001b57          	vfadd.vv	v22,v0,v0,v0.t
  101fa8:	00001b57          	vfadd.vv	v22,v0,v0,v0.t
  101fac:	00001b57          	vfadd.vv	v22,v0,v0,v0.t
  101fb0:	00001b57          	vfadd.vv	v22,v0,v0,v0.t
  101fb4:	00001b57          	vfadd.vv	v22,v0,v0,v0.t
  101fb8:	00001b57          	vfadd.vv	v22,v0,v0,v0.t
  101fbc:	00001b57          	vfadd.vv	v22,v0,v0,v0.t
  101fc0:	1b84                	addi	s1,sp,496
  101fc2:	0000                	unimp
  101fc4:	1b84                	addi	s1,sp,496
  101fc6:	0000                	unimp
  101fc8:	1b84                	addi	s1,sp,496
  101fca:	0000                	unimp
  101fcc:	1b84                	addi	s1,sp,496
  101fce:	0000                	unimp
  101fd0:	1b84                	addi	s1,sp,496
  101fd2:	0000                	unimp
  101fd4:	1b84                	addi	s1,sp,496
  101fd6:	0000                	unimp
  101fd8:	1b84                	addi	s1,sp,496
  101fda:	0000                	unimp
  101fdc:	1b84                	addi	s1,sp,496
  101fde:	0000                	unimp
  101fe0:	1b84                	addi	s1,sp,496
  101fe2:	0000                	unimp
  101fe4:	1b84                	addi	s1,sp,496
  101fe6:	0000                	unimp
  101fe8:	1b84                	addi	s1,sp,496
  101fea:	0000                	unimp
  101fec:	1b84                	addi	s1,sp,496
  101fee:	0000                	unimp
  101ff0:	1b84                	addi	s1,sp,496
  101ff2:	0000                	unimp
  101ff4:	1b84                	addi	s1,sp,496
  101ff6:	0000                	unimp
  101ff8:	1b84                	addi	s1,sp,496
  101ffa:	0000                	unimp
  101ffc:	1b84                	addi	s1,sp,496
  101ffe:	0000                	unimp
  102000:	1bb1                	addi	s7,s7,-20
  102002:	0000                	unimp
  102004:	1bb1                	addi	s7,s7,-20
  102006:	0000                	unimp
  102008:	1bb1                	addi	s7,s7,-20
  10200a:	0000                	unimp
  10200c:	1bb1                	addi	s7,s7,-20
  10200e:	0000                	unimp
  102010:	1bb1                	addi	s7,s7,-20
  102012:	0000                	unimp
  102014:	1bb1                	addi	s7,s7,-20
  102016:	0000                	unimp
  102018:	1bb1                	addi	s7,s7,-20
  10201a:	0000                	unimp
  10201c:	1bb1                	addi	s7,s7,-20
  10201e:	0000                	unimp
  102020:	1bb1                	addi	s7,s7,-20
  102022:	0000                	unimp
  102024:	1bb1                	addi	s7,s7,-20
  102026:	0000                	unimp
  102028:	1bb1                	addi	s7,s7,-20
  10202a:	0000                	unimp
  10202c:	1bb1                	addi	s7,s7,-20
  10202e:	0000                	unimp
  102030:	1bb1                	addi	s7,s7,-20
  102032:	0000                	unimp
  102034:	1bb1                	addi	s7,s7,-20
  102036:	0000                	unimp
  102038:	1bb1                	addi	s7,s7,-20
  10203a:	0000                	unimp
  10203c:	1bb1                	addi	s7,s7,-20
  10203e:	0000                	unimp
  102040:	1bde                	slli	s7,s7,0x37
  102042:	0000                	unimp
  102044:	1bde                	slli	s7,s7,0x37
  102046:	0000                	unimp
  102048:	1bde                	slli	s7,s7,0x37
  10204a:	0000                	unimp
  10204c:	1bde                	slli	s7,s7,0x37
  10204e:	0000                	unimp
  102050:	1bde                	slli	s7,s7,0x37
  102052:	0000                	unimp
  102054:	1bde                	slli	s7,s7,0x37
  102056:	0000                	unimp
  102058:	1bde                	slli	s7,s7,0x37
  10205a:	0000                	unimp
  10205c:	1bde                	slli	s7,s7,0x37
  10205e:	0000                	unimp
  102060:	1bde                	slli	s7,s7,0x37
  102062:	0000                	unimp
  102064:	1bde                	slli	s7,s7,0x37
  102066:	0000                	unimp
  102068:	1bde                	slli	s7,s7,0x37
  10206a:	0000                	unimp
  10206c:	1bde                	slli	s7,s7,0x37
  10206e:	0000                	unimp
  102070:	1bde                	slli	s7,s7,0x37
  102072:	0000                	unimp
  102074:	1bde                	slli	s7,s7,0x37
  102076:	0000                	unimp
  102078:	1bde                	slli	s7,s7,0x37
  10207a:	0000                	unimp
  10207c:	1bde                	slli	s7,s7,0x37
  10207e:	0000                	unimp
  102080:	00001c0b          	0x1c0b
  102084:	00001c0b          	0x1c0b
  102088:	00001c0b          	0x1c0b
  10208c:	00001c0b          	0x1c0b
  102090:	00001c0b          	0x1c0b
  102094:	00001c0b          	0x1c0b
  102098:	00001c0b          	0x1c0b
  10209c:	00001c0b          	0x1c0b
  1020a0:	00001c0b          	0x1c0b
  1020a4:	00001c0b          	0x1c0b
  1020a8:	00001c0b          	0x1c0b
  1020ac:	00001c0b          	0x1c0b
  1020b0:	00001c0b          	0x1c0b
  1020b4:	00001c0b          	0x1c0b
  1020b8:	00001c0b          	0x1c0b
  1020bc:	00001c0b          	0x1c0b
  1020c0:	1c38                	addi	a4,sp,568
  1020c2:	0000                	unimp
  1020c4:	1c38                	addi	a4,sp,568
  1020c6:	0000                	unimp
  1020c8:	1c38                	addi	a4,sp,568
  1020ca:	0000                	unimp
  1020cc:	1c38                	addi	a4,sp,568
  1020ce:	0000                	unimp
  1020d0:	1c38                	addi	a4,sp,568
  1020d2:	0000                	unimp
  1020d4:	1c38                	addi	a4,sp,568
  1020d6:	0000                	unimp
  1020d8:	1c38                	addi	a4,sp,568
  1020da:	0000                	unimp
  1020dc:	1c38                	addi	a4,sp,568
  1020de:	0000                	unimp
  1020e0:	1c38                	addi	a4,sp,568
  1020e2:	0000                	unimp
  1020e4:	1c38                	addi	a4,sp,568
  1020e6:	0000                	unimp
  1020e8:	1c38                	addi	a4,sp,568
  1020ea:	0000                	unimp
  1020ec:	1c38                	addi	a4,sp,568
  1020ee:	0000                	unimp
  1020f0:	1c38                	addi	a4,sp,568
  1020f2:	0000                	unimp
  1020f4:	1c38                	addi	a4,sp,568
  1020f6:	0000                	unimp
  1020f8:	1c38                	addi	a4,sp,568
  1020fa:	0000                	unimp
  1020fc:	1c38                	addi	a4,sp,568
  1020fe:	0000                	unimp
  102100:	1c65                	addi	s8,s8,-7
  102102:	0000                	unimp
  102104:	1c65                	addi	s8,s8,-7
  102106:	0000                	unimp
  102108:	1c65                	addi	s8,s8,-7
  10210a:	0000                	unimp
  10210c:	1c65                	addi	s8,s8,-7
  10210e:	0000                	unimp
  102110:	1c65                	addi	s8,s8,-7
  102112:	0000                	unimp
  102114:	1c65                	addi	s8,s8,-7
  102116:	0000                	unimp
  102118:	1c65                	addi	s8,s8,-7
  10211a:	0000                	unimp
  10211c:	1c65                	addi	s8,s8,-7
  10211e:	0000                	unimp
  102120:	1c65                	addi	s8,s8,-7
  102122:	0000                	unimp
  102124:	1c65                	addi	s8,s8,-7
  102126:	0000                	unimp
  102128:	1c65                	addi	s8,s8,-7
  10212a:	0000                	unimp
  10212c:	1c65                	addi	s8,s8,-7
  10212e:	0000                	unimp
  102130:	1c65                	addi	s8,s8,-7
  102132:	0000                	unimp
  102134:	1c65                	addi	s8,s8,-7
  102136:	0000                	unimp
  102138:	1c65                	addi	s8,s8,-7
  10213a:	0000                	unimp
  10213c:	1c65                	addi	s8,s8,-7
  10213e:	0000                	unimp
  102140:	1c92                	slli	s9,s9,0x24
  102142:	0000                	unimp
  102144:	1c92                	slli	s9,s9,0x24
  102146:	0000                	unimp
  102148:	1c92                	slli	s9,s9,0x24
  10214a:	0000                	unimp
  10214c:	1c92                	slli	s9,s9,0x24
  10214e:	0000                	unimp
  102150:	1c92                	slli	s9,s9,0x24
  102152:	0000                	unimp
  102154:	1c92                	slli	s9,s9,0x24
  102156:	0000                	unimp
  102158:	1c92                	slli	s9,s9,0x24
  10215a:	0000                	unimp
  10215c:	1c92                	slli	s9,s9,0x24
  10215e:	0000                	unimp
  102160:	1c92                	slli	s9,s9,0x24
  102162:	0000                	unimp
  102164:	1c92                	slli	s9,s9,0x24
  102166:	0000                	unimp
  102168:	1c92                	slli	s9,s9,0x24
  10216a:	0000                	unimp
  10216c:	1c92                	slli	s9,s9,0x24
  10216e:	0000                	unimp
  102170:	1c92                	slli	s9,s9,0x24
  102172:	0000                	unimp
  102174:	1c92                	slli	s9,s9,0x24
  102176:	0000                	unimp
  102178:	1c92                	slli	s9,s9,0x24
  10217a:	0000                	unimp
  10217c:	1c92                	slli	s9,s9,0x24
  10217e:	0000                	unimp
  102180:	00001cbf 00001cbf 	0x1cbf00001cbf
  102188:	00001cbf 00001cbf 	0x1cbf00001cbf
  102190:	00001cbf 00001cbf 	0x1cbf00001cbf
  102198:	00001cbf 00001cbf 	0x1cbf00001cbf
  1021a0:	00001cbf 00001cbf 	0x1cbf00001cbf
  1021a8:	00001cbf 00001cbf 	0x1cbf00001cbf
  1021b0:	00001cbf 00001cbf 	0x1cbf00001cbf
  1021b8:	00001cbf 00001cbf 	0x1cbf00001cbf
  1021c0:	1cec                	addi	a1,sp,636
  1021c2:	0000                	unimp
  1021c4:	1cec                	addi	a1,sp,636
  1021c6:	0000                	unimp
  1021c8:	1cec                	addi	a1,sp,636
  1021ca:	0000                	unimp
  1021cc:	1cec                	addi	a1,sp,636
  1021ce:	0000                	unimp
  1021d0:	1cec                	addi	a1,sp,636
  1021d2:	0000                	unimp
  1021d4:	1cec                	addi	a1,sp,636
  1021d6:	0000                	unimp
  1021d8:	1cec                	addi	a1,sp,636
  1021da:	0000                	unimp
  1021dc:	1cec                	addi	a1,sp,636
  1021de:	0000                	unimp
  1021e0:	1cec                	addi	a1,sp,636
  1021e2:	0000                	unimp
  1021e4:	1cec                	addi	a1,sp,636
  1021e6:	0000                	unimp
  1021e8:	1cec                	addi	a1,sp,636
  1021ea:	0000                	unimp
  1021ec:	1cec                	addi	a1,sp,636
  1021ee:	0000                	unimp
  1021f0:	1cec                	addi	a1,sp,636
  1021f2:	0000                	unimp
  1021f4:	1cec                	addi	a1,sp,636
  1021f6:	0000                	unimp
  1021f8:	1cec                	addi	a1,sp,636
  1021fa:	0000                	unimp
  1021fc:	1cec                	addi	a1,sp,636
  1021fe:	0000                	unimp
  102200:	00001d73          	csrrw	s10,ustatus,zero
  102204:	00001d73          	csrrw	s10,ustatus,zero
  102208:	00001d73          	csrrw	s10,ustatus,zero
  10220c:	00001d73          	csrrw	s10,ustatus,zero
  102210:	00001d73          	csrrw	s10,ustatus,zero
  102214:	00001d73          	csrrw	s10,ustatus,zero
  102218:	00001d73          	csrrw	s10,ustatus,zero
  10221c:	00001d73          	csrrw	s10,ustatus,zero
  102220:	00001d73          	csrrw	s10,ustatus,zero
  102224:	00001d73          	csrrw	s10,ustatus,zero
  102228:	00001d73          	csrrw	s10,ustatus,zero
  10222c:	00001d73          	csrrw	s10,ustatus,zero
  102230:	00001d73          	csrrw	s10,ustatus,zero
  102234:	00001d73          	csrrw	s10,ustatus,zero
  102238:	00001d73          	csrrw	s10,ustatus,zero
  10223c:	00001d73          	csrrw	s10,ustatus,zero
  102240:	1da0                	addi	s0,sp,760
  102242:	0000                	unimp
  102244:	1da0                	addi	s0,sp,760
  102246:	0000                	unimp
  102248:	1da0                	addi	s0,sp,760
  10224a:	0000                	unimp
  10224c:	1da0                	addi	s0,sp,760
  10224e:	0000                	unimp
  102250:	1da0                	addi	s0,sp,760
  102252:	0000                	unimp
  102254:	1da0                	addi	s0,sp,760
  102256:	0000                	unimp
  102258:	1da0                	addi	s0,sp,760
  10225a:	0000                	unimp
  10225c:	1da0                	addi	s0,sp,760
  10225e:	0000                	unimp
  102260:	1da0                	addi	s0,sp,760
  102262:	0000                	unimp
  102264:	1da0                	addi	s0,sp,760
  102266:	0000                	unimp
  102268:	1da0                	addi	s0,sp,760
  10226a:	0000                	unimp
  10226c:	1da0                	addi	s0,sp,760
  10226e:	0000                	unimp
  102270:	1da0                	addi	s0,sp,760
  102272:	0000                	unimp
  102274:	1da0                	addi	s0,sp,760
  102276:	0000                	unimp
  102278:	1da0                	addi	s0,sp,760
  10227a:	0000                	unimp
  10227c:	1da0                	addi	s0,sp,760
  10227e:	0000                	unimp
  102280:	1dcd                	addi	s11,s11,-13
  102282:	0000                	unimp
  102284:	1dcd                	addi	s11,s11,-13
  102286:	0000                	unimp
  102288:	1dcd                	addi	s11,s11,-13
  10228a:	0000                	unimp
  10228c:	1dcd                	addi	s11,s11,-13
  10228e:	0000                	unimp
  102290:	1dcd                	addi	s11,s11,-13
  102292:	0000                	unimp
  102294:	1dcd                	addi	s11,s11,-13
  102296:	0000                	unimp
  102298:	1dcd                	addi	s11,s11,-13
  10229a:	0000                	unimp
  10229c:	1dcd                	addi	s11,s11,-13
  10229e:	0000                	unimp
  1022a0:	1dcd                	addi	s11,s11,-13
  1022a2:	0000                	unimp
  1022a4:	1dcd                	addi	s11,s11,-13
  1022a6:	0000                	unimp
  1022a8:	1dcd                	addi	s11,s11,-13
  1022aa:	0000                	unimp
  1022ac:	1dcd                	addi	s11,s11,-13
  1022ae:	0000                	unimp
  1022b0:	1dcd                	addi	s11,s11,-13
  1022b2:	0000                	unimp
  1022b4:	1dcd                	addi	s11,s11,-13
  1022b6:	0000                	unimp
  1022b8:	1dcd                	addi	s11,s11,-13
  1022ba:	0000                	unimp
  1022bc:	1dcd                	addi	s11,s11,-13
  1022be:	0000                	unimp
  1022c0:	1dfa                	slli	s11,s11,0x3e
  1022c2:	0000                	unimp
  1022c4:	1dfa                	slli	s11,s11,0x3e
  1022c6:	0000                	unimp
  1022c8:	1dfa                	slli	s11,s11,0x3e
  1022ca:	0000                	unimp
  1022cc:	1dfa                	slli	s11,s11,0x3e
  1022ce:	0000                	unimp
  1022d0:	1dfa                	slli	s11,s11,0x3e
  1022d2:	0000                	unimp
  1022d4:	1dfa                	slli	s11,s11,0x3e
  1022d6:	0000                	unimp
  1022d8:	1dfa                	slli	s11,s11,0x3e
  1022da:	0000                	unimp
  1022dc:	1dfa                	slli	s11,s11,0x3e
  1022de:	0000                	unimp
  1022e0:	1dfa                	slli	s11,s11,0x3e
  1022e2:	0000                	unimp
  1022e4:	1dfa                	slli	s11,s11,0x3e
  1022e6:	0000                	unimp
  1022e8:	1dfa                	slli	s11,s11,0x3e
  1022ea:	0000                	unimp
  1022ec:	1dfa                	slli	s11,s11,0x3e
  1022ee:	0000                	unimp
  1022f0:	1dfa                	slli	s11,s11,0x3e
  1022f2:	0000                	unimp
  1022f4:	1dfa                	slli	s11,s11,0x3e
  1022f6:	0000                	unimp
  1022f8:	1dfa                	slli	s11,s11,0x3e
  1022fa:	0000                	unimp
  1022fc:	1dfa                	slli	s11,s11,0x3e
  1022fe:	0000                	unimp
  102300:	00001e27          	fsh	ft0,28(zero) # 1c <boot+0x1c>
  102304:	00001e27          	fsh	ft0,28(zero) # 1c <boot+0x1c>
  102308:	00001e27          	fsh	ft0,28(zero) # 1c <boot+0x1c>
  10230c:	00001e27          	fsh	ft0,28(zero) # 1c <boot+0x1c>
  102310:	00001e27          	fsh	ft0,28(zero) # 1c <boot+0x1c>
  102314:	00001e27          	fsh	ft0,28(zero) # 1c <boot+0x1c>
  102318:	00001e27          	fsh	ft0,28(zero) # 1c <boot+0x1c>
  10231c:	00001e27          	fsh	ft0,28(zero) # 1c <boot+0x1c>
  102320:	00001e27          	fsh	ft0,28(zero) # 1c <boot+0x1c>
  102324:	00001e27          	fsh	ft0,28(zero) # 1c <boot+0x1c>
  102328:	00001e27          	fsh	ft0,28(zero) # 1c <boot+0x1c>
  10232c:	00001e27          	fsh	ft0,28(zero) # 1c <boot+0x1c>
  102330:	00001e27          	fsh	ft0,28(zero) # 1c <boot+0x1c>
  102334:	00001e27          	fsh	ft0,28(zero) # 1c <boot+0x1c>
  102338:	00001e27          	fsh	ft0,28(zero) # 1c <boot+0x1c>
  10233c:	00001e27          	fsh	ft0,28(zero) # 1c <boot+0x1c>
  102340:	1e54                	addi	a3,sp,820
  102342:	0000                	unimp
  102344:	1e54                	addi	a3,sp,820
  102346:	0000                	unimp
  102348:	1e54                	addi	a3,sp,820
  10234a:	0000                	unimp
  10234c:	1e54                	addi	a3,sp,820
  10234e:	0000                	unimp
  102350:	1e54                	addi	a3,sp,820
  102352:	0000                	unimp
  102354:	1e54                	addi	a3,sp,820
  102356:	0000                	unimp
  102358:	1e54                	addi	a3,sp,820
  10235a:	0000                	unimp
  10235c:	1e54                	addi	a3,sp,820
  10235e:	0000                	unimp
  102360:	1e54                	addi	a3,sp,820
  102362:	0000                	unimp
  102364:	1e54                	addi	a3,sp,820
  102366:	0000                	unimp
  102368:	1e54                	addi	a3,sp,820
  10236a:	0000                	unimp
  10236c:	1e54                	addi	a3,sp,820
  10236e:	0000                	unimp
  102370:	1e54                	addi	a3,sp,820
  102372:	0000                	unimp
  102374:	1e54                	addi	a3,sp,820
  102376:	0000                	unimp
  102378:	1e54                	addi	a3,sp,820
  10237a:	0000                	unimp
  10237c:	1e54                	addi	a3,sp,820
  10237e:	0000                	unimp
  102380:	1e81                	addi	t4,t4,-32
  102382:	0000                	unimp
  102384:	1e81                	addi	t4,t4,-32
  102386:	0000                	unimp
  102388:	1e81                	addi	t4,t4,-32
  10238a:	0000                	unimp
  10238c:	1e81                	addi	t4,t4,-32
  10238e:	0000                	unimp
  102390:	1e81                	addi	t4,t4,-32
  102392:	0000                	unimp
  102394:	1e81                	addi	t4,t4,-32
  102396:	0000                	unimp
  102398:	1e81                	addi	t4,t4,-32
  10239a:	0000                	unimp
  10239c:	1e81                	addi	t4,t4,-32
  10239e:	0000                	unimp
  1023a0:	1e81                	addi	t4,t4,-32
  1023a2:	0000                	unimp
  1023a4:	1e81                	addi	t4,t4,-32
  1023a6:	0000                	unimp
  1023a8:	1e81                	addi	t4,t4,-32
  1023aa:	0000                	unimp
  1023ac:	1e81                	addi	t4,t4,-32
  1023ae:	0000                	unimp
  1023b0:	1e81                	addi	t4,t4,-32
  1023b2:	0000                	unimp
  1023b4:	1e81                	addi	t4,t4,-32
  1023b6:	0000                	unimp
  1023b8:	1e81                	addi	t4,t4,-32
  1023ba:	0000                	unimp
  1023bc:	1e81                	addi	t4,t4,-32
  1023be:	0000                	unimp
  1023c0:	1eae                	slli	t4,t4,0x2b
  1023c2:	0000                	unimp
  1023c4:	1eae                	slli	t4,t4,0x2b
  1023c6:	0000                	unimp
  1023c8:	1eae                	slli	t4,t4,0x2b
  1023ca:	0000                	unimp
  1023cc:	1eae                	slli	t4,t4,0x2b
  1023ce:	0000                	unimp
  1023d0:	1eae                	slli	t4,t4,0x2b
  1023d2:	0000                	unimp
  1023d4:	1eae                	slli	t4,t4,0x2b
  1023d6:	0000                	unimp
  1023d8:	1eae                	slli	t4,t4,0x2b
  1023da:	0000                	unimp
  1023dc:	1eae                	slli	t4,t4,0x2b
  1023de:	0000                	unimp
  1023e0:	1eae                	slli	t4,t4,0x2b
  1023e2:	0000                	unimp
  1023e4:	1eae                	slli	t4,t4,0x2b
  1023e6:	0000                	unimp
  1023e8:	1eae                	slli	t4,t4,0x2b
  1023ea:	0000                	unimp
  1023ec:	1eae                	slli	t4,t4,0x2b
  1023ee:	0000                	unimp
  1023f0:	1eae                	slli	t4,t4,0x2b
  1023f2:	0000                	unimp
  1023f4:	1eae                	slli	t4,t4,0x2b
  1023f6:	0000                	unimp
  1023f8:	1eae                	slli	t4,t4,0x2b
  1023fa:	0000                	unimp
  1023fc:	1eae                	slli	t4,t4,0x2b
  1023fe:	0000                	unimp
  102400:	00001edb          	0x1edb
  102404:	00001edb          	0x1edb
  102408:	00001edb          	0x1edb
  10240c:	00001edb          	0x1edb
  102410:	00001edb          	0x1edb
  102414:	00001edb          	0x1edb
  102418:	00001edb          	0x1edb
  10241c:	00001edb          	0x1edb
  102420:	00001edb          	0x1edb
  102424:	00001edb          	0x1edb
  102428:	00001edb          	0x1edb
  10242c:	00001edb          	0x1edb
  102430:	00001edb          	0x1edb
  102434:	00001edb          	0x1edb
  102438:	00001edb          	0x1edb
  10243c:	00001edb          	0x1edb
  102440:	1f08                	addi	a0,sp,944
  102442:	0000                	unimp
  102444:	1f08                	addi	a0,sp,944
  102446:	0000                	unimp
  102448:	1f08                	addi	a0,sp,944
  10244a:	0000                	unimp
  10244c:	1f08                	addi	a0,sp,944
  10244e:	0000                	unimp
  102450:	1f08                	addi	a0,sp,944
  102452:	0000                	unimp
  102454:	1f08                	addi	a0,sp,944
  102456:	0000                	unimp
  102458:	1f08                	addi	a0,sp,944
  10245a:	0000                	unimp
  10245c:	1f08                	addi	a0,sp,944
  10245e:	0000                	unimp
  102460:	1f08                	addi	a0,sp,944
  102462:	0000                	unimp
  102464:	1f08                	addi	a0,sp,944
  102466:	0000                	unimp
  102468:	1f08                	addi	a0,sp,944
  10246a:	0000                	unimp
  10246c:	1f08                	addi	a0,sp,944
  10246e:	0000                	unimp
  102470:	1f08                	addi	a0,sp,944
  102472:	0000                	unimp
  102474:	1f08                	addi	a0,sp,944
  102476:	0000                	unimp
  102478:	1f08                	addi	a0,sp,944
  10247a:	0000                	unimp
  10247c:	1f08                	addi	a0,sp,944
  10247e:	0000                	unimp
  102480:	1f35                	addi	t5,t5,-19
  102482:	0000                	unimp
  102484:	1f35                	addi	t5,t5,-19
  102486:	0000                	unimp
  102488:	1f35                	addi	t5,t5,-19
  10248a:	0000                	unimp
  10248c:	1f35                	addi	t5,t5,-19
  10248e:	0000                	unimp
  102490:	1f35                	addi	t5,t5,-19
  102492:	0000                	unimp
  102494:	1f35                	addi	t5,t5,-19
  102496:	0000                	unimp
  102498:	1f35                	addi	t5,t5,-19
  10249a:	0000                	unimp
  10249c:	1f35                	addi	t5,t5,-19
  10249e:	0000                	unimp
  1024a0:	1f35                	addi	t5,t5,-19
  1024a2:	0000                	unimp
  1024a4:	1f35                	addi	t5,t5,-19
  1024a6:	0000                	unimp
  1024a8:	1f35                	addi	t5,t5,-19
  1024aa:	0000                	unimp
  1024ac:	1f35                	addi	t5,t5,-19
  1024ae:	0000                	unimp
  1024b0:	1f35                	addi	t5,t5,-19
  1024b2:	0000                	unimp
  1024b4:	1f35                	addi	t5,t5,-19
  1024b6:	0000                	unimp
  1024b8:	1f35                	addi	t5,t5,-19
  1024ba:	0000                	unimp
  1024bc:	1f35                	addi	t5,t5,-19
  1024be:	0000                	unimp
  1024c0:	1f62                	slli	t5,t5,0x38
  1024c2:	0000                	unimp
  1024c4:	1f62                	slli	t5,t5,0x38
  1024c6:	0000                	unimp
  1024c8:	1f62                	slli	t5,t5,0x38
  1024ca:	0000                	unimp
  1024cc:	1f62                	slli	t5,t5,0x38
  1024ce:	0000                	unimp
  1024d0:	1f62                	slli	t5,t5,0x38
  1024d2:	0000                	unimp
  1024d4:	1f62                	slli	t5,t5,0x38
  1024d6:	0000                	unimp
  1024d8:	1f62                	slli	t5,t5,0x38
  1024da:	0000                	unimp
  1024dc:	1f62                	slli	t5,t5,0x38
  1024de:	0000                	unimp
  1024e0:	1f62                	slli	t5,t5,0x38
  1024e2:	0000                	unimp
  1024e4:	1f62                	slli	t5,t5,0x38
  1024e6:	0000                	unimp
  1024e8:	1f62                	slli	t5,t5,0x38
  1024ea:	0000                	unimp
  1024ec:	1f62                	slli	t5,t5,0x38
  1024ee:	0000                	unimp
  1024f0:	1f62                	slli	t5,t5,0x38
  1024f2:	0000                	unimp
  1024f4:	1f62                	slli	t5,t5,0x38
  1024f6:	0000                	unimp
  1024f8:	1f62                	slli	t5,t5,0x38
  1024fa:	0000                	unimp
  1024fc:	1f62                	slli	t5,t5,0x38
  1024fe:	0000                	unimp
  102500:	00001f8f          	0x1f8f
  102504:	00001f8f          	0x1f8f
  102508:	00001f8f          	0x1f8f
  10250c:	00001f8f          	0x1f8f
  102510:	00001f8f          	0x1f8f
  102514:	00001f8f          	0x1f8f
  102518:	00001f8f          	0x1f8f
  10251c:	00001f8f          	0x1f8f
  102520:	00001f8f          	0x1f8f
  102524:	00001f8f          	0x1f8f
  102528:	00001f8f          	0x1f8f
  10252c:	00001f8f          	0x1f8f
  102530:	00001f8f          	0x1f8f
  102534:	00001f8f          	0x1f8f
  102538:	00001f8f          	0x1f8f
  10253c:	00001f8f          	0x1f8f
  102540:	1fbc                	addi	a5,sp,1016
  102542:	0000                	unimp
  102544:	1fbc                	addi	a5,sp,1016
  102546:	0000                	unimp
  102548:	1fbc                	addi	a5,sp,1016
  10254a:	0000                	unimp
  10254c:	1fbc                	addi	a5,sp,1016
  10254e:	0000                	unimp
  102550:	1fbc                	addi	a5,sp,1016
  102552:	0000                	unimp
  102554:	1fbc                	addi	a5,sp,1016
  102556:	0000                	unimp
  102558:	1fbc                	addi	a5,sp,1016
  10255a:	0000                	unimp
  10255c:	1fbc                	addi	a5,sp,1016
  10255e:	0000                	unimp
  102560:	1fbc                	addi	a5,sp,1016
  102562:	0000                	unimp
  102564:	1fbc                	addi	a5,sp,1016
  102566:	0000                	unimp
  102568:	1fbc                	addi	a5,sp,1016
  10256a:	0000                	unimp
  10256c:	1fbc                	addi	a5,sp,1016
  10256e:	0000                	unimp
  102570:	1fbc                	addi	a5,sp,1016
  102572:	0000                	unimp
  102574:	1fbc                	addi	a5,sp,1016
  102576:	0000                	unimp
  102578:	1fbc                	addi	a5,sp,1016
  10257a:	0000                	unimp
  10257c:	1fbc                	addi	a5,sp,1016
  10257e:	0000                	unimp
  102580:	00002043          	fmadd.s	ft0,ft0,ft0,ft0,rdn
  102584:	00002043          	fmadd.s	ft0,ft0,ft0,ft0,rdn
  102588:	00002043          	fmadd.s	ft0,ft0,ft0,ft0,rdn
  10258c:	00002043          	fmadd.s	ft0,ft0,ft0,ft0,rdn
  102590:	00002043          	fmadd.s	ft0,ft0,ft0,ft0,rdn
  102594:	00002043          	fmadd.s	ft0,ft0,ft0,ft0,rdn
  102598:	00002043          	fmadd.s	ft0,ft0,ft0,ft0,rdn
  10259c:	00002043          	fmadd.s	ft0,ft0,ft0,ft0,rdn
  1025a0:	00002043          	fmadd.s	ft0,ft0,ft0,ft0,rdn
  1025a4:	00002043          	fmadd.s	ft0,ft0,ft0,ft0,rdn
  1025a8:	00002043          	fmadd.s	ft0,ft0,ft0,ft0,rdn
  1025ac:	00002043          	fmadd.s	ft0,ft0,ft0,ft0,rdn
  1025b0:	00002043          	fmadd.s	ft0,ft0,ft0,ft0,rdn
  1025b4:	00002043          	fmadd.s	ft0,ft0,ft0,ft0,rdn
  1025b8:	00002043          	fmadd.s	ft0,ft0,ft0,ft0,rdn
  1025bc:	00002043          	fmadd.s	ft0,ft0,ft0,ft0,rdn
  1025c0:	2070                	fld	fa2,192(s0)
  1025c2:	0000                	unimp
  1025c4:	2070                	fld	fa2,192(s0)
  1025c6:	0000                	unimp
  1025c8:	2070                	fld	fa2,192(s0)
  1025ca:	0000                	unimp
  1025cc:	2070                	fld	fa2,192(s0)
  1025ce:	0000                	unimp
  1025d0:	2070                	fld	fa2,192(s0)
  1025d2:	0000                	unimp
  1025d4:	2070                	fld	fa2,192(s0)
  1025d6:	0000                	unimp
  1025d8:	2070                	fld	fa2,192(s0)
  1025da:	0000                	unimp
  1025dc:	2070                	fld	fa2,192(s0)
  1025de:	0000                	unimp
  1025e0:	2070                	fld	fa2,192(s0)
  1025e2:	0000                	unimp
  1025e4:	2070                	fld	fa2,192(s0)
  1025e6:	0000                	unimp
  1025e8:	2070                	fld	fa2,192(s0)
  1025ea:	0000                	unimp
  1025ec:	2070                	fld	fa2,192(s0)
  1025ee:	0000                	unimp
  1025f0:	2070                	fld	fa2,192(s0)
  1025f2:	0000                	unimp
  1025f4:	2070                	fld	fa2,192(s0)
  1025f6:	0000                	unimp
  1025f8:	2070                	fld	fa2,192(s0)
  1025fa:	0000                	unimp
  1025fc:	2070                	fld	fa2,192(s0)
  1025fe:	0000                	unimp
  102600:	209d                	jal	102666 <expected_output+0x23e6>
  102602:	0000                	unimp
  102604:	209d                	jal	10266a <expected_output+0x23ea>
  102606:	0000                	unimp
  102608:	209d                	jal	10266e <expected_output+0x23ee>
  10260a:	0000                	unimp
  10260c:	209d                	jal	102672 <expected_output+0x23f2>
  10260e:	0000                	unimp
  102610:	209d                	jal	102676 <expected_output+0x23f6>
  102612:	0000                	unimp
  102614:	209d                	jal	10267a <expected_output+0x23fa>
  102616:	0000                	unimp
  102618:	209d                	jal	10267e <expected_output+0x23fe>
  10261a:	0000                	unimp
  10261c:	209d                	jal	102682 <expected_output+0x2402>
  10261e:	0000                	unimp
  102620:	209d                	jal	102686 <expected_output+0x2406>
  102622:	0000                	unimp
  102624:	209d                	jal	10268a <expected_output+0x240a>
  102626:	0000                	unimp
  102628:	209d                	jal	10268e <expected_output+0x240e>
  10262a:	0000                	unimp
  10262c:	209d                	jal	102692 <expected_output+0x2412>
  10262e:	0000                	unimp
  102630:	209d                	jal	102696 <expected_output+0x2416>
  102632:	0000                	unimp
  102634:	209d                	jal	10269a <expected_output+0x241a>
  102636:	0000                	unimp
  102638:	209d                	jal	10269e <expected_output+0x241e>
  10263a:	0000                	unimp
  10263c:	209d                	jal	1026a2 <expected_output+0x2422>
  10263e:	0000                	unimp
  102640:	20ca                	fld	ft1,144(sp)
  102642:	0000                	unimp
  102644:	20ca                	fld	ft1,144(sp)
  102646:	0000                	unimp
  102648:	20ca                	fld	ft1,144(sp)
  10264a:	0000                	unimp
  10264c:	20ca                	fld	ft1,144(sp)
  10264e:	0000                	unimp
  102650:	20ca                	fld	ft1,144(sp)
  102652:	0000                	unimp
  102654:	20ca                	fld	ft1,144(sp)
  102656:	0000                	unimp
  102658:	20ca                	fld	ft1,144(sp)
  10265a:	0000                	unimp
  10265c:	20ca                	fld	ft1,144(sp)
  10265e:	0000                	unimp
  102660:	20ca                	fld	ft1,144(sp)
  102662:	0000                	unimp
  102664:	20ca                	fld	ft1,144(sp)
  102666:	0000                	unimp
  102668:	20ca                	fld	ft1,144(sp)
  10266a:	0000                	unimp
  10266c:	20ca                	fld	ft1,144(sp)
  10266e:	0000                	unimp
  102670:	20ca                	fld	ft1,144(sp)
  102672:	0000                	unimp
  102674:	20ca                	fld	ft1,144(sp)
  102676:	0000                	unimp
  102678:	20ca                	fld	ft1,144(sp)
  10267a:	0000                	unimp
  10267c:	20ca                	fld	ft1,144(sp)
  10267e:	0000                	unimp
  102680:	000020f7          	0x20f7
  102684:	000020f7          	0x20f7
  102688:	000020f7          	0x20f7
  10268c:	000020f7          	0x20f7
  102690:	000020f7          	0x20f7
  102694:	000020f7          	0x20f7
  102698:	000020f7          	0x20f7
  10269c:	000020f7          	0x20f7
  1026a0:	000020f7          	0x20f7
  1026a4:	000020f7          	0x20f7
  1026a8:	000020f7          	0x20f7
  1026ac:	000020f7          	0x20f7
  1026b0:	000020f7          	0x20f7
  1026b4:	000020f7          	0x20f7
  1026b8:	000020f7          	0x20f7
  1026bc:	000020f7          	0x20f7
  1026c0:	2124                	fld	fs1,64(a0)
  1026c2:	0000                	unimp
  1026c4:	2124                	fld	fs1,64(a0)
  1026c6:	0000                	unimp
  1026c8:	2124                	fld	fs1,64(a0)
  1026ca:	0000                	unimp
  1026cc:	2124                	fld	fs1,64(a0)
  1026ce:	0000                	unimp
  1026d0:	2124                	fld	fs1,64(a0)
  1026d2:	0000                	unimp
  1026d4:	2124                	fld	fs1,64(a0)
  1026d6:	0000                	unimp
  1026d8:	2124                	fld	fs1,64(a0)
  1026da:	0000                	unimp
  1026dc:	2124                	fld	fs1,64(a0)
  1026de:	0000                	unimp
  1026e0:	2124                	fld	fs1,64(a0)
  1026e2:	0000                	unimp
  1026e4:	2124                	fld	fs1,64(a0)
  1026e6:	0000                	unimp
  1026e8:	2124                	fld	fs1,64(a0)
  1026ea:	0000                	unimp
  1026ec:	2124                	fld	fs1,64(a0)
  1026ee:	0000                	unimp
  1026f0:	2124                	fld	fs1,64(a0)
  1026f2:	0000                	unimp
  1026f4:	2124                	fld	fs1,64(a0)
  1026f6:	0000                	unimp
  1026f8:	2124                	fld	fs1,64(a0)
  1026fa:	0000                	unimp
  1026fc:	2124                	fld	fs1,64(a0)
  1026fe:	0000                	unimp
  102700:	2151                	jal	102b84 <expected_output+0x2904>
  102702:	0000                	unimp
  102704:	2151                	jal	102b88 <expected_output+0x2908>
  102706:	0000                	unimp
  102708:	2151                	jal	102b8c <expected_output+0x290c>
  10270a:	0000                	unimp
  10270c:	2151                	jal	102b90 <expected_output+0x2910>
  10270e:	0000                	unimp
  102710:	2151                	jal	102b94 <expected_output+0x2914>
  102712:	0000                	unimp
  102714:	2151                	jal	102b98 <expected_output+0x2918>
  102716:	0000                	unimp
  102718:	2151                	jal	102b9c <expected_output+0x291c>
  10271a:	0000                	unimp
  10271c:	2151                	jal	102ba0 <expected_output+0x2920>
  10271e:	0000                	unimp
  102720:	2151                	jal	102ba4 <expected_output+0x2924>
  102722:	0000                	unimp
  102724:	2151                	jal	102ba8 <expected_output+0x2928>
  102726:	0000                	unimp
  102728:	2151                	jal	102bac <expected_output+0x292c>
  10272a:	0000                	unimp
  10272c:	2151                	jal	102bb0 <expected_output+0x2930>
  10272e:	0000                	unimp
  102730:	2151                	jal	102bb4 <expected_output+0x2934>
  102732:	0000                	unimp
  102734:	2151                	jal	102bb8 <expected_output+0x2938>
  102736:	0000                	unimp
  102738:	2151                	jal	102bbc <expected_output+0x293c>
  10273a:	0000                	unimp
  10273c:	2151                	jal	102bc0 <expected_output+0x2940>
  10273e:	0000                	unimp
  102740:	217e                	fld	ft2,472(sp)
  102742:	0000                	unimp
  102744:	217e                	fld	ft2,472(sp)
  102746:	0000                	unimp
  102748:	217e                	fld	ft2,472(sp)
  10274a:	0000                	unimp
  10274c:	217e                	fld	ft2,472(sp)
  10274e:	0000                	unimp
  102750:	217e                	fld	ft2,472(sp)
  102752:	0000                	unimp
  102754:	217e                	fld	ft2,472(sp)
  102756:	0000                	unimp
  102758:	217e                	fld	ft2,472(sp)
  10275a:	0000                	unimp
  10275c:	217e                	fld	ft2,472(sp)
  10275e:	0000                	unimp
  102760:	217e                	fld	ft2,472(sp)
  102762:	0000                	unimp
  102764:	217e                	fld	ft2,472(sp)
  102766:	0000                	unimp
  102768:	217e                	fld	ft2,472(sp)
  10276a:	0000                	unimp
  10276c:	217e                	fld	ft2,472(sp)
  10276e:	0000                	unimp
  102770:	217e                	fld	ft2,472(sp)
  102772:	0000                	unimp
  102774:	217e                	fld	ft2,472(sp)
  102776:	0000                	unimp
  102778:	217e                	fld	ft2,472(sp)
  10277a:	0000                	unimp
  10277c:	217e                	fld	ft2,472(sp)
  10277e:	0000                	unimp
  102780:	000021ab          	0x21ab
  102784:	000021ab          	0x21ab
  102788:	000021ab          	0x21ab
  10278c:	000021ab          	0x21ab
  102790:	000021ab          	0x21ab
  102794:	000021ab          	0x21ab
  102798:	000021ab          	0x21ab
  10279c:	000021ab          	0x21ab
  1027a0:	000021ab          	0x21ab
  1027a4:	000021ab          	0x21ab
  1027a8:	000021ab          	0x21ab
  1027ac:	000021ab          	0x21ab
  1027b0:	000021ab          	0x21ab
  1027b4:	000021ab          	0x21ab
  1027b8:	000021ab          	0x21ab
  1027bc:	000021ab          	0x21ab
  1027c0:	21d8                	fld	fa4,128(a1)
  1027c2:	0000                	unimp
  1027c4:	21d8                	fld	fa4,128(a1)
  1027c6:	0000                	unimp
  1027c8:	21d8                	fld	fa4,128(a1)
  1027ca:	0000                	unimp
  1027cc:	21d8                	fld	fa4,128(a1)
  1027ce:	0000                	unimp
  1027d0:	21d8                	fld	fa4,128(a1)
  1027d2:	0000                	unimp
  1027d4:	21d8                	fld	fa4,128(a1)
  1027d6:	0000                	unimp
  1027d8:	21d8                	fld	fa4,128(a1)
  1027da:	0000                	unimp
  1027dc:	21d8                	fld	fa4,128(a1)
  1027de:	0000                	unimp
  1027e0:	21d8                	fld	fa4,128(a1)
  1027e2:	0000                	unimp
  1027e4:	21d8                	fld	fa4,128(a1)
  1027e6:	0000                	unimp
  1027e8:	21d8                	fld	fa4,128(a1)
  1027ea:	0000                	unimp
  1027ec:	21d8                	fld	fa4,128(a1)
  1027ee:	0000                	unimp
  1027f0:	21d8                	fld	fa4,128(a1)
  1027f2:	0000                	unimp
  1027f4:	21d8                	fld	fa4,128(a1)
  1027f6:	0000                	unimp
  1027f8:	21d8                	fld	fa4,128(a1)
  1027fa:	0000                	unimp
  1027fc:	21d8                	fld	fa4,128(a1)
  1027fe:	0000                	unimp
  102800:	2205                	jal	102920 <expected_output+0x26a0>
  102802:	0000                	unimp
  102804:	2205                	jal	102924 <expected_output+0x26a4>
  102806:	0000                	unimp
  102808:	2205                	jal	102928 <expected_output+0x26a8>
  10280a:	0000                	unimp
  10280c:	2205                	jal	10292c <expected_output+0x26ac>
  10280e:	0000                	unimp
  102810:	2205                	jal	102930 <expected_output+0x26b0>
  102812:	0000                	unimp
  102814:	2205                	jal	102934 <expected_output+0x26b4>
  102816:	0000                	unimp
  102818:	2205                	jal	102938 <expected_output+0x26b8>
  10281a:	0000                	unimp
  10281c:	2205                	jal	10293c <expected_output+0x26bc>
  10281e:	0000                	unimp
  102820:	2205                	jal	102940 <expected_output+0x26c0>
  102822:	0000                	unimp
  102824:	2205                	jal	102944 <expected_output+0x26c4>
  102826:	0000                	unimp
  102828:	2205                	jal	102948 <expected_output+0x26c8>
  10282a:	0000                	unimp
  10282c:	2205                	jal	10294c <expected_output+0x26cc>
  10282e:	0000                	unimp
  102830:	2205                	jal	102950 <expected_output+0x26d0>
  102832:	0000                	unimp
  102834:	2205                	jal	102954 <expected_output+0x26d4>
  102836:	0000                	unimp
  102838:	2205                	jal	102958 <expected_output+0x26d8>
  10283a:	0000                	unimp
  10283c:	2205                	jal	10295c <expected_output+0x26dc>
  10283e:	0000                	unimp
  102840:	2232                	fld	ft4,264(sp)
  102842:	0000                	unimp
  102844:	2232                	fld	ft4,264(sp)
  102846:	0000                	unimp
  102848:	2232                	fld	ft4,264(sp)
  10284a:	0000                	unimp
  10284c:	2232                	fld	ft4,264(sp)
  10284e:	0000                	unimp
  102850:	2232                	fld	ft4,264(sp)
  102852:	0000                	unimp
  102854:	2232                	fld	ft4,264(sp)
  102856:	0000                	unimp
  102858:	2232                	fld	ft4,264(sp)
  10285a:	0000                	unimp
  10285c:	2232                	fld	ft4,264(sp)
  10285e:	0000                	unimp
  102860:	2232                	fld	ft4,264(sp)
  102862:	0000                	unimp
  102864:	2232                	fld	ft4,264(sp)
  102866:	0000                	unimp
  102868:	2232                	fld	ft4,264(sp)
  10286a:	0000                	unimp
  10286c:	2232                	fld	ft4,264(sp)
  10286e:	0000                	unimp
  102870:	2232                	fld	ft4,264(sp)
  102872:	0000                	unimp
  102874:	2232                	fld	ft4,264(sp)
  102876:	0000                	unimp
  102878:	2232                	fld	ft4,264(sp)
  10287a:	0000                	unimp
  10287c:	2232                	fld	ft4,264(sp)
  10287e:	0000                	unimp
  102880:	225f 0000 225f      	0x225f0000225f
  102886:	0000                	unimp
  102888:	225f 0000 225f      	0x225f0000225f
  10288e:	0000                	unimp
  102890:	225f 0000 225f      	0x225f0000225f
  102896:	0000                	unimp
  102898:	225f 0000 225f      	0x225f0000225f
  10289e:	0000                	unimp
  1028a0:	225f 0000 225f      	0x225f0000225f
  1028a6:	0000                	unimp
  1028a8:	225f 0000 225f      	0x225f0000225f
  1028ae:	0000                	unimp
  1028b0:	225f 0000 225f      	0x225f0000225f
  1028b6:	0000                	unimp
  1028b8:	225f 0000 225f      	0x225f0000225f
  1028be:	0000                	unimp
  1028c0:	228c                	fld	fa1,0(a3)
  1028c2:	0000                	unimp
  1028c4:	228c                	fld	fa1,0(a3)
  1028c6:	0000                	unimp
  1028c8:	228c                	fld	fa1,0(a3)
  1028ca:	0000                	unimp
  1028cc:	228c                	fld	fa1,0(a3)
  1028ce:	0000                	unimp
  1028d0:	228c                	fld	fa1,0(a3)
  1028d2:	0000                	unimp
  1028d4:	228c                	fld	fa1,0(a3)
  1028d6:	0000                	unimp
  1028d8:	228c                	fld	fa1,0(a3)
  1028da:	0000                	unimp
  1028dc:	228c                	fld	fa1,0(a3)
  1028de:	0000                	unimp
  1028e0:	228c                	fld	fa1,0(a3)
  1028e2:	0000                	unimp
  1028e4:	228c                	fld	fa1,0(a3)
  1028e6:	0000                	unimp
  1028e8:	228c                	fld	fa1,0(a3)
  1028ea:	0000                	unimp
  1028ec:	228c                	fld	fa1,0(a3)
  1028ee:	0000                	unimp
  1028f0:	228c                	fld	fa1,0(a3)
  1028f2:	0000                	unimp
  1028f4:	228c                	fld	fa1,0(a3)
  1028f6:	0000                	unimp
  1028f8:	228c                	fld	fa1,0(a3)
  1028fa:	0000                	unimp
  1028fc:	228c                	fld	fa1,0(a3)
  1028fe:	0000                	unimp
  102900:	00002313          	slti	t1,zero,0
  102904:	00002313          	slti	t1,zero,0
  102908:	00002313          	slti	t1,zero,0
  10290c:	00002313          	slti	t1,zero,0
  102910:	00002313          	slti	t1,zero,0
  102914:	00002313          	slti	t1,zero,0
  102918:	00002313          	slti	t1,zero,0
  10291c:	00002313          	slti	t1,zero,0
  102920:	00002313          	slti	t1,zero,0
  102924:	00002313          	slti	t1,zero,0
  102928:	00002313          	slti	t1,zero,0
  10292c:	00002313          	slti	t1,zero,0
  102930:	00002313          	slti	t1,zero,0
  102934:	00002313          	slti	t1,zero,0
  102938:	00002313          	slti	t1,zero,0
  10293c:	00002313          	slti	t1,zero,0
  102940:	2340                	fld	fs0,128(a4)
  102942:	0000                	unimp
  102944:	2340                	fld	fs0,128(a4)
  102946:	0000                	unimp
  102948:	2340                	fld	fs0,128(a4)
  10294a:	0000                	unimp
  10294c:	2340                	fld	fs0,128(a4)
  10294e:	0000                	unimp
  102950:	2340                	fld	fs0,128(a4)
  102952:	0000                	unimp
  102954:	2340                	fld	fs0,128(a4)
  102956:	0000                	unimp
  102958:	2340                	fld	fs0,128(a4)
  10295a:	0000                	unimp
  10295c:	2340                	fld	fs0,128(a4)
  10295e:	0000                	unimp
  102960:	2340                	fld	fs0,128(a4)
  102962:	0000                	unimp
  102964:	2340                	fld	fs0,128(a4)
  102966:	0000                	unimp
  102968:	2340                	fld	fs0,128(a4)
  10296a:	0000                	unimp
  10296c:	2340                	fld	fs0,128(a4)
  10296e:	0000                	unimp
  102970:	2340                	fld	fs0,128(a4)
  102972:	0000                	unimp
  102974:	2340                	fld	fs0,128(a4)
  102976:	0000                	unimp
  102978:	2340                	fld	fs0,128(a4)
  10297a:	0000                	unimp
  10297c:	2340                	fld	fs0,128(a4)
  10297e:	0000                	unimp
  102980:	236d                	jal	102f2a <expected_output+0x2caa>
  102982:	0000                	unimp
  102984:	236d                	jal	102f2e <expected_output+0x2cae>
  102986:	0000                	unimp
  102988:	236d                	jal	102f32 <expected_output+0x2cb2>
  10298a:	0000                	unimp
  10298c:	236d                	jal	102f36 <expected_output+0x2cb6>
  10298e:	0000                	unimp
  102990:	236d                	jal	102f3a <expected_output+0x2cba>
  102992:	0000                	unimp
  102994:	236d                	jal	102f3e <expected_output+0x2cbe>
  102996:	0000                	unimp
  102998:	236d                	jal	102f42 <expected_output+0x2cc2>
  10299a:	0000                	unimp
  10299c:	236d                	jal	102f46 <expected_output+0x2cc6>
  10299e:	0000                	unimp
  1029a0:	236d                	jal	102f4a <expected_output+0x2cca>
  1029a2:	0000                	unimp
  1029a4:	236d                	jal	102f4e <expected_output+0x2cce>
  1029a6:	0000                	unimp
  1029a8:	236d                	jal	102f52 <expected_output+0x2cd2>
  1029aa:	0000                	unimp
  1029ac:	236d                	jal	102f56 <expected_output+0x2cd6>
  1029ae:	0000                	unimp
  1029b0:	236d                	jal	102f5a <expected_output+0x2cda>
  1029b2:	0000                	unimp
  1029b4:	236d                	jal	102f5e <expected_output+0x2cde>
  1029b6:	0000                	unimp
  1029b8:	236d                	jal	102f62 <expected_output+0x2ce2>
  1029ba:	0000                	unimp
  1029bc:	236d                	jal	102f66 <expected_output+0x2ce6>
  1029be:	0000                	unimp
  1029c0:	239a                	fld	ft7,384(sp)
  1029c2:	0000                	unimp
  1029c4:	239a                	fld	ft7,384(sp)
  1029c6:	0000                	unimp
  1029c8:	239a                	fld	ft7,384(sp)
  1029ca:	0000                	unimp
  1029cc:	239a                	fld	ft7,384(sp)
  1029ce:	0000                	unimp
  1029d0:	239a                	fld	ft7,384(sp)
  1029d2:	0000                	unimp
  1029d4:	239a                	fld	ft7,384(sp)
  1029d6:	0000                	unimp
  1029d8:	239a                	fld	ft7,384(sp)
  1029da:	0000                	unimp
  1029dc:	239a                	fld	ft7,384(sp)
  1029de:	0000                	unimp
  1029e0:	239a                	fld	ft7,384(sp)
  1029e2:	0000                	unimp
  1029e4:	239a                	fld	ft7,384(sp)
  1029e6:	0000                	unimp
  1029e8:	239a                	fld	ft7,384(sp)
  1029ea:	0000                	unimp
  1029ec:	239a                	fld	ft7,384(sp)
  1029ee:	0000                	unimp
  1029f0:	239a                	fld	ft7,384(sp)
  1029f2:	0000                	unimp
  1029f4:	239a                	fld	ft7,384(sp)
  1029f6:	0000                	unimp
  1029f8:	239a                	fld	ft7,384(sp)
  1029fa:	0000                	unimp
  1029fc:	239a                	fld	ft7,384(sp)
  1029fe:	0000                	unimp
  102a00:	000023c7          	fmsub.s	ft7,ft0,ft0,ft0,rdn
  102a04:	000023c7          	fmsub.s	ft7,ft0,ft0,ft0,rdn
  102a08:	000023c7          	fmsub.s	ft7,ft0,ft0,ft0,rdn
  102a0c:	000023c7          	fmsub.s	ft7,ft0,ft0,ft0,rdn
  102a10:	000023c7          	fmsub.s	ft7,ft0,ft0,ft0,rdn
  102a14:	000023c7          	fmsub.s	ft7,ft0,ft0,ft0,rdn
  102a18:	000023c7          	fmsub.s	ft7,ft0,ft0,ft0,rdn
  102a1c:	000023c7          	fmsub.s	ft7,ft0,ft0,ft0,rdn
  102a20:	000023c7          	fmsub.s	ft7,ft0,ft0,ft0,rdn
  102a24:	000023c7          	fmsub.s	ft7,ft0,ft0,ft0,rdn
  102a28:	000023c7          	fmsub.s	ft7,ft0,ft0,ft0,rdn
  102a2c:	000023c7          	fmsub.s	ft7,ft0,ft0,ft0,rdn
  102a30:	000023c7          	fmsub.s	ft7,ft0,ft0,ft0,rdn
  102a34:	000023c7          	fmsub.s	ft7,ft0,ft0,ft0,rdn
  102a38:	000023c7          	fmsub.s	ft7,ft0,ft0,ft0,rdn
  102a3c:	000023c7          	fmsub.s	ft7,ft0,ft0,ft0,rdn
  102a40:	23f4                	fld	fa3,192(a5)
  102a42:	0000                	unimp
  102a44:	23f4                	fld	fa3,192(a5)
  102a46:	0000                	unimp
  102a48:	23f4                	fld	fa3,192(a5)
  102a4a:	0000                	unimp
  102a4c:	23f4                	fld	fa3,192(a5)
  102a4e:	0000                	unimp
  102a50:	23f4                	fld	fa3,192(a5)
  102a52:	0000                	unimp
  102a54:	23f4                	fld	fa3,192(a5)
  102a56:	0000                	unimp
  102a58:	23f4                	fld	fa3,192(a5)
  102a5a:	0000                	unimp
  102a5c:	23f4                	fld	fa3,192(a5)
  102a5e:	0000                	unimp
  102a60:	23f4                	fld	fa3,192(a5)
  102a62:	0000                	unimp
  102a64:	23f4                	fld	fa3,192(a5)
  102a66:	0000                	unimp
  102a68:	23f4                	fld	fa3,192(a5)
  102a6a:	0000                	unimp
  102a6c:	23f4                	fld	fa3,192(a5)
  102a6e:	0000                	unimp
  102a70:	23f4                	fld	fa3,192(a5)
  102a72:	0000                	unimp
  102a74:	23f4                	fld	fa3,192(a5)
  102a76:	0000                	unimp
  102a78:	23f4                	fld	fa3,192(a5)
  102a7a:	0000                	unimp
  102a7c:	23f4                	fld	fa3,192(a5)
  102a7e:	0000                	unimp
  102a80:	2421                	jal	102c88 <expected_output+0x2a08>
  102a82:	0000                	unimp
  102a84:	2421                	jal	102c8c <expected_output+0x2a0c>
  102a86:	0000                	unimp
  102a88:	2421                	jal	102c90 <expected_output+0x2a10>
  102a8a:	0000                	unimp
  102a8c:	2421                	jal	102c94 <expected_output+0x2a14>
  102a8e:	0000                	unimp
  102a90:	2421                	jal	102c98 <expected_output+0x2a18>
  102a92:	0000                	unimp
  102a94:	2421                	jal	102c9c <expected_output+0x2a1c>
  102a96:	0000                	unimp
  102a98:	2421                	jal	102ca0 <expected_output+0x2a20>
  102a9a:	0000                	unimp
  102a9c:	2421                	jal	102ca4 <expected_output+0x2a24>
  102a9e:	0000                	unimp
  102aa0:	2421                	jal	102ca8 <expected_output+0x2a28>
  102aa2:	0000                	unimp
  102aa4:	2421                	jal	102cac <expected_output+0x2a2c>
  102aa6:	0000                	unimp
  102aa8:	2421                	jal	102cb0 <expected_output+0x2a30>
  102aaa:	0000                	unimp
  102aac:	2421                	jal	102cb4 <expected_output+0x2a34>
  102aae:	0000                	unimp
  102ab0:	2421                	jal	102cb8 <expected_output+0x2a38>
  102ab2:	0000                	unimp
  102ab4:	2421                	jal	102cbc <expected_output+0x2a3c>
  102ab6:	0000                	unimp
  102ab8:	2421                	jal	102cc0 <expected_output+0x2a40>
  102aba:	0000                	unimp
  102abc:	2421                	jal	102cc4 <expected_output+0x2a44>
  102abe:	0000                	unimp
  102ac0:	244e                	fld	fs0,208(sp)
  102ac2:	0000                	unimp
  102ac4:	244e                	fld	fs0,208(sp)
  102ac6:	0000                	unimp
  102ac8:	244e                	fld	fs0,208(sp)
  102aca:	0000                	unimp
  102acc:	244e                	fld	fs0,208(sp)
  102ace:	0000                	unimp
  102ad0:	244e                	fld	fs0,208(sp)
  102ad2:	0000                	unimp
  102ad4:	244e                	fld	fs0,208(sp)
  102ad6:	0000                	unimp
  102ad8:	244e                	fld	fs0,208(sp)
  102ada:	0000                	unimp
  102adc:	244e                	fld	fs0,208(sp)
  102ade:	0000                	unimp
  102ae0:	244e                	fld	fs0,208(sp)
  102ae2:	0000                	unimp
  102ae4:	244e                	fld	fs0,208(sp)
  102ae6:	0000                	unimp
