
riscv-spike.elf:     file format elf32-littleriscv


Disassembly of section .text:

00000000 <boot>:
   0:	00002fb7          	lui	t6,0x2
   4:	800f8f93          	addi	t6,t6,-2048 # 1800 <__stack_init+0x1224>
   8:	300f9073          	csrw	mstatus,t6
   c:	0340006f          	j	40 <_mstart>
  10:	00000013          	nop
  14:	00000013          	nop
  18:	00000013          	nop
  1c:	00000013          	nop
  20:	00000013          	nop
  24:	00000013          	nop
  28:	00000013          	nop
  2c:	00000013          	nop
  30:	00000013          	nop
  34:	00000013          	nop
  38:	00000013          	nop
  3c:	00000013          	nop

00000040 <_mstart>:
  40:	00000297          	auipc	t0,0x0
  44:	0b428293          	addi	t0,t0,180 # f4 <trap_entry>
  48:	30529073          	csrw	mtvec,t0
  4c:	00000093          	li	ra,0
  50:	00000113          	li	sp,0
  54:	00000193          	li	gp,0
  58:	00000213          	li	tp,0
  5c:	00000293          	li	t0,0
  60:	00000313          	li	t1,0
  64:	00000393          	li	t2,0
  68:	00000413          	li	s0,0
  6c:	00000493          	li	s1,0
  70:	00000513          	li	a0,0
  74:	00000593          	li	a1,0
  78:	00000613          	li	a2,0
  7c:	00000693          	li	a3,0
  80:	00000713          	li	a4,0
  84:	00000793          	li	a5,0
  88:	00000813          	li	a6,0
  8c:	00000893          	li	a7,0
  90:	00000913          	li	s2,0
  94:	00000993          	li	s3,0
  98:	00000a13          	li	s4,0
  9c:	00000a93          	li	s5,0
  a0:	00000b13          	li	s6,0
  a4:	00000b93          	li	s7,0
  a8:	00000c13          	li	s8,0
  ac:	00000c93          	li	s9,0
  b0:	00000d13          	li	s10,0
  b4:	00000d93          	li	s11,0
  b8:	00000e13          	li	t3,0
  bc:	00000e93          	li	t4,0
  c0:	00000f13          	li	t5,0
  c4:	00000f93          	li	t6,0
  c8:	00020197          	auipc	gp,0x20
  cc:	73818193          	addi	gp,gp,1848 # 20800 <__global_pointer$>
  d0:	000ff117          	auipc	sp,0xff
  d4:	f2c10113          	addi	sp,sp,-212 # feffc <__stacktop>
  d8:	00000297          	auipc	t0,0x0
  dc:	01c28293          	addi	t0,t0,28 # f4 <trap_entry>
  e0:	00012503          	lw	a0,0(sp)
  e4:	00000613          	li	a2,0
  e8:	3ac000ef          	jal	ra,494 <main>
  ec:	0000006f          	j	ec <_mstart+0xac>
  f0:	00008067          	ret

000000f4 <trap_entry>:
  f4:	1680006f          	j	25c <ISR5>
  f8:	30200073          	mret
  fc:	1600006f          	j	25c <ISR5>
 100:	30200073          	mret
 104:	1580006f          	j	25c <ISR5>
 108:	30200073          	mret
 10c:	1500006f          	j	25c <ISR5>
 110:	30200073          	mret
 114:	1480006f          	j	25c <ISR5>
 118:	30200073          	mret
 11c:	25c0006f          	j	378 <ISR6>
 120:	30200073          	mret
	...

00000130 <matmul32>:
 130:	fd410113          	addi	sp,sp,-44
 134:	00812023          	sw	s0,0(sp)
 138:	00912223          	sw	s1,4(sp)
 13c:	01212423          	sw	s2,8(sp)
 140:	01312623          	sw	s3,12(sp)
 144:	01412823          	sw	s4,16(sp)
 148:	01512a23          	sw	s5,20(sp)
 14c:	01612c23          	sw	s6,24(sp)
 150:	01712e23          	sw	s7,28(sp)
 154:	03812023          	sw	s8,32(sp)
 158:	03912223          	sw	s9,36(sp)
 15c:	03a12423          	sw	s10,40(sp)
 160:	00300293          	li	t0,3
 164:	00a2b073          	csrc	vxrm,t0
 168:	0126fe57          	vsetvli	t3,a3,e32,m4,tu,mu
 16c:	0026d813          	srli	a6,a3,0x2
 170:	96006057          	vmul.vx	v0,v0,zero
 174:	96406257          	vmul.vx	v4,v4,zero
 178:	96806457          	vmul.vx	v8,v8,zero
 17c:	96c06657          	vmul.vx	v12,v12,zero
 180:	97006857          	vmul.vx	v16,v16,zero
 184:	97406a57          	vmul.vx	v20,v20,zero
 188:	97806c57          	vmul.vx	v24,v24,zero
 18c:	97c06e57          	vmul.vx	v28,v28,zero
 190:	00000293          	li	t0,0

00000194 <OUTER_LOOP>:
 194:	00000313          	li	t1,0
 198:	00729e13          	slli	t3,t0,0x7
 19c:	01c58733          	add	a4,a1,t3
 1a0:	00060793          	mv	a5,a2

000001a4 <INNER_LOOP>:
 1a4:	08000e13          	li	t3,128
 1a8:	01c784b3          	add	s1,a5,t3
 1ac:	01c48933          	add	s2,s1,t3
 1b0:	01c909b3          	add	s3,s2,t3
 1b4:	00072a03          	lw	s4,0(a4)
 1b8:	00472a83          	lw	s5,4(a4)
 1bc:	00872b03          	lw	s6,8(a4)
 1c0:	00c72b83          	lw	s7,12(a4)
 1c4:	0207e207          	vle32.v	v4,(a5)
 1c8:	0204e407          	vle32.v	v8,(s1)
 1cc:	02096607          	vle32.v	v12,(s2)
 1d0:	0209e807          	vle32.v	v16,(s3)
 1d4:	b64a6a57          	vmacc.vx	v20,s4,v4
 1d8:	b68aea57          	vmacc.vx	v20,s5,v8
 1dc:	b6cb6a57          	vmacc.vx	v20,s6,v12
 1e0:	b70bea57          	vmacc.vx	v20,s7,v16
 1e4:	20000e13          	li	t3,512
 1e8:	01c787b3          	add	a5,a5,t3
 1ec:	01000e13          	li	t3,16
 1f0:	01c70733          	add	a4,a4,t3
 1f4:	00130313          	addi	t1,t1,1
 1f8:	fb0316e3          	bne	t1,a6,1a4 <INNER_LOOP>
 1fc:	02056a27          	vse32.v	v20,(a0)
 200:	97606b57          	vmul.vx	v22,v22,zero
 204:	97806c57          	vmul.vx	v24,v24,zero
 208:	97a06d57          	vmul.vx	v26,v26,zero
 20c:	97c06e57          	vmul.vx	v28,v28,zero
 210:	97c06e57          	vmul.vx	v28,v28,zero
 214:	97c06e57          	vmul.vx	v28,v28,zero
 218:	97c06e57          	vmul.vx	v28,v28,zero
 21c:	08050513          	addi	a0,a0,128
 220:	00128293          	addi	t0,t0,1
 224:	f6d298e3          	bne	t0,a3,194 <OUTER_LOOP>
 228:	00012403          	lw	s0,0(sp)
 22c:	00412483          	lw	s1,4(sp)
 230:	00812903          	lw	s2,8(sp)
 234:	00c12983          	lw	s3,12(sp)
 238:	01012a03          	lw	s4,16(sp)
 23c:	01412a83          	lw	s5,20(sp)
 240:	01812b03          	lw	s6,24(sp)
 244:	01c12b83          	lw	s7,28(sp)
 248:	02012c03          	lw	s8,32(sp)
 24c:	02412c83          	lw	s9,36(sp)
 250:	02812d03          	lw	s10,40(sp)
 254:	02c10113          	addi	sp,sp,44
 258:	00008067          	ret

0000025c <ISR5>:
 25c:	30047073          	csrci	mstatus,8
 260:	e8010113          	addi	sp,sp,-384
 264:	10112023          	sw	ra,256(sp)
 268:	10212223          	sw	sp,260(sp)
 26c:	10312423          	sw	gp,264(sp)
 270:	10412623          	sw	tp,268(sp)
 274:	10512823          	sw	t0,272(sp)
 278:	10612a23          	sw	t1,276(sp)
 27c:	10712c23          	sw	t2,280(sp)
 280:	10812e23          	sw	s0,284(sp)
 284:	12912023          	sw	s1,288(sp)
 288:	12a12223          	sw	a0,292(sp)
 28c:	12b12423          	sw	a1,296(sp)
 290:	12c12623          	sw	a2,300(sp)
 294:	12d12823          	sw	a3,304(sp)
 298:	12e12a23          	sw	a4,308(sp)
 29c:	12f12c23          	sw	a5,312(sp)
 2a0:	13012e23          	sw	a6,316(sp)
 2a4:	15112023          	sw	a7,320(sp)
 2a8:	15212223          	sw	s2,324(sp)
 2ac:	15312423          	sw	s3,328(sp)
 2b0:	15412623          	sw	s4,332(sp)
 2b4:	15512823          	sw	s5,336(sp)
 2b8:	15612a23          	sw	s6,340(sp)
 2bc:	15712c23          	sw	s7,344(sp)
 2c0:	15812e23          	sw	s8,348(sp)
 2c4:	17912023          	sw	s9,352(sp)
 2c8:	17a12223          	sw	s10,356(sp)
 2cc:	17b12423          	sw	s11,360(sp)
 2d0:	17c12623          	sw	t3,364(sp)
 2d4:	17d12823          	sw	t4,368(sp)
 2d8:	17e12a23          	sw	t5,372(sp)
 2dc:	17f12c23          	sw	t6,376(sp)
 2e0:	341022f3          	csrr	t0,mepc
 2e4:	16512e23          	sw	t0,380(sp)
 2e8:	2bc000ef          	jal	ra,5a4 <ISR5_uart>
 2ec:	30047073          	csrci	mstatus,8
 2f0:	17c12283          	lw	t0,380(sp)
 2f4:	34129073          	csrw	mepc,t0
 2f8:	10012083          	lw	ra,256(sp)
 2fc:	10c12203          	lw	tp,268(sp)
 300:	11012283          	lw	t0,272(sp)
 304:	11412303          	lw	t1,276(sp)
 308:	11812383          	lw	t2,280(sp)
 30c:	11c12403          	lw	s0,284(sp)
 310:	12012483          	lw	s1,288(sp)
 314:	12412503          	lw	a0,292(sp)
 318:	12812583          	lw	a1,296(sp)
 31c:	12c12603          	lw	a2,300(sp)
 320:	13012683          	lw	a3,304(sp)
 324:	13412703          	lw	a4,308(sp)
 328:	13812783          	lw	a5,312(sp)
 32c:	13c12803          	lw	a6,316(sp)
 330:	14012883          	lw	a7,320(sp)
 334:	14412903          	lw	s2,324(sp)
 338:	14812983          	lw	s3,328(sp)
 33c:	14c12a03          	lw	s4,332(sp)
 340:	15012a83          	lw	s5,336(sp)
 344:	15412b03          	lw	s6,340(sp)
 348:	15812b83          	lw	s7,344(sp)
 34c:	15c12c03          	lw	s8,348(sp)
 350:	16012c83          	lw	s9,352(sp)
 354:	16412d03          	lw	s10,356(sp)
 358:	16812d83          	lw	s11,360(sp)
 35c:	16c12e03          	lw	t3,364(sp)
 360:	17012e83          	lw	t4,368(sp)
 364:	17412f03          	lw	t5,372(sp)
 368:	17812f83          	lw	t6,376(sp)
 36c:	18010113          	addi	sp,sp,384
 370:	30046073          	csrsi	mstatus,8
 374:	30200073          	mret

00000378 <ISR6>:
 378:	30047073          	csrci	mstatus,8
 37c:	e8010113          	addi	sp,sp,-384
 380:	10112023          	sw	ra,256(sp)
 384:	10212223          	sw	sp,260(sp)
 388:	10312423          	sw	gp,264(sp)
 38c:	10412623          	sw	tp,268(sp)
 390:	10512823          	sw	t0,272(sp)
 394:	10612a23          	sw	t1,276(sp)
 398:	10712c23          	sw	t2,280(sp)
 39c:	10812e23          	sw	s0,284(sp)
 3a0:	12912023          	sw	s1,288(sp)
 3a4:	12a12223          	sw	a0,292(sp)
 3a8:	12b12423          	sw	a1,296(sp)
 3ac:	12c12623          	sw	a2,300(sp)
 3b0:	12d12823          	sw	a3,304(sp)
 3b4:	12e12a23          	sw	a4,308(sp)
 3b8:	12f12c23          	sw	a5,312(sp)
 3bc:	13012e23          	sw	a6,316(sp)
 3c0:	15112023          	sw	a7,320(sp)
 3c4:	15212223          	sw	s2,324(sp)
 3c8:	15312423          	sw	s3,328(sp)
 3cc:	15412623          	sw	s4,332(sp)
 3d0:	15512823          	sw	s5,336(sp)
 3d4:	15612a23          	sw	s6,340(sp)
 3d8:	15712c23          	sw	s7,344(sp)
 3dc:	15812e23          	sw	s8,348(sp)
 3e0:	17912023          	sw	s9,352(sp)
 3e4:	17a12223          	sw	s10,356(sp)
 3e8:	17b12423          	sw	s11,360(sp)
 3ec:	17c12623          	sw	t3,364(sp)
 3f0:	17d12823          	sw	t4,368(sp)
 3f4:	17e12a23          	sw	t5,372(sp)
 3f8:	17f12c23          	sw	t6,376(sp)
 3fc:	341022f3          	csrr	t0,mepc
 400:	16512e23          	sw	t0,380(sp)
 404:	1bc000ef          	jal	ra,5c0 <ISR6_addr_exception>
 408:	30047073          	csrci	mstatus,8
 40c:	17c12283          	lw	t0,380(sp)
 410:	34129073          	csrw	mepc,t0
 414:	10012083          	lw	ra,256(sp)
 418:	10c12203          	lw	tp,268(sp)
 41c:	11012283          	lw	t0,272(sp)
 420:	11412303          	lw	t1,276(sp)
 424:	11812383          	lw	t2,280(sp)
 428:	11c12403          	lw	s0,284(sp)
 42c:	12012483          	lw	s1,288(sp)
 430:	12412503          	lw	a0,292(sp)
 434:	12812583          	lw	a1,296(sp)
 438:	12c12603          	lw	a2,300(sp)
 43c:	13012683          	lw	a3,304(sp)
 440:	13412703          	lw	a4,308(sp)
 444:	13812783          	lw	a5,312(sp)
 448:	13c12803          	lw	a6,316(sp)
 44c:	14012883          	lw	a7,320(sp)
 450:	14412903          	lw	s2,324(sp)
 454:	14812983          	lw	s3,328(sp)
 458:	14c12a03          	lw	s4,332(sp)
 45c:	15012a83          	lw	s5,336(sp)
 460:	15412b03          	lw	s6,340(sp)
 464:	15812b83          	lw	s7,344(sp)
 468:	15c12c03          	lw	s8,348(sp)
 46c:	16012c83          	lw	s9,352(sp)
 470:	16412d03          	lw	s10,356(sp)
 474:	16812d83          	lw	s11,360(sp)
 478:	16c12e03          	lw	t3,364(sp)
 47c:	17012e83          	lw	t4,368(sp)
 480:	17412f03          	lw	t5,372(sp)
 484:	17812f83          	lw	t6,376(sp)
 488:	18010113          	addi	sp,sp,384
 48c:	30046073          	csrsi	mstatus,8
 490:	30200073          	mret

00000494 <main>:
 494:	fd010113          	addi	sp,sp,-48
 498:	02112623          	sw	ra,44(sp)
 49c:	02812423          	sw	s0,40(sp)
 4a0:	03010413          	addi	s0,sp,48
 4a4:	fca42e23          	sw	a0,-36(s0)
 4a8:	fcb42c23          	sw	a1,-40(s0)
 4ac:	02000693          	li	a3,32
 4b0:	001017b7          	lui	a5,0x101
 4b4:	00078613          	mv	a2,a5
 4b8:	001007b7          	lui	a5,0x100
 4bc:	00078593          	mv	a1,a5
 4c0:	001037b7          	lui	a5,0x103
 4c4:	00078513          	mv	a0,a5
 4c8:	c69ff0ef          	jal	ra,130 <matmul32>
 4cc:	00a00793          	li	a5,10
 4d0:	fef42423          	sw	a5,-24(s0)
 4d4:	001047b7          	lui	a5,0x104
 4d8:	0007a023          	sw	zero,0(a5) # 104000 <err_count>
 4dc:	fe042623          	sw	zero,-20(s0)
 4e0:	0a00006f          	j	580 <main+0xec>
 4e4:	001037b7          	lui	a5,0x103
 4e8:	00078713          	mv	a4,a5
 4ec:	fec42783          	lw	a5,-20(s0)
 4f0:	00279793          	slli	a5,a5,0x2
 4f4:	00f707b3          	add	a5,a4,a5
 4f8:	0007a703          	lw	a4,0(a5) # 103000 <y_mat>
 4fc:	001027b7          	lui	a5,0x102
 500:	00078693          	mv	a3,a5
 504:	fec42783          	lw	a5,-20(s0)
 508:	00279793          	slli	a5,a5,0x2
 50c:	00f687b3          	add	a5,a3,a5
 510:	0007a783          	lw	a5,0(a5) # 102000 <expected_output>
 514:	40f707b3          	sub	a5,a4,a5
 518:	fe842703          	lw	a4,-24(s0)
 51c:	04f74263          	blt	a4,a5,560 <main+0xcc>
 520:	001037b7          	lui	a5,0x103
 524:	00078713          	mv	a4,a5
 528:	fec42783          	lw	a5,-20(s0)
 52c:	00279793          	slli	a5,a5,0x2
 530:	00f707b3          	add	a5,a4,a5
 534:	0007a703          	lw	a4,0(a5) # 103000 <y_mat>
 538:	001027b7          	lui	a5,0x102
 53c:	00078693          	mv	a3,a5
 540:	fec42783          	lw	a5,-20(s0)
 544:	00279793          	slli	a5,a5,0x2
 548:	00f687b3          	add	a5,a3,a5
 54c:	0007a783          	lw	a5,0(a5) # 102000 <expected_output>
 550:	40f70733          	sub	a4,a4,a5
 554:	fe842783          	lw	a5,-24(s0)
 558:	40f007b3          	neg	a5,a5
 55c:	00f75c63          	bge	a4,a5,574 <main+0xe0>
 560:	001047b7          	lui	a5,0x104
 564:	0007a783          	lw	a5,0(a5) # 104000 <err_count>
 568:	00178713          	addi	a4,a5,1
 56c:	001047b7          	lui	a5,0x104
 570:	00e7a023          	sw	a4,0(a5) # 104000 <err_count>
 574:	fec42783          	lw	a5,-20(s0)
 578:	00178793          	addi	a5,a5,1
 57c:	fef42623          	sw	a5,-20(s0)
 580:	fec42703          	lw	a4,-20(s0)
 584:	3ff00793          	li	a5,1023
 588:	f4e7dee3          	bge	a5,a4,4e4 <main+0x50>
 58c:	00000793          	li	a5,0
 590:	00078513          	mv	a0,a5
 594:	02c12083          	lw	ra,44(sp)
 598:	02812403          	lw	s0,40(sp)
 59c:	03010113          	addi	sp,sp,48
 5a0:	00008067          	ret

000005a4 <ISR5_uart>:
 5a4:	ff010113          	addi	sp,sp,-16
 5a8:	00812623          	sw	s0,12(sp)
 5ac:	01010413          	addi	s0,sp,16
 5b0:	00000013          	nop
 5b4:	00c12403          	lw	s0,12(sp)
 5b8:	01010113          	addi	sp,sp,16
 5bc:	00008067          	ret

000005c0 <ISR6_addr_exception>:
 5c0:	ff010113          	addi	sp,sp,-16
 5c4:	00812623          	sw	s0,12(sp)
 5c8:	01010413          	addi	s0,sp,16
 5cc:	00000013          	nop
 5d0:	00c12403          	lw	s0,12(sp)
 5d4:	01010113          	addi	sp,sp,16
 5d8:	00008067          	ret

000005dc <__stack_init>:
 5dc:	effc                	fsw	fa5,92(a5)
 5de:	          	fence	unknown,unknown

Disassembly of section .vmem_data:

00100000 <a_mat>:
  100000:	0000                	unimp
  100002:	0000                	unimp
  100004:	0001                	nop
  100006:	0000                	unimp
  100008:	0002                	c.slli64	zero
  10000a:	0000                	unimp
  10000c:	00000003          	lb	zero,0(zero) # 0 <boot>
  100010:	0004                	0x4
  100012:	0000                	unimp
  100014:	0005                	c.nop	1
  100016:	0000                	unimp
  100018:	0006                	c.slli	zero,0x1
  10001a:	0000                	unimp
  10001c:	00000007          	vle8.v	v0,(zero),v0.t
  100020:	0008                	0x8
  100022:	0000                	unimp
  100024:	0009                	c.nop	2
  100026:	0000                	unimp
  100028:	000a                	c.slli	zero,0x2
  10002a:	0000                	unimp
  10002c:	0000000b          	0xb
  100030:	000c                	0xc
  100032:	0000                	unimp
  100034:	000d                	c.nop	3
  100036:	0000                	unimp
  100038:	000e                	c.slli	zero,0x3
  10003a:	0000                	unimp
  10003c:	0000000f          	fence	unknown,unknown
  100040:	0010                	0x10
  100042:	0000                	unimp
  100044:	0011                	c.nop	4
  100046:	0000                	unimp
  100048:	0012                	c.slli	zero,0x4
  10004a:	0000                	unimp
  10004c:	00000013          	nop
  100050:	0014                	0x14
  100052:	0000                	unimp
  100054:	0015                	c.nop	5
  100056:	0000                	unimp
  100058:	0016                	c.slli	zero,0x5
  10005a:	0000                	unimp
  10005c:	00000017          	auipc	zero,0x0
  100060:	0018                	0x18
  100062:	0000                	unimp
  100064:	0019                	c.nop	6
  100066:	0000                	unimp
  100068:	001a                	c.slli	zero,0x6
  10006a:	0000                	unimp
  10006c:	0000001b          	0x1b
  100070:	001c                	0x1c
  100072:	0000                	unimp
  100074:	001d                	c.nop	7
  100076:	0000                	unimp
  100078:	001e                	c.slli	zero,0x7
  10007a:	0000                	unimp
  10007c:	001f 0000 0020      	0x200000001f
  100082:	0000                	unimp
  100084:	0021                	c.nop	8
  100086:	0000                	unimp
  100088:	0022                	c.slli	zero,0x8
  10008a:	0000                	unimp
  10008c:	00000023          	sb	zero,0(zero) # 0 <boot>
  100090:	0024                	addi	s1,sp,8
  100092:	0000                	unimp
  100094:	0025                	c.nop	9
  100096:	0000                	unimp
  100098:	0026                	c.slli	zero,0x9
  10009a:	0000                	unimp
  10009c:	00000027          	vse8.v	v0,(zero),v0.t
  1000a0:	0028                	addi	a0,sp,8
  1000a2:	0000                	unimp
  1000a4:	0029                	c.nop	10
  1000a6:	0000                	unimp
  1000a8:	002a                	c.slli	zero,0xa
  1000aa:	0000                	unimp
  1000ac:	0000002b          	0x2b
  1000b0:	002c                	addi	a1,sp,8
  1000b2:	0000                	unimp
  1000b4:	002d                	c.nop	11
  1000b6:	0000                	unimp
  1000b8:	002e                	c.slli	zero,0xb
  1000ba:	0000                	unimp
  1000bc:	0000002f          	vamoaddei8.v	zero,(zero),v0,v0,v0.t
  1000c0:	0030                	addi	a2,sp,8
  1000c2:	0000                	unimp
  1000c4:	0031                	c.nop	12
  1000c6:	0000                	unimp
  1000c8:	0032                	c.slli	zero,0xc
  1000ca:	0000                	unimp
  1000cc:	00000033          	add	zero,zero,zero
  1000d0:	0034                	addi	a3,sp,8
  1000d2:	0000                	unimp
  1000d4:	0035                	c.nop	13
  1000d6:	0000                	unimp
  1000d8:	0036                	c.slli	zero,0xd
  1000da:	0000                	unimp
  1000dc:	00000037          	lui	zero,0x0
  1000e0:	0038                	addi	a4,sp,8
  1000e2:	0000                	unimp
  1000e4:	0039                	c.nop	14
  1000e6:	0000                	unimp
  1000e8:	003a                	c.slli	zero,0xe
  1000ea:	0000                	unimp
  1000ec:	0000003b          	0x3b
  1000f0:	003c                	addi	a5,sp,8
  1000f2:	0000                	unimp
  1000f4:	003d                	c.nop	15
  1000f6:	0000                	unimp
  1000f8:	003e                	c.slli	zero,0xf
  1000fa:	0000                	unimp
  1000fc:	0000003f 00000040 	0x400000003f
  100104:	0041                	c.nop	16
  100106:	0000                	unimp
  100108:	0042                	c.slli	zero,0x10
  10010a:	0000                	unimp
  10010c:	00000043          	fmadd.s	ft0,ft0,ft0,ft0,rne
  100110:	0044                	addi	s1,sp,4
  100112:	0000                	unimp
  100114:	0045                	c.nop	17
  100116:	0000                	unimp
  100118:	0046                	c.slli	zero,0x11
  10011a:	0000                	unimp
  10011c:	00000047          	fmsub.s	ft0,ft0,ft0,ft0,rne
  100120:	0048                	addi	a0,sp,4
  100122:	0000                	unimp
  100124:	0049                	c.nop	18
  100126:	0000                	unimp
  100128:	004a                	c.slli	zero,0x12
  10012a:	0000                	unimp
  10012c:	0000004b          	fnmsub.s	ft0,ft0,ft0,ft0,rne
  100130:	004c                	addi	a1,sp,4
  100132:	0000                	unimp
  100134:	004d                	c.nop	19
  100136:	0000                	unimp
  100138:	004e                	c.slli	zero,0x13
  10013a:	0000                	unimp
  10013c:	0000004f          	fnmadd.s	ft0,ft0,ft0,ft0,rne
  100140:	0050                	addi	a2,sp,4
  100142:	0000                	unimp
  100144:	0051                	c.nop	20
  100146:	0000                	unimp
  100148:	0052                	c.slli	zero,0x14
  10014a:	0000                	unimp
  10014c:	00000053          	fadd.s	ft0,ft0,ft0,rne
  100150:	0054                	addi	a3,sp,4
  100152:	0000                	unimp
  100154:	0055                	c.nop	21
  100156:	0000                	unimp
  100158:	0056                	c.slli	zero,0x15
  10015a:	0000                	unimp
  10015c:	00000057          	vadd.vv	v0,v0,v0,v0.t
  100160:	0058                	addi	a4,sp,4
  100162:	0000                	unimp
  100164:	0059                	c.nop	22
  100166:	0000                	unimp
  100168:	005a                	c.slli	zero,0x16
  10016a:	0000                	unimp
  10016c:	0000005b          	0x5b
  100170:	005c                	addi	a5,sp,4
  100172:	0000                	unimp
  100174:	005d                	c.nop	23
  100176:	0000                	unimp
  100178:	005e                	c.slli	zero,0x17
  10017a:	0000                	unimp
  10017c:	005f 0000 0060      	0x600000005f
  100182:	0000                	unimp
  100184:	0061                	c.nop	24
  100186:	0000                	unimp
  100188:	0062                	c.slli	zero,0x18
  10018a:	0000                	unimp
  10018c:	00000063          	beqz	zero,10018c <a_mat+0x18c>
  100190:	0064                	addi	s1,sp,12
  100192:	0000                	unimp
  100194:	0065                	c.nop	25
  100196:	0000                	unimp
  100198:	0066                	c.slli	zero,0x19
  10019a:	0000                	unimp
  10019c:	00000067          	jr	zero # 0 <boot>
  1001a0:	0068                	addi	a0,sp,12
  1001a2:	0000                	unimp
  1001a4:	0069                	c.nop	26
  1001a6:	0000                	unimp
  1001a8:	006a                	c.slli	zero,0x1a
  1001aa:	0000                	unimp
  1001ac:	0000006b          	0x6b
  1001b0:	006c                	addi	a1,sp,12
  1001b2:	0000                	unimp
  1001b4:	006d                	c.nop	27
  1001b6:	0000                	unimp
  1001b8:	006e                	c.slli	zero,0x1b
  1001ba:	0000                	unimp
  1001bc:	0000006f          	j	1001bc <a_mat+0x1bc>
  1001c0:	0070                	addi	a2,sp,12
  1001c2:	0000                	unimp
  1001c4:	0071                	c.nop	28
  1001c6:	0000                	unimp
  1001c8:	0072                	c.slli	zero,0x1c
  1001ca:	0000                	unimp
  1001cc:	00000073          	ecall
  1001d0:	0074                	addi	a3,sp,12
  1001d2:	0000                	unimp
  1001d4:	0075                	c.nop	29
  1001d6:	0000                	unimp
  1001d8:	0076                	c.slli	zero,0x1d
  1001da:	0000                	unimp
  1001dc:	00000077          	0x77
  1001e0:	0078                	addi	a4,sp,12
  1001e2:	0000                	unimp
  1001e4:	0079                	c.nop	30
  1001e6:	0000                	unimp
  1001e8:	007a                	c.slli	zero,0x1e
  1001ea:	0000                	unimp
  1001ec:	0000007b          	0x7b
  1001f0:	007c                	addi	a5,sp,12
  1001f2:	0000                	unimp
  1001f4:	007d                	c.nop	31
  1001f6:	0000                	unimp
  1001f8:	007e                	c.slli	zero,0x1f
  1001fa:	0000                	unimp
  1001fc:	007f                	0x7f
  1001fe:	0000                	unimp
  100200:	0080                	addi	s0,sp,64
  100202:	0000                	unimp
  100204:	0081                	addi	ra,ra,0
  100206:	0000                	unimp
  100208:	0082                	c.slli64	ra
  10020a:	0000                	unimp
  10020c:	00000083          	lb	ra,0(zero) # 0 <boot>
  100210:	0084                	addi	s1,sp,64
  100212:	0000                	unimp
  100214:	0085                	addi	ra,ra,1
  100216:	0000                	unimp
  100218:	0086                	slli	ra,ra,0x1
  10021a:	0000                	unimp
  10021c:	00000087          	vle8.v	v1,(zero),v0.t
  100220:	0088                	addi	a0,sp,64
  100222:	0000                	unimp
  100224:	0089                	addi	ra,ra,2
  100226:	0000                	unimp
  100228:	008a                	slli	ra,ra,0x2
  10022a:	0000                	unimp
  10022c:	0000008b          	0x8b
  100230:	008c                	addi	a1,sp,64
  100232:	0000                	unimp
  100234:	008d                	addi	ra,ra,3
  100236:	0000                	unimp
  100238:	008e                	slli	ra,ra,0x3
  10023a:	0000                	unimp
  10023c:	0000008f          	0x8f
  100240:	0090                	addi	a2,sp,64
  100242:	0000                	unimp
  100244:	0091                	addi	ra,ra,4
  100246:	0000                	unimp
  100248:	0092                	slli	ra,ra,0x4
  10024a:	0000                	unimp
  10024c:	00000093          	li	ra,0
  100250:	0094                	addi	a3,sp,64
  100252:	0000                	unimp
  100254:	0095                	addi	ra,ra,5
  100256:	0000                	unimp
  100258:	0096                	slli	ra,ra,0x5
  10025a:	0000                	unimp
  10025c:	00000097          	auipc	ra,0x0
  100260:	0098                	addi	a4,sp,64
  100262:	0000                	unimp
  100264:	0099                	addi	ra,ra,6
  100266:	0000                	unimp
  100268:	009a                	slli	ra,ra,0x6
  10026a:	0000                	unimp
  10026c:	0000009b          	0x9b
  100270:	009c                	addi	a5,sp,64
  100272:	0000                	unimp
  100274:	009d                	addi	ra,ra,7
  100276:	0000                	unimp
  100278:	009e                	slli	ra,ra,0x7
  10027a:	0000                	unimp
  10027c:	009f 0000 00a0      	0xa00000009f
  100282:	0000                	unimp
  100284:	00a1                	addi	ra,ra,8
  100286:	0000                	unimp
  100288:	00a2                	slli	ra,ra,0x8
  10028a:	0000                	unimp
  10028c:	000000a3          	sb	zero,1(zero) # 1 <boot+0x1>
  100290:	00a4                	addi	s1,sp,72
  100292:	0000                	unimp
  100294:	00a5                	addi	ra,ra,9
  100296:	0000                	unimp
  100298:	00a6                	slli	ra,ra,0x9
  10029a:	0000                	unimp
  10029c:	000000a7          	vse8.v	v1,(zero),v0.t
  1002a0:	00a8                	addi	a0,sp,72
  1002a2:	0000                	unimp
  1002a4:	00a9                	addi	ra,ra,10
  1002a6:	0000                	unimp
  1002a8:	00aa                	slli	ra,ra,0xa
  1002aa:	0000                	unimp
  1002ac:	000000ab          	0xab
  1002b0:	00ac                	addi	a1,sp,72
  1002b2:	0000                	unimp
  1002b4:	00ad                	addi	ra,ra,11
  1002b6:	0000                	unimp
  1002b8:	00ae                	slli	ra,ra,0xb
  1002ba:	0000                	unimp
  1002bc:	000000af          	vamoaddei8.v	zero,(zero),v0,v1,v0.t
  1002c0:	00b0                	addi	a2,sp,72
  1002c2:	0000                	unimp
  1002c4:	00b1                	addi	ra,ra,12
  1002c6:	0000                	unimp
  1002c8:	00b2                	slli	ra,ra,0xc
  1002ca:	0000                	unimp
  1002cc:	000000b3          	add	ra,zero,zero
  1002d0:	00b4                	addi	a3,sp,72
  1002d2:	0000                	unimp
  1002d4:	00b5                	addi	ra,ra,13
  1002d6:	0000                	unimp
  1002d8:	00b6                	slli	ra,ra,0xd
  1002da:	0000                	unimp
  1002dc:	000000b7          	lui	ra,0x0
  1002e0:	00b8                	addi	a4,sp,72
  1002e2:	0000                	unimp
  1002e4:	00b9                	addi	ra,ra,14
  1002e6:	0000                	unimp
  1002e8:	00ba                	slli	ra,ra,0xe
  1002ea:	0000                	unimp
  1002ec:	000000bb          	0xbb
  1002f0:	00bc                	addi	a5,sp,72
  1002f2:	0000                	unimp
  1002f4:	00bd                	addi	ra,ra,15
  1002f6:	0000                	unimp
  1002f8:	00be                	slli	ra,ra,0xf
  1002fa:	0000                	unimp
  1002fc:	000000bf 000000c0 	0xc0000000bf
  100304:	00c1                	addi	ra,ra,16
  100306:	0000                	unimp
  100308:	00c2                	slli	ra,ra,0x10
  10030a:	0000                	unimp
  10030c:	000000c3          	fmadd.s	ft1,ft0,ft0,ft0,rne
  100310:	00c4                	addi	s1,sp,68
  100312:	0000                	unimp
  100314:	00c5                	addi	ra,ra,17
  100316:	0000                	unimp
  100318:	00c6                	slli	ra,ra,0x11
  10031a:	0000                	unimp
  10031c:	000000c7          	fmsub.s	ft1,ft0,ft0,ft0,rne
  100320:	00c8                	addi	a0,sp,68
  100322:	0000                	unimp
  100324:	00c9                	addi	ra,ra,18
  100326:	0000                	unimp
  100328:	00ca                	slli	ra,ra,0x12
  10032a:	0000                	unimp
  10032c:	000000cb          	fnmsub.s	ft1,ft0,ft0,ft0,rne
  100330:	00cc                	addi	a1,sp,68
  100332:	0000                	unimp
  100334:	00cd                	addi	ra,ra,19
  100336:	0000                	unimp
  100338:	00ce                	slli	ra,ra,0x13
  10033a:	0000                	unimp
  10033c:	000000cf          	fnmadd.s	ft1,ft0,ft0,ft0,rne
  100340:	00d0                	addi	a2,sp,68
  100342:	0000                	unimp
  100344:	00d1                	addi	ra,ra,20
  100346:	0000                	unimp
  100348:	00d2                	slli	ra,ra,0x14
  10034a:	0000                	unimp
  10034c:	000000d3          	fadd.s	ft1,ft0,ft0,rne
  100350:	00d4                	addi	a3,sp,68
  100352:	0000                	unimp
  100354:	00d5                	addi	ra,ra,21
  100356:	0000                	unimp
  100358:	00d6                	slli	ra,ra,0x15
  10035a:	0000                	unimp
  10035c:	000000d7          	vadd.vv	v1,v0,v0,v0.t
  100360:	00d8                	addi	a4,sp,68
  100362:	0000                	unimp
  100364:	00d9                	addi	ra,ra,22
  100366:	0000                	unimp
  100368:	00da                	slli	ra,ra,0x16
  10036a:	0000                	unimp
  10036c:	000000db          	0xdb
  100370:	00dc                	addi	a5,sp,68
  100372:	0000                	unimp
  100374:	00dd                	addi	ra,ra,23
  100376:	0000                	unimp
  100378:	00de                	slli	ra,ra,0x17
  10037a:	0000                	unimp
  10037c:	00df 0000 00e0      	0xe0000000df
  100382:	0000                	unimp
  100384:	00e1                	addi	ra,ra,24
  100386:	0000                	unimp
  100388:	00e2                	slli	ra,ra,0x18
  10038a:	0000                	unimp
  10038c:	000000e3          	beqz	zero,100b8c <a_mat+0xb8c>
  100390:	00e4                	addi	s1,sp,76
  100392:	0000                	unimp
  100394:	00e5                	addi	ra,ra,25
  100396:	0000                	unimp
  100398:	00e6                	slli	ra,ra,0x19
  10039a:	0000                	unimp
  10039c:	000000e7          	jalr	zero # 0 <boot>
  1003a0:	00e8                	addi	a0,sp,76
  1003a2:	0000                	unimp
  1003a4:	00e9                	addi	ra,ra,26
  1003a6:	0000                	unimp
  1003a8:	00ea                	slli	ra,ra,0x1a
  1003aa:	0000                	unimp
  1003ac:	000000eb          	0xeb
  1003b0:	00ec                	addi	a1,sp,76
  1003b2:	0000                	unimp
  1003b4:	00ed                	addi	ra,ra,27
  1003b6:	0000                	unimp
  1003b8:	00ee                	slli	ra,ra,0x1b
  1003ba:	0000                	unimp
  1003bc:	000000ef          	jal	ra,1003bc <a_mat+0x3bc>
  1003c0:	00f0                	addi	a2,sp,76
  1003c2:	0000                	unimp
  1003c4:	00f1                	addi	ra,ra,28
  1003c6:	0000                	unimp
  1003c8:	00f2                	slli	ra,ra,0x1c
  1003ca:	0000                	unimp
  1003cc:	000000f3          	0xf3
  1003d0:	00f4                	addi	a3,sp,76
  1003d2:	0000                	unimp
  1003d4:	00f5                	addi	ra,ra,29
  1003d6:	0000                	unimp
  1003d8:	00f6                	slli	ra,ra,0x1d
  1003da:	0000                	unimp
  1003dc:	000000f7          	0xf7
  1003e0:	00f8                	addi	a4,sp,76
  1003e2:	0000                	unimp
  1003e4:	00f9                	addi	ra,ra,30
  1003e6:	0000                	unimp
  1003e8:	00fa                	slli	ra,ra,0x1e
  1003ea:	0000                	unimp
  1003ec:	000000fb          	0xfb
  1003f0:	00fc                	addi	a5,sp,76
  1003f2:	0000                	unimp
  1003f4:	00fd                	addi	ra,ra,31
  1003f6:	0000                	unimp
  1003f8:	00fe                	slli	ra,ra,0x1f
  1003fa:	0000                	unimp
  1003fc:	00ff                	0xff
  1003fe:	0000                	unimp
  100400:	0100                	addi	s0,sp,128
  100402:	0000                	unimp
  100404:	0101                	addi	sp,sp,0
  100406:	0000                	unimp
  100408:	0102                	c.slli64	sp
  10040a:	0000                	unimp
  10040c:	00000103          	lb	sp,0(zero) # 0 <boot>
  100410:	0104                	addi	s1,sp,128
  100412:	0000                	unimp
  100414:	0105                	addi	sp,sp,1
  100416:	0000                	unimp
  100418:	0106                	slli	sp,sp,0x1
  10041a:	0000                	unimp
  10041c:	00000107          	vle8.v	v2,(zero),v0.t
  100420:	0108                	addi	a0,sp,128
  100422:	0000                	unimp
  100424:	0109                	addi	sp,sp,2
  100426:	0000                	unimp
  100428:	010a                	slli	sp,sp,0x2
  10042a:	0000                	unimp
  10042c:	0000010b          	0x10b
  100430:	010c                	addi	a1,sp,128
  100432:	0000                	unimp
  100434:	010d                	addi	sp,sp,3
  100436:	0000                	unimp
  100438:	010e                	slli	sp,sp,0x3
  10043a:	0000                	unimp
  10043c:	0000010f          	0x10f
  100440:	0110                	addi	a2,sp,128
  100442:	0000                	unimp
  100444:	0111                	addi	sp,sp,4
  100446:	0000                	unimp
  100448:	0112                	slli	sp,sp,0x4
  10044a:	0000                	unimp
  10044c:	00000113          	li	sp,0
  100450:	0114                	addi	a3,sp,128
  100452:	0000                	unimp
  100454:	0115                	addi	sp,sp,5
  100456:	0000                	unimp
  100458:	0116                	slli	sp,sp,0x5
  10045a:	0000                	unimp
  10045c:	00000117          	auipc	sp,0x0
  100460:	0118                	addi	a4,sp,128
  100462:	0000                	unimp
  100464:	0119                	addi	sp,sp,6
  100466:	0000                	unimp
  100468:	011a                	slli	sp,sp,0x6
  10046a:	0000                	unimp
  10046c:	0000011b          	0x11b
  100470:	011c                	addi	a5,sp,128
  100472:	0000                	unimp
  100474:	011d                	addi	sp,sp,7
  100476:	0000                	unimp
  100478:	011e                	slli	sp,sp,0x7
  10047a:	0000                	unimp
  10047c:	011f 0000 0120      	0x1200000011f
  100482:	0000                	unimp
  100484:	0121                	addi	sp,sp,8
  100486:	0000                	unimp
  100488:	0122                	slli	sp,sp,0x8
  10048a:	0000                	unimp
  10048c:	00000123          	sb	zero,2(zero) # 2 <boot+0x2>
  100490:	0124                	addi	s1,sp,136
  100492:	0000                	unimp
  100494:	0125                	addi	sp,sp,9
  100496:	0000                	unimp
  100498:	0126                	slli	sp,sp,0x9
  10049a:	0000                	unimp
  10049c:	00000127          	vse8.v	v2,(zero),v0.t
  1004a0:	0128                	addi	a0,sp,136
  1004a2:	0000                	unimp
  1004a4:	0129                	addi	sp,sp,10
  1004a6:	0000                	unimp
  1004a8:	012a                	slli	sp,sp,0xa
  1004aa:	0000                	unimp
  1004ac:	0000012b          	0x12b
  1004b0:	012c                	addi	a1,sp,136
  1004b2:	0000                	unimp
  1004b4:	012d                	addi	sp,sp,11
  1004b6:	0000                	unimp
  1004b8:	012e                	slli	sp,sp,0xb
  1004ba:	0000                	unimp
  1004bc:	0000012f          	vamoaddei8.v	zero,(zero),v0,v2,v0.t
  1004c0:	0130                	addi	a2,sp,136
  1004c2:	0000                	unimp
  1004c4:	0131                	addi	sp,sp,12
  1004c6:	0000                	unimp
  1004c8:	0132                	slli	sp,sp,0xc
  1004ca:	0000                	unimp
  1004cc:	00000133          	add	sp,zero,zero
  1004d0:	0134                	addi	a3,sp,136
  1004d2:	0000                	unimp
  1004d4:	0135                	addi	sp,sp,13
  1004d6:	0000                	unimp
  1004d8:	0136                	slli	sp,sp,0xd
  1004da:	0000                	unimp
  1004dc:	00000137          	lui	sp,0x0
  1004e0:	0138                	addi	a4,sp,136
  1004e2:	0000                	unimp
  1004e4:	0139                	addi	sp,sp,14
  1004e6:	0000                	unimp
  1004e8:	013a                	slli	sp,sp,0xe
  1004ea:	0000                	unimp
  1004ec:	0000013b          	0x13b
  1004f0:	013c                	addi	a5,sp,136
  1004f2:	0000                	unimp
  1004f4:	013d                	addi	sp,sp,15
  1004f6:	0000                	unimp
  1004f8:	013e                	slli	sp,sp,0xf
  1004fa:	0000                	unimp
  1004fc:	0000013f 00000140 	0x1400000013f
  100504:	0141                	addi	sp,sp,16
  100506:	0000                	unimp
  100508:	0142                	slli	sp,sp,0x10
  10050a:	0000                	unimp
  10050c:	00000143          	fmadd.s	ft2,ft0,ft0,ft0,rne
  100510:	0144                	addi	s1,sp,132
  100512:	0000                	unimp
  100514:	0145                	addi	sp,sp,17
  100516:	0000                	unimp
  100518:	0146                	slli	sp,sp,0x11
  10051a:	0000                	unimp
  10051c:	00000147          	fmsub.s	ft2,ft0,ft0,ft0,rne
  100520:	0148                	addi	a0,sp,132
  100522:	0000                	unimp
  100524:	0149                	addi	sp,sp,18
  100526:	0000                	unimp
  100528:	014a                	slli	sp,sp,0x12
  10052a:	0000                	unimp
  10052c:	0000014b          	fnmsub.s	ft2,ft0,ft0,ft0,rne
  100530:	014c                	addi	a1,sp,132
  100532:	0000                	unimp
  100534:	014d                	addi	sp,sp,19
  100536:	0000                	unimp
  100538:	014e                	slli	sp,sp,0x13
  10053a:	0000                	unimp
  10053c:	0000014f          	fnmadd.s	ft2,ft0,ft0,ft0,rne
  100540:	0150                	addi	a2,sp,132
  100542:	0000                	unimp
  100544:	0151                	addi	sp,sp,20
  100546:	0000                	unimp
  100548:	0152                	slli	sp,sp,0x14
  10054a:	0000                	unimp
  10054c:	00000153          	fadd.s	ft2,ft0,ft0,rne
  100550:	0154                	addi	a3,sp,132
  100552:	0000                	unimp
  100554:	0155                	addi	sp,sp,21
  100556:	0000                	unimp
  100558:	0156                	slli	sp,sp,0x15
  10055a:	0000                	unimp
  10055c:	00000157          	vadd.vv	v2,v0,v0,v0.t
  100560:	0158                	addi	a4,sp,132
  100562:	0000                	unimp
  100564:	0159                	addi	sp,sp,22
  100566:	0000                	unimp
  100568:	015a                	slli	sp,sp,0x16
  10056a:	0000                	unimp
  10056c:	0000015b          	0x15b
  100570:	015c                	addi	a5,sp,132
  100572:	0000                	unimp
  100574:	015d                	addi	sp,sp,23
  100576:	0000                	unimp
  100578:	015e                	slli	sp,sp,0x17
  10057a:	0000                	unimp
  10057c:	015f 0000 0160      	0x1600000015f
  100582:	0000                	unimp
  100584:	0161                	addi	sp,sp,24
  100586:	0000                	unimp
  100588:	0162                	slli	sp,sp,0x18
  10058a:	0000                	unimp
  10058c:	00000163          	beqz	zero,10058e <a_mat+0x58e>
  100590:	0164                	addi	s1,sp,140
  100592:	0000                	unimp
  100594:	0165                	addi	sp,sp,25
  100596:	0000                	unimp
  100598:	0166                	slli	sp,sp,0x19
  10059a:	0000                	unimp
  10059c:	00000167          	jalr	sp,zero # 0 <boot>
  1005a0:	0168                	addi	a0,sp,140
  1005a2:	0000                	unimp
  1005a4:	0169                	addi	sp,sp,26
  1005a6:	0000                	unimp
  1005a8:	016a                	slli	sp,sp,0x1a
  1005aa:	0000                	unimp
  1005ac:	0000016b          	0x16b
  1005b0:	016c                	addi	a1,sp,140
  1005b2:	0000                	unimp
  1005b4:	016d                	addi	sp,sp,27
  1005b6:	0000                	unimp
  1005b8:	016e                	slli	sp,sp,0x1b
  1005ba:	0000                	unimp
  1005bc:	0000016f          	jal	sp,1005bc <a_mat+0x5bc>
  1005c0:	0170                	addi	a2,sp,140
  1005c2:	0000                	unimp
  1005c4:	0171                	addi	sp,sp,28
  1005c6:	0000                	unimp
  1005c8:	0172                	slli	sp,sp,0x1c
  1005ca:	0000                	unimp
  1005cc:	00000173          	0x173
  1005d0:	0174                	addi	a3,sp,140
  1005d2:	0000                	unimp
  1005d4:	0175                	addi	sp,sp,29
  1005d6:	0000                	unimp
  1005d8:	0176                	slli	sp,sp,0x1d
  1005da:	0000                	unimp
  1005dc:	00000177          	0x177
  1005e0:	0178                	addi	a4,sp,140
  1005e2:	0000                	unimp
  1005e4:	0179                	addi	sp,sp,30
  1005e6:	0000                	unimp
  1005e8:	017a                	slli	sp,sp,0x1e
  1005ea:	0000                	unimp
  1005ec:	0000017b          	0x17b
  1005f0:	017c                	addi	a5,sp,140
  1005f2:	0000                	unimp
  1005f4:	017d                	addi	sp,sp,31
  1005f6:	0000                	unimp
  1005f8:	017e                	slli	sp,sp,0x1f
  1005fa:	0000                	unimp
  1005fc:	017f                	0x17f
  1005fe:	0000                	unimp
  100600:	0180                	addi	s0,sp,192
  100602:	0000                	unimp
  100604:	0181                	addi	gp,gp,0
  100606:	0000                	unimp
  100608:	0182                	c.slli64	gp
  10060a:	0000                	unimp
  10060c:	00000183          	lb	gp,0(zero) # 0 <boot>
  100610:	0184                	addi	s1,sp,192
  100612:	0000                	unimp
  100614:	0185                	addi	gp,gp,1
  100616:	0000                	unimp
  100618:	0186                	slli	gp,gp,0x1
  10061a:	0000                	unimp
  10061c:	00000187          	vle8.v	v3,(zero),v0.t
  100620:	0188                	addi	a0,sp,192
  100622:	0000                	unimp
  100624:	0189                	addi	gp,gp,2
  100626:	0000                	unimp
  100628:	018a                	slli	gp,gp,0x2
  10062a:	0000                	unimp
  10062c:	0000018b          	0x18b
  100630:	018c                	addi	a1,sp,192
  100632:	0000                	unimp
  100634:	018d                	addi	gp,gp,3
  100636:	0000                	unimp
  100638:	018e                	slli	gp,gp,0x3
  10063a:	0000                	unimp
  10063c:	0000018f          	0x18f
  100640:	0190                	addi	a2,sp,192
  100642:	0000                	unimp
  100644:	0191                	addi	gp,gp,4
  100646:	0000                	unimp
  100648:	0192                	slli	gp,gp,0x4
  10064a:	0000                	unimp
  10064c:	00000193          	li	gp,0
  100650:	0194                	addi	a3,sp,192
  100652:	0000                	unimp
  100654:	0195                	addi	gp,gp,5
  100656:	0000                	unimp
  100658:	0196                	slli	gp,gp,0x5
  10065a:	0000                	unimp
  10065c:	00000197          	auipc	gp,0x0
  100660:	0198                	addi	a4,sp,192
  100662:	0000                	unimp
  100664:	0199                	addi	gp,gp,6
  100666:	0000                	unimp
  100668:	019a                	slli	gp,gp,0x6
  10066a:	0000                	unimp
  10066c:	0000019b          	0x19b
  100670:	019c                	addi	a5,sp,192
  100672:	0000                	unimp
  100674:	019d                	addi	gp,gp,7
  100676:	0000                	unimp
  100678:	019e                	slli	gp,gp,0x7
  10067a:	0000                	unimp
  10067c:	019f 0000 01a0      	0x1a00000019f
  100682:	0000                	unimp
  100684:	01a1                	addi	gp,gp,8
  100686:	0000                	unimp
  100688:	01a2                	slli	gp,gp,0x8
  10068a:	0000                	unimp
  10068c:	000001a3          	sb	zero,3(zero) # 3 <boot+0x3>
  100690:	01a4                	addi	s1,sp,200
  100692:	0000                	unimp
  100694:	01a5                	addi	gp,gp,9
  100696:	0000                	unimp
  100698:	01a6                	slli	gp,gp,0x9
  10069a:	0000                	unimp
  10069c:	000001a7          	vse8.v	v3,(zero),v0.t
  1006a0:	01a8                	addi	a0,sp,200
  1006a2:	0000                	unimp
  1006a4:	01a9                	addi	gp,gp,10
  1006a6:	0000                	unimp
  1006a8:	01aa                	slli	gp,gp,0xa
  1006aa:	0000                	unimp
  1006ac:	000001ab          	0x1ab
  1006b0:	01ac                	addi	a1,sp,200
  1006b2:	0000                	unimp
  1006b4:	01ad                	addi	gp,gp,11
  1006b6:	0000                	unimp
  1006b8:	01ae                	slli	gp,gp,0xb
  1006ba:	0000                	unimp
  1006bc:	000001af          	vamoaddei8.v	zero,(zero),v0,v3,v0.t
  1006c0:	01b0                	addi	a2,sp,200
  1006c2:	0000                	unimp
  1006c4:	01b1                	addi	gp,gp,12
  1006c6:	0000                	unimp
  1006c8:	01b2                	slli	gp,gp,0xc
  1006ca:	0000                	unimp
  1006cc:	000001b3          	add	gp,zero,zero
  1006d0:	01b4                	addi	a3,sp,200
  1006d2:	0000                	unimp
  1006d4:	01b5                	addi	gp,gp,13
  1006d6:	0000                	unimp
  1006d8:	01b6                	slli	gp,gp,0xd
  1006da:	0000                	unimp
  1006dc:	000001b7          	lui	gp,0x0
  1006e0:	01b8                	addi	a4,sp,200
  1006e2:	0000                	unimp
  1006e4:	01b9                	addi	gp,gp,14
  1006e6:	0000                	unimp
  1006e8:	01ba                	slli	gp,gp,0xe
  1006ea:	0000                	unimp
  1006ec:	000001bb          	0x1bb
  1006f0:	01bc                	addi	a5,sp,200
  1006f2:	0000                	unimp
  1006f4:	01bd                	addi	gp,gp,15
  1006f6:	0000                	unimp
  1006f8:	01be                	slli	gp,gp,0xf
  1006fa:	0000                	unimp
  1006fc:	000001bf 000001c0 	0x1c0000001bf
  100704:	01c1                	addi	gp,gp,16
  100706:	0000                	unimp
  100708:	01c2                	slli	gp,gp,0x10
  10070a:	0000                	unimp
  10070c:	000001c3          	fmadd.s	ft3,ft0,ft0,ft0,rne
  100710:	01c4                	addi	s1,sp,196
  100712:	0000                	unimp
  100714:	01c5                	addi	gp,gp,17
  100716:	0000                	unimp
  100718:	01c6                	slli	gp,gp,0x11
  10071a:	0000                	unimp
  10071c:	000001c7          	fmsub.s	ft3,ft0,ft0,ft0,rne
  100720:	01c8                	addi	a0,sp,196
  100722:	0000                	unimp
  100724:	01c9                	addi	gp,gp,18
  100726:	0000                	unimp
  100728:	01ca                	slli	gp,gp,0x12
  10072a:	0000                	unimp
  10072c:	000001cb          	fnmsub.s	ft3,ft0,ft0,ft0,rne
  100730:	01cc                	addi	a1,sp,196
  100732:	0000                	unimp
  100734:	01cd                	addi	gp,gp,19
  100736:	0000                	unimp
  100738:	01ce                	slli	gp,gp,0x13
  10073a:	0000                	unimp
  10073c:	000001cf          	fnmadd.s	ft3,ft0,ft0,ft0,rne
  100740:	01d0                	addi	a2,sp,196
  100742:	0000                	unimp
  100744:	01d1                	addi	gp,gp,20
  100746:	0000                	unimp
  100748:	01d2                	slli	gp,gp,0x14
  10074a:	0000                	unimp
  10074c:	000001d3          	fadd.s	ft3,ft0,ft0,rne
  100750:	01d4                	addi	a3,sp,196
  100752:	0000                	unimp
  100754:	01d5                	addi	gp,gp,21
  100756:	0000                	unimp
  100758:	01d6                	slli	gp,gp,0x15
  10075a:	0000                	unimp
  10075c:	000001d7          	vadd.vv	v3,v0,v0,v0.t
  100760:	01d8                	addi	a4,sp,196
  100762:	0000                	unimp
  100764:	01d9                	addi	gp,gp,22
  100766:	0000                	unimp
  100768:	01da                	slli	gp,gp,0x16
  10076a:	0000                	unimp
  10076c:	000001db          	0x1db
  100770:	01dc                	addi	a5,sp,196
  100772:	0000                	unimp
  100774:	01dd                	addi	gp,gp,23
  100776:	0000                	unimp
  100778:	01de                	slli	gp,gp,0x17
  10077a:	0000                	unimp
  10077c:	01df 0000 01e0      	0x1e0000001df
  100782:	0000                	unimp
  100784:	01e1                	addi	gp,gp,24
  100786:	0000                	unimp
  100788:	01e2                	slli	gp,gp,0x18
  10078a:	0000                	unimp
  10078c:	000001e3          	beqz	zero,100f8e <a_mat+0xf8e>
  100790:	01e4                	addi	s1,sp,204
  100792:	0000                	unimp
  100794:	01e5                	addi	gp,gp,25
  100796:	0000                	unimp
  100798:	01e6                	slli	gp,gp,0x19
  10079a:	0000                	unimp
  10079c:	000001e7          	jalr	gp,zero # 0 <boot>
  1007a0:	01e8                	addi	a0,sp,204
  1007a2:	0000                	unimp
  1007a4:	01e9                	addi	gp,gp,26
  1007a6:	0000                	unimp
  1007a8:	01ea                	slli	gp,gp,0x1a
  1007aa:	0000                	unimp
  1007ac:	000001eb          	0x1eb
  1007b0:	01ec                	addi	a1,sp,204
  1007b2:	0000                	unimp
  1007b4:	01ed                	addi	gp,gp,27
  1007b6:	0000                	unimp
  1007b8:	01ee                	slli	gp,gp,0x1b
  1007ba:	0000                	unimp
  1007bc:	000001ef          	jal	gp,1007bc <a_mat+0x7bc>
  1007c0:	01f0                	addi	a2,sp,204
  1007c2:	0000                	unimp
  1007c4:	01f1                	addi	gp,gp,28
  1007c6:	0000                	unimp
  1007c8:	01f2                	slli	gp,gp,0x1c
  1007ca:	0000                	unimp
  1007cc:	000001f3          	0x1f3
  1007d0:	01f4                	addi	a3,sp,204
  1007d2:	0000                	unimp
  1007d4:	01f5                	addi	gp,gp,29
  1007d6:	0000                	unimp
  1007d8:	01f6                	slli	gp,gp,0x1d
  1007da:	0000                	unimp
  1007dc:	000001f7          	0x1f7
  1007e0:	01f8                	addi	a4,sp,204
  1007e2:	0000                	unimp
  1007e4:	01f9                	addi	gp,gp,30
  1007e6:	0000                	unimp
  1007e8:	01fa                	slli	gp,gp,0x1e
  1007ea:	0000                	unimp
  1007ec:	000001fb          	0x1fb
  1007f0:	01fc                	addi	a5,sp,204
  1007f2:	0000                	unimp
  1007f4:	01fd                	addi	gp,gp,31
  1007f6:	0000                	unimp
  1007f8:	01fe                	slli	gp,gp,0x1f
  1007fa:	0000                	unimp
  1007fc:	01ff                	0x1ff
  1007fe:	0000                	unimp
  100800:	0200                	addi	s0,sp,256
  100802:	0000                	unimp
  100804:	0201                	addi	tp,tp,0
  100806:	0000                	unimp
  100808:	0202                	c.slli64	tp
  10080a:	0000                	unimp
  10080c:	00000203          	lb	tp,0(zero) # 0 <boot>
  100810:	0204                	addi	s1,sp,256
  100812:	0000                	unimp
  100814:	0205                	addi	tp,tp,1
  100816:	0000                	unimp
  100818:	0206                	slli	tp,tp,0x1
  10081a:	0000                	unimp
  10081c:	00000207          	vle8.v	v4,(zero),v0.t
  100820:	0208                	addi	a0,sp,256
  100822:	0000                	unimp
  100824:	0209                	addi	tp,tp,2
  100826:	0000                	unimp
  100828:	020a                	slli	tp,tp,0x2
  10082a:	0000                	unimp
  10082c:	0000020b          	0x20b
  100830:	020c                	addi	a1,sp,256
  100832:	0000                	unimp
  100834:	020d                	addi	tp,tp,3
  100836:	0000                	unimp
  100838:	020e                	slli	tp,tp,0x3
  10083a:	0000                	unimp
  10083c:	0000020f          	0x20f
  100840:	0210                	addi	a2,sp,256
  100842:	0000                	unimp
  100844:	0211                	addi	tp,tp,4
  100846:	0000                	unimp
  100848:	0212                	slli	tp,tp,0x4
  10084a:	0000                	unimp
  10084c:	00000213          	li	tp,0
  100850:	0214                	addi	a3,sp,256
  100852:	0000                	unimp
  100854:	0215                	addi	tp,tp,5
  100856:	0000                	unimp
  100858:	0216                	slli	tp,tp,0x5
  10085a:	0000                	unimp
  10085c:	00000217          	auipc	tp,0x0
  100860:	0218                	addi	a4,sp,256
  100862:	0000                	unimp
  100864:	0219                	addi	tp,tp,6
  100866:	0000                	unimp
  100868:	021a                	slli	tp,tp,0x6
  10086a:	0000                	unimp
  10086c:	0000021b          	0x21b
  100870:	021c                	addi	a5,sp,256
  100872:	0000                	unimp
  100874:	021d                	addi	tp,tp,7
  100876:	0000                	unimp
  100878:	021e                	slli	tp,tp,0x7
  10087a:	0000                	unimp
  10087c:	021f 0000 0220      	0x2200000021f
  100882:	0000                	unimp
  100884:	0221                	addi	tp,tp,8
  100886:	0000                	unimp
  100888:	0222                	slli	tp,tp,0x8
  10088a:	0000                	unimp
  10088c:	00000223          	sb	zero,4(zero) # 4 <boot+0x4>
  100890:	0224                	addi	s1,sp,264
  100892:	0000                	unimp
  100894:	0225                	addi	tp,tp,9
  100896:	0000                	unimp
  100898:	0226                	slli	tp,tp,0x9
  10089a:	0000                	unimp
  10089c:	00000227          	vse8.v	v4,(zero),v0.t
  1008a0:	0228                	addi	a0,sp,264
  1008a2:	0000                	unimp
  1008a4:	0229                	addi	tp,tp,10
  1008a6:	0000                	unimp
  1008a8:	022a                	slli	tp,tp,0xa
  1008aa:	0000                	unimp
  1008ac:	0000022b          	0x22b
  1008b0:	022c                	addi	a1,sp,264
  1008b2:	0000                	unimp
  1008b4:	022d                	addi	tp,tp,11
  1008b6:	0000                	unimp
  1008b8:	022e                	slli	tp,tp,0xb
  1008ba:	0000                	unimp
  1008bc:	0000022f          	vamoaddei8.v	zero,(zero),v0,v4,v0.t
  1008c0:	0230                	addi	a2,sp,264
  1008c2:	0000                	unimp
  1008c4:	0231                	addi	tp,tp,12
  1008c6:	0000                	unimp
  1008c8:	0232                	slli	tp,tp,0xc
  1008ca:	0000                	unimp
  1008cc:	00000233          	add	tp,zero,zero
  1008d0:	0234                	addi	a3,sp,264
  1008d2:	0000                	unimp
  1008d4:	0235                	addi	tp,tp,13
  1008d6:	0000                	unimp
  1008d8:	0236                	slli	tp,tp,0xd
  1008da:	0000                	unimp
  1008dc:	00000237          	lui	tp,0x0
  1008e0:	0238                	addi	a4,sp,264
  1008e2:	0000                	unimp
  1008e4:	0239                	addi	tp,tp,14
  1008e6:	0000                	unimp
  1008e8:	023a                	slli	tp,tp,0xe
  1008ea:	0000                	unimp
  1008ec:	0000023b          	0x23b
  1008f0:	023c                	addi	a5,sp,264
  1008f2:	0000                	unimp
  1008f4:	023d                	addi	tp,tp,15
  1008f6:	0000                	unimp
  1008f8:	023e                	slli	tp,tp,0xf
  1008fa:	0000                	unimp
  1008fc:	0000023f 00000240 	0x2400000023f
  100904:	0241                	addi	tp,tp,16
  100906:	0000                	unimp
  100908:	0242                	slli	tp,tp,0x10
  10090a:	0000                	unimp
  10090c:	00000243          	fmadd.s	ft4,ft0,ft0,ft0,rne
  100910:	0244                	addi	s1,sp,260
  100912:	0000                	unimp
  100914:	0245                	addi	tp,tp,17
  100916:	0000                	unimp
  100918:	0246                	slli	tp,tp,0x11
  10091a:	0000                	unimp
  10091c:	00000247          	fmsub.s	ft4,ft0,ft0,ft0,rne
  100920:	0248                	addi	a0,sp,260
  100922:	0000                	unimp
  100924:	0249                	addi	tp,tp,18
  100926:	0000                	unimp
  100928:	024a                	slli	tp,tp,0x12
  10092a:	0000                	unimp
  10092c:	0000024b          	fnmsub.s	ft4,ft0,ft0,ft0,rne
  100930:	024c                	addi	a1,sp,260
  100932:	0000                	unimp
  100934:	024d                	addi	tp,tp,19
  100936:	0000                	unimp
  100938:	024e                	slli	tp,tp,0x13
  10093a:	0000                	unimp
  10093c:	0000024f          	fnmadd.s	ft4,ft0,ft0,ft0,rne
  100940:	0250                	addi	a2,sp,260
  100942:	0000                	unimp
  100944:	0251                	addi	tp,tp,20
  100946:	0000                	unimp
  100948:	0252                	slli	tp,tp,0x14
  10094a:	0000                	unimp
  10094c:	00000253          	fadd.s	ft4,ft0,ft0,rne
  100950:	0254                	addi	a3,sp,260
  100952:	0000                	unimp
  100954:	0255                	addi	tp,tp,21
  100956:	0000                	unimp
  100958:	0256                	slli	tp,tp,0x15
  10095a:	0000                	unimp
  10095c:	00000257          	vadd.vv	v4,v0,v0,v0.t
  100960:	0258                	addi	a4,sp,260
  100962:	0000                	unimp
  100964:	0259                	addi	tp,tp,22
  100966:	0000                	unimp
  100968:	025a                	slli	tp,tp,0x16
  10096a:	0000                	unimp
  10096c:	0000025b          	0x25b
  100970:	025c                	addi	a5,sp,260
  100972:	0000                	unimp
  100974:	025d                	addi	tp,tp,23
  100976:	0000                	unimp
  100978:	025e                	slli	tp,tp,0x17
  10097a:	0000                	unimp
  10097c:	025f 0000 0260      	0x2600000025f
  100982:	0000                	unimp
  100984:	0261                	addi	tp,tp,24
  100986:	0000                	unimp
  100988:	0262                	slli	tp,tp,0x18
  10098a:	0000                	unimp
  10098c:	00000263          	beqz	zero,100990 <a_mat+0x990>
  100990:	0264                	addi	s1,sp,268
  100992:	0000                	unimp
  100994:	0265                	addi	tp,tp,25
  100996:	0000                	unimp
  100998:	0266                	slli	tp,tp,0x19
  10099a:	0000                	unimp
  10099c:	00000267          	jalr	tp,zero # 0 <boot>
  1009a0:	0268                	addi	a0,sp,268
  1009a2:	0000                	unimp
  1009a4:	0269                	addi	tp,tp,26
  1009a6:	0000                	unimp
  1009a8:	026a                	slli	tp,tp,0x1a
  1009aa:	0000                	unimp
  1009ac:	0000026b          	0x26b
  1009b0:	026c                	addi	a1,sp,268
  1009b2:	0000                	unimp
  1009b4:	026d                	addi	tp,tp,27
  1009b6:	0000                	unimp
  1009b8:	026e                	slli	tp,tp,0x1b
  1009ba:	0000                	unimp
  1009bc:	0000026f          	jal	tp,1009bc <a_mat+0x9bc>
  1009c0:	0270                	addi	a2,sp,268
  1009c2:	0000                	unimp
  1009c4:	0271                	addi	tp,tp,28
  1009c6:	0000                	unimp
  1009c8:	0272                	slli	tp,tp,0x1c
  1009ca:	0000                	unimp
  1009cc:	00000273          	0x273
  1009d0:	0274                	addi	a3,sp,268
  1009d2:	0000                	unimp
  1009d4:	0275                	addi	tp,tp,29
  1009d6:	0000                	unimp
  1009d8:	0276                	slli	tp,tp,0x1d
  1009da:	0000                	unimp
  1009dc:	00000277          	0x277
  1009e0:	0278                	addi	a4,sp,268
  1009e2:	0000                	unimp
  1009e4:	0279                	addi	tp,tp,30
  1009e6:	0000                	unimp
  1009e8:	027a                	slli	tp,tp,0x1e
  1009ea:	0000                	unimp
  1009ec:	0000027b          	0x27b
  1009f0:	027c                	addi	a5,sp,268
  1009f2:	0000                	unimp
  1009f4:	027d                	addi	tp,tp,31
  1009f6:	0000                	unimp
  1009f8:	027e                	slli	tp,tp,0x1f
  1009fa:	0000                	unimp
  1009fc:	027f                	0x27f
  1009fe:	0000                	unimp
  100a00:	0280                	addi	s0,sp,320
  100a02:	0000                	unimp
  100a04:	0281                	addi	t0,t0,0
  100a06:	0000                	unimp
  100a08:	0282                	c.slli64	t0
  100a0a:	0000                	unimp
  100a0c:	00000283          	lb	t0,0(zero) # 0 <boot>
  100a10:	0284                	addi	s1,sp,320
  100a12:	0000                	unimp
  100a14:	0285                	addi	t0,t0,1
  100a16:	0000                	unimp
  100a18:	0286                	slli	t0,t0,0x1
  100a1a:	0000                	unimp
  100a1c:	00000287          	vle8.v	v5,(zero),v0.t
  100a20:	0288                	addi	a0,sp,320
  100a22:	0000                	unimp
  100a24:	0289                	addi	t0,t0,2
  100a26:	0000                	unimp
  100a28:	028a                	slli	t0,t0,0x2
  100a2a:	0000                	unimp
  100a2c:	0000028b          	0x28b
  100a30:	028c                	addi	a1,sp,320
  100a32:	0000                	unimp
  100a34:	028d                	addi	t0,t0,3
  100a36:	0000                	unimp
  100a38:	028e                	slli	t0,t0,0x3
  100a3a:	0000                	unimp
  100a3c:	0000028f          	0x28f
  100a40:	0290                	addi	a2,sp,320
  100a42:	0000                	unimp
  100a44:	0291                	addi	t0,t0,4
  100a46:	0000                	unimp
  100a48:	0292                	slli	t0,t0,0x4
  100a4a:	0000                	unimp
  100a4c:	00000293          	li	t0,0
  100a50:	0294                	addi	a3,sp,320
  100a52:	0000                	unimp
  100a54:	0295                	addi	t0,t0,5
  100a56:	0000                	unimp
  100a58:	0296                	slli	t0,t0,0x5
  100a5a:	0000                	unimp
  100a5c:	00000297          	auipc	t0,0x0
  100a60:	0298                	addi	a4,sp,320
  100a62:	0000                	unimp
  100a64:	0299                	addi	t0,t0,6
  100a66:	0000                	unimp
  100a68:	029a                	slli	t0,t0,0x6
  100a6a:	0000                	unimp
  100a6c:	0000029b          	0x29b
  100a70:	029c                	addi	a5,sp,320
  100a72:	0000                	unimp
  100a74:	029d                	addi	t0,t0,7
  100a76:	0000                	unimp
  100a78:	029e                	slli	t0,t0,0x7
  100a7a:	0000                	unimp
  100a7c:	029f 0000 02a0      	0x2a00000029f
  100a82:	0000                	unimp
  100a84:	02a1                	addi	t0,t0,8
  100a86:	0000                	unimp
  100a88:	02a2                	slli	t0,t0,0x8
  100a8a:	0000                	unimp
  100a8c:	000002a3          	sb	zero,5(zero) # 5 <boot+0x5>
  100a90:	02a4                	addi	s1,sp,328
  100a92:	0000                	unimp
  100a94:	02a5                	addi	t0,t0,9
  100a96:	0000                	unimp
  100a98:	02a6                	slli	t0,t0,0x9
  100a9a:	0000                	unimp
  100a9c:	000002a7          	vse8.v	v5,(zero),v0.t
  100aa0:	02a8                	addi	a0,sp,328
  100aa2:	0000                	unimp
  100aa4:	02a9                	addi	t0,t0,10
  100aa6:	0000                	unimp
  100aa8:	02aa                	slli	t0,t0,0xa
  100aaa:	0000                	unimp
  100aac:	000002ab          	0x2ab
  100ab0:	02ac                	addi	a1,sp,328
  100ab2:	0000                	unimp
  100ab4:	02ad                	addi	t0,t0,11
  100ab6:	0000                	unimp
  100ab8:	02ae                	slli	t0,t0,0xb
  100aba:	0000                	unimp
  100abc:	000002af          	vamoaddei8.v	zero,(zero),v0,v5,v0.t
  100ac0:	02b0                	addi	a2,sp,328
  100ac2:	0000                	unimp
  100ac4:	02b1                	addi	t0,t0,12
  100ac6:	0000                	unimp
  100ac8:	02b2                	slli	t0,t0,0xc
  100aca:	0000                	unimp
  100acc:	000002b3          	add	t0,zero,zero
  100ad0:	02b4                	addi	a3,sp,328
  100ad2:	0000                	unimp
  100ad4:	02b5                	addi	t0,t0,13
  100ad6:	0000                	unimp
  100ad8:	02b6                	slli	t0,t0,0xd
  100ada:	0000                	unimp
  100adc:	000002b7          	lui	t0,0x0
  100ae0:	02b8                	addi	a4,sp,328
  100ae2:	0000                	unimp
  100ae4:	02b9                	addi	t0,t0,14
  100ae6:	0000                	unimp
  100ae8:	02ba                	slli	t0,t0,0xe
  100aea:	0000                	unimp
  100aec:	000002bb          	0x2bb
  100af0:	02bc                	addi	a5,sp,328
  100af2:	0000                	unimp
  100af4:	02bd                	addi	t0,t0,15
  100af6:	0000                	unimp
  100af8:	02be                	slli	t0,t0,0xf
  100afa:	0000                	unimp
  100afc:	000002bf 000002c0 	0x2c0000002bf
  100b04:	02c1                	addi	t0,t0,16
  100b06:	0000                	unimp
  100b08:	02c2                	slli	t0,t0,0x10
  100b0a:	0000                	unimp
  100b0c:	000002c3          	fmadd.s	ft5,ft0,ft0,ft0,rne
  100b10:	02c4                	addi	s1,sp,324
  100b12:	0000                	unimp
  100b14:	02c5                	addi	t0,t0,17
  100b16:	0000                	unimp
  100b18:	02c6                	slli	t0,t0,0x11
  100b1a:	0000                	unimp
  100b1c:	000002c7          	fmsub.s	ft5,ft0,ft0,ft0,rne
  100b20:	02c8                	addi	a0,sp,324
  100b22:	0000                	unimp
  100b24:	02c9                	addi	t0,t0,18
  100b26:	0000                	unimp
  100b28:	02ca                	slli	t0,t0,0x12
  100b2a:	0000                	unimp
  100b2c:	000002cb          	fnmsub.s	ft5,ft0,ft0,ft0,rne
  100b30:	02cc                	addi	a1,sp,324
  100b32:	0000                	unimp
  100b34:	02cd                	addi	t0,t0,19
  100b36:	0000                	unimp
  100b38:	02ce                	slli	t0,t0,0x13
  100b3a:	0000                	unimp
  100b3c:	000002cf          	fnmadd.s	ft5,ft0,ft0,ft0,rne
  100b40:	02d0                	addi	a2,sp,324
  100b42:	0000                	unimp
  100b44:	02d1                	addi	t0,t0,20
  100b46:	0000                	unimp
  100b48:	02d2                	slli	t0,t0,0x14
  100b4a:	0000                	unimp
  100b4c:	000002d3          	fadd.s	ft5,ft0,ft0,rne
  100b50:	02d4                	addi	a3,sp,324
  100b52:	0000                	unimp
  100b54:	02d5                	addi	t0,t0,21
  100b56:	0000                	unimp
  100b58:	02d6                	slli	t0,t0,0x15
  100b5a:	0000                	unimp
  100b5c:	000002d7          	vadd.vv	v5,v0,v0,v0.t
  100b60:	02d8                	addi	a4,sp,324
  100b62:	0000                	unimp
  100b64:	02d9                	addi	t0,t0,22
  100b66:	0000                	unimp
  100b68:	02da                	slli	t0,t0,0x16
  100b6a:	0000                	unimp
  100b6c:	000002db          	0x2db
  100b70:	02dc                	addi	a5,sp,324
  100b72:	0000                	unimp
  100b74:	02dd                	addi	t0,t0,23
  100b76:	0000                	unimp
  100b78:	02de                	slli	t0,t0,0x17
  100b7a:	0000                	unimp
  100b7c:	02df 0000 02e0      	0x2e0000002df
  100b82:	0000                	unimp
  100b84:	02e1                	addi	t0,t0,24
  100b86:	0000                	unimp
  100b88:	02e2                	slli	t0,t0,0x18
  100b8a:	0000                	unimp
  100b8c:	000002e3          	beqz	zero,101390 <b_mat+0x390>
  100b90:	02e4                	addi	s1,sp,332
  100b92:	0000                	unimp
  100b94:	02e5                	addi	t0,t0,25
  100b96:	0000                	unimp
  100b98:	02e6                	slli	t0,t0,0x19
  100b9a:	0000                	unimp
  100b9c:	000002e7          	jalr	t0,zero # 0 <boot>
  100ba0:	02e8                	addi	a0,sp,332
  100ba2:	0000                	unimp
  100ba4:	02e9                	addi	t0,t0,26
  100ba6:	0000                	unimp
  100ba8:	02ea                	slli	t0,t0,0x1a
  100baa:	0000                	unimp
  100bac:	000002eb          	0x2eb
  100bb0:	02ec                	addi	a1,sp,332
  100bb2:	0000                	unimp
  100bb4:	02ed                	addi	t0,t0,27
  100bb6:	0000                	unimp
  100bb8:	02ee                	slli	t0,t0,0x1b
  100bba:	0000                	unimp
  100bbc:	000002ef          	jal	t0,100bbc <a_mat+0xbbc>
  100bc0:	02f0                	addi	a2,sp,332
  100bc2:	0000                	unimp
  100bc4:	02f1                	addi	t0,t0,28
  100bc6:	0000                	unimp
  100bc8:	02f2                	slli	t0,t0,0x1c
  100bca:	0000                	unimp
  100bcc:	000002f3          	0x2f3
  100bd0:	02f4                	addi	a3,sp,332
  100bd2:	0000                	unimp
  100bd4:	02f5                	addi	t0,t0,29
  100bd6:	0000                	unimp
  100bd8:	02f6                	slli	t0,t0,0x1d
  100bda:	0000                	unimp
  100bdc:	000002f7          	0x2f7
  100be0:	02f8                	addi	a4,sp,332
  100be2:	0000                	unimp
  100be4:	02f9                	addi	t0,t0,30
  100be6:	0000                	unimp
  100be8:	02fa                	slli	t0,t0,0x1e
  100bea:	0000                	unimp
  100bec:	000002fb          	0x2fb
  100bf0:	02fc                	addi	a5,sp,332
  100bf2:	0000                	unimp
  100bf4:	02fd                	addi	t0,t0,31
  100bf6:	0000                	unimp
  100bf8:	02fe                	slli	t0,t0,0x1f
  100bfa:	0000                	unimp
  100bfc:	02ff                	0x2ff
  100bfe:	0000                	unimp
  100c00:	0300                	addi	s0,sp,384
  100c02:	0000                	unimp
  100c04:	0301                	addi	t1,t1,0
  100c06:	0000                	unimp
  100c08:	0302                	c.slli64	t1
  100c0a:	0000                	unimp
  100c0c:	00000303          	lb	t1,0(zero) # 0 <boot>
  100c10:	0304                	addi	s1,sp,384
  100c12:	0000                	unimp
  100c14:	0305                	addi	t1,t1,1
  100c16:	0000                	unimp
  100c18:	0306                	slli	t1,t1,0x1
  100c1a:	0000                	unimp
  100c1c:	00000307          	vle8.v	v6,(zero),v0.t
  100c20:	0308                	addi	a0,sp,384
  100c22:	0000                	unimp
  100c24:	0309                	addi	t1,t1,2
  100c26:	0000                	unimp
  100c28:	030a                	slli	t1,t1,0x2
  100c2a:	0000                	unimp
  100c2c:	0000030b          	0x30b
  100c30:	030c                	addi	a1,sp,384
  100c32:	0000                	unimp
  100c34:	030d                	addi	t1,t1,3
  100c36:	0000                	unimp
  100c38:	030e                	slli	t1,t1,0x3
  100c3a:	0000                	unimp
  100c3c:	0000030f          	0x30f
  100c40:	0310                	addi	a2,sp,384
  100c42:	0000                	unimp
  100c44:	0311                	addi	t1,t1,4
  100c46:	0000                	unimp
  100c48:	0312                	slli	t1,t1,0x4
  100c4a:	0000                	unimp
  100c4c:	00000313          	li	t1,0
  100c50:	0314                	addi	a3,sp,384
  100c52:	0000                	unimp
  100c54:	0315                	addi	t1,t1,5
  100c56:	0000                	unimp
  100c58:	0316                	slli	t1,t1,0x5
  100c5a:	0000                	unimp
  100c5c:	00000317          	auipc	t1,0x0
  100c60:	0318                	addi	a4,sp,384
  100c62:	0000                	unimp
  100c64:	0319                	addi	t1,t1,6
  100c66:	0000                	unimp
  100c68:	031a                	slli	t1,t1,0x6
  100c6a:	0000                	unimp
  100c6c:	0000031b          	0x31b
  100c70:	031c                	addi	a5,sp,384
  100c72:	0000                	unimp
  100c74:	031d                	addi	t1,t1,7
  100c76:	0000                	unimp
  100c78:	031e                	slli	t1,t1,0x7
  100c7a:	0000                	unimp
  100c7c:	031f 0000 0320      	0x3200000031f
  100c82:	0000                	unimp
  100c84:	0321                	addi	t1,t1,8
  100c86:	0000                	unimp
  100c88:	0322                	slli	t1,t1,0x8
  100c8a:	0000                	unimp
  100c8c:	00000323          	sb	zero,6(zero) # 6 <boot+0x6>
  100c90:	0324                	addi	s1,sp,392
  100c92:	0000                	unimp
  100c94:	0325                	addi	t1,t1,9
  100c96:	0000                	unimp
  100c98:	0326                	slli	t1,t1,0x9
  100c9a:	0000                	unimp
  100c9c:	00000327          	vse8.v	v6,(zero),v0.t
  100ca0:	0328                	addi	a0,sp,392
  100ca2:	0000                	unimp
  100ca4:	0329                	addi	t1,t1,10
  100ca6:	0000                	unimp
  100ca8:	032a                	slli	t1,t1,0xa
  100caa:	0000                	unimp
  100cac:	0000032b          	0x32b
  100cb0:	032c                	addi	a1,sp,392
  100cb2:	0000                	unimp
  100cb4:	032d                	addi	t1,t1,11
  100cb6:	0000                	unimp
  100cb8:	032e                	slli	t1,t1,0xb
  100cba:	0000                	unimp
  100cbc:	0000032f          	vamoaddei8.v	zero,(zero),v0,v6,v0.t
  100cc0:	0330                	addi	a2,sp,392
  100cc2:	0000                	unimp
  100cc4:	0331                	addi	t1,t1,12
  100cc6:	0000                	unimp
  100cc8:	0332                	slli	t1,t1,0xc
  100cca:	0000                	unimp
  100ccc:	00000333          	add	t1,zero,zero
  100cd0:	0334                	addi	a3,sp,392
  100cd2:	0000                	unimp
  100cd4:	0335                	addi	t1,t1,13
  100cd6:	0000                	unimp
  100cd8:	0336                	slli	t1,t1,0xd
  100cda:	0000                	unimp
  100cdc:	00000337          	lui	t1,0x0
  100ce0:	0338                	addi	a4,sp,392
  100ce2:	0000                	unimp
  100ce4:	0339                	addi	t1,t1,14
  100ce6:	0000                	unimp
  100ce8:	033a                	slli	t1,t1,0xe
  100cea:	0000                	unimp
  100cec:	0000033b          	0x33b
  100cf0:	033c                	addi	a5,sp,392
  100cf2:	0000                	unimp
  100cf4:	033d                	addi	t1,t1,15
  100cf6:	0000                	unimp
  100cf8:	033e                	slli	t1,t1,0xf
  100cfa:	0000                	unimp
  100cfc:	0000033f 00000340 	0x3400000033f
  100d04:	0341                	addi	t1,t1,16
  100d06:	0000                	unimp
  100d08:	0342                	slli	t1,t1,0x10
  100d0a:	0000                	unimp
  100d0c:	00000343          	fmadd.s	ft6,ft0,ft0,ft0,rne
  100d10:	0344                	addi	s1,sp,388
  100d12:	0000                	unimp
  100d14:	0345                	addi	t1,t1,17
  100d16:	0000                	unimp
  100d18:	0346                	slli	t1,t1,0x11
  100d1a:	0000                	unimp
  100d1c:	00000347          	fmsub.s	ft6,ft0,ft0,ft0,rne
  100d20:	0348                	addi	a0,sp,388
  100d22:	0000                	unimp
  100d24:	0349                	addi	t1,t1,18
  100d26:	0000                	unimp
  100d28:	034a                	slli	t1,t1,0x12
  100d2a:	0000                	unimp
  100d2c:	0000034b          	fnmsub.s	ft6,ft0,ft0,ft0,rne
  100d30:	034c                	addi	a1,sp,388
  100d32:	0000                	unimp
  100d34:	034d                	addi	t1,t1,19
  100d36:	0000                	unimp
  100d38:	034e                	slli	t1,t1,0x13
  100d3a:	0000                	unimp
  100d3c:	0000034f          	fnmadd.s	ft6,ft0,ft0,ft0,rne
  100d40:	0350                	addi	a2,sp,388
  100d42:	0000                	unimp
  100d44:	0351                	addi	t1,t1,20
  100d46:	0000                	unimp
  100d48:	0352                	slli	t1,t1,0x14
  100d4a:	0000                	unimp
  100d4c:	00000353          	fadd.s	ft6,ft0,ft0,rne
  100d50:	0354                	addi	a3,sp,388
  100d52:	0000                	unimp
  100d54:	0355                	addi	t1,t1,21
  100d56:	0000                	unimp
  100d58:	0356                	slli	t1,t1,0x15
  100d5a:	0000                	unimp
  100d5c:	00000357          	vadd.vv	v6,v0,v0,v0.t
  100d60:	0358                	addi	a4,sp,388
  100d62:	0000                	unimp
  100d64:	0359                	addi	t1,t1,22
  100d66:	0000                	unimp
  100d68:	035a                	slli	t1,t1,0x16
  100d6a:	0000                	unimp
  100d6c:	0000035b          	0x35b
  100d70:	035c                	addi	a5,sp,388
  100d72:	0000                	unimp
  100d74:	035d                	addi	t1,t1,23
  100d76:	0000                	unimp
  100d78:	035e                	slli	t1,t1,0x17
  100d7a:	0000                	unimp
  100d7c:	035f 0000 0360      	0x3600000035f
  100d82:	0000                	unimp
  100d84:	0361                	addi	t1,t1,24
  100d86:	0000                	unimp
  100d88:	0362                	slli	t1,t1,0x18
  100d8a:	0000                	unimp
  100d8c:	00000363          	beqz	zero,100d92 <a_mat+0xd92>
  100d90:	0364                	addi	s1,sp,396
  100d92:	0000                	unimp
  100d94:	0365                	addi	t1,t1,25
  100d96:	0000                	unimp
  100d98:	0366                	slli	t1,t1,0x19
  100d9a:	0000                	unimp
  100d9c:	00000367          	jalr	t1,zero # 0 <boot>
  100da0:	0368                	addi	a0,sp,396
  100da2:	0000                	unimp
  100da4:	0369                	addi	t1,t1,26
  100da6:	0000                	unimp
  100da8:	036a                	slli	t1,t1,0x1a
  100daa:	0000                	unimp
  100dac:	0000036b          	0x36b
  100db0:	036c                	addi	a1,sp,396
  100db2:	0000                	unimp
  100db4:	036d                	addi	t1,t1,27
  100db6:	0000                	unimp
  100db8:	036e                	slli	t1,t1,0x1b
  100dba:	0000                	unimp
  100dbc:	0000036f          	jal	t1,100dbc <a_mat+0xdbc>
  100dc0:	0370                	addi	a2,sp,396
  100dc2:	0000                	unimp
  100dc4:	0371                	addi	t1,t1,28
  100dc6:	0000                	unimp
  100dc8:	0372                	slli	t1,t1,0x1c
  100dca:	0000                	unimp
  100dcc:	00000373          	0x373
  100dd0:	0374                	addi	a3,sp,396
  100dd2:	0000                	unimp
  100dd4:	0375                	addi	t1,t1,29
  100dd6:	0000                	unimp
  100dd8:	0376                	slli	t1,t1,0x1d
  100dda:	0000                	unimp
  100ddc:	00000377          	0x377
  100de0:	0378                	addi	a4,sp,396
  100de2:	0000                	unimp
  100de4:	0379                	addi	t1,t1,30
  100de6:	0000                	unimp
  100de8:	037a                	slli	t1,t1,0x1e
  100dea:	0000                	unimp
  100dec:	0000037b          	0x37b
  100df0:	037c                	addi	a5,sp,396
  100df2:	0000                	unimp
  100df4:	037d                	addi	t1,t1,31
  100df6:	0000                	unimp
  100df8:	037e                	slli	t1,t1,0x1f
  100dfa:	0000                	unimp
  100dfc:	037f                	0x37f
  100dfe:	0000                	unimp
  100e00:	0380                	addi	s0,sp,448
  100e02:	0000                	unimp
  100e04:	0381                	addi	t2,t2,0
  100e06:	0000                	unimp
  100e08:	0382                	c.slli64	t2
  100e0a:	0000                	unimp
  100e0c:	00000383          	lb	t2,0(zero) # 0 <boot>
  100e10:	0384                	addi	s1,sp,448
  100e12:	0000                	unimp
  100e14:	0385                	addi	t2,t2,1
  100e16:	0000                	unimp
  100e18:	0386                	slli	t2,t2,0x1
  100e1a:	0000                	unimp
  100e1c:	00000387          	vle8.v	v7,(zero),v0.t
  100e20:	0388                	addi	a0,sp,448
  100e22:	0000                	unimp
  100e24:	0389                	addi	t2,t2,2
  100e26:	0000                	unimp
  100e28:	038a                	slli	t2,t2,0x2
  100e2a:	0000                	unimp
  100e2c:	0000038b          	0x38b
  100e30:	038c                	addi	a1,sp,448
  100e32:	0000                	unimp
  100e34:	038d                	addi	t2,t2,3
  100e36:	0000                	unimp
  100e38:	038e                	slli	t2,t2,0x3
  100e3a:	0000                	unimp
  100e3c:	0000038f          	0x38f
  100e40:	0390                	addi	a2,sp,448
  100e42:	0000                	unimp
  100e44:	0391                	addi	t2,t2,4
  100e46:	0000                	unimp
  100e48:	0392                	slli	t2,t2,0x4
  100e4a:	0000                	unimp
  100e4c:	00000393          	li	t2,0
  100e50:	0394                	addi	a3,sp,448
  100e52:	0000                	unimp
  100e54:	0395                	addi	t2,t2,5
  100e56:	0000                	unimp
  100e58:	0396                	slli	t2,t2,0x5
  100e5a:	0000                	unimp
  100e5c:	00000397          	auipc	t2,0x0
  100e60:	0398                	addi	a4,sp,448
  100e62:	0000                	unimp
  100e64:	0399                	addi	t2,t2,6
  100e66:	0000                	unimp
  100e68:	039a                	slli	t2,t2,0x6
  100e6a:	0000                	unimp
  100e6c:	0000039b          	0x39b
  100e70:	039c                	addi	a5,sp,448
  100e72:	0000                	unimp
  100e74:	039d                	addi	t2,t2,7
  100e76:	0000                	unimp
  100e78:	039e                	slli	t2,t2,0x7
  100e7a:	0000                	unimp
  100e7c:	039f 0000 03a0      	0x3a00000039f
  100e82:	0000                	unimp
  100e84:	03a1                	addi	t2,t2,8
  100e86:	0000                	unimp
  100e88:	03a2                	slli	t2,t2,0x8
  100e8a:	0000                	unimp
  100e8c:	000003a3          	sb	zero,7(zero) # 7 <boot+0x7>
  100e90:	03a4                	addi	s1,sp,456
  100e92:	0000                	unimp
  100e94:	03a5                	addi	t2,t2,9
  100e96:	0000                	unimp
  100e98:	03a6                	slli	t2,t2,0x9
  100e9a:	0000                	unimp
  100e9c:	000003a7          	vse8.v	v7,(zero),v0.t
  100ea0:	03a8                	addi	a0,sp,456
  100ea2:	0000                	unimp
  100ea4:	03a9                	addi	t2,t2,10
  100ea6:	0000                	unimp
  100ea8:	03aa                	slli	t2,t2,0xa
  100eaa:	0000                	unimp
  100eac:	000003ab          	0x3ab
  100eb0:	03ac                	addi	a1,sp,456
  100eb2:	0000                	unimp
  100eb4:	03ad                	addi	t2,t2,11
  100eb6:	0000                	unimp
  100eb8:	03ae                	slli	t2,t2,0xb
  100eba:	0000                	unimp
  100ebc:	000003af          	vamoaddei8.v	zero,(zero),v0,v7,v0.t
  100ec0:	03b0                	addi	a2,sp,456
  100ec2:	0000                	unimp
  100ec4:	03b1                	addi	t2,t2,12
  100ec6:	0000                	unimp
  100ec8:	03b2                	slli	t2,t2,0xc
  100eca:	0000                	unimp
  100ecc:	000003b3          	add	t2,zero,zero
  100ed0:	03b4                	addi	a3,sp,456
  100ed2:	0000                	unimp
  100ed4:	03b5                	addi	t2,t2,13
  100ed6:	0000                	unimp
  100ed8:	03b6                	slli	t2,t2,0xd
  100eda:	0000                	unimp
  100edc:	000003b7          	lui	t2,0x0
  100ee0:	03b8                	addi	a4,sp,456
  100ee2:	0000                	unimp
  100ee4:	03b9                	addi	t2,t2,14
  100ee6:	0000                	unimp
  100ee8:	03ba                	slli	t2,t2,0xe
  100eea:	0000                	unimp
  100eec:	000003bb          	0x3bb
  100ef0:	03bc                	addi	a5,sp,456
  100ef2:	0000                	unimp
  100ef4:	03bd                	addi	t2,t2,15
  100ef6:	0000                	unimp
  100ef8:	03be                	slli	t2,t2,0xf
  100efa:	0000                	unimp
  100efc:	000003bf 000003c0 	0x3c0000003bf
  100f04:	03c1                	addi	t2,t2,16
  100f06:	0000                	unimp
  100f08:	03c2                	slli	t2,t2,0x10
  100f0a:	0000                	unimp
  100f0c:	000003c3          	fmadd.s	ft7,ft0,ft0,ft0,rne
  100f10:	03c4                	addi	s1,sp,452
  100f12:	0000                	unimp
  100f14:	03c5                	addi	t2,t2,17
  100f16:	0000                	unimp
  100f18:	03c6                	slli	t2,t2,0x11
  100f1a:	0000                	unimp
  100f1c:	000003c7          	fmsub.s	ft7,ft0,ft0,ft0,rne
  100f20:	03c8                	addi	a0,sp,452
  100f22:	0000                	unimp
  100f24:	03c9                	addi	t2,t2,18
  100f26:	0000                	unimp
  100f28:	03ca                	slli	t2,t2,0x12
  100f2a:	0000                	unimp
  100f2c:	000003cb          	fnmsub.s	ft7,ft0,ft0,ft0,rne
  100f30:	03cc                	addi	a1,sp,452
  100f32:	0000                	unimp
  100f34:	03cd                	addi	t2,t2,19
  100f36:	0000                	unimp
  100f38:	03ce                	slli	t2,t2,0x13
  100f3a:	0000                	unimp
  100f3c:	000003cf          	fnmadd.s	ft7,ft0,ft0,ft0,rne
  100f40:	03d0                	addi	a2,sp,452
  100f42:	0000                	unimp
  100f44:	03d1                	addi	t2,t2,20
  100f46:	0000                	unimp
  100f48:	03d2                	slli	t2,t2,0x14
  100f4a:	0000                	unimp
  100f4c:	000003d3          	fadd.s	ft7,ft0,ft0,rne
  100f50:	03d4                	addi	a3,sp,452
  100f52:	0000                	unimp
  100f54:	03d5                	addi	t2,t2,21
  100f56:	0000                	unimp
  100f58:	03d6                	slli	t2,t2,0x15
  100f5a:	0000                	unimp
  100f5c:	000003d7          	vadd.vv	v7,v0,v0,v0.t
  100f60:	03d8                	addi	a4,sp,452
  100f62:	0000                	unimp
  100f64:	03d9                	addi	t2,t2,22
  100f66:	0000                	unimp
  100f68:	03da                	slli	t2,t2,0x16
  100f6a:	0000                	unimp
  100f6c:	000003db          	0x3db
  100f70:	03dc                	addi	a5,sp,452
  100f72:	0000                	unimp
  100f74:	03dd                	addi	t2,t2,23
  100f76:	0000                	unimp
  100f78:	03de                	slli	t2,t2,0x17
  100f7a:	0000                	unimp
  100f7c:	03df 0000 03e0      	0x3e0000003df
  100f82:	0000                	unimp
  100f84:	03e1                	addi	t2,t2,24
  100f86:	0000                	unimp
  100f88:	03e2                	slli	t2,t2,0x18
  100f8a:	0000                	unimp
  100f8c:	000003e3          	beqz	zero,101792 <b_mat+0x792>
  100f90:	03e4                	addi	s1,sp,460
  100f92:	0000                	unimp
  100f94:	03e5                	addi	t2,t2,25
  100f96:	0000                	unimp
  100f98:	03e6                	slli	t2,t2,0x19
  100f9a:	0000                	unimp
  100f9c:	000003e7          	jalr	t2,zero # 0 <boot>
  100fa0:	03e8                	addi	a0,sp,460
  100fa2:	0000                	unimp
  100fa4:	03e9                	addi	t2,t2,26
  100fa6:	0000                	unimp
  100fa8:	03ea                	slli	t2,t2,0x1a
  100faa:	0000                	unimp
  100fac:	000003eb          	0x3eb
  100fb0:	03ec                	addi	a1,sp,460
  100fb2:	0000                	unimp
  100fb4:	03ed                	addi	t2,t2,27
  100fb6:	0000                	unimp
  100fb8:	03ee                	slli	t2,t2,0x1b
  100fba:	0000                	unimp
  100fbc:	000003ef          	jal	t2,100fbc <a_mat+0xfbc>
  100fc0:	03f0                	addi	a2,sp,460
  100fc2:	0000                	unimp
  100fc4:	03f1                	addi	t2,t2,28
  100fc6:	0000                	unimp
  100fc8:	03f2                	slli	t2,t2,0x1c
  100fca:	0000                	unimp
  100fcc:	000003f3          	0x3f3
  100fd0:	03f4                	addi	a3,sp,460
  100fd2:	0000                	unimp
  100fd4:	03f5                	addi	t2,t2,29
  100fd6:	0000                	unimp
  100fd8:	03f6                	slli	t2,t2,0x1d
  100fda:	0000                	unimp
  100fdc:	000003f7          	0x3f7
  100fe0:	03f8                	addi	a4,sp,460
  100fe2:	0000                	unimp
  100fe4:	03f9                	addi	t2,t2,30
  100fe6:	0000                	unimp
  100fe8:	03fa                	slli	t2,t2,0x1e
  100fea:	0000                	unimp
  100fec:	000003fb          	0x3fb
  100ff0:	03fc                	addi	a5,sp,460
  100ff2:	0000                	unimp
  100ff4:	03fd                	addi	t2,t2,31
  100ff6:	0000                	unimp
  100ff8:	03fe                	slli	t2,t2,0x1f
  100ffa:	0000                	unimp
  100ffc:	03ff                	0x3ff
	...

00101000 <b_mat>:
  101000:	0000                	unimp
  101002:	0000                	unimp
  101004:	0001                	nop
  101006:	0000                	unimp
  101008:	0002                	c.slli64	zero
  10100a:	0000                	unimp
  10100c:	00000003          	lb	zero,0(zero) # 0 <boot>
  101010:	0004                	0x4
  101012:	0000                	unimp
  101014:	0005                	c.nop	1
  101016:	0000                	unimp
  101018:	0006                	c.slli	zero,0x1
  10101a:	0000                	unimp
  10101c:	00000007          	vle8.v	v0,(zero),v0.t
  101020:	0008                	0x8
  101022:	0000                	unimp
  101024:	0009                	c.nop	2
  101026:	0000                	unimp
  101028:	0000                	unimp
  10102a:	0000                	unimp
  10102c:	0001                	nop
  10102e:	0000                	unimp
  101030:	0002                	c.slli64	zero
  101032:	0000                	unimp
  101034:	00000003          	lb	zero,0(zero) # 0 <boot>
  101038:	0004                	0x4
  10103a:	0000                	unimp
  10103c:	0005                	c.nop	1
  10103e:	0000                	unimp
  101040:	0006                	c.slli	zero,0x1
  101042:	0000                	unimp
  101044:	00000007          	vle8.v	v0,(zero),v0.t
  101048:	0008                	0x8
  10104a:	0000                	unimp
  10104c:	0009                	c.nop	2
  10104e:	0000                	unimp
  101050:	0000                	unimp
  101052:	0000                	unimp
  101054:	0001                	nop
  101056:	0000                	unimp
  101058:	0002                	c.slli64	zero
  10105a:	0000                	unimp
  10105c:	00000003          	lb	zero,0(zero) # 0 <boot>
  101060:	0004                	0x4
  101062:	0000                	unimp
  101064:	0005                	c.nop	1
  101066:	0000                	unimp
  101068:	0006                	c.slli	zero,0x1
  10106a:	0000                	unimp
  10106c:	00000007          	vle8.v	v0,(zero),v0.t
  101070:	0008                	0x8
  101072:	0000                	unimp
  101074:	0009                	c.nop	2
  101076:	0000                	unimp
  101078:	0000                	unimp
  10107a:	0000                	unimp
  10107c:	0001                	nop
  10107e:	0000                	unimp
  101080:	0002                	c.slli64	zero
  101082:	0000                	unimp
  101084:	00000003          	lb	zero,0(zero) # 0 <boot>
  101088:	0004                	0x4
  10108a:	0000                	unimp
  10108c:	0005                	c.nop	1
  10108e:	0000                	unimp
  101090:	0006                	c.slli	zero,0x1
  101092:	0000                	unimp
  101094:	00000007          	vle8.v	v0,(zero),v0.t
  101098:	0008                	0x8
  10109a:	0000                	unimp
  10109c:	0009                	c.nop	2
  10109e:	0000                	unimp
  1010a0:	0000                	unimp
  1010a2:	0000                	unimp
  1010a4:	0001                	nop
  1010a6:	0000                	unimp
  1010a8:	0002                	c.slli64	zero
  1010aa:	0000                	unimp
  1010ac:	00000003          	lb	zero,0(zero) # 0 <boot>
  1010b0:	0004                	0x4
  1010b2:	0000                	unimp
  1010b4:	0005                	c.nop	1
  1010b6:	0000                	unimp
  1010b8:	0006                	c.slli	zero,0x1
  1010ba:	0000                	unimp
  1010bc:	00000007          	vle8.v	v0,(zero),v0.t
  1010c0:	0008                	0x8
  1010c2:	0000                	unimp
  1010c4:	0009                	c.nop	2
  1010c6:	0000                	unimp
  1010c8:	0000                	unimp
  1010ca:	0000                	unimp
  1010cc:	0001                	nop
  1010ce:	0000                	unimp
  1010d0:	0002                	c.slli64	zero
  1010d2:	0000                	unimp
  1010d4:	00000003          	lb	zero,0(zero) # 0 <boot>
  1010d8:	0004                	0x4
  1010da:	0000                	unimp
  1010dc:	0005                	c.nop	1
  1010de:	0000                	unimp
  1010e0:	0006                	c.slli	zero,0x1
  1010e2:	0000                	unimp
  1010e4:	00000007          	vle8.v	v0,(zero),v0.t
  1010e8:	0008                	0x8
  1010ea:	0000                	unimp
  1010ec:	0009                	c.nop	2
  1010ee:	0000                	unimp
  1010f0:	0000                	unimp
  1010f2:	0000                	unimp
  1010f4:	0001                	nop
  1010f6:	0000                	unimp
  1010f8:	0002                	c.slli64	zero
  1010fa:	0000                	unimp
  1010fc:	00000003          	lb	zero,0(zero) # 0 <boot>
  101100:	0004                	0x4
  101102:	0000                	unimp
  101104:	0005                	c.nop	1
  101106:	0000                	unimp
  101108:	0006                	c.slli	zero,0x1
  10110a:	0000                	unimp
  10110c:	00000007          	vle8.v	v0,(zero),v0.t
  101110:	0008                	0x8
  101112:	0000                	unimp
  101114:	0009                	c.nop	2
  101116:	0000                	unimp
  101118:	0000                	unimp
  10111a:	0000                	unimp
  10111c:	0001                	nop
  10111e:	0000                	unimp
  101120:	0002                	c.slli64	zero
  101122:	0000                	unimp
  101124:	00000003          	lb	zero,0(zero) # 0 <boot>
  101128:	0004                	0x4
  10112a:	0000                	unimp
  10112c:	0005                	c.nop	1
  10112e:	0000                	unimp
  101130:	0006                	c.slli	zero,0x1
  101132:	0000                	unimp
  101134:	00000007          	vle8.v	v0,(zero),v0.t
  101138:	0008                	0x8
  10113a:	0000                	unimp
  10113c:	0009                	c.nop	2
  10113e:	0000                	unimp
  101140:	0000                	unimp
  101142:	0000                	unimp
  101144:	0001                	nop
  101146:	0000                	unimp
  101148:	0002                	c.slli64	zero
  10114a:	0000                	unimp
  10114c:	00000003          	lb	zero,0(zero) # 0 <boot>
  101150:	0004                	0x4
  101152:	0000                	unimp
  101154:	0005                	c.nop	1
  101156:	0000                	unimp
  101158:	0006                	c.slli	zero,0x1
  10115a:	0000                	unimp
  10115c:	00000007          	vle8.v	v0,(zero),v0.t
  101160:	0008                	0x8
  101162:	0000                	unimp
  101164:	0009                	c.nop	2
  101166:	0000                	unimp
  101168:	0000                	unimp
  10116a:	0000                	unimp
  10116c:	0001                	nop
  10116e:	0000                	unimp
  101170:	0002                	c.slli64	zero
  101172:	0000                	unimp
  101174:	00000003          	lb	zero,0(zero) # 0 <boot>
  101178:	0004                	0x4
  10117a:	0000                	unimp
  10117c:	0005                	c.nop	1
  10117e:	0000                	unimp
  101180:	0006                	c.slli	zero,0x1
  101182:	0000                	unimp
  101184:	00000007          	vle8.v	v0,(zero),v0.t
  101188:	0008                	0x8
  10118a:	0000                	unimp
  10118c:	0009                	c.nop	2
  10118e:	0000                	unimp
  101190:	0000                	unimp
  101192:	0000                	unimp
  101194:	0001                	nop
  101196:	0000                	unimp
  101198:	0002                	c.slli64	zero
  10119a:	0000                	unimp
  10119c:	00000003          	lb	zero,0(zero) # 0 <boot>
  1011a0:	0004                	0x4
  1011a2:	0000                	unimp
  1011a4:	0005                	c.nop	1
  1011a6:	0000                	unimp
  1011a8:	0006                	c.slli	zero,0x1
  1011aa:	0000                	unimp
  1011ac:	00000007          	vle8.v	v0,(zero),v0.t
  1011b0:	0008                	0x8
  1011b2:	0000                	unimp
  1011b4:	0009                	c.nop	2
  1011b6:	0000                	unimp
  1011b8:	0000                	unimp
  1011ba:	0000                	unimp
  1011bc:	0001                	nop
  1011be:	0000                	unimp
  1011c0:	0002                	c.slli64	zero
  1011c2:	0000                	unimp
  1011c4:	00000003          	lb	zero,0(zero) # 0 <boot>
  1011c8:	0004                	0x4
  1011ca:	0000                	unimp
  1011cc:	0005                	c.nop	1
  1011ce:	0000                	unimp
  1011d0:	0006                	c.slli	zero,0x1
  1011d2:	0000                	unimp
  1011d4:	00000007          	vle8.v	v0,(zero),v0.t
  1011d8:	0008                	0x8
  1011da:	0000                	unimp
  1011dc:	0009                	c.nop	2
  1011de:	0000                	unimp
  1011e0:	0000                	unimp
  1011e2:	0000                	unimp
  1011e4:	0001                	nop
  1011e6:	0000                	unimp
  1011e8:	0002                	c.slli64	zero
  1011ea:	0000                	unimp
  1011ec:	00000003          	lb	zero,0(zero) # 0 <boot>
  1011f0:	0004                	0x4
  1011f2:	0000                	unimp
  1011f4:	0005                	c.nop	1
  1011f6:	0000                	unimp
  1011f8:	0006                	c.slli	zero,0x1
  1011fa:	0000                	unimp
  1011fc:	00000007          	vle8.v	v0,(zero),v0.t
  101200:	0008                	0x8
  101202:	0000                	unimp
  101204:	0009                	c.nop	2
  101206:	0000                	unimp
  101208:	0000                	unimp
  10120a:	0000                	unimp
  10120c:	0001                	nop
  10120e:	0000                	unimp
  101210:	0002                	c.slli64	zero
  101212:	0000                	unimp
  101214:	00000003          	lb	zero,0(zero) # 0 <boot>
  101218:	0004                	0x4
  10121a:	0000                	unimp
  10121c:	0005                	c.nop	1
  10121e:	0000                	unimp
  101220:	0006                	c.slli	zero,0x1
  101222:	0000                	unimp
  101224:	00000007          	vle8.v	v0,(zero),v0.t
  101228:	0008                	0x8
  10122a:	0000                	unimp
  10122c:	0009                	c.nop	2
  10122e:	0000                	unimp
  101230:	0000                	unimp
  101232:	0000                	unimp
  101234:	0001                	nop
  101236:	0000                	unimp
  101238:	0002                	c.slli64	zero
  10123a:	0000                	unimp
  10123c:	00000003          	lb	zero,0(zero) # 0 <boot>
  101240:	0004                	0x4
  101242:	0000                	unimp
  101244:	0005                	c.nop	1
  101246:	0000                	unimp
  101248:	0006                	c.slli	zero,0x1
  10124a:	0000                	unimp
  10124c:	00000007          	vle8.v	v0,(zero),v0.t
  101250:	0008                	0x8
  101252:	0000                	unimp
  101254:	0009                	c.nop	2
  101256:	0000                	unimp
  101258:	0000                	unimp
  10125a:	0000                	unimp
  10125c:	0001                	nop
  10125e:	0000                	unimp
  101260:	0002                	c.slli64	zero
  101262:	0000                	unimp
  101264:	00000003          	lb	zero,0(zero) # 0 <boot>
  101268:	0004                	0x4
  10126a:	0000                	unimp
  10126c:	0005                	c.nop	1
  10126e:	0000                	unimp
  101270:	0006                	c.slli	zero,0x1
  101272:	0000                	unimp
  101274:	00000007          	vle8.v	v0,(zero),v0.t
  101278:	0008                	0x8
  10127a:	0000                	unimp
  10127c:	0009                	c.nop	2
  10127e:	0000                	unimp
  101280:	0000                	unimp
  101282:	0000                	unimp
  101284:	0001                	nop
  101286:	0000                	unimp
  101288:	0002                	c.slli64	zero
  10128a:	0000                	unimp
  10128c:	00000003          	lb	zero,0(zero) # 0 <boot>
  101290:	0004                	0x4
  101292:	0000                	unimp
  101294:	0005                	c.nop	1
  101296:	0000                	unimp
  101298:	0006                	c.slli	zero,0x1
  10129a:	0000                	unimp
  10129c:	00000007          	vle8.v	v0,(zero),v0.t
  1012a0:	0008                	0x8
  1012a2:	0000                	unimp
  1012a4:	0009                	c.nop	2
  1012a6:	0000                	unimp
  1012a8:	0000                	unimp
  1012aa:	0000                	unimp
  1012ac:	0001                	nop
  1012ae:	0000                	unimp
  1012b0:	0002                	c.slli64	zero
  1012b2:	0000                	unimp
  1012b4:	00000003          	lb	zero,0(zero) # 0 <boot>
  1012b8:	0004                	0x4
  1012ba:	0000                	unimp
  1012bc:	0005                	c.nop	1
  1012be:	0000                	unimp
  1012c0:	0006                	c.slli	zero,0x1
  1012c2:	0000                	unimp
  1012c4:	00000007          	vle8.v	v0,(zero),v0.t
  1012c8:	0008                	0x8
  1012ca:	0000                	unimp
  1012cc:	0009                	c.nop	2
  1012ce:	0000                	unimp
  1012d0:	0000                	unimp
  1012d2:	0000                	unimp
  1012d4:	0001                	nop
  1012d6:	0000                	unimp
  1012d8:	0002                	c.slli64	zero
  1012da:	0000                	unimp
  1012dc:	00000003          	lb	zero,0(zero) # 0 <boot>
  1012e0:	0004                	0x4
  1012e2:	0000                	unimp
  1012e4:	0005                	c.nop	1
  1012e6:	0000                	unimp
  1012e8:	0006                	c.slli	zero,0x1
  1012ea:	0000                	unimp
  1012ec:	00000007          	vle8.v	v0,(zero),v0.t
  1012f0:	0008                	0x8
  1012f2:	0000                	unimp
  1012f4:	0009                	c.nop	2
  1012f6:	0000                	unimp
  1012f8:	0000                	unimp
  1012fa:	0000                	unimp
  1012fc:	0001                	nop
  1012fe:	0000                	unimp
  101300:	0002                	c.slli64	zero
  101302:	0000                	unimp
  101304:	00000003          	lb	zero,0(zero) # 0 <boot>
  101308:	0004                	0x4
  10130a:	0000                	unimp
  10130c:	0005                	c.nop	1
  10130e:	0000                	unimp
  101310:	0006                	c.slli	zero,0x1
  101312:	0000                	unimp
  101314:	00000007          	vle8.v	v0,(zero),v0.t
  101318:	0008                	0x8
  10131a:	0000                	unimp
  10131c:	0009                	c.nop	2
  10131e:	0000                	unimp
  101320:	0000                	unimp
  101322:	0000                	unimp
  101324:	0001                	nop
  101326:	0000                	unimp
  101328:	0002                	c.slli64	zero
  10132a:	0000                	unimp
  10132c:	00000003          	lb	zero,0(zero) # 0 <boot>
  101330:	0004                	0x4
  101332:	0000                	unimp
  101334:	0005                	c.nop	1
  101336:	0000                	unimp
  101338:	0006                	c.slli	zero,0x1
  10133a:	0000                	unimp
  10133c:	00000007          	vle8.v	v0,(zero),v0.t
  101340:	0008                	0x8
  101342:	0000                	unimp
  101344:	0009                	c.nop	2
  101346:	0000                	unimp
  101348:	0000                	unimp
  10134a:	0000                	unimp
  10134c:	0001                	nop
  10134e:	0000                	unimp
  101350:	0002                	c.slli64	zero
  101352:	0000                	unimp
  101354:	00000003          	lb	zero,0(zero) # 0 <boot>
  101358:	0004                	0x4
  10135a:	0000                	unimp
  10135c:	0005                	c.nop	1
  10135e:	0000                	unimp
  101360:	0006                	c.slli	zero,0x1
  101362:	0000                	unimp
  101364:	00000007          	vle8.v	v0,(zero),v0.t
  101368:	0008                	0x8
  10136a:	0000                	unimp
  10136c:	0009                	c.nop	2
  10136e:	0000                	unimp
  101370:	0000                	unimp
  101372:	0000                	unimp
  101374:	0001                	nop
  101376:	0000                	unimp
  101378:	0002                	c.slli64	zero
  10137a:	0000                	unimp
  10137c:	00000003          	lb	zero,0(zero) # 0 <boot>
  101380:	0004                	0x4
  101382:	0000                	unimp
  101384:	0005                	c.nop	1
  101386:	0000                	unimp
  101388:	0006                	c.slli	zero,0x1
  10138a:	0000                	unimp
  10138c:	00000007          	vle8.v	v0,(zero),v0.t
  101390:	0008                	0x8
  101392:	0000                	unimp
  101394:	0009                	c.nop	2
  101396:	0000                	unimp
  101398:	0000                	unimp
  10139a:	0000                	unimp
  10139c:	0001                	nop
  10139e:	0000                	unimp
  1013a0:	0002                	c.slli64	zero
  1013a2:	0000                	unimp
  1013a4:	00000003          	lb	zero,0(zero) # 0 <boot>
  1013a8:	0004                	0x4
  1013aa:	0000                	unimp
  1013ac:	0005                	c.nop	1
  1013ae:	0000                	unimp
  1013b0:	0006                	c.slli	zero,0x1
  1013b2:	0000                	unimp
  1013b4:	00000007          	vle8.v	v0,(zero),v0.t
  1013b8:	0008                	0x8
  1013ba:	0000                	unimp
  1013bc:	0009                	c.nop	2
  1013be:	0000                	unimp
  1013c0:	0000                	unimp
  1013c2:	0000                	unimp
  1013c4:	0001                	nop
  1013c6:	0000                	unimp
  1013c8:	0002                	c.slli64	zero
  1013ca:	0000                	unimp
  1013cc:	00000003          	lb	zero,0(zero) # 0 <boot>
  1013d0:	0004                	0x4
  1013d2:	0000                	unimp
  1013d4:	0005                	c.nop	1
  1013d6:	0000                	unimp
  1013d8:	0006                	c.slli	zero,0x1
  1013da:	0000                	unimp
  1013dc:	00000007          	vle8.v	v0,(zero),v0.t
  1013e0:	0008                	0x8
  1013e2:	0000                	unimp
  1013e4:	0009                	c.nop	2
  1013e6:	0000                	unimp
  1013e8:	0000                	unimp
  1013ea:	0000                	unimp
  1013ec:	0001                	nop
  1013ee:	0000                	unimp
  1013f0:	0002                	c.slli64	zero
  1013f2:	0000                	unimp
  1013f4:	00000003          	lb	zero,0(zero) # 0 <boot>
  1013f8:	0004                	0x4
  1013fa:	0000                	unimp
  1013fc:	0005                	c.nop	1
  1013fe:	0000                	unimp
  101400:	0006                	c.slli	zero,0x1
  101402:	0000                	unimp
  101404:	00000007          	vle8.v	v0,(zero),v0.t
  101408:	0008                	0x8
  10140a:	0000                	unimp
  10140c:	0009                	c.nop	2
  10140e:	0000                	unimp
  101410:	0000                	unimp
  101412:	0000                	unimp
  101414:	0001                	nop
  101416:	0000                	unimp
  101418:	0002                	c.slli64	zero
  10141a:	0000                	unimp
  10141c:	00000003          	lb	zero,0(zero) # 0 <boot>
  101420:	0004                	0x4
  101422:	0000                	unimp
  101424:	0005                	c.nop	1
  101426:	0000                	unimp
  101428:	0006                	c.slli	zero,0x1
  10142a:	0000                	unimp
  10142c:	00000007          	vle8.v	v0,(zero),v0.t
  101430:	0008                	0x8
  101432:	0000                	unimp
  101434:	0009                	c.nop	2
  101436:	0000                	unimp
  101438:	0000                	unimp
  10143a:	0000                	unimp
  10143c:	0001                	nop
  10143e:	0000                	unimp
  101440:	0002                	c.slli64	zero
  101442:	0000                	unimp
  101444:	00000003          	lb	zero,0(zero) # 0 <boot>
  101448:	0004                	0x4
  10144a:	0000                	unimp
  10144c:	0005                	c.nop	1
  10144e:	0000                	unimp
  101450:	0006                	c.slli	zero,0x1
  101452:	0000                	unimp
  101454:	00000007          	vle8.v	v0,(zero),v0.t
  101458:	0008                	0x8
  10145a:	0000                	unimp
  10145c:	0009                	c.nop	2
  10145e:	0000                	unimp
  101460:	0000                	unimp
  101462:	0000                	unimp
  101464:	0001                	nop
  101466:	0000                	unimp
  101468:	0002                	c.slli64	zero
  10146a:	0000                	unimp
  10146c:	00000003          	lb	zero,0(zero) # 0 <boot>
  101470:	0004                	0x4
  101472:	0000                	unimp
  101474:	0005                	c.nop	1
  101476:	0000                	unimp
  101478:	0006                	c.slli	zero,0x1
  10147a:	0000                	unimp
  10147c:	00000007          	vle8.v	v0,(zero),v0.t
  101480:	0008                	0x8
  101482:	0000                	unimp
  101484:	0009                	c.nop	2
  101486:	0000                	unimp
  101488:	0000                	unimp
  10148a:	0000                	unimp
  10148c:	0001                	nop
  10148e:	0000                	unimp
  101490:	0002                	c.slli64	zero
  101492:	0000                	unimp
  101494:	00000003          	lb	zero,0(zero) # 0 <boot>
  101498:	0004                	0x4
  10149a:	0000                	unimp
  10149c:	0005                	c.nop	1
  10149e:	0000                	unimp
  1014a0:	0006                	c.slli	zero,0x1
  1014a2:	0000                	unimp
  1014a4:	00000007          	vle8.v	v0,(zero),v0.t
  1014a8:	0008                	0x8
  1014aa:	0000                	unimp
  1014ac:	0009                	c.nop	2
  1014ae:	0000                	unimp
  1014b0:	0000                	unimp
  1014b2:	0000                	unimp
  1014b4:	0001                	nop
  1014b6:	0000                	unimp
  1014b8:	0002                	c.slli64	zero
  1014ba:	0000                	unimp
  1014bc:	00000003          	lb	zero,0(zero) # 0 <boot>
  1014c0:	0004                	0x4
  1014c2:	0000                	unimp
  1014c4:	0005                	c.nop	1
  1014c6:	0000                	unimp
  1014c8:	0006                	c.slli	zero,0x1
  1014ca:	0000                	unimp
  1014cc:	00000007          	vle8.v	v0,(zero),v0.t
  1014d0:	0008                	0x8
  1014d2:	0000                	unimp
  1014d4:	0009                	c.nop	2
  1014d6:	0000                	unimp
  1014d8:	0000                	unimp
  1014da:	0000                	unimp
  1014dc:	0001                	nop
  1014de:	0000                	unimp
  1014e0:	0002                	c.slli64	zero
  1014e2:	0000                	unimp
  1014e4:	00000003          	lb	zero,0(zero) # 0 <boot>
  1014e8:	0004                	0x4
  1014ea:	0000                	unimp
  1014ec:	0005                	c.nop	1
  1014ee:	0000                	unimp
  1014f0:	0006                	c.slli	zero,0x1
  1014f2:	0000                	unimp
  1014f4:	00000007          	vle8.v	v0,(zero),v0.t
  1014f8:	0008                	0x8
  1014fa:	0000                	unimp
  1014fc:	0009                	c.nop	2
  1014fe:	0000                	unimp
  101500:	0000                	unimp
  101502:	0000                	unimp
  101504:	0001                	nop
  101506:	0000                	unimp
  101508:	0002                	c.slli64	zero
  10150a:	0000                	unimp
  10150c:	00000003          	lb	zero,0(zero) # 0 <boot>
  101510:	0004                	0x4
  101512:	0000                	unimp
  101514:	0005                	c.nop	1
  101516:	0000                	unimp
  101518:	0006                	c.slli	zero,0x1
  10151a:	0000                	unimp
  10151c:	00000007          	vle8.v	v0,(zero),v0.t
  101520:	0008                	0x8
  101522:	0000                	unimp
  101524:	0009                	c.nop	2
  101526:	0000                	unimp
  101528:	0000                	unimp
  10152a:	0000                	unimp
  10152c:	0001                	nop
  10152e:	0000                	unimp
  101530:	0002                	c.slli64	zero
  101532:	0000                	unimp
  101534:	00000003          	lb	zero,0(zero) # 0 <boot>
  101538:	0004                	0x4
  10153a:	0000                	unimp
  10153c:	0005                	c.nop	1
  10153e:	0000                	unimp
  101540:	0006                	c.slli	zero,0x1
  101542:	0000                	unimp
  101544:	00000007          	vle8.v	v0,(zero),v0.t
  101548:	0008                	0x8
  10154a:	0000                	unimp
  10154c:	0009                	c.nop	2
  10154e:	0000                	unimp
  101550:	0000                	unimp
  101552:	0000                	unimp
  101554:	0001                	nop
  101556:	0000                	unimp
  101558:	0002                	c.slli64	zero
  10155a:	0000                	unimp
  10155c:	00000003          	lb	zero,0(zero) # 0 <boot>
  101560:	0004                	0x4
  101562:	0000                	unimp
  101564:	0005                	c.nop	1
  101566:	0000                	unimp
  101568:	0006                	c.slli	zero,0x1
  10156a:	0000                	unimp
  10156c:	00000007          	vle8.v	v0,(zero),v0.t
  101570:	0008                	0x8
  101572:	0000                	unimp
  101574:	0009                	c.nop	2
  101576:	0000                	unimp
  101578:	0000                	unimp
  10157a:	0000                	unimp
  10157c:	0001                	nop
  10157e:	0000                	unimp
  101580:	0002                	c.slli64	zero
  101582:	0000                	unimp
  101584:	00000003          	lb	zero,0(zero) # 0 <boot>
  101588:	0004                	0x4
  10158a:	0000                	unimp
  10158c:	0005                	c.nop	1
  10158e:	0000                	unimp
  101590:	0006                	c.slli	zero,0x1
  101592:	0000                	unimp
  101594:	00000007          	vle8.v	v0,(zero),v0.t
  101598:	0008                	0x8
  10159a:	0000                	unimp
  10159c:	0009                	c.nop	2
  10159e:	0000                	unimp
  1015a0:	0000                	unimp
  1015a2:	0000                	unimp
  1015a4:	0001                	nop
  1015a6:	0000                	unimp
  1015a8:	0002                	c.slli64	zero
  1015aa:	0000                	unimp
  1015ac:	00000003          	lb	zero,0(zero) # 0 <boot>
  1015b0:	0004                	0x4
  1015b2:	0000                	unimp
  1015b4:	0005                	c.nop	1
  1015b6:	0000                	unimp
  1015b8:	0006                	c.slli	zero,0x1
  1015ba:	0000                	unimp
  1015bc:	00000007          	vle8.v	v0,(zero),v0.t
  1015c0:	0008                	0x8
  1015c2:	0000                	unimp
  1015c4:	0009                	c.nop	2
  1015c6:	0000                	unimp
  1015c8:	0000                	unimp
  1015ca:	0000                	unimp
  1015cc:	0001                	nop
  1015ce:	0000                	unimp
  1015d0:	0002                	c.slli64	zero
  1015d2:	0000                	unimp
  1015d4:	00000003          	lb	zero,0(zero) # 0 <boot>
  1015d8:	0004                	0x4
  1015da:	0000                	unimp
  1015dc:	0005                	c.nop	1
  1015de:	0000                	unimp
  1015e0:	0006                	c.slli	zero,0x1
  1015e2:	0000                	unimp
  1015e4:	00000007          	vle8.v	v0,(zero),v0.t
  1015e8:	0008                	0x8
  1015ea:	0000                	unimp
  1015ec:	0009                	c.nop	2
  1015ee:	0000                	unimp
  1015f0:	0000                	unimp
  1015f2:	0000                	unimp
  1015f4:	0001                	nop
  1015f6:	0000                	unimp
  1015f8:	0002                	c.slli64	zero
  1015fa:	0000                	unimp
  1015fc:	00000003          	lb	zero,0(zero) # 0 <boot>
  101600:	0004                	0x4
  101602:	0000                	unimp
  101604:	0005                	c.nop	1
  101606:	0000                	unimp
  101608:	0006                	c.slli	zero,0x1
  10160a:	0000                	unimp
  10160c:	00000007          	vle8.v	v0,(zero),v0.t
  101610:	0008                	0x8
  101612:	0000                	unimp
  101614:	0009                	c.nop	2
  101616:	0000                	unimp
  101618:	0000                	unimp
  10161a:	0000                	unimp
  10161c:	0001                	nop
  10161e:	0000                	unimp
  101620:	0002                	c.slli64	zero
  101622:	0000                	unimp
  101624:	00000003          	lb	zero,0(zero) # 0 <boot>
  101628:	0004                	0x4
  10162a:	0000                	unimp
  10162c:	0005                	c.nop	1
  10162e:	0000                	unimp
  101630:	0006                	c.slli	zero,0x1
  101632:	0000                	unimp
  101634:	00000007          	vle8.v	v0,(zero),v0.t
  101638:	0008                	0x8
  10163a:	0000                	unimp
  10163c:	0009                	c.nop	2
  10163e:	0000                	unimp
  101640:	0000                	unimp
  101642:	0000                	unimp
  101644:	0001                	nop
  101646:	0000                	unimp
  101648:	0002                	c.slli64	zero
  10164a:	0000                	unimp
  10164c:	00000003          	lb	zero,0(zero) # 0 <boot>
  101650:	0004                	0x4
  101652:	0000                	unimp
  101654:	0005                	c.nop	1
  101656:	0000                	unimp
  101658:	0006                	c.slli	zero,0x1
  10165a:	0000                	unimp
  10165c:	00000007          	vle8.v	v0,(zero),v0.t
  101660:	0008                	0x8
  101662:	0000                	unimp
  101664:	0009                	c.nop	2
  101666:	0000                	unimp
  101668:	0000                	unimp
  10166a:	0000                	unimp
  10166c:	0001                	nop
  10166e:	0000                	unimp
  101670:	0002                	c.slli64	zero
  101672:	0000                	unimp
  101674:	00000003          	lb	zero,0(zero) # 0 <boot>
  101678:	0004                	0x4
  10167a:	0000                	unimp
  10167c:	0005                	c.nop	1
  10167e:	0000                	unimp
  101680:	0006                	c.slli	zero,0x1
  101682:	0000                	unimp
  101684:	00000007          	vle8.v	v0,(zero),v0.t
  101688:	0008                	0x8
  10168a:	0000                	unimp
  10168c:	0009                	c.nop	2
  10168e:	0000                	unimp
  101690:	0000                	unimp
  101692:	0000                	unimp
  101694:	0001                	nop
  101696:	0000                	unimp
  101698:	0002                	c.slli64	zero
  10169a:	0000                	unimp
  10169c:	00000003          	lb	zero,0(zero) # 0 <boot>
  1016a0:	0004                	0x4
  1016a2:	0000                	unimp
  1016a4:	0005                	c.nop	1
  1016a6:	0000                	unimp
  1016a8:	0006                	c.slli	zero,0x1
  1016aa:	0000                	unimp
  1016ac:	00000007          	vle8.v	v0,(zero),v0.t
  1016b0:	0008                	0x8
  1016b2:	0000                	unimp
  1016b4:	0009                	c.nop	2
  1016b6:	0000                	unimp
  1016b8:	0000                	unimp
  1016ba:	0000                	unimp
  1016bc:	0001                	nop
  1016be:	0000                	unimp
  1016c0:	0002                	c.slli64	zero
  1016c2:	0000                	unimp
  1016c4:	00000003          	lb	zero,0(zero) # 0 <boot>
  1016c8:	0004                	0x4
  1016ca:	0000                	unimp
  1016cc:	0005                	c.nop	1
  1016ce:	0000                	unimp
  1016d0:	0006                	c.slli	zero,0x1
  1016d2:	0000                	unimp
  1016d4:	00000007          	vle8.v	v0,(zero),v0.t
  1016d8:	0008                	0x8
  1016da:	0000                	unimp
  1016dc:	0009                	c.nop	2
  1016de:	0000                	unimp
  1016e0:	0000                	unimp
  1016e2:	0000                	unimp
  1016e4:	0001                	nop
  1016e6:	0000                	unimp
  1016e8:	0002                	c.slli64	zero
  1016ea:	0000                	unimp
  1016ec:	00000003          	lb	zero,0(zero) # 0 <boot>
  1016f0:	0004                	0x4
  1016f2:	0000                	unimp
  1016f4:	0005                	c.nop	1
  1016f6:	0000                	unimp
  1016f8:	0006                	c.slli	zero,0x1
  1016fa:	0000                	unimp
  1016fc:	00000007          	vle8.v	v0,(zero),v0.t
  101700:	0008                	0x8
  101702:	0000                	unimp
  101704:	0009                	c.nop	2
  101706:	0000                	unimp
  101708:	0000                	unimp
  10170a:	0000                	unimp
  10170c:	0001                	nop
  10170e:	0000                	unimp
  101710:	0002                	c.slli64	zero
  101712:	0000                	unimp
  101714:	00000003          	lb	zero,0(zero) # 0 <boot>
  101718:	0004                	0x4
  10171a:	0000                	unimp
  10171c:	0005                	c.nop	1
  10171e:	0000                	unimp
  101720:	0006                	c.slli	zero,0x1
  101722:	0000                	unimp
  101724:	00000007          	vle8.v	v0,(zero),v0.t
  101728:	0008                	0x8
  10172a:	0000                	unimp
  10172c:	0009                	c.nop	2
  10172e:	0000                	unimp
  101730:	0000                	unimp
  101732:	0000                	unimp
  101734:	0001                	nop
  101736:	0000                	unimp
  101738:	0002                	c.slli64	zero
  10173a:	0000                	unimp
  10173c:	00000003          	lb	zero,0(zero) # 0 <boot>
  101740:	0004                	0x4
  101742:	0000                	unimp
  101744:	0005                	c.nop	1
  101746:	0000                	unimp
  101748:	0006                	c.slli	zero,0x1
  10174a:	0000                	unimp
  10174c:	00000007          	vle8.v	v0,(zero),v0.t
  101750:	0008                	0x8
  101752:	0000                	unimp
  101754:	0009                	c.nop	2
  101756:	0000                	unimp
  101758:	0000                	unimp
  10175a:	0000                	unimp
  10175c:	0001                	nop
  10175e:	0000                	unimp
  101760:	0002                	c.slli64	zero
  101762:	0000                	unimp
  101764:	00000003          	lb	zero,0(zero) # 0 <boot>
  101768:	0004                	0x4
  10176a:	0000                	unimp
  10176c:	0005                	c.nop	1
  10176e:	0000                	unimp
  101770:	0006                	c.slli	zero,0x1
  101772:	0000                	unimp
  101774:	00000007          	vle8.v	v0,(zero),v0.t
  101778:	0008                	0x8
  10177a:	0000                	unimp
  10177c:	0009                	c.nop	2
  10177e:	0000                	unimp
  101780:	0000                	unimp
  101782:	0000                	unimp
  101784:	0001                	nop
  101786:	0000                	unimp
  101788:	0002                	c.slli64	zero
  10178a:	0000                	unimp
  10178c:	00000003          	lb	zero,0(zero) # 0 <boot>
  101790:	0004                	0x4
  101792:	0000                	unimp
  101794:	0005                	c.nop	1
  101796:	0000                	unimp
  101798:	0006                	c.slli	zero,0x1
  10179a:	0000                	unimp
  10179c:	00000007          	vle8.v	v0,(zero),v0.t
  1017a0:	0008                	0x8
  1017a2:	0000                	unimp
  1017a4:	0009                	c.nop	2
  1017a6:	0000                	unimp
  1017a8:	0000                	unimp
  1017aa:	0000                	unimp
  1017ac:	0001                	nop
  1017ae:	0000                	unimp
  1017b0:	0002                	c.slli64	zero
  1017b2:	0000                	unimp
  1017b4:	00000003          	lb	zero,0(zero) # 0 <boot>
  1017b8:	0004                	0x4
  1017ba:	0000                	unimp
  1017bc:	0005                	c.nop	1
  1017be:	0000                	unimp
  1017c0:	0006                	c.slli	zero,0x1
  1017c2:	0000                	unimp
  1017c4:	00000007          	vle8.v	v0,(zero),v0.t
  1017c8:	0008                	0x8
  1017ca:	0000                	unimp
  1017cc:	0009                	c.nop	2
  1017ce:	0000                	unimp
  1017d0:	0000                	unimp
  1017d2:	0000                	unimp
  1017d4:	0001                	nop
  1017d6:	0000                	unimp
  1017d8:	0002                	c.slli64	zero
  1017da:	0000                	unimp
  1017dc:	00000003          	lb	zero,0(zero) # 0 <boot>
  1017e0:	0004                	0x4
  1017e2:	0000                	unimp
  1017e4:	0005                	c.nop	1
  1017e6:	0000                	unimp
  1017e8:	0006                	c.slli	zero,0x1
  1017ea:	0000                	unimp
  1017ec:	00000007          	vle8.v	v0,(zero),v0.t
  1017f0:	0008                	0x8
  1017f2:	0000                	unimp
  1017f4:	0009                	c.nop	2
  1017f6:	0000                	unimp
  1017f8:	0000                	unimp
  1017fa:	0000                	unimp
  1017fc:	0001                	nop
  1017fe:	0000                	unimp
  101800:	0002                	c.slli64	zero
  101802:	0000                	unimp
  101804:	00000003          	lb	zero,0(zero) # 0 <boot>
  101808:	0004                	0x4
  10180a:	0000                	unimp
  10180c:	0005                	c.nop	1
  10180e:	0000                	unimp
  101810:	0006                	c.slli	zero,0x1
  101812:	0000                	unimp
  101814:	00000007          	vle8.v	v0,(zero),v0.t
  101818:	0008                	0x8
  10181a:	0000                	unimp
  10181c:	0009                	c.nop	2
  10181e:	0000                	unimp
  101820:	0000                	unimp
  101822:	0000                	unimp
  101824:	0001                	nop
  101826:	0000                	unimp
  101828:	0002                	c.slli64	zero
  10182a:	0000                	unimp
  10182c:	00000003          	lb	zero,0(zero) # 0 <boot>
  101830:	0004                	0x4
  101832:	0000                	unimp
  101834:	0005                	c.nop	1
  101836:	0000                	unimp
  101838:	0006                	c.slli	zero,0x1
  10183a:	0000                	unimp
  10183c:	00000007          	vle8.v	v0,(zero),v0.t
  101840:	0008                	0x8
  101842:	0000                	unimp
  101844:	0009                	c.nop	2
  101846:	0000                	unimp
  101848:	0000                	unimp
  10184a:	0000                	unimp
  10184c:	0001                	nop
  10184e:	0000                	unimp
  101850:	0002                	c.slli64	zero
  101852:	0000                	unimp
  101854:	00000003          	lb	zero,0(zero) # 0 <boot>
  101858:	0004                	0x4
  10185a:	0000                	unimp
  10185c:	0005                	c.nop	1
  10185e:	0000                	unimp
  101860:	0006                	c.slli	zero,0x1
  101862:	0000                	unimp
  101864:	00000007          	vle8.v	v0,(zero),v0.t
  101868:	0008                	0x8
  10186a:	0000                	unimp
  10186c:	0009                	c.nop	2
  10186e:	0000                	unimp
  101870:	0000                	unimp
  101872:	0000                	unimp
  101874:	0001                	nop
  101876:	0000                	unimp
  101878:	0002                	c.slli64	zero
  10187a:	0000                	unimp
  10187c:	00000003          	lb	zero,0(zero) # 0 <boot>
  101880:	0004                	0x4
  101882:	0000                	unimp
  101884:	0005                	c.nop	1
  101886:	0000                	unimp
  101888:	0006                	c.slli	zero,0x1
  10188a:	0000                	unimp
  10188c:	00000007          	vle8.v	v0,(zero),v0.t
  101890:	0008                	0x8
  101892:	0000                	unimp
  101894:	0009                	c.nop	2
  101896:	0000                	unimp
  101898:	0000                	unimp
  10189a:	0000                	unimp
  10189c:	0001                	nop
  10189e:	0000                	unimp
  1018a0:	0002                	c.slli64	zero
  1018a2:	0000                	unimp
  1018a4:	00000003          	lb	zero,0(zero) # 0 <boot>
  1018a8:	0004                	0x4
  1018aa:	0000                	unimp
  1018ac:	0005                	c.nop	1
  1018ae:	0000                	unimp
  1018b0:	0006                	c.slli	zero,0x1
  1018b2:	0000                	unimp
  1018b4:	00000007          	vle8.v	v0,(zero),v0.t
  1018b8:	0008                	0x8
  1018ba:	0000                	unimp
  1018bc:	0009                	c.nop	2
  1018be:	0000                	unimp
  1018c0:	0000                	unimp
  1018c2:	0000                	unimp
  1018c4:	0001                	nop
  1018c6:	0000                	unimp
  1018c8:	0002                	c.slli64	zero
  1018ca:	0000                	unimp
  1018cc:	00000003          	lb	zero,0(zero) # 0 <boot>
  1018d0:	0004                	0x4
  1018d2:	0000                	unimp
  1018d4:	0005                	c.nop	1
  1018d6:	0000                	unimp
  1018d8:	0006                	c.slli	zero,0x1
  1018da:	0000                	unimp
  1018dc:	00000007          	vle8.v	v0,(zero),v0.t
  1018e0:	0008                	0x8
  1018e2:	0000                	unimp
  1018e4:	0009                	c.nop	2
  1018e6:	0000                	unimp
  1018e8:	0000                	unimp
  1018ea:	0000                	unimp
  1018ec:	0001                	nop
  1018ee:	0000                	unimp
  1018f0:	0002                	c.slli64	zero
  1018f2:	0000                	unimp
  1018f4:	00000003          	lb	zero,0(zero) # 0 <boot>
  1018f8:	0004                	0x4
  1018fa:	0000                	unimp
  1018fc:	0005                	c.nop	1
  1018fe:	0000                	unimp
  101900:	0006                	c.slli	zero,0x1
  101902:	0000                	unimp
  101904:	00000007          	vle8.v	v0,(zero),v0.t
  101908:	0008                	0x8
  10190a:	0000                	unimp
  10190c:	0009                	c.nop	2
  10190e:	0000                	unimp
  101910:	0000                	unimp
  101912:	0000                	unimp
  101914:	0001                	nop
  101916:	0000                	unimp
  101918:	0002                	c.slli64	zero
  10191a:	0000                	unimp
  10191c:	00000003          	lb	zero,0(zero) # 0 <boot>
  101920:	0004                	0x4
  101922:	0000                	unimp
  101924:	0005                	c.nop	1
  101926:	0000                	unimp
  101928:	0006                	c.slli	zero,0x1
  10192a:	0000                	unimp
  10192c:	00000007          	vle8.v	v0,(zero),v0.t
  101930:	0008                	0x8
  101932:	0000                	unimp
  101934:	0009                	c.nop	2
  101936:	0000                	unimp
  101938:	0000                	unimp
  10193a:	0000                	unimp
  10193c:	0001                	nop
  10193e:	0000                	unimp
  101940:	0002                	c.slli64	zero
  101942:	0000                	unimp
  101944:	00000003          	lb	zero,0(zero) # 0 <boot>
  101948:	0004                	0x4
  10194a:	0000                	unimp
  10194c:	0005                	c.nop	1
  10194e:	0000                	unimp
  101950:	0006                	c.slli	zero,0x1
  101952:	0000                	unimp
  101954:	00000007          	vle8.v	v0,(zero),v0.t
  101958:	0008                	0x8
  10195a:	0000                	unimp
  10195c:	0009                	c.nop	2
  10195e:	0000                	unimp
  101960:	0000                	unimp
  101962:	0000                	unimp
  101964:	0001                	nop
  101966:	0000                	unimp
  101968:	0002                	c.slli64	zero
  10196a:	0000                	unimp
  10196c:	00000003          	lb	zero,0(zero) # 0 <boot>
  101970:	0004                	0x4
  101972:	0000                	unimp
  101974:	0005                	c.nop	1
  101976:	0000                	unimp
  101978:	0006                	c.slli	zero,0x1
  10197a:	0000                	unimp
  10197c:	00000007          	vle8.v	v0,(zero),v0.t
  101980:	0008                	0x8
  101982:	0000                	unimp
  101984:	0009                	c.nop	2
  101986:	0000                	unimp
  101988:	0000                	unimp
  10198a:	0000                	unimp
  10198c:	0001                	nop
  10198e:	0000                	unimp
  101990:	0002                	c.slli64	zero
  101992:	0000                	unimp
  101994:	00000003          	lb	zero,0(zero) # 0 <boot>
  101998:	0004                	0x4
  10199a:	0000                	unimp
  10199c:	0005                	c.nop	1
  10199e:	0000                	unimp
  1019a0:	0006                	c.slli	zero,0x1
  1019a2:	0000                	unimp
  1019a4:	00000007          	vle8.v	v0,(zero),v0.t
  1019a8:	0008                	0x8
  1019aa:	0000                	unimp
  1019ac:	0009                	c.nop	2
  1019ae:	0000                	unimp
  1019b0:	0000                	unimp
  1019b2:	0000                	unimp
  1019b4:	0001                	nop
  1019b6:	0000                	unimp
  1019b8:	0002                	c.slli64	zero
  1019ba:	0000                	unimp
  1019bc:	00000003          	lb	zero,0(zero) # 0 <boot>
  1019c0:	0004                	0x4
  1019c2:	0000                	unimp
  1019c4:	0005                	c.nop	1
  1019c6:	0000                	unimp
  1019c8:	0006                	c.slli	zero,0x1
  1019ca:	0000                	unimp
  1019cc:	00000007          	vle8.v	v0,(zero),v0.t
  1019d0:	0008                	0x8
  1019d2:	0000                	unimp
  1019d4:	0009                	c.nop	2
  1019d6:	0000                	unimp
  1019d8:	0000                	unimp
  1019da:	0000                	unimp
  1019dc:	0001                	nop
  1019de:	0000                	unimp
  1019e0:	0002                	c.slli64	zero
  1019e2:	0000                	unimp
  1019e4:	00000003          	lb	zero,0(zero) # 0 <boot>
  1019e8:	0004                	0x4
  1019ea:	0000                	unimp
  1019ec:	0005                	c.nop	1
  1019ee:	0000                	unimp
  1019f0:	0006                	c.slli	zero,0x1
  1019f2:	0000                	unimp
  1019f4:	00000007          	vle8.v	v0,(zero),v0.t
  1019f8:	0008                	0x8
  1019fa:	0000                	unimp
  1019fc:	0009                	c.nop	2
  1019fe:	0000                	unimp
  101a00:	0000                	unimp
  101a02:	0000                	unimp
  101a04:	0001                	nop
  101a06:	0000                	unimp
  101a08:	0002                	c.slli64	zero
  101a0a:	0000                	unimp
  101a0c:	00000003          	lb	zero,0(zero) # 0 <boot>
  101a10:	0004                	0x4
  101a12:	0000                	unimp
  101a14:	0005                	c.nop	1
  101a16:	0000                	unimp
  101a18:	0006                	c.slli	zero,0x1
  101a1a:	0000                	unimp
  101a1c:	00000007          	vle8.v	v0,(zero),v0.t
  101a20:	0008                	0x8
  101a22:	0000                	unimp
  101a24:	0009                	c.nop	2
  101a26:	0000                	unimp
  101a28:	0000                	unimp
  101a2a:	0000                	unimp
  101a2c:	0001                	nop
  101a2e:	0000                	unimp
  101a30:	0002                	c.slli64	zero
  101a32:	0000                	unimp
  101a34:	00000003          	lb	zero,0(zero) # 0 <boot>
  101a38:	0004                	0x4
  101a3a:	0000                	unimp
  101a3c:	0005                	c.nop	1
  101a3e:	0000                	unimp
  101a40:	0006                	c.slli	zero,0x1
  101a42:	0000                	unimp
  101a44:	00000007          	vle8.v	v0,(zero),v0.t
  101a48:	0008                	0x8
  101a4a:	0000                	unimp
  101a4c:	0009                	c.nop	2
  101a4e:	0000                	unimp
  101a50:	0000                	unimp
  101a52:	0000                	unimp
  101a54:	0001                	nop
  101a56:	0000                	unimp
  101a58:	0002                	c.slli64	zero
  101a5a:	0000                	unimp
  101a5c:	00000003          	lb	zero,0(zero) # 0 <boot>
  101a60:	0004                	0x4
  101a62:	0000                	unimp
  101a64:	0005                	c.nop	1
  101a66:	0000                	unimp
  101a68:	0006                	c.slli	zero,0x1
  101a6a:	0000                	unimp
  101a6c:	00000007          	vle8.v	v0,(zero),v0.t
  101a70:	0008                	0x8
  101a72:	0000                	unimp
  101a74:	0009                	c.nop	2
  101a76:	0000                	unimp
  101a78:	0000                	unimp
  101a7a:	0000                	unimp
  101a7c:	0001                	nop
  101a7e:	0000                	unimp
  101a80:	0002                	c.slli64	zero
  101a82:	0000                	unimp
  101a84:	00000003          	lb	zero,0(zero) # 0 <boot>
  101a88:	0004                	0x4
  101a8a:	0000                	unimp
  101a8c:	0005                	c.nop	1
  101a8e:	0000                	unimp
  101a90:	0006                	c.slli	zero,0x1
  101a92:	0000                	unimp
  101a94:	00000007          	vle8.v	v0,(zero),v0.t
  101a98:	0008                	0x8
  101a9a:	0000                	unimp
  101a9c:	0009                	c.nop	2
  101a9e:	0000                	unimp
  101aa0:	0000                	unimp
  101aa2:	0000                	unimp
  101aa4:	0001                	nop
  101aa6:	0000                	unimp
  101aa8:	0002                	c.slli64	zero
  101aaa:	0000                	unimp
  101aac:	00000003          	lb	zero,0(zero) # 0 <boot>
  101ab0:	0004                	0x4
  101ab2:	0000                	unimp
  101ab4:	0005                	c.nop	1
  101ab6:	0000                	unimp
  101ab8:	0006                	c.slli	zero,0x1
  101aba:	0000                	unimp
  101abc:	00000007          	vle8.v	v0,(zero),v0.t
  101ac0:	0008                	0x8
  101ac2:	0000                	unimp
  101ac4:	0009                	c.nop	2
  101ac6:	0000                	unimp
  101ac8:	0000                	unimp
  101aca:	0000                	unimp
  101acc:	0001                	nop
  101ace:	0000                	unimp
  101ad0:	0002                	c.slli64	zero
  101ad2:	0000                	unimp
  101ad4:	00000003          	lb	zero,0(zero) # 0 <boot>
  101ad8:	0004                	0x4
  101ada:	0000                	unimp
  101adc:	0005                	c.nop	1
  101ade:	0000                	unimp
  101ae0:	0006                	c.slli	zero,0x1
  101ae2:	0000                	unimp
  101ae4:	00000007          	vle8.v	v0,(zero),v0.t
  101ae8:	0008                	0x8
  101aea:	0000                	unimp
  101aec:	0009                	c.nop	2
  101aee:	0000                	unimp
  101af0:	0000                	unimp
  101af2:	0000                	unimp
  101af4:	0001                	nop
  101af6:	0000                	unimp
  101af8:	0002                	c.slli64	zero
  101afa:	0000                	unimp
  101afc:	00000003          	lb	zero,0(zero) # 0 <boot>
  101b00:	0004                	0x4
  101b02:	0000                	unimp
  101b04:	0005                	c.nop	1
  101b06:	0000                	unimp
  101b08:	0006                	c.slli	zero,0x1
  101b0a:	0000                	unimp
  101b0c:	00000007          	vle8.v	v0,(zero),v0.t
  101b10:	0008                	0x8
  101b12:	0000                	unimp
  101b14:	0009                	c.nop	2
  101b16:	0000                	unimp
  101b18:	0000                	unimp
  101b1a:	0000                	unimp
  101b1c:	0001                	nop
  101b1e:	0000                	unimp
  101b20:	0002                	c.slli64	zero
  101b22:	0000                	unimp
  101b24:	00000003          	lb	zero,0(zero) # 0 <boot>
  101b28:	0004                	0x4
  101b2a:	0000                	unimp
  101b2c:	0005                	c.nop	1
  101b2e:	0000                	unimp
  101b30:	0006                	c.slli	zero,0x1
  101b32:	0000                	unimp
  101b34:	00000007          	vle8.v	v0,(zero),v0.t
  101b38:	0008                	0x8
  101b3a:	0000                	unimp
  101b3c:	0009                	c.nop	2
  101b3e:	0000                	unimp
  101b40:	0000                	unimp
  101b42:	0000                	unimp
  101b44:	0001                	nop
  101b46:	0000                	unimp
  101b48:	0002                	c.slli64	zero
  101b4a:	0000                	unimp
  101b4c:	00000003          	lb	zero,0(zero) # 0 <boot>
  101b50:	0004                	0x4
  101b52:	0000                	unimp
  101b54:	0005                	c.nop	1
  101b56:	0000                	unimp
  101b58:	0006                	c.slli	zero,0x1
  101b5a:	0000                	unimp
  101b5c:	00000007          	vle8.v	v0,(zero),v0.t
  101b60:	0008                	0x8
  101b62:	0000                	unimp
  101b64:	0009                	c.nop	2
  101b66:	0000                	unimp
  101b68:	0000                	unimp
  101b6a:	0000                	unimp
  101b6c:	0001                	nop
  101b6e:	0000                	unimp
  101b70:	0002                	c.slli64	zero
  101b72:	0000                	unimp
  101b74:	00000003          	lb	zero,0(zero) # 0 <boot>
  101b78:	0004                	0x4
  101b7a:	0000                	unimp
  101b7c:	0005                	c.nop	1
  101b7e:	0000                	unimp
  101b80:	0006                	c.slli	zero,0x1
  101b82:	0000                	unimp
  101b84:	00000007          	vle8.v	v0,(zero),v0.t
  101b88:	0008                	0x8
  101b8a:	0000                	unimp
  101b8c:	0009                	c.nop	2
  101b8e:	0000                	unimp
  101b90:	0000                	unimp
  101b92:	0000                	unimp
  101b94:	0001                	nop
  101b96:	0000                	unimp
  101b98:	0002                	c.slli64	zero
  101b9a:	0000                	unimp
  101b9c:	00000003          	lb	zero,0(zero) # 0 <boot>
  101ba0:	0004                	0x4
  101ba2:	0000                	unimp
  101ba4:	0005                	c.nop	1
  101ba6:	0000                	unimp
  101ba8:	0006                	c.slli	zero,0x1
  101baa:	0000                	unimp
  101bac:	00000007          	vle8.v	v0,(zero),v0.t
  101bb0:	0008                	0x8
  101bb2:	0000                	unimp
  101bb4:	0009                	c.nop	2
  101bb6:	0000                	unimp
  101bb8:	0000                	unimp
  101bba:	0000                	unimp
  101bbc:	0001                	nop
  101bbe:	0000                	unimp
  101bc0:	0002                	c.slli64	zero
  101bc2:	0000                	unimp
  101bc4:	00000003          	lb	zero,0(zero) # 0 <boot>
  101bc8:	0004                	0x4
  101bca:	0000                	unimp
  101bcc:	0005                	c.nop	1
  101bce:	0000                	unimp
  101bd0:	0006                	c.slli	zero,0x1
  101bd2:	0000                	unimp
  101bd4:	00000007          	vle8.v	v0,(zero),v0.t
  101bd8:	0008                	0x8
  101bda:	0000                	unimp
  101bdc:	0009                	c.nop	2
  101bde:	0000                	unimp
  101be0:	0000                	unimp
  101be2:	0000                	unimp
  101be4:	0001                	nop
  101be6:	0000                	unimp
  101be8:	0002                	c.slli64	zero
  101bea:	0000                	unimp
  101bec:	00000003          	lb	zero,0(zero) # 0 <boot>
  101bf0:	0004                	0x4
  101bf2:	0000                	unimp
  101bf4:	0005                	c.nop	1
  101bf6:	0000                	unimp
  101bf8:	0006                	c.slli	zero,0x1
  101bfa:	0000                	unimp
  101bfc:	00000007          	vle8.v	v0,(zero),v0.t
  101c00:	0008                	0x8
  101c02:	0000                	unimp
  101c04:	0009                	c.nop	2
  101c06:	0000                	unimp
  101c08:	0000                	unimp
  101c0a:	0000                	unimp
  101c0c:	0001                	nop
  101c0e:	0000                	unimp
  101c10:	0002                	c.slli64	zero
  101c12:	0000                	unimp
  101c14:	00000003          	lb	zero,0(zero) # 0 <boot>
  101c18:	0004                	0x4
  101c1a:	0000                	unimp
  101c1c:	0005                	c.nop	1
  101c1e:	0000                	unimp
  101c20:	0006                	c.slli	zero,0x1
  101c22:	0000                	unimp
  101c24:	00000007          	vle8.v	v0,(zero),v0.t
  101c28:	0008                	0x8
  101c2a:	0000                	unimp
  101c2c:	0009                	c.nop	2
  101c2e:	0000                	unimp
  101c30:	0000                	unimp
  101c32:	0000                	unimp
  101c34:	0001                	nop
  101c36:	0000                	unimp
  101c38:	0002                	c.slli64	zero
  101c3a:	0000                	unimp
  101c3c:	00000003          	lb	zero,0(zero) # 0 <boot>
  101c40:	0004                	0x4
  101c42:	0000                	unimp
  101c44:	0005                	c.nop	1
  101c46:	0000                	unimp
  101c48:	0006                	c.slli	zero,0x1
  101c4a:	0000                	unimp
  101c4c:	00000007          	vle8.v	v0,(zero),v0.t
  101c50:	0008                	0x8
  101c52:	0000                	unimp
  101c54:	0009                	c.nop	2
  101c56:	0000                	unimp
  101c58:	0000                	unimp
  101c5a:	0000                	unimp
  101c5c:	0001                	nop
  101c5e:	0000                	unimp
  101c60:	0002                	c.slli64	zero
  101c62:	0000                	unimp
  101c64:	00000003          	lb	zero,0(zero) # 0 <boot>
  101c68:	0004                	0x4
  101c6a:	0000                	unimp
  101c6c:	0005                	c.nop	1
  101c6e:	0000                	unimp
  101c70:	0006                	c.slli	zero,0x1
  101c72:	0000                	unimp
  101c74:	00000007          	vle8.v	v0,(zero),v0.t
  101c78:	0008                	0x8
  101c7a:	0000                	unimp
  101c7c:	0009                	c.nop	2
  101c7e:	0000                	unimp
  101c80:	0000                	unimp
  101c82:	0000                	unimp
  101c84:	0001                	nop
  101c86:	0000                	unimp
  101c88:	0002                	c.slli64	zero
  101c8a:	0000                	unimp
  101c8c:	00000003          	lb	zero,0(zero) # 0 <boot>
  101c90:	0004                	0x4
  101c92:	0000                	unimp
  101c94:	0005                	c.nop	1
  101c96:	0000                	unimp
  101c98:	0006                	c.slli	zero,0x1
  101c9a:	0000                	unimp
  101c9c:	00000007          	vle8.v	v0,(zero),v0.t
  101ca0:	0008                	0x8
  101ca2:	0000                	unimp
  101ca4:	0009                	c.nop	2
  101ca6:	0000                	unimp
  101ca8:	0000                	unimp
  101caa:	0000                	unimp
  101cac:	0001                	nop
  101cae:	0000                	unimp
  101cb0:	0002                	c.slli64	zero
  101cb2:	0000                	unimp
  101cb4:	00000003          	lb	zero,0(zero) # 0 <boot>
  101cb8:	0004                	0x4
  101cba:	0000                	unimp
  101cbc:	0005                	c.nop	1
  101cbe:	0000                	unimp
  101cc0:	0006                	c.slli	zero,0x1
  101cc2:	0000                	unimp
  101cc4:	00000007          	vle8.v	v0,(zero),v0.t
  101cc8:	0008                	0x8
  101cca:	0000                	unimp
  101ccc:	0009                	c.nop	2
  101cce:	0000                	unimp
  101cd0:	0000                	unimp
  101cd2:	0000                	unimp
  101cd4:	0001                	nop
  101cd6:	0000                	unimp
  101cd8:	0002                	c.slli64	zero
  101cda:	0000                	unimp
  101cdc:	00000003          	lb	zero,0(zero) # 0 <boot>
  101ce0:	0004                	0x4
  101ce2:	0000                	unimp
  101ce4:	0005                	c.nop	1
  101ce6:	0000                	unimp
  101ce8:	0006                	c.slli	zero,0x1
  101cea:	0000                	unimp
  101cec:	00000007          	vle8.v	v0,(zero),v0.t
  101cf0:	0008                	0x8
  101cf2:	0000                	unimp
  101cf4:	0009                	c.nop	2
  101cf6:	0000                	unimp
  101cf8:	0000                	unimp
  101cfa:	0000                	unimp
  101cfc:	0001                	nop
  101cfe:	0000                	unimp
  101d00:	0002                	c.slli64	zero
  101d02:	0000                	unimp
  101d04:	00000003          	lb	zero,0(zero) # 0 <boot>
  101d08:	0004                	0x4
  101d0a:	0000                	unimp
  101d0c:	0005                	c.nop	1
  101d0e:	0000                	unimp
  101d10:	0006                	c.slli	zero,0x1
  101d12:	0000                	unimp
  101d14:	00000007          	vle8.v	v0,(zero),v0.t
  101d18:	0008                	0x8
  101d1a:	0000                	unimp
  101d1c:	0009                	c.nop	2
  101d1e:	0000                	unimp
  101d20:	0000                	unimp
  101d22:	0000                	unimp
  101d24:	0001                	nop
  101d26:	0000                	unimp
  101d28:	0002                	c.slli64	zero
  101d2a:	0000                	unimp
  101d2c:	00000003          	lb	zero,0(zero) # 0 <boot>
  101d30:	0004                	0x4
  101d32:	0000                	unimp
  101d34:	0005                	c.nop	1
  101d36:	0000                	unimp
  101d38:	0006                	c.slli	zero,0x1
  101d3a:	0000                	unimp
  101d3c:	00000007          	vle8.v	v0,(zero),v0.t
  101d40:	0008                	0x8
  101d42:	0000                	unimp
  101d44:	0009                	c.nop	2
  101d46:	0000                	unimp
  101d48:	0000                	unimp
  101d4a:	0000                	unimp
  101d4c:	0001                	nop
  101d4e:	0000                	unimp
  101d50:	0002                	c.slli64	zero
  101d52:	0000                	unimp
  101d54:	00000003          	lb	zero,0(zero) # 0 <boot>
  101d58:	0004                	0x4
  101d5a:	0000                	unimp
  101d5c:	0005                	c.nop	1
  101d5e:	0000                	unimp
  101d60:	0006                	c.slli	zero,0x1
  101d62:	0000                	unimp
  101d64:	00000007          	vle8.v	v0,(zero),v0.t
  101d68:	0008                	0x8
  101d6a:	0000                	unimp
  101d6c:	0009                	c.nop	2
  101d6e:	0000                	unimp
  101d70:	0000                	unimp
  101d72:	0000                	unimp
  101d74:	0001                	nop
  101d76:	0000                	unimp
  101d78:	0002                	c.slli64	zero
  101d7a:	0000                	unimp
  101d7c:	00000003          	lb	zero,0(zero) # 0 <boot>
  101d80:	0004                	0x4
  101d82:	0000                	unimp
  101d84:	0005                	c.nop	1
  101d86:	0000                	unimp
  101d88:	0006                	c.slli	zero,0x1
  101d8a:	0000                	unimp
  101d8c:	00000007          	vle8.v	v0,(zero),v0.t
  101d90:	0008                	0x8
  101d92:	0000                	unimp
  101d94:	0009                	c.nop	2
  101d96:	0000                	unimp
  101d98:	0000                	unimp
  101d9a:	0000                	unimp
  101d9c:	0001                	nop
  101d9e:	0000                	unimp
  101da0:	0002                	c.slli64	zero
  101da2:	0000                	unimp
  101da4:	00000003          	lb	zero,0(zero) # 0 <boot>
  101da8:	0004                	0x4
  101daa:	0000                	unimp
  101dac:	0005                	c.nop	1
  101dae:	0000                	unimp
  101db0:	0006                	c.slli	zero,0x1
  101db2:	0000                	unimp
  101db4:	00000007          	vle8.v	v0,(zero),v0.t
  101db8:	0008                	0x8
  101dba:	0000                	unimp
  101dbc:	0009                	c.nop	2
  101dbe:	0000                	unimp
  101dc0:	0000                	unimp
  101dc2:	0000                	unimp
  101dc4:	0001                	nop
  101dc6:	0000                	unimp
  101dc8:	0002                	c.slli64	zero
  101dca:	0000                	unimp
  101dcc:	00000003          	lb	zero,0(zero) # 0 <boot>
  101dd0:	0004                	0x4
  101dd2:	0000                	unimp
  101dd4:	0005                	c.nop	1
  101dd6:	0000                	unimp
  101dd8:	0006                	c.slli	zero,0x1
  101dda:	0000                	unimp
  101ddc:	00000007          	vle8.v	v0,(zero),v0.t
  101de0:	0008                	0x8
  101de2:	0000                	unimp
  101de4:	0009                	c.nop	2
  101de6:	0000                	unimp
  101de8:	0000                	unimp
  101dea:	0000                	unimp
  101dec:	0001                	nop
  101dee:	0000                	unimp
  101df0:	0002                	c.slli64	zero
  101df2:	0000                	unimp
  101df4:	00000003          	lb	zero,0(zero) # 0 <boot>
  101df8:	0004                	0x4
  101dfa:	0000                	unimp
  101dfc:	0005                	c.nop	1
  101dfe:	0000                	unimp
  101e00:	0006                	c.slli	zero,0x1
  101e02:	0000                	unimp
  101e04:	00000007          	vle8.v	v0,(zero),v0.t
  101e08:	0008                	0x8
  101e0a:	0000                	unimp
  101e0c:	0009                	c.nop	2
  101e0e:	0000                	unimp
  101e10:	0000                	unimp
  101e12:	0000                	unimp
  101e14:	0001                	nop
  101e16:	0000                	unimp
  101e18:	0002                	c.slli64	zero
  101e1a:	0000                	unimp
  101e1c:	00000003          	lb	zero,0(zero) # 0 <boot>
  101e20:	0004                	0x4
  101e22:	0000                	unimp
  101e24:	0005                	c.nop	1
  101e26:	0000                	unimp
  101e28:	0006                	c.slli	zero,0x1
  101e2a:	0000                	unimp
  101e2c:	00000007          	vle8.v	v0,(zero),v0.t
  101e30:	0008                	0x8
  101e32:	0000                	unimp
  101e34:	0009                	c.nop	2
  101e36:	0000                	unimp
  101e38:	0000                	unimp
  101e3a:	0000                	unimp
  101e3c:	0001                	nop
  101e3e:	0000                	unimp
  101e40:	0002                	c.slli64	zero
  101e42:	0000                	unimp
  101e44:	00000003          	lb	zero,0(zero) # 0 <boot>
  101e48:	0004                	0x4
  101e4a:	0000                	unimp
  101e4c:	0005                	c.nop	1
  101e4e:	0000                	unimp
  101e50:	0006                	c.slli	zero,0x1
  101e52:	0000                	unimp
  101e54:	00000007          	vle8.v	v0,(zero),v0.t
  101e58:	0008                	0x8
  101e5a:	0000                	unimp
  101e5c:	0009                	c.nop	2
  101e5e:	0000                	unimp
  101e60:	0000                	unimp
  101e62:	0000                	unimp
  101e64:	0001                	nop
  101e66:	0000                	unimp
  101e68:	0002                	c.slli64	zero
  101e6a:	0000                	unimp
  101e6c:	00000003          	lb	zero,0(zero) # 0 <boot>
  101e70:	0004                	0x4
  101e72:	0000                	unimp
  101e74:	0005                	c.nop	1
  101e76:	0000                	unimp
  101e78:	0006                	c.slli	zero,0x1
  101e7a:	0000                	unimp
  101e7c:	00000007          	vle8.v	v0,(zero),v0.t
  101e80:	0008                	0x8
  101e82:	0000                	unimp
  101e84:	0009                	c.nop	2
  101e86:	0000                	unimp
  101e88:	0000                	unimp
  101e8a:	0000                	unimp
  101e8c:	0001                	nop
  101e8e:	0000                	unimp
  101e90:	0002                	c.slli64	zero
  101e92:	0000                	unimp
  101e94:	00000003          	lb	zero,0(zero) # 0 <boot>
  101e98:	0004                	0x4
  101e9a:	0000                	unimp
  101e9c:	0005                	c.nop	1
  101e9e:	0000                	unimp
  101ea0:	0006                	c.slli	zero,0x1
  101ea2:	0000                	unimp
  101ea4:	00000007          	vle8.v	v0,(zero),v0.t
  101ea8:	0008                	0x8
  101eaa:	0000                	unimp
  101eac:	0009                	c.nop	2
  101eae:	0000                	unimp
  101eb0:	0000                	unimp
  101eb2:	0000                	unimp
  101eb4:	0001                	nop
  101eb6:	0000                	unimp
  101eb8:	0002                	c.slli64	zero
  101eba:	0000                	unimp
  101ebc:	00000003          	lb	zero,0(zero) # 0 <boot>
  101ec0:	0004                	0x4
  101ec2:	0000                	unimp
  101ec4:	0005                	c.nop	1
  101ec6:	0000                	unimp
  101ec8:	0006                	c.slli	zero,0x1
  101eca:	0000                	unimp
  101ecc:	00000007          	vle8.v	v0,(zero),v0.t
  101ed0:	0008                	0x8
  101ed2:	0000                	unimp
  101ed4:	0009                	c.nop	2
  101ed6:	0000                	unimp
  101ed8:	0000                	unimp
  101eda:	0000                	unimp
  101edc:	0001                	nop
  101ede:	0000                	unimp
  101ee0:	0002                	c.slli64	zero
  101ee2:	0000                	unimp
  101ee4:	00000003          	lb	zero,0(zero) # 0 <boot>
  101ee8:	0004                	0x4
  101eea:	0000                	unimp
  101eec:	0005                	c.nop	1
  101eee:	0000                	unimp
  101ef0:	0006                	c.slli	zero,0x1
  101ef2:	0000                	unimp
  101ef4:	00000007          	vle8.v	v0,(zero),v0.t
  101ef8:	0008                	0x8
  101efa:	0000                	unimp
  101efc:	0009                	c.nop	2
  101efe:	0000                	unimp
  101f00:	0000                	unimp
  101f02:	0000                	unimp
  101f04:	0001                	nop
  101f06:	0000                	unimp
  101f08:	0002                	c.slli64	zero
  101f0a:	0000                	unimp
  101f0c:	00000003          	lb	zero,0(zero) # 0 <boot>
  101f10:	0004                	0x4
  101f12:	0000                	unimp
  101f14:	0005                	c.nop	1
  101f16:	0000                	unimp
  101f18:	0006                	c.slli	zero,0x1
  101f1a:	0000                	unimp
  101f1c:	00000007          	vle8.v	v0,(zero),v0.t
  101f20:	0008                	0x8
  101f22:	0000                	unimp
  101f24:	0009                	c.nop	2
  101f26:	0000                	unimp
  101f28:	0000                	unimp
  101f2a:	0000                	unimp
  101f2c:	0001                	nop
  101f2e:	0000                	unimp
  101f30:	0002                	c.slli64	zero
  101f32:	0000                	unimp
  101f34:	00000003          	lb	zero,0(zero) # 0 <boot>
  101f38:	0004                	0x4
  101f3a:	0000                	unimp
  101f3c:	0005                	c.nop	1
  101f3e:	0000                	unimp
  101f40:	0006                	c.slli	zero,0x1
  101f42:	0000                	unimp
  101f44:	00000007          	vle8.v	v0,(zero),v0.t
  101f48:	0008                	0x8
  101f4a:	0000                	unimp
  101f4c:	0009                	c.nop	2
  101f4e:	0000                	unimp
  101f50:	0000                	unimp
  101f52:	0000                	unimp
  101f54:	0001                	nop
  101f56:	0000                	unimp
  101f58:	0002                	c.slli64	zero
  101f5a:	0000                	unimp
  101f5c:	00000003          	lb	zero,0(zero) # 0 <boot>
  101f60:	0004                	0x4
  101f62:	0000                	unimp
  101f64:	0005                	c.nop	1
  101f66:	0000                	unimp
  101f68:	0006                	c.slli	zero,0x1
  101f6a:	0000                	unimp
  101f6c:	00000007          	vle8.v	v0,(zero),v0.t
  101f70:	0008                	0x8
  101f72:	0000                	unimp
  101f74:	0009                	c.nop	2
  101f76:	0000                	unimp
  101f78:	0000                	unimp
  101f7a:	0000                	unimp
  101f7c:	0001                	nop
  101f7e:	0000                	unimp
  101f80:	0002                	c.slli64	zero
  101f82:	0000                	unimp
  101f84:	00000003          	lb	zero,0(zero) # 0 <boot>
  101f88:	0004                	0x4
  101f8a:	0000                	unimp
  101f8c:	0005                	c.nop	1
  101f8e:	0000                	unimp
  101f90:	0006                	c.slli	zero,0x1
  101f92:	0000                	unimp
  101f94:	00000007          	vle8.v	v0,(zero),v0.t
  101f98:	0008                	0x8
  101f9a:	0000                	unimp
  101f9c:	0009                	c.nop	2
  101f9e:	0000                	unimp
  101fa0:	0000                	unimp
  101fa2:	0000                	unimp
  101fa4:	0001                	nop
  101fa6:	0000                	unimp
  101fa8:	0002                	c.slli64	zero
  101faa:	0000                	unimp
  101fac:	00000003          	lb	zero,0(zero) # 0 <boot>
  101fb0:	0004                	0x4
  101fb2:	0000                	unimp
  101fb4:	0005                	c.nop	1
  101fb6:	0000                	unimp
  101fb8:	0006                	c.slli	zero,0x1
  101fba:	0000                	unimp
  101fbc:	00000007          	vle8.v	v0,(zero),v0.t
  101fc0:	0008                	0x8
  101fc2:	0000                	unimp
  101fc4:	0009                	c.nop	2
  101fc6:	0000                	unimp
  101fc8:	0000                	unimp
  101fca:	0000                	unimp
  101fcc:	0001                	nop
  101fce:	0000                	unimp
  101fd0:	0002                	c.slli64	zero
  101fd2:	0000                	unimp
  101fd4:	00000003          	lb	zero,0(zero) # 0 <boot>
  101fd8:	0004                	0x4
  101fda:	0000                	unimp
  101fdc:	0005                	c.nop	1
  101fde:	0000                	unimp
  101fe0:	0006                	c.slli	zero,0x1
  101fe2:	0000                	unimp
  101fe4:	00000007          	vle8.v	v0,(zero),v0.t
  101fe8:	0008                	0x8
  101fea:	0000                	unimp
  101fec:	0009                	c.nop	2
  101fee:	0000                	unimp
  101ff0:	0000                	unimp
  101ff2:	0000                	unimp
  101ff4:	0001                	nop
  101ff6:	0000                	unimp
  101ff8:	0002                	c.slli64	zero
  101ffa:	0000                	unimp
  101ffc:	00000003          	lb	zero,0(zero) # 0 <boot>

00102000 <expected_output>:
  102000:	0782                	c.slli64	a5
  102002:	0000                	unimp
  102004:	0972                	slli	s2,s2,0x1c
  102006:	0000                	unimp
  102008:	0784                	addi	s1,sp,960
  10200a:	0000                	unimp
  10200c:	0974                	addi	a3,sp,156
  10200e:	0000                	unimp
  102010:	07c2                	slli	a5,a5,0x10
  102012:	0000                	unimp
  102014:	09b2                	slli	s3,s3,0xc
  102016:	0000                	unimp
  102018:	083c                	addi	a5,sp,24
  10201a:	0000                	unimp
  10201c:	0a2c                	addi	a1,sp,280
  10201e:	0000                	unimp
  102020:	07bc                	addi	a5,sp,968
  102022:	0000                	unimp
  102024:	09ac                	addi	a1,sp,216
  102026:	0000                	unimp
  102028:	0782                	c.slli64	a5
  10202a:	0000                	unimp
  10202c:	0972                	slli	s2,s2,0x1c
  10202e:	0000                	unimp
  102030:	0784                	addi	s1,sp,960
  102032:	0000                	unimp
  102034:	0974                	addi	a3,sp,156
  102036:	0000                	unimp
  102038:	07c2                	slli	a5,a5,0x10
  10203a:	0000                	unimp
  10203c:	09b2                	slli	s3,s3,0xc
  10203e:	0000                	unimp
  102040:	083c                	addi	a5,sp,24
  102042:	0000                	unimp
  102044:	0a2c                	addi	a1,sp,280
  102046:	0000                	unimp
  102048:	07bc                	addi	a5,sp,968
  10204a:	0000                	unimp
  10204c:	09ac                	addi	a1,sp,216
  10204e:	0000                	unimp
  102050:	0782                	c.slli64	a5
  102052:	0000                	unimp
  102054:	0972                	slli	s2,s2,0x1c
  102056:	0000                	unimp
  102058:	0784                	addi	s1,sp,960
  10205a:	0000                	unimp
  10205c:	0974                	addi	a3,sp,156
  10205e:	0000                	unimp
  102060:	07c2                	slli	a5,a5,0x10
  102062:	0000                	unimp
  102064:	09b2                	slli	s3,s3,0xc
  102066:	0000                	unimp
  102068:	083c                	addi	a5,sp,24
  10206a:	0000                	unimp
  10206c:	0a2c                	addi	a1,sp,280
  10206e:	0000                	unimp
  102070:	07bc                	addi	a5,sp,968
  102072:	0000                	unimp
  102074:	09ac                	addi	a1,sp,216
  102076:	0000                	unimp
  102078:	0782                	c.slli64	a5
  10207a:	0000                	unimp
  10207c:	0972                	slli	s2,s2,0x1c
  10207e:	0000                	unimp
  102080:	16c2                	slli	a3,a3,0x30
  102082:	0000                	unimp
  102084:	1cb2                	slli	s9,s9,0x2c
  102086:	0000                	unimp
  102088:	1744                	addi	s1,sp,932
  10208a:	0000                	unimp
  10208c:	1d34                	addi	a3,sp,696
  10208e:	0000                	unimp
  102090:	1802                	slli	a6,a6,0x20
  102092:	0000                	unimp
  102094:	1df2                	slli	s11,s11,0x3c
  102096:	0000                	unimp
  102098:	18fc                	addi	a5,sp,124
  10209a:	0000                	unimp
  10209c:	1eec                	addi	a1,sp,892
  10209e:	0000                	unimp
  1020a0:	17bc                	addi	a5,sp,1000
  1020a2:	0000                	unimp
  1020a4:	1dac                	addi	a1,sp,760
  1020a6:	0000                	unimp
  1020a8:	16c2                	slli	a3,a3,0x30
  1020aa:	0000                	unimp
  1020ac:	1cb2                	slli	s9,s9,0x2c
  1020ae:	0000                	unimp
  1020b0:	1744                	addi	s1,sp,932
  1020b2:	0000                	unimp
  1020b4:	1d34                	addi	a3,sp,696
  1020b6:	0000                	unimp
  1020b8:	1802                	slli	a6,a6,0x20
  1020ba:	0000                	unimp
  1020bc:	1df2                	slli	s11,s11,0x3c
  1020be:	0000                	unimp
  1020c0:	18fc                	addi	a5,sp,124
  1020c2:	0000                	unimp
  1020c4:	1eec                	addi	a1,sp,892
  1020c6:	0000                	unimp
  1020c8:	17bc                	addi	a5,sp,1000
  1020ca:	0000                	unimp
  1020cc:	1dac                	addi	a1,sp,760
  1020ce:	0000                	unimp
  1020d0:	16c2                	slli	a3,a3,0x30
  1020d2:	0000                	unimp
  1020d4:	1cb2                	slli	s9,s9,0x2c
  1020d6:	0000                	unimp
  1020d8:	1744                	addi	s1,sp,932
  1020da:	0000                	unimp
  1020dc:	1d34                	addi	a3,sp,696
  1020de:	0000                	unimp
  1020e0:	1802                	slli	a6,a6,0x20
  1020e2:	0000                	unimp
  1020e4:	1df2                	slli	s11,s11,0x3c
  1020e6:	0000                	unimp
  1020e8:	18fc                	addi	a5,sp,124
  1020ea:	0000                	unimp
  1020ec:	1eec                	addi	a1,sp,892
  1020ee:	0000                	unimp
  1020f0:	17bc                	addi	a5,sp,1000
  1020f2:	0000                	unimp
  1020f4:	1dac                	addi	a1,sp,760
  1020f6:	0000                	unimp
  1020f8:	16c2                	slli	a3,a3,0x30
  1020fa:	0000                	unimp
  1020fc:	1cb2                	slli	s9,s9,0x2c
  1020fe:	0000                	unimp
  102100:	2602                	fld	fa2,0(sp)
  102102:	0000                	unimp
  102104:	2ff2                	fld	ft11,280(sp)
  102106:	0000                	unimp
  102108:	2704                	fld	fs1,8(a4)
  10210a:	0000                	unimp
  10210c:	30f4                	fld	fa3,224(s1)
  10210e:	0000                	unimp
  102110:	2842                	fld	fa6,16(sp)
  102112:	0000                	unimp
  102114:	3232                	fld	ft4,296(sp)
  102116:	0000                	unimp
  102118:	29bc                	fld	fa5,80(a1)
  10211a:	0000                	unimp
  10211c:	33ac                	fld	fa1,96(a5)
  10211e:	0000                	unimp
  102120:	27bc                	fld	fa5,72(a5)
  102122:	0000                	unimp
  102124:	31ac                	fld	fa1,96(a1)
  102126:	0000                	unimp
  102128:	2602                	fld	fa2,0(sp)
  10212a:	0000                	unimp
  10212c:	2ff2                	fld	ft11,280(sp)
  10212e:	0000                	unimp
  102130:	2704                	fld	fs1,8(a4)
  102132:	0000                	unimp
  102134:	30f4                	fld	fa3,224(s1)
  102136:	0000                	unimp
  102138:	2842                	fld	fa6,16(sp)
  10213a:	0000                	unimp
  10213c:	3232                	fld	ft4,296(sp)
  10213e:	0000                	unimp
  102140:	29bc                	fld	fa5,80(a1)
  102142:	0000                	unimp
  102144:	33ac                	fld	fa1,96(a5)
  102146:	0000                	unimp
  102148:	27bc                	fld	fa5,72(a5)
  10214a:	0000                	unimp
  10214c:	31ac                	fld	fa1,96(a1)
  10214e:	0000                	unimp
  102150:	2602                	fld	fa2,0(sp)
  102152:	0000                	unimp
  102154:	2ff2                	fld	ft11,280(sp)
  102156:	0000                	unimp
  102158:	2704                	fld	fs1,8(a4)
  10215a:	0000                	unimp
  10215c:	30f4                	fld	fa3,224(s1)
  10215e:	0000                	unimp
  102160:	2842                	fld	fa6,16(sp)
  102162:	0000                	unimp
  102164:	3232                	fld	ft4,296(sp)
  102166:	0000                	unimp
  102168:	29bc                	fld	fa5,80(a1)
  10216a:	0000                	unimp
  10216c:	33ac                	fld	fa1,96(a5)
  10216e:	0000                	unimp
  102170:	27bc                	fld	fa5,72(a5)
  102172:	0000                	unimp
  102174:	31ac                	fld	fa1,96(a1)
  102176:	0000                	unimp
  102178:	2602                	fld	fa2,0(sp)
  10217a:	0000                	unimp
  10217c:	2ff2                	fld	ft11,280(sp)
  10217e:	0000                	unimp
  102180:	3542                	fld	fa0,48(sp)
  102182:	0000                	unimp
  102184:	4332                	lw	t1,12(sp)
  102186:	0000                	unimp
  102188:	36c4                	fld	fs1,168(a3)
  10218a:	0000                	unimp
  10218c:	44b4                	lw	a3,72(s1)
  10218e:	0000                	unimp
  102190:	3882                	fld	fa7,32(sp)
  102192:	0000                	unimp
  102194:	4672                	lw	a2,28(sp)
  102196:	0000                	unimp
  102198:	3a7c                	fld	fa5,240(a2)
  10219a:	0000                	unimp
  10219c:	486c                	lw	a1,84(s0)
  10219e:	0000                	unimp
  1021a0:	37bc                	fld	fa5,104(a5)
  1021a2:	0000                	unimp
  1021a4:	45ac                	lw	a1,72(a1)
  1021a6:	0000                	unimp
  1021a8:	3542                	fld	fa0,48(sp)
  1021aa:	0000                	unimp
  1021ac:	4332                	lw	t1,12(sp)
  1021ae:	0000                	unimp
  1021b0:	36c4                	fld	fs1,168(a3)
  1021b2:	0000                	unimp
  1021b4:	44b4                	lw	a3,72(s1)
  1021b6:	0000                	unimp
  1021b8:	3882                	fld	fa7,32(sp)
  1021ba:	0000                	unimp
  1021bc:	4672                	lw	a2,28(sp)
  1021be:	0000                	unimp
  1021c0:	3a7c                	fld	fa5,240(a2)
  1021c2:	0000                	unimp
  1021c4:	486c                	lw	a1,84(s0)
  1021c6:	0000                	unimp
  1021c8:	37bc                	fld	fa5,104(a5)
  1021ca:	0000                	unimp
  1021cc:	45ac                	lw	a1,72(a1)
  1021ce:	0000                	unimp
  1021d0:	3542                	fld	fa0,48(sp)
  1021d2:	0000                	unimp
  1021d4:	4332                	lw	t1,12(sp)
  1021d6:	0000                	unimp
  1021d8:	36c4                	fld	fs1,168(a3)
  1021da:	0000                	unimp
  1021dc:	44b4                	lw	a3,72(s1)
  1021de:	0000                	unimp
  1021e0:	3882                	fld	fa7,32(sp)
  1021e2:	0000                	unimp
  1021e4:	4672                	lw	a2,28(sp)
  1021e6:	0000                	unimp
  1021e8:	3a7c                	fld	fa5,240(a2)
  1021ea:	0000                	unimp
  1021ec:	486c                	lw	a1,84(s0)
  1021ee:	0000                	unimp
  1021f0:	37bc                	fld	fa5,104(a5)
  1021f2:	0000                	unimp
  1021f4:	45ac                	lw	a1,72(a1)
  1021f6:	0000                	unimp
  1021f8:	3542                	fld	fa0,48(sp)
  1021fa:	0000                	unimp
  1021fc:	4332                	lw	t1,12(sp)
  1021fe:	0000                	unimp
  102200:	4482                	lw	s1,0(sp)
  102202:	0000                	unimp
  102204:	5672                	lw	a2,60(sp)
  102206:	0000                	unimp
  102208:	4684                	lw	s1,8(a3)
  10220a:	0000                	unimp
  10220c:	5874                	lw	a3,116(s0)
  10220e:	0000                	unimp
  102210:	48c2                	lw	a7,16(sp)
  102212:	0000                	unimp
  102214:	5ab2                	lw	s5,44(sp)
  102216:	0000                	unimp
  102218:	4b3c                	lw	a5,80(a4)
  10221a:	0000                	unimp
  10221c:	5d2c                	lw	a1,120(a0)
  10221e:	0000                	unimp
  102220:	47bc                	lw	a5,72(a5)
  102222:	0000                	unimp
  102224:	59ac                	lw	a1,112(a1)
  102226:	0000                	unimp
  102228:	4482                	lw	s1,0(sp)
  10222a:	0000                	unimp
  10222c:	5672                	lw	a2,60(sp)
  10222e:	0000                	unimp
  102230:	4684                	lw	s1,8(a3)
  102232:	0000                	unimp
  102234:	5874                	lw	a3,116(s0)
  102236:	0000                	unimp
  102238:	48c2                	lw	a7,16(sp)
  10223a:	0000                	unimp
  10223c:	5ab2                	lw	s5,44(sp)
  10223e:	0000                	unimp
  102240:	4b3c                	lw	a5,80(a4)
  102242:	0000                	unimp
  102244:	5d2c                	lw	a1,120(a0)
  102246:	0000                	unimp
  102248:	47bc                	lw	a5,72(a5)
  10224a:	0000                	unimp
  10224c:	59ac                	lw	a1,112(a1)
  10224e:	0000                	unimp
  102250:	4482                	lw	s1,0(sp)
  102252:	0000                	unimp
  102254:	5672                	lw	a2,60(sp)
  102256:	0000                	unimp
  102258:	4684                	lw	s1,8(a3)
  10225a:	0000                	unimp
  10225c:	5874                	lw	a3,116(s0)
  10225e:	0000                	unimp
  102260:	48c2                	lw	a7,16(sp)
  102262:	0000                	unimp
  102264:	5ab2                	lw	s5,44(sp)
  102266:	0000                	unimp
  102268:	4b3c                	lw	a5,80(a4)
  10226a:	0000                	unimp
  10226c:	5d2c                	lw	a1,120(a0)
  10226e:	0000                	unimp
  102270:	47bc                	lw	a5,72(a5)
  102272:	0000                	unimp
  102274:	59ac                	lw	a1,112(a1)
  102276:	0000                	unimp
  102278:	4482                	lw	s1,0(sp)
  10227a:	0000                	unimp
  10227c:	5672                	lw	a2,60(sp)
  10227e:	0000                	unimp
  102280:	53c2                	lw	t2,48(sp)
  102282:	0000                	unimp
  102284:	69b2                	flw	fs3,12(sp)
  102286:	0000                	unimp
  102288:	5644                	lw	s1,44(a2)
  10228a:	0000                	unimp
  10228c:	6c34                	flw	fa3,88(s0)
  10228e:	0000                	unimp
  102290:	5902                	lw	s2,32(sp)
  102292:	0000                	unimp
  102294:	6ef2                	flw	ft9,28(sp)
  102296:	0000                	unimp
  102298:	5bfc                	lw	a5,116(a5)
  10229a:	0000                	unimp
  10229c:	71ec                	flw	fa1,100(a1)
  10229e:	0000                	unimp
  1022a0:	57bc                	lw	a5,104(a5)
  1022a2:	0000                	unimp
  1022a4:	6dac                	flw	fa1,88(a1)
  1022a6:	0000                	unimp
  1022a8:	53c2                	lw	t2,48(sp)
  1022aa:	0000                	unimp
  1022ac:	69b2                	flw	fs3,12(sp)
  1022ae:	0000                	unimp
  1022b0:	5644                	lw	s1,44(a2)
  1022b2:	0000                	unimp
  1022b4:	6c34                	flw	fa3,88(s0)
  1022b6:	0000                	unimp
  1022b8:	5902                	lw	s2,32(sp)
  1022ba:	0000                	unimp
  1022bc:	6ef2                	flw	ft9,28(sp)
  1022be:	0000                	unimp
  1022c0:	5bfc                	lw	a5,116(a5)
  1022c2:	0000                	unimp
  1022c4:	71ec                	flw	fa1,100(a1)
  1022c6:	0000                	unimp
  1022c8:	57bc                	lw	a5,104(a5)
  1022ca:	0000                	unimp
  1022cc:	6dac                	flw	fa1,88(a1)
  1022ce:	0000                	unimp
  1022d0:	53c2                	lw	t2,48(sp)
  1022d2:	0000                	unimp
  1022d4:	69b2                	flw	fs3,12(sp)
  1022d6:	0000                	unimp
  1022d8:	5644                	lw	s1,44(a2)
  1022da:	0000                	unimp
  1022dc:	6c34                	flw	fa3,88(s0)
  1022de:	0000                	unimp
  1022e0:	5902                	lw	s2,32(sp)
  1022e2:	0000                	unimp
  1022e4:	6ef2                	flw	ft9,28(sp)
  1022e6:	0000                	unimp
  1022e8:	5bfc                	lw	a5,116(a5)
  1022ea:	0000                	unimp
  1022ec:	71ec                	flw	fa1,100(a1)
  1022ee:	0000                	unimp
  1022f0:	57bc                	lw	a5,104(a5)
  1022f2:	0000                	unimp
  1022f4:	6dac                	flw	fa1,88(a1)
  1022f6:	0000                	unimp
  1022f8:	53c2                	lw	t2,48(sp)
  1022fa:	0000                	unimp
  1022fc:	69b2                	flw	fs3,12(sp)
  1022fe:	0000                	unimp
  102300:	6302                	flw	ft6,0(sp)
  102302:	0000                	unimp
  102304:	7cf2                	flw	fs9,60(sp)
  102306:	0000                	unimp
  102308:	6604                	flw	fs1,8(a2)
  10230a:	0000                	unimp
  10230c:	7ff4                	flw	fa3,124(a5)
  10230e:	0000                	unimp
  102310:	6942                	flw	fs2,16(sp)
  102312:	0000                	unimp
  102314:	8332                	mv	t1,a2
  102316:	0000                	unimp
  102318:	6cbc                	flw	fa5,88(s1)
  10231a:	0000                	unimp
  10231c:	86ac                	0x86ac
  10231e:	0000                	unimp
  102320:	67bc                	flw	fa5,72(a5)
  102322:	0000                	unimp
  102324:	81ac                	0x81ac
  102326:	0000                	unimp
  102328:	6302                	flw	ft6,0(sp)
  10232a:	0000                	unimp
  10232c:	7cf2                	flw	fs9,60(sp)
  10232e:	0000                	unimp
  102330:	6604                	flw	fs1,8(a2)
  102332:	0000                	unimp
  102334:	7ff4                	flw	fa3,124(a5)
  102336:	0000                	unimp
  102338:	6942                	flw	fs2,16(sp)
  10233a:	0000                	unimp
  10233c:	8332                	mv	t1,a2
  10233e:	0000                	unimp
  102340:	6cbc                	flw	fa5,88(s1)
  102342:	0000                	unimp
  102344:	86ac                	0x86ac
  102346:	0000                	unimp
  102348:	67bc                	flw	fa5,72(a5)
  10234a:	0000                	unimp
  10234c:	81ac                	0x81ac
  10234e:	0000                	unimp
  102350:	6302                	flw	ft6,0(sp)
  102352:	0000                	unimp
  102354:	7cf2                	flw	fs9,60(sp)
  102356:	0000                	unimp
  102358:	6604                	flw	fs1,8(a2)
  10235a:	0000                	unimp
  10235c:	7ff4                	flw	fa3,124(a5)
  10235e:	0000                	unimp
  102360:	6942                	flw	fs2,16(sp)
  102362:	0000                	unimp
  102364:	8332                	mv	t1,a2
  102366:	0000                	unimp
  102368:	6cbc                	flw	fa5,88(s1)
  10236a:	0000                	unimp
  10236c:	86ac                	0x86ac
  10236e:	0000                	unimp
  102370:	67bc                	flw	fa5,72(a5)
  102372:	0000                	unimp
  102374:	81ac                	0x81ac
  102376:	0000                	unimp
  102378:	6302                	flw	ft6,0(sp)
  10237a:	0000                	unimp
  10237c:	7cf2                	flw	fs9,60(sp)
  10237e:	0000                	unimp
  102380:	7242                	flw	ft4,48(sp)
  102382:	0000                	unimp
  102384:	9032                	c.add	zero,a2
  102386:	0000                	unimp
  102388:	75c4                	flw	fs1,44(a1)
  10238a:	0000                	unimp
  10238c:	93b4                	0x93b4
  10238e:	0000                	unimp
  102390:	7982                	flw	fs3,32(sp)
  102392:	0000                	unimp
  102394:	9772                	add	a4,a4,t3
  102396:	0000                	unimp
  102398:	7d7c                	flw	fa5,124(a0)
  10239a:	0000                	unimp
  10239c:	9b6c                	0x9b6c
  10239e:	0000                	unimp
  1023a0:	77bc                	flw	fa5,104(a5)
  1023a2:	0000                	unimp
  1023a4:	95ac                	0x95ac
  1023a6:	0000                	unimp
  1023a8:	7242                	flw	ft4,48(sp)
  1023aa:	0000                	unimp
  1023ac:	9032                	c.add	zero,a2
  1023ae:	0000                	unimp
  1023b0:	75c4                	flw	fs1,44(a1)
  1023b2:	0000                	unimp
  1023b4:	93b4                	0x93b4
  1023b6:	0000                	unimp
  1023b8:	7982                	flw	fs3,32(sp)
  1023ba:	0000                	unimp
  1023bc:	9772                	add	a4,a4,t3
  1023be:	0000                	unimp
  1023c0:	7d7c                	flw	fa5,124(a0)
  1023c2:	0000                	unimp
  1023c4:	9b6c                	0x9b6c
  1023c6:	0000                	unimp
  1023c8:	77bc                	flw	fa5,104(a5)
  1023ca:	0000                	unimp
  1023cc:	95ac                	0x95ac
  1023ce:	0000                	unimp
  1023d0:	7242                	flw	ft4,48(sp)
  1023d2:	0000                	unimp
  1023d4:	9032                	c.add	zero,a2
  1023d6:	0000                	unimp
  1023d8:	75c4                	flw	fs1,44(a1)
  1023da:	0000                	unimp
  1023dc:	93b4                	0x93b4
  1023de:	0000                	unimp
  1023e0:	7982                	flw	fs3,32(sp)
  1023e2:	0000                	unimp
  1023e4:	9772                	add	a4,a4,t3
  1023e6:	0000                	unimp
  1023e8:	7d7c                	flw	fa5,124(a0)
  1023ea:	0000                	unimp
  1023ec:	9b6c                	0x9b6c
  1023ee:	0000                	unimp
  1023f0:	77bc                	flw	fa5,104(a5)
  1023f2:	0000                	unimp
  1023f4:	95ac                	0x95ac
  1023f6:	0000                	unimp
  1023f8:	7242                	flw	ft4,48(sp)
  1023fa:	0000                	unimp
  1023fc:	9032                	c.add	zero,a2
  1023fe:	0000                	unimp
  102400:	8182                	jr	gp
  102402:	0000                	unimp
  102404:	a372                	fsd	ft8,384(sp)
  102406:	0000                	unimp
  102408:	8584                	0x8584
  10240a:	0000                	unimp
  10240c:	a774                	fsd	fa3,200(a4)
  10240e:	0000                	unimp
  102410:	89c2                	mv	s3,a6
  102412:	0000                	unimp
  102414:	abb2                	fsd	fa2,464(sp)
  102416:	0000                	unimp
  102418:	8e3c                	0x8e3c
  10241a:	0000                	unimp
  10241c:	b02c                	fsd	fa1,96(s0)
  10241e:	0000                	unimp
  102420:	87bc                	0x87bc
  102422:	0000                	unimp
  102424:	a9ac                	fsd	fa1,80(a1)
  102426:	0000                	unimp
  102428:	8182                	jr	gp
  10242a:	0000                	unimp
  10242c:	a372                	fsd	ft8,384(sp)
  10242e:	0000                	unimp
  102430:	8584                	0x8584
  102432:	0000                	unimp
  102434:	a774                	fsd	fa3,200(a4)
  102436:	0000                	unimp
  102438:	89c2                	mv	s3,a6
  10243a:	0000                	unimp
  10243c:	abb2                	fsd	fa2,464(sp)
  10243e:	0000                	unimp
  102440:	8e3c                	0x8e3c
  102442:	0000                	unimp
  102444:	b02c                	fsd	fa1,96(s0)
  102446:	0000                	unimp
  102448:	87bc                	0x87bc
  10244a:	0000                	unimp
  10244c:	a9ac                	fsd	fa1,80(a1)
  10244e:	0000                	unimp
  102450:	8182                	jr	gp
  102452:	0000                	unimp
  102454:	a372                	fsd	ft8,384(sp)
  102456:	0000                	unimp
  102458:	8584                	0x8584
  10245a:	0000                	unimp
  10245c:	a774                	fsd	fa3,200(a4)
  10245e:	0000                	unimp
  102460:	89c2                	mv	s3,a6
  102462:	0000                	unimp
  102464:	abb2                	fsd	fa2,464(sp)
  102466:	0000                	unimp
  102468:	8e3c                	0x8e3c
  10246a:	0000                	unimp
  10246c:	b02c                	fsd	fa1,96(s0)
  10246e:	0000                	unimp
  102470:	87bc                	0x87bc
  102472:	0000                	unimp
  102474:	a9ac                	fsd	fa1,80(a1)
  102476:	0000                	unimp
  102478:	8182                	jr	gp
  10247a:	0000                	unimp
  10247c:	a372                	fsd	ft8,384(sp)
  10247e:	0000                	unimp
  102480:	90c2                	add	ra,ra,a6
  102482:	0000                	unimp
  102484:	b6b2                	fsd	fa2,360(sp)
  102486:	0000                	unimp
  102488:	9544                	0x9544
  10248a:	0000                	unimp
  10248c:	bb34                	fsd	fa3,112(a4)
  10248e:	0000                	unimp
  102490:	9a02                	jalr	s4
  102492:	0000                	unimp
  102494:	bff2                	fsd	ft8,504(sp)
  102496:	0000                	unimp
  102498:	9efc                	0x9efc
  10249a:	0000                	unimp
  10249c:	c4ec                	sw	a1,76(s1)
  10249e:	0000                	unimp
  1024a0:	97bc                	0x97bc
  1024a2:	0000                	unimp
  1024a4:	bdac                	fsd	fa1,120(a1)
  1024a6:	0000                	unimp
  1024a8:	90c2                	add	ra,ra,a6
  1024aa:	0000                	unimp
  1024ac:	b6b2                	fsd	fa2,360(sp)
  1024ae:	0000                	unimp
  1024b0:	9544                	0x9544
  1024b2:	0000                	unimp
  1024b4:	bb34                	fsd	fa3,112(a4)
  1024b6:	0000                	unimp
  1024b8:	9a02                	jalr	s4
  1024ba:	0000                	unimp
  1024bc:	bff2                	fsd	ft8,504(sp)
  1024be:	0000                	unimp
  1024c0:	9efc                	0x9efc
  1024c2:	0000                	unimp
  1024c4:	c4ec                	sw	a1,76(s1)
  1024c6:	0000                	unimp
  1024c8:	97bc                	0x97bc
  1024ca:	0000                	unimp
  1024cc:	bdac                	fsd	fa1,120(a1)
  1024ce:	0000                	unimp
  1024d0:	90c2                	add	ra,ra,a6
  1024d2:	0000                	unimp
  1024d4:	b6b2                	fsd	fa2,360(sp)
  1024d6:	0000                	unimp
  1024d8:	9544                	0x9544
  1024da:	0000                	unimp
  1024dc:	bb34                	fsd	fa3,112(a4)
  1024de:	0000                	unimp
  1024e0:	9a02                	jalr	s4
  1024e2:	0000                	unimp
  1024e4:	bff2                	fsd	ft8,504(sp)
  1024e6:	0000                	unimp
  1024e8:	9efc                	0x9efc
  1024ea:	0000                	unimp
  1024ec:	c4ec                	sw	a1,76(s1)
  1024ee:	0000                	unimp
  1024f0:	97bc                	0x97bc
  1024f2:	0000                	unimp
  1024f4:	bdac                	fsd	fa1,120(a1)
  1024f6:	0000                	unimp
  1024f8:	90c2                	add	ra,ra,a6
  1024fa:	0000                	unimp
  1024fc:	b6b2                	fsd	fa2,360(sp)
  1024fe:	0000                	unimp
  102500:	a002                	fsd	ft0,0(sp)
  102502:	0000                	unimp
  102504:	c9f2                	sw	t3,208(sp)
  102506:	0000                	unimp
  102508:	a504                	fsd	fs1,8(a0)
  10250a:	0000                	unimp
  10250c:	cef4                	sw	a3,92(a3)
  10250e:	0000                	unimp
  102510:	aa42                	fsd	fa6,272(sp)
  102512:	0000                	unimp
  102514:	d432                	sw	a2,40(sp)
  102516:	0000                	unimp
  102518:	afbc                	fsd	fa5,88(a5)
  10251a:	0000                	unimp
  10251c:	d9ac                	sw	a1,112(a1)
  10251e:	0000                	unimp
  102520:	a7bc                	fsd	fa5,72(a5)
  102522:	0000                	unimp
  102524:	d1ac                	sw	a1,96(a1)
  102526:	0000                	unimp
  102528:	a002                	fsd	ft0,0(sp)
  10252a:	0000                	unimp
  10252c:	c9f2                	sw	t3,208(sp)
  10252e:	0000                	unimp
  102530:	a504                	fsd	fs1,8(a0)
  102532:	0000                	unimp
  102534:	cef4                	sw	a3,92(a3)
  102536:	0000                	unimp
  102538:	aa42                	fsd	fa6,272(sp)
  10253a:	0000                	unimp
  10253c:	d432                	sw	a2,40(sp)
  10253e:	0000                	unimp
  102540:	afbc                	fsd	fa5,88(a5)
  102542:	0000                	unimp
  102544:	d9ac                	sw	a1,112(a1)
  102546:	0000                	unimp
  102548:	a7bc                	fsd	fa5,72(a5)
  10254a:	0000                	unimp
  10254c:	d1ac                	sw	a1,96(a1)
  10254e:	0000                	unimp
  102550:	a002                	fsd	ft0,0(sp)
  102552:	0000                	unimp
  102554:	c9f2                	sw	t3,208(sp)
  102556:	0000                	unimp
  102558:	a504                	fsd	fs1,8(a0)
  10255a:	0000                	unimp
  10255c:	cef4                	sw	a3,92(a3)
  10255e:	0000                	unimp
  102560:	aa42                	fsd	fa6,272(sp)
  102562:	0000                	unimp
  102564:	d432                	sw	a2,40(sp)
  102566:	0000                	unimp
  102568:	afbc                	fsd	fa5,88(a5)
  10256a:	0000                	unimp
  10256c:	d9ac                	sw	a1,112(a1)
  10256e:	0000                	unimp
  102570:	a7bc                	fsd	fa5,72(a5)
  102572:	0000                	unimp
  102574:	d1ac                	sw	a1,96(a1)
  102576:	0000                	unimp
  102578:	a002                	fsd	ft0,0(sp)
  10257a:	0000                	unimp
  10257c:	c9f2                	sw	t3,208(sp)
  10257e:	0000                	unimp
  102580:	af42                	fsd	fa6,408(sp)
  102582:	0000                	unimp
  102584:	dd32                	sw	a2,184(sp)
  102586:	0000                	unimp
  102588:	b4c4                	fsd	fs1,168(s1)
  10258a:	0000                	unimp
  10258c:	e2b4                	fsw	fa3,64(a3)
  10258e:	0000                	unimp
  102590:	ba82                	fsd	ft0,368(sp)
  102592:	0000                	unimp
  102594:	e872                	fsw	ft8,16(sp)
  102596:	0000                	unimp
  102598:	c07c                	sw	a5,68(s0)
  10259a:	0000                	unimp
  10259c:	ee6c                	fsw	fa1,92(a2)
  10259e:	0000                	unimp
  1025a0:	b7bc                	fsd	fa5,104(a5)
  1025a2:	0000                	unimp
  1025a4:	e5ac                	fsw	fa1,72(a1)
  1025a6:	0000                	unimp
  1025a8:	af42                	fsd	fa6,408(sp)
  1025aa:	0000                	unimp
  1025ac:	dd32                	sw	a2,184(sp)
  1025ae:	0000                	unimp
  1025b0:	b4c4                	fsd	fs1,168(s1)
  1025b2:	0000                	unimp
  1025b4:	e2b4                	fsw	fa3,64(a3)
  1025b6:	0000                	unimp
  1025b8:	ba82                	fsd	ft0,368(sp)
  1025ba:	0000                	unimp
  1025bc:	e872                	fsw	ft8,16(sp)
  1025be:	0000                	unimp
  1025c0:	c07c                	sw	a5,68(s0)
  1025c2:	0000                	unimp
  1025c4:	ee6c                	fsw	fa1,92(a2)
  1025c6:	0000                	unimp
  1025c8:	b7bc                	fsd	fa5,104(a5)
  1025ca:	0000                	unimp
  1025cc:	e5ac                	fsw	fa1,72(a1)
  1025ce:	0000                	unimp
  1025d0:	af42                	fsd	fa6,408(sp)
  1025d2:	0000                	unimp
  1025d4:	dd32                	sw	a2,184(sp)
  1025d6:	0000                	unimp
  1025d8:	b4c4                	fsd	fs1,168(s1)
  1025da:	0000                	unimp
  1025dc:	e2b4                	fsw	fa3,64(a3)
  1025de:	0000                	unimp
  1025e0:	ba82                	fsd	ft0,368(sp)
  1025e2:	0000                	unimp
  1025e4:	e872                	fsw	ft8,16(sp)
  1025e6:	0000                	unimp
  1025e8:	c07c                	sw	a5,68(s0)
  1025ea:	0000                	unimp
  1025ec:	ee6c                	fsw	fa1,92(a2)
  1025ee:	0000                	unimp
  1025f0:	b7bc                	fsd	fa5,104(a5)
  1025f2:	0000                	unimp
  1025f4:	e5ac                	fsw	fa1,72(a1)
  1025f6:	0000                	unimp
  1025f8:	af42                	fsd	fa6,408(sp)
  1025fa:	0000                	unimp
  1025fc:	dd32                	sw	a2,184(sp)
  1025fe:	0000                	unimp
  102600:	be82                	fsd	ft0,376(sp)
  102602:	0000                	unimp
  102604:	f072                	fsw	ft8,32(sp)
  102606:	0000                	unimp
  102608:	c484                	sw	s1,8(s1)
  10260a:	0000                	unimp
  10260c:	f674                	fsw	fa3,108(a2)
  10260e:	0000                	unimp
  102610:	cac2                	sw	a6,84(sp)
  102612:	0000                	unimp
  102614:	fcb2                	fsw	fa2,120(sp)
  102616:	0000                	unimp
  102618:	d13c                	sw	a5,96(a0)
  10261a:	0000                	unimp
  10261c:	032c                	addi	a1,sp,392
  10261e:	0001                	nop
  102620:	c7bc                	sw	a5,72(a5)
  102622:	0000                	unimp
  102624:	f9ac                	fsw	fa1,112(a1)
  102626:	0000                	unimp
  102628:	be82                	fsd	ft0,376(sp)
  10262a:	0000                	unimp
  10262c:	f072                	fsw	ft8,32(sp)
  10262e:	0000                	unimp
  102630:	c484                	sw	s1,8(s1)
  102632:	0000                	unimp
  102634:	f674                	fsw	fa3,108(a2)
  102636:	0000                	unimp
  102638:	cac2                	sw	a6,84(sp)
  10263a:	0000                	unimp
  10263c:	fcb2                	fsw	fa2,120(sp)
  10263e:	0000                	unimp
  102640:	d13c                	sw	a5,96(a0)
  102642:	0000                	unimp
  102644:	032c                	addi	a1,sp,392
  102646:	0001                	nop
  102648:	c7bc                	sw	a5,72(a5)
  10264a:	0000                	unimp
  10264c:	f9ac                	fsw	fa1,112(a1)
  10264e:	0000                	unimp
  102650:	be82                	fsd	ft0,376(sp)
  102652:	0000                	unimp
  102654:	f072                	fsw	ft8,32(sp)
  102656:	0000                	unimp
  102658:	c484                	sw	s1,8(s1)
  10265a:	0000                	unimp
  10265c:	f674                	fsw	fa3,108(a2)
  10265e:	0000                	unimp
  102660:	cac2                	sw	a6,84(sp)
  102662:	0000                	unimp
  102664:	fcb2                	fsw	fa2,120(sp)
  102666:	0000                	unimp
  102668:	d13c                	sw	a5,96(a0)
  10266a:	0000                	unimp
  10266c:	032c                	addi	a1,sp,392
  10266e:	0001                	nop
  102670:	c7bc                	sw	a5,72(a5)
  102672:	0000                	unimp
  102674:	f9ac                	fsw	fa1,112(a1)
  102676:	0000                	unimp
  102678:	be82                	fsd	ft0,376(sp)
  10267a:	0000                	unimp
  10267c:	f072                	fsw	ft8,32(sp)
  10267e:	0000                	unimp
  102680:	cdc2                	sw	a6,216(sp)
  102682:	0000                	unimp
  102684:	03b2                	slli	t2,t2,0xc
  102686:	0001                	nop
  102688:	d444                	sw	s1,44(s0)
  10268a:	0000                	unimp
  10268c:	0a34                	addi	a3,sp,280
  10268e:	0001                	nop
  102690:	db02                	sw	zero,180(sp)
  102692:	0000                	unimp
  102694:	10f2                	slli	ra,ra,0x3c
  102696:	0001                	nop
  102698:	e1fc                	fsw	fa5,68(a1)
  10269a:	0000                	unimp
  10269c:	17ec                	addi	a1,sp,1004
  10269e:	0001                	nop
  1026a0:	d7bc                	sw	a5,104(a5)
  1026a2:	0000                	unimp
  1026a4:	0dac                	addi	a1,sp,728
  1026a6:	0001                	nop
  1026a8:	cdc2                	sw	a6,216(sp)
  1026aa:	0000                	unimp
  1026ac:	03b2                	slli	t2,t2,0xc
  1026ae:	0001                	nop
  1026b0:	d444                	sw	s1,44(s0)
  1026b2:	0000                	unimp
  1026b4:	0a34                	addi	a3,sp,280
  1026b6:	0001                	nop
  1026b8:	db02                	sw	zero,180(sp)
  1026ba:	0000                	unimp
  1026bc:	10f2                	slli	ra,ra,0x3c
  1026be:	0001                	nop
  1026c0:	e1fc                	fsw	fa5,68(a1)
  1026c2:	0000                	unimp
  1026c4:	17ec                	addi	a1,sp,1004
  1026c6:	0001                	nop
  1026c8:	d7bc                	sw	a5,104(a5)
  1026ca:	0000                	unimp
  1026cc:	0dac                	addi	a1,sp,728
  1026ce:	0001                	nop
  1026d0:	cdc2                	sw	a6,216(sp)
  1026d2:	0000                	unimp
  1026d4:	03b2                	slli	t2,t2,0xc
  1026d6:	0001                	nop
  1026d8:	d444                	sw	s1,44(s0)
  1026da:	0000                	unimp
  1026dc:	0a34                	addi	a3,sp,280
  1026de:	0001                	nop
  1026e0:	db02                	sw	zero,180(sp)
  1026e2:	0000                	unimp
  1026e4:	10f2                	slli	ra,ra,0x3c
  1026e6:	0001                	nop
  1026e8:	e1fc                	fsw	fa5,68(a1)
  1026ea:	0000                	unimp
  1026ec:	17ec                	addi	a1,sp,1004
  1026ee:	0001                	nop
  1026f0:	d7bc                	sw	a5,104(a5)
  1026f2:	0000                	unimp
  1026f4:	0dac                	addi	a1,sp,728
  1026f6:	0001                	nop
  1026f8:	cdc2                	sw	a6,216(sp)
  1026fa:	0000                	unimp
  1026fc:	03b2                	slli	t2,t2,0xc
  1026fe:	0001                	nop
  102700:	dd02                	sw	zero,184(sp)
  102702:	0000                	unimp
  102704:	16f2                	slli	a3,a3,0x3c
  102706:	0001                	nop
  102708:	e404                	fsw	fs1,8(s0)
  10270a:	0000                	unimp
  10270c:	1df4                	addi	a3,sp,764
  10270e:	0001                	nop
  102710:	eb42                	fsw	fa6,148(sp)
  102712:	0000                	unimp
  102714:	2532                	fld	fa0,264(sp)
  102716:	0001                	nop
  102718:	f2bc                	fsw	fa5,96(a3)
  10271a:	0000                	unimp
  10271c:	2cac                	fld	fa1,88(s1)
  10271e:	0001                	nop
  102720:	e7bc                	fsw	fa5,72(a5)
  102722:	0000                	unimp
  102724:	21ac                	fld	fa1,64(a1)
  102726:	0001                	nop
  102728:	dd02                	sw	zero,184(sp)
  10272a:	0000                	unimp
  10272c:	16f2                	slli	a3,a3,0x3c
  10272e:	0001                	nop
  102730:	e404                	fsw	fs1,8(s0)
  102732:	0000                	unimp
  102734:	1df4                	addi	a3,sp,764
  102736:	0001                	nop
  102738:	eb42                	fsw	fa6,148(sp)
  10273a:	0000                	unimp
  10273c:	2532                	fld	fa0,264(sp)
  10273e:	0001                	nop
  102740:	f2bc                	fsw	fa5,96(a3)
  102742:	0000                	unimp
  102744:	2cac                	fld	fa1,88(s1)
  102746:	0001                	nop
  102748:	e7bc                	fsw	fa5,72(a5)
  10274a:	0000                	unimp
  10274c:	21ac                	fld	fa1,64(a1)
  10274e:	0001                	nop
  102750:	dd02                	sw	zero,184(sp)
  102752:	0000                	unimp
  102754:	16f2                	slli	a3,a3,0x3c
  102756:	0001                	nop
  102758:	e404                	fsw	fs1,8(s0)
  10275a:	0000                	unimp
  10275c:	1df4                	addi	a3,sp,764
  10275e:	0001                	nop
  102760:	eb42                	fsw	fa6,148(sp)
  102762:	0000                	unimp
  102764:	2532                	fld	fa0,264(sp)
  102766:	0001                	nop
  102768:	f2bc                	fsw	fa5,96(a3)
  10276a:	0000                	unimp
  10276c:	2cac                	fld	fa1,88(s1)
  10276e:	0001                	nop
  102770:	e7bc                	fsw	fa5,72(a5)
  102772:	0000                	unimp
  102774:	21ac                	fld	fa1,64(a1)
  102776:	0001                	nop
  102778:	dd02                	sw	zero,184(sp)
  10277a:	0000                	unimp
  10277c:	16f2                	slli	a3,a3,0x3c
  10277e:	0001                	nop
  102780:	ec42                	fsw	fa6,24(sp)
  102782:	0000                	unimp
  102784:	2a32                	fld	fs4,264(sp)
  102786:	0001                	nop
  102788:	f3c4                	fsw	fs1,36(a5)
  10278a:	0000                	unimp
  10278c:	31b4                	fld	fa3,96(a1)
  10278e:	0001                	nop
  102790:	fb82                	fsw	ft0,244(sp)
  102792:	0000                	unimp
  102794:	3972                	fld	fs2,312(sp)
  102796:	0001                	nop
  102798:	037c                	addi	a5,sp,396
  10279a:	0001                	nop
  10279c:	416c                	lw	a1,68(a0)
  10279e:	0001                	nop
  1027a0:	f7bc                	fsw	fa5,104(a5)
  1027a2:	0000                	unimp
  1027a4:	35ac                	fld	fa1,104(a1)
  1027a6:	0001                	nop
  1027a8:	ec42                	fsw	fa6,24(sp)
  1027aa:	0000                	unimp
  1027ac:	2a32                	fld	fs4,264(sp)
  1027ae:	0001                	nop
  1027b0:	f3c4                	fsw	fs1,36(a5)
  1027b2:	0000                	unimp
  1027b4:	31b4                	fld	fa3,96(a1)
  1027b6:	0001                	nop
  1027b8:	fb82                	fsw	ft0,244(sp)
  1027ba:	0000                	unimp
  1027bc:	3972                	fld	fs2,312(sp)
  1027be:	0001                	nop
  1027c0:	037c                	addi	a5,sp,396
  1027c2:	0001                	nop
  1027c4:	416c                	lw	a1,68(a0)
  1027c6:	0001                	nop
  1027c8:	f7bc                	fsw	fa5,104(a5)
  1027ca:	0000                	unimp
  1027cc:	35ac                	fld	fa1,104(a1)
  1027ce:	0001                	nop
  1027d0:	ec42                	fsw	fa6,24(sp)
  1027d2:	0000                	unimp
  1027d4:	2a32                	fld	fs4,264(sp)
  1027d6:	0001                	nop
  1027d8:	f3c4                	fsw	fs1,36(a5)
  1027da:	0000                	unimp
  1027dc:	31b4                	fld	fa3,96(a1)
  1027de:	0001                	nop
  1027e0:	fb82                	fsw	ft0,244(sp)
  1027e2:	0000                	unimp
  1027e4:	3972                	fld	fs2,312(sp)
  1027e6:	0001                	nop
  1027e8:	037c                	addi	a5,sp,396
  1027ea:	0001                	nop
  1027ec:	416c                	lw	a1,68(a0)
  1027ee:	0001                	nop
  1027f0:	f7bc                	fsw	fa5,104(a5)
  1027f2:	0000                	unimp
  1027f4:	35ac                	fld	fa1,104(a1)
  1027f6:	0001                	nop
  1027f8:	ec42                	fsw	fa6,24(sp)
  1027fa:	0000                	unimp
  1027fc:	2a32                	fld	fs4,264(sp)
  1027fe:	0001                	nop
  102800:	fb82                	fsw	ft0,244(sp)
  102802:	0000                	unimp
  102804:	3d72                	fld	fs10,312(sp)
  102806:	0001                	nop
  102808:	0384                	addi	s1,sp,448
  10280a:	0001                	nop
  10280c:	4574                	lw	a3,76(a0)
  10280e:	0001                	nop
  102810:	0bc2                	slli	s7,s7,0x10
  102812:	0001                	nop
  102814:	4db2                	lw	s11,12(sp)
  102816:	0001                	nop
  102818:	143c                	addi	a5,sp,552
  10281a:	0001                	nop
  10281c:	562c                	lw	a1,104(a2)
  10281e:	0001                	nop
  102820:	07bc                	addi	a5,sp,968
  102822:	0001                	nop
  102824:	49ac                	lw	a1,80(a1)
  102826:	0001                	nop
  102828:	fb82                	fsw	ft0,244(sp)
  10282a:	0000                	unimp
  10282c:	3d72                	fld	fs10,312(sp)
  10282e:	0001                	nop
  102830:	0384                	addi	s1,sp,448
  102832:	0001                	nop
  102834:	4574                	lw	a3,76(a0)
  102836:	0001                	nop
  102838:	0bc2                	slli	s7,s7,0x10
  10283a:	0001                	nop
  10283c:	4db2                	lw	s11,12(sp)
  10283e:	0001                	nop
  102840:	143c                	addi	a5,sp,552
  102842:	0001                	nop
  102844:	562c                	lw	a1,104(a2)
  102846:	0001                	nop
  102848:	07bc                	addi	a5,sp,968
  10284a:	0001                	nop
  10284c:	49ac                	lw	a1,80(a1)
  10284e:	0001                	nop
  102850:	fb82                	fsw	ft0,244(sp)
  102852:	0000                	unimp
  102854:	3d72                	fld	fs10,312(sp)
  102856:	0001                	nop
  102858:	0384                	addi	s1,sp,448
  10285a:	0001                	nop
  10285c:	4574                	lw	a3,76(a0)
  10285e:	0001                	nop
  102860:	0bc2                	slli	s7,s7,0x10
  102862:	0001                	nop
  102864:	4db2                	lw	s11,12(sp)
  102866:	0001                	nop
  102868:	143c                	addi	a5,sp,552
  10286a:	0001                	nop
  10286c:	562c                	lw	a1,104(a2)
  10286e:	0001                	nop
  102870:	07bc                	addi	a5,sp,968
  102872:	0001                	nop
  102874:	49ac                	lw	a1,80(a1)
  102876:	0001                	nop
  102878:	fb82                	fsw	ft0,244(sp)
  10287a:	0000                	unimp
  10287c:	3d72                	fld	fs10,312(sp)
  10287e:	0001                	nop
  102880:	0ac2                	slli	s5,s5,0x10
  102882:	0001                	nop
  102884:	50b2                	lw	ra,44(sp)
  102886:	0001                	nop
  102888:	1344                	addi	s1,sp,420
  10288a:	0001                	nop
  10288c:	5934                	lw	a3,112(a0)
  10288e:	0001                	nop
  102890:	1c02                	slli	s8,s8,0x20
  102892:	0001                	nop
  102894:	61f2                	flw	ft3,28(sp)
  102896:	0001                	nop
  102898:	24fc                	fld	fa5,200(s1)
  10289a:	0001                	nop
  10289c:	6aec                	flw	fa1,84(a3)
  10289e:	0001                	nop
  1028a0:	17bc                	addi	a5,sp,1000
  1028a2:	0001                	nop
  1028a4:	5dac                	lw	a1,120(a1)
  1028a6:	0001                	nop
  1028a8:	0ac2                	slli	s5,s5,0x10
  1028aa:	0001                	nop
  1028ac:	50b2                	lw	ra,44(sp)
  1028ae:	0001                	nop
  1028b0:	1344                	addi	s1,sp,420
  1028b2:	0001                	nop
  1028b4:	5934                	lw	a3,112(a0)
  1028b6:	0001                	nop
  1028b8:	1c02                	slli	s8,s8,0x20
  1028ba:	0001                	nop
  1028bc:	61f2                	flw	ft3,28(sp)
  1028be:	0001                	nop
  1028c0:	24fc                	fld	fa5,200(s1)
  1028c2:	0001                	nop
  1028c4:	6aec                	flw	fa1,84(a3)
  1028c6:	0001                	nop
  1028c8:	17bc                	addi	a5,sp,1000
  1028ca:	0001                	nop
  1028cc:	5dac                	lw	a1,120(a1)
  1028ce:	0001                	nop
  1028d0:	0ac2                	slli	s5,s5,0x10
  1028d2:	0001                	nop
  1028d4:	50b2                	lw	ra,44(sp)
  1028d6:	0001                	nop
  1028d8:	1344                	addi	s1,sp,420
  1028da:	0001                	nop
  1028dc:	5934                	lw	a3,112(a0)
  1028de:	0001                	nop
  1028e0:	1c02                	slli	s8,s8,0x20
  1028e2:	0001                	nop
  1028e4:	61f2                	flw	ft3,28(sp)
  1028e6:	0001                	nop
  1028e8:	24fc                	fld	fa5,200(s1)
  1028ea:	0001                	nop
  1028ec:	6aec                	flw	fa1,84(a3)
  1028ee:	0001                	nop
  1028f0:	17bc                	addi	a5,sp,1000
  1028f2:	0001                	nop
  1028f4:	5dac                	lw	a1,120(a1)
  1028f6:	0001                	nop
  1028f8:	0ac2                	slli	s5,s5,0x10
  1028fa:	0001                	nop
  1028fc:	50b2                	lw	ra,44(sp)
  1028fe:	0001                	nop
  102900:	1a02                	slli	s4,s4,0x20
  102902:	0001                	nop
  102904:	63f2                	flw	ft7,28(sp)
  102906:	0001                	nop
  102908:	2304                	fld	fs1,0(a4)
  10290a:	0001                	nop
  10290c:	6cf4                	flw	fa3,92(s1)
  10290e:	0001                	nop
  102910:	2c42                	fld	fs8,16(sp)
  102912:	0001                	nop
  102914:	7632                	flw	fa2,44(sp)
  102916:	0001                	nop
  102918:	35bc                	fld	fa5,104(a1)
  10291a:	0001                	nop
  10291c:	7fac                	flw	fa1,120(a5)
  10291e:	0001                	nop
  102920:	27bc                	fld	fa5,72(a5)
  102922:	0001                	nop
  102924:	71ac                	flw	fa1,96(a1)
  102926:	0001                	nop
  102928:	1a02                	slli	s4,s4,0x20
  10292a:	0001                	nop
  10292c:	63f2                	flw	ft7,28(sp)
  10292e:	0001                	nop
  102930:	2304                	fld	fs1,0(a4)
  102932:	0001                	nop
  102934:	6cf4                	flw	fa3,92(s1)
  102936:	0001                	nop
  102938:	2c42                	fld	fs8,16(sp)
  10293a:	0001                	nop
  10293c:	7632                	flw	fa2,44(sp)
  10293e:	0001                	nop
  102940:	35bc                	fld	fa5,104(a1)
  102942:	0001                	nop
  102944:	7fac                	flw	fa1,120(a5)
  102946:	0001                	nop
  102948:	27bc                	fld	fa5,72(a5)
  10294a:	0001                	nop
  10294c:	71ac                	flw	fa1,96(a1)
  10294e:	0001                	nop
  102950:	1a02                	slli	s4,s4,0x20
  102952:	0001                	nop
  102954:	63f2                	flw	ft7,28(sp)
  102956:	0001                	nop
  102958:	2304                	fld	fs1,0(a4)
  10295a:	0001                	nop
  10295c:	6cf4                	flw	fa3,92(s1)
  10295e:	0001                	nop
  102960:	2c42                	fld	fs8,16(sp)
  102962:	0001                	nop
  102964:	7632                	flw	fa2,44(sp)
  102966:	0001                	nop
  102968:	35bc                	fld	fa5,104(a1)
  10296a:	0001                	nop
  10296c:	7fac                	flw	fa1,120(a5)
  10296e:	0001                	nop
  102970:	27bc                	fld	fa5,72(a5)
  102972:	0001                	nop
  102974:	71ac                	flw	fa1,96(a1)
  102976:	0001                	nop
  102978:	1a02                	slli	s4,s4,0x20
  10297a:	0001                	nop
  10297c:	63f2                	flw	ft7,28(sp)
  10297e:	0001                	nop
  102980:	2942                	fld	fs2,16(sp)
  102982:	0001                	nop
  102984:	7732                	flw	fa4,44(sp)
  102986:	0001                	nop
  102988:	32c4                	fld	fs1,160(a3)
  10298a:	0001                	nop
  10298c:	80b4                	0x80b4
  10298e:	0001                	nop
  102990:	3c82                	fld	fs9,32(sp)
  102992:	0001                	nop
  102994:	8a72                	mv	s4,t3
  102996:	0001                	nop
  102998:	467c                	lw	a5,76(a2)
  10299a:	0001                	nop
  10299c:	946c                	0x946c
  10299e:	0001                	nop
  1029a0:	37bc                	fld	fa5,104(a5)
  1029a2:	0001                	nop
  1029a4:	85ac                	0x85ac
  1029a6:	0001                	nop
  1029a8:	2942                	fld	fs2,16(sp)
  1029aa:	0001                	nop
  1029ac:	7732                	flw	fa4,44(sp)
  1029ae:	0001                	nop
  1029b0:	32c4                	fld	fs1,160(a3)
  1029b2:	0001                	nop
  1029b4:	80b4                	0x80b4
  1029b6:	0001                	nop
  1029b8:	3c82                	fld	fs9,32(sp)
  1029ba:	0001                	nop
  1029bc:	8a72                	mv	s4,t3
  1029be:	0001                	nop
  1029c0:	467c                	lw	a5,76(a2)
  1029c2:	0001                	nop
  1029c4:	946c                	0x946c
  1029c6:	0001                	nop
  1029c8:	37bc                	fld	fa5,104(a5)
  1029ca:	0001                	nop
  1029cc:	85ac                	0x85ac
  1029ce:	0001                	nop
  1029d0:	2942                	fld	fs2,16(sp)
  1029d2:	0001                	nop
  1029d4:	7732                	flw	fa4,44(sp)
  1029d6:	0001                	nop
  1029d8:	32c4                	fld	fs1,160(a3)
  1029da:	0001                	nop
  1029dc:	80b4                	0x80b4
  1029de:	0001                	nop
  1029e0:	3c82                	fld	fs9,32(sp)
  1029e2:	0001                	nop
  1029e4:	8a72                	mv	s4,t3
  1029e6:	0001                	nop
  1029e8:	467c                	lw	a5,76(a2)
  1029ea:	0001                	nop
  1029ec:	946c                	0x946c
  1029ee:	0001                	nop
  1029f0:	37bc                	fld	fa5,104(a5)
  1029f2:	0001                	nop
  1029f4:	85ac                	0x85ac
  1029f6:	0001                	nop
  1029f8:	2942                	fld	fs2,16(sp)
  1029fa:	0001                	nop
  1029fc:	7732                	flw	fa4,44(sp)
  1029fe:	0001                	nop
  102a00:	3882                	fld	fa7,32(sp)
  102a02:	0001                	nop
  102a04:	8a72                	mv	s4,t3
  102a06:	0001                	nop
  102a08:	4284                	lw	s1,0(a3)
  102a0a:	0001                	nop
  102a0c:	9474                	0x9474
  102a0e:	0001                	nop
  102a10:	4cc2                	lw	s9,16(sp)
  102a12:	0001                	nop
  102a14:	9eb2                	add	t4,t4,a2
  102a16:	0001                	nop
  102a18:	573c                	lw	a5,104(a4)
  102a1a:	0001                	nop
  102a1c:	a92c                	fsd	fa1,80(a0)
  102a1e:	0001                	nop
  102a20:	47bc                	lw	a5,72(a5)
  102a22:	0001                	nop
  102a24:	99ac                	0x99ac
  102a26:	0001                	nop
  102a28:	3882                	fld	fa7,32(sp)
  102a2a:	0001                	nop
  102a2c:	8a72                	mv	s4,t3
  102a2e:	0001                	nop
  102a30:	4284                	lw	s1,0(a3)
  102a32:	0001                	nop
  102a34:	9474                	0x9474
  102a36:	0001                	nop
  102a38:	4cc2                	lw	s9,16(sp)
  102a3a:	0001                	nop
  102a3c:	9eb2                	add	t4,t4,a2
  102a3e:	0001                	nop
  102a40:	573c                	lw	a5,104(a4)
  102a42:	0001                	nop
  102a44:	a92c                	fsd	fa1,80(a0)
  102a46:	0001                	nop
  102a48:	47bc                	lw	a5,72(a5)
  102a4a:	0001                	nop
  102a4c:	99ac                	0x99ac
  102a4e:	0001                	nop
  102a50:	3882                	fld	fa7,32(sp)
  102a52:	0001                	nop
  102a54:	8a72                	mv	s4,t3
  102a56:	0001                	nop
  102a58:	4284                	lw	s1,0(a3)
  102a5a:	0001                	nop
  102a5c:	9474                	0x9474
  102a5e:	0001                	nop
  102a60:	4cc2                	lw	s9,16(sp)
  102a62:	0001                	nop
  102a64:	9eb2                	add	t4,t4,a2
  102a66:	0001                	nop
  102a68:	573c                	lw	a5,104(a4)
  102a6a:	0001                	nop
  102a6c:	a92c                	fsd	fa1,80(a0)
  102a6e:	0001                	nop
  102a70:	47bc                	lw	a5,72(a5)
  102a72:	0001                	nop
  102a74:	99ac                	0x99ac
  102a76:	0001                	nop
  102a78:	3882                	fld	fa7,32(sp)
  102a7a:	0001                	nop
  102a7c:	8a72                	mv	s4,t3
  102a7e:	0001                	nop
  102a80:	47c2                	lw	a5,16(sp)
  102a82:	0001                	nop
  102a84:	9db2                	add	s11,s11,a2
  102a86:	0001                	nop
  102a88:	5244                	lw	s1,36(a2)
  102a8a:	0001                	nop
  102a8c:	a834                	fsd	fa3,80(s0)
  102a8e:	0001                	nop
  102a90:	5d02                	lw	s10,32(sp)
  102a92:	0001                	nop
  102a94:	b2f2                	fsd	ft8,352(sp)
  102a96:	0001                	nop
  102a98:	67fc                	flw	fa5,76(a5)
  102a9a:	0001                	nop
  102a9c:	bdec                	fsd	fa1,248(a1)
  102a9e:	0001                	nop
  102aa0:	57bc                	lw	a5,104(a5)
  102aa2:	0001                	nop
  102aa4:	adac                	fsd	fa1,88(a1)
  102aa6:	0001                	nop
  102aa8:	47c2                	lw	a5,16(sp)
  102aaa:	0001                	nop
  102aac:	9db2                	add	s11,s11,a2
  102aae:	0001                	nop
  102ab0:	5244                	lw	s1,36(a2)
  102ab2:	0001                	nop
  102ab4:	a834                	fsd	fa3,80(s0)
  102ab6:	0001                	nop
  102ab8:	5d02                	lw	s10,32(sp)
  102aba:	0001                	nop
  102abc:	b2f2                	fsd	ft8,352(sp)
  102abe:	0001                	nop
  102ac0:	67fc                	flw	fa5,76(a5)
  102ac2:	0001                	nop
  102ac4:	bdec                	fsd	fa1,248(a1)
  102ac6:	0001                	nop
  102ac8:	57bc                	lw	a5,104(a5)
  102aca:	0001                	nop
  102acc:	adac                	fsd	fa1,88(a1)
  102ace:	0001                	nop
  102ad0:	47c2                	lw	a5,16(sp)
  102ad2:	0001                	nop
  102ad4:	9db2                	add	s11,s11,a2
  102ad6:	0001                	nop
  102ad8:	5244                	lw	s1,36(a2)
  102ada:	0001                	nop
  102adc:	a834                	fsd	fa3,80(s0)
  102ade:	0001                	nop
  102ae0:	5d02                	lw	s10,32(sp)
  102ae2:	0001                	nop
  102ae4:	b2f2                	fsd	ft8,352(sp)
  102ae6:	0001                	nop
  102ae8:	67fc                	flw	fa5,76(a5)
  102aea:	0001                	nop
  102aec:	bdec                	fsd	fa1,248(a1)
  102aee:	0001                	nop
  102af0:	57bc                	lw	a5,104(a5)
  102af2:	0001                	nop
  102af4:	adac                	fsd	fa1,88(a1)
  102af6:	0001                	nop
  102af8:	47c2                	lw	a5,16(sp)
  102afa:	0001                	nop
  102afc:	9db2                	add	s11,s11,a2
  102afe:	0001                	nop
  102b00:	5702                	lw	a4,32(sp)
  102b02:	0001                	nop
  102b04:	b0f2                	fsd	ft8,96(sp)
  102b06:	0001                	nop
  102b08:	6204                	flw	fs1,0(a2)
  102b0a:	0001                	nop
  102b0c:	bbf4                	fsd	fa3,240(a5)
  102b0e:	0001                	nop
  102b10:	6d42                	flw	fs10,16(sp)
  102b12:	0001                	nop
  102b14:	c732                	sw	a2,140(sp)
  102b16:	0001                	nop
  102b18:	78bc                	flw	fa5,112(s1)
  102b1a:	0001                	nop
  102b1c:	d2ac                	sw	a1,96(a3)
  102b1e:	0001                	nop
  102b20:	67bc                	flw	fa5,72(a5)
  102b22:	0001                	nop
  102b24:	c1ac                	sw	a1,64(a1)
  102b26:	0001                	nop
  102b28:	5702                	lw	a4,32(sp)
  102b2a:	0001                	nop
  102b2c:	b0f2                	fsd	ft8,96(sp)
  102b2e:	0001                	nop
  102b30:	6204                	flw	fs1,0(a2)
  102b32:	0001                	nop
  102b34:	bbf4                	fsd	fa3,240(a5)
  102b36:	0001                	nop
  102b38:	6d42                	flw	fs10,16(sp)
  102b3a:	0001                	nop
  102b3c:	c732                	sw	a2,140(sp)
  102b3e:	0001                	nop
  102b40:	78bc                	flw	fa5,112(s1)
  102b42:	0001                	nop
  102b44:	d2ac                	sw	a1,96(a3)
  102b46:	0001                	nop
  102b48:	67bc                	flw	fa5,72(a5)
  102b4a:	0001                	nop
  102b4c:	c1ac                	sw	a1,64(a1)
  102b4e:	0001                	nop
  102b50:	5702                	lw	a4,32(sp)
  102b52:	0001                	nop
  102b54:	b0f2                	fsd	ft8,96(sp)
  102b56:	0001                	nop
  102b58:	6204                	flw	fs1,0(a2)
  102b5a:	0001                	nop
  102b5c:	bbf4                	fsd	fa3,240(a5)
  102b5e:	0001                	nop
  102b60:	6d42                	flw	fs10,16(sp)
  102b62:	0001                	nop
  102b64:	c732                	sw	a2,140(sp)
  102b66:	0001                	nop
  102b68:	78bc                	flw	fa5,112(s1)
  102b6a:	0001                	nop
  102b6c:	d2ac                	sw	a1,96(a3)
  102b6e:	0001                	nop
  102b70:	67bc                	flw	fa5,72(a5)
  102b72:	0001                	nop
  102b74:	c1ac                	sw	a1,64(a1)
  102b76:	0001                	nop
  102b78:	5702                	lw	a4,32(sp)
  102b7a:	0001                	nop
  102b7c:	b0f2                	fsd	ft8,96(sp)
  102b7e:	0001                	nop
  102b80:	6642                	flw	fa2,16(sp)
  102b82:	0001                	nop
  102b84:	c432                	sw	a2,8(sp)
  102b86:	0001                	nop
  102b88:	71c4                	flw	fs1,36(a1)
  102b8a:	0001                	nop
  102b8c:	cfb4                	sw	a3,88(a5)
  102b8e:	0001                	nop
  102b90:	7d82                	flw	fs11,32(sp)
  102b92:	0001                	nop
  102b94:	db72                	sw	t3,180(sp)
  102b96:	0001                	nop
  102b98:	897c                	0x897c
  102b9a:	0001                	nop
  102b9c:	e76c                	fsw	fa1,76(a4)
  102b9e:	0001                	nop
  102ba0:	77bc                	flw	fa5,104(a5)
  102ba2:	0001                	nop
  102ba4:	d5ac                	sw	a1,104(a1)
  102ba6:	0001                	nop
  102ba8:	6642                	flw	fa2,16(sp)
  102baa:	0001                	nop
  102bac:	c432                	sw	a2,8(sp)
  102bae:	0001                	nop
  102bb0:	71c4                	flw	fs1,36(a1)
  102bb2:	0001                	nop
  102bb4:	cfb4                	sw	a3,88(a5)
  102bb6:	0001                	nop
  102bb8:	7d82                	flw	fs11,32(sp)
  102bba:	0001                	nop
  102bbc:	db72                	sw	t3,180(sp)
  102bbe:	0001                	nop
  102bc0:	897c                	0x897c
  102bc2:	0001                	nop
  102bc4:	e76c                	fsw	fa1,76(a4)
  102bc6:	0001                	nop
  102bc8:	77bc                	flw	fa5,104(a5)
  102bca:	0001                	nop
  102bcc:	d5ac                	sw	a1,104(a1)
  102bce:	0001                	nop
  102bd0:	6642                	flw	fa2,16(sp)
  102bd2:	0001                	nop
  102bd4:	c432                	sw	a2,8(sp)
  102bd6:	0001                	nop
  102bd8:	71c4                	flw	fs1,36(a1)
  102bda:	0001                	nop
  102bdc:	cfb4                	sw	a3,88(a5)
  102bde:	0001                	nop
  102be0:	7d82                	flw	fs11,32(sp)
  102be2:	0001                	nop
  102be4:	db72                	sw	t3,180(sp)
  102be6:	0001                	nop
  102be8:	897c                	0x897c
  102bea:	0001                	nop
  102bec:	e76c                	fsw	fa1,76(a4)
  102bee:	0001                	nop
  102bf0:	77bc                	flw	fa5,104(a5)
  102bf2:	0001                	nop
  102bf4:	d5ac                	sw	a1,104(a1)
  102bf6:	0001                	nop
  102bf8:	6642                	flw	fa2,16(sp)
  102bfa:	0001                	nop
  102bfc:	c432                	sw	a2,8(sp)
  102bfe:	0001                	nop
  102c00:	7582                	flw	fa1,32(sp)
  102c02:	0001                	nop
  102c04:	d772                	sw	t3,172(sp)
  102c06:	0001                	nop
  102c08:	8184                	0x8184
  102c0a:	0001                	nop
  102c0c:	e374                	fsw	fa3,68(a4)
  102c0e:	0001                	nop
  102c10:	8dc2                	mv	s11,a6
  102c12:	0001                	nop
  102c14:	efb2                	fsw	fa2,220(sp)
  102c16:	0001                	nop
  102c18:	9a3c                	0x9a3c
  102c1a:	0001                	nop
  102c1c:	fc2c                	fsw	fa1,120(s0)
  102c1e:	0001                	nop
  102c20:	87bc                	0x87bc
  102c22:	0001                	nop
  102c24:	e9ac                	fsw	fa1,80(a1)
  102c26:	0001                	nop
  102c28:	7582                	flw	fa1,32(sp)
  102c2a:	0001                	nop
  102c2c:	d772                	sw	t3,172(sp)
  102c2e:	0001                	nop
  102c30:	8184                	0x8184
  102c32:	0001                	nop
  102c34:	e374                	fsw	fa3,68(a4)
  102c36:	0001                	nop
  102c38:	8dc2                	mv	s11,a6
  102c3a:	0001                	nop
  102c3c:	efb2                	fsw	fa2,220(sp)
  102c3e:	0001                	nop
  102c40:	9a3c                	0x9a3c
  102c42:	0001                	nop
  102c44:	fc2c                	fsw	fa1,120(s0)
  102c46:	0001                	nop
  102c48:	87bc                	0x87bc
  102c4a:	0001                	nop
  102c4c:	e9ac                	fsw	fa1,80(a1)
  102c4e:	0001                	nop
  102c50:	7582                	flw	fa1,32(sp)
  102c52:	0001                	nop
  102c54:	d772                	sw	t3,172(sp)
  102c56:	0001                	nop
  102c58:	8184                	0x8184
  102c5a:	0001                	nop
  102c5c:	e374                	fsw	fa3,68(a4)
  102c5e:	0001                	nop
  102c60:	8dc2                	mv	s11,a6
  102c62:	0001                	nop
  102c64:	efb2                	fsw	fa2,220(sp)
  102c66:	0001                	nop
  102c68:	9a3c                	0x9a3c
  102c6a:	0001                	nop
  102c6c:	fc2c                	fsw	fa1,120(s0)
  102c6e:	0001                	nop
  102c70:	87bc                	0x87bc
  102c72:	0001                	nop
  102c74:	e9ac                	fsw	fa1,80(a1)
  102c76:	0001                	nop
  102c78:	7582                	flw	fa1,32(sp)
  102c7a:	0001                	nop
  102c7c:	d772                	sw	t3,172(sp)
  102c7e:	0001                	nop
  102c80:	84c2                	mv	s1,a6
  102c82:	0001                	nop
  102c84:	eab2                	fsw	fa2,84(sp)
  102c86:	0001                	nop
  102c88:	9144                	0x9144
  102c8a:	0001                	nop
  102c8c:	f734                	fsw	fa3,104(a4)
  102c8e:	0001                	nop
  102c90:	9e02                	jalr	t3
  102c92:	0001                	nop
  102c94:	03f2                	slli	t2,t2,0x1c
  102c96:	0002                	c.slli64	zero
  102c98:	aafc                	fsd	fa5,208(a3)
  102c9a:	0001                	nop
  102c9c:	10ec                	addi	a1,sp,108
  102c9e:	0002                	c.slli64	zero
  102ca0:	97bc                	0x97bc
  102ca2:	0001                	nop
  102ca4:	fdac                	fsw	fa1,120(a1)
  102ca6:	0001                	nop
  102ca8:	84c2                	mv	s1,a6
  102caa:	0001                	nop
  102cac:	eab2                	fsw	fa2,84(sp)
  102cae:	0001                	nop
  102cb0:	9144                	0x9144
  102cb2:	0001                	nop
  102cb4:	f734                	fsw	fa3,104(a4)
  102cb6:	0001                	nop
  102cb8:	9e02                	jalr	t3
  102cba:	0001                	nop
  102cbc:	03f2                	slli	t2,t2,0x1c
  102cbe:	0002                	c.slli64	zero
  102cc0:	aafc                	fsd	fa5,208(a3)
  102cc2:	0001                	nop
  102cc4:	10ec                	addi	a1,sp,108
  102cc6:	0002                	c.slli64	zero
  102cc8:	97bc                	0x97bc
  102cca:	0001                	nop
  102ccc:	fdac                	fsw	fa1,120(a1)
  102cce:	0001                	nop
  102cd0:	84c2                	mv	s1,a6
  102cd2:	0001                	nop
  102cd4:	eab2                	fsw	fa2,84(sp)
  102cd6:	0001                	nop
  102cd8:	9144                	0x9144
  102cda:	0001                	nop
  102cdc:	f734                	fsw	fa3,104(a4)
  102cde:	0001                	nop
  102ce0:	9e02                	jalr	t3
  102ce2:	0001                	nop
  102ce4:	03f2                	slli	t2,t2,0x1c
  102ce6:	0002                	c.slli64	zero
  102ce8:	aafc                	fsd	fa5,208(a3)
  102cea:	0001                	nop
  102cec:	10ec                	addi	a1,sp,108
  102cee:	0002                	c.slli64	zero
  102cf0:	97bc                	0x97bc
  102cf2:	0001                	nop
  102cf4:	fdac                	fsw	fa1,120(a1)
  102cf6:	0001                	nop
  102cf8:	84c2                	mv	s1,a6
  102cfa:	0001                	nop
  102cfc:	eab2                	fsw	fa2,84(sp)
  102cfe:	0001                	nop
  102d00:	9402                	jalr	s0
  102d02:	0001                	nop
  102d04:	fdf2                	fsw	ft8,248(sp)
  102d06:	0001                	nop
  102d08:	a104                	fsd	fs1,0(a0)
  102d0a:	0001                	nop
  102d0c:	0af4                	addi	a3,sp,348
  102d0e:	0002                	c.slli64	zero
  102d10:	ae42                	fsd	fa6,280(sp)
  102d12:	0001                	nop
  102d14:	1832                	slli	a6,a6,0x2c
  102d16:	0002                	c.slli64	zero
  102d18:	bbbc                	fsd	fa5,112(a5)
  102d1a:	0001                	nop
  102d1c:	25ac                	fld	fa1,72(a1)
  102d1e:	0002                	c.slli64	zero
  102d20:	a7bc                	fsd	fa5,72(a5)
  102d22:	0001                	nop
  102d24:	11ac                	addi	a1,sp,232
  102d26:	0002                	c.slli64	zero
  102d28:	9402                	jalr	s0
  102d2a:	0001                	nop
  102d2c:	fdf2                	fsw	ft8,248(sp)
  102d2e:	0001                	nop
  102d30:	a104                	fsd	fs1,0(a0)
  102d32:	0001                	nop
  102d34:	0af4                	addi	a3,sp,348
  102d36:	0002                	c.slli64	zero
  102d38:	ae42                	fsd	fa6,280(sp)
  102d3a:	0001                	nop
  102d3c:	1832                	slli	a6,a6,0x2c
  102d3e:	0002                	c.slli64	zero
  102d40:	bbbc                	fsd	fa5,112(a5)
  102d42:	0001                	nop
  102d44:	25ac                	fld	fa1,72(a1)
  102d46:	0002                	c.slli64	zero
  102d48:	a7bc                	fsd	fa5,72(a5)
  102d4a:	0001                	nop
  102d4c:	11ac                	addi	a1,sp,232
  102d4e:	0002                	c.slli64	zero
  102d50:	9402                	jalr	s0
  102d52:	0001                	nop
  102d54:	fdf2                	fsw	ft8,248(sp)
  102d56:	0001                	nop
  102d58:	a104                	fsd	fs1,0(a0)
  102d5a:	0001                	nop
  102d5c:	0af4                	addi	a3,sp,348
  102d5e:	0002                	c.slli64	zero
  102d60:	ae42                	fsd	fa6,280(sp)
  102d62:	0001                	nop
  102d64:	1832                	slli	a6,a6,0x2c
  102d66:	0002                	c.slli64	zero
  102d68:	bbbc                	fsd	fa5,112(a5)
  102d6a:	0001                	nop
  102d6c:	25ac                	fld	fa1,72(a1)
  102d6e:	0002                	c.slli64	zero
  102d70:	a7bc                	fsd	fa5,72(a5)
  102d72:	0001                	nop
  102d74:	11ac                	addi	a1,sp,232
  102d76:	0002                	c.slli64	zero
  102d78:	9402                	jalr	s0
  102d7a:	0001                	nop
  102d7c:	fdf2                	fsw	ft8,248(sp)
  102d7e:	0001                	nop
  102d80:	a342                	fsd	fa6,384(sp)
  102d82:	0001                	nop
  102d84:	1132                	slli	sp,sp,0x2c
  102d86:	0002                	c.slli64	zero
  102d88:	b0c4                	fsd	fs1,160(s1)
  102d8a:	0001                	nop
  102d8c:	1eb4                	addi	a3,sp,888
  102d8e:	0002                	c.slli64	zero
  102d90:	be82                	fsd	ft0,376(sp)
  102d92:	0001                	nop
  102d94:	2c72                	fld	fs8,280(sp)
  102d96:	0002                	c.slli64	zero
  102d98:	cc7c                	sw	a5,92(s0)
  102d9a:	0001                	nop
  102d9c:	3a6c                	fld	fa1,240(a2)
  102d9e:	0002                	c.slli64	zero
  102da0:	b7bc                	fsd	fa5,104(a5)
  102da2:	0001                	nop
  102da4:	25ac                	fld	fa1,72(a1)
  102da6:	0002                	c.slli64	zero
  102da8:	a342                	fsd	fa6,384(sp)
  102daa:	0001                	nop
  102dac:	1132                	slli	sp,sp,0x2c
  102dae:	0002                	c.slli64	zero
  102db0:	b0c4                	fsd	fs1,160(s1)
  102db2:	0001                	nop
  102db4:	1eb4                	addi	a3,sp,888
  102db6:	0002                	c.slli64	zero
  102db8:	be82                	fsd	ft0,376(sp)
  102dba:	0001                	nop
  102dbc:	2c72                	fld	fs8,280(sp)
  102dbe:	0002                	c.slli64	zero
  102dc0:	cc7c                	sw	a5,92(s0)
  102dc2:	0001                	nop
  102dc4:	3a6c                	fld	fa1,240(a2)
  102dc6:	0002                	c.slli64	zero
  102dc8:	b7bc                	fsd	fa5,104(a5)
  102dca:	0001                	nop
  102dcc:	25ac                	fld	fa1,72(a1)
  102dce:	0002                	c.slli64	zero
  102dd0:	a342                	fsd	fa6,384(sp)
  102dd2:	0001                	nop
  102dd4:	1132                	slli	sp,sp,0x2c
  102dd6:	0002                	c.slli64	zero
  102dd8:	b0c4                	fsd	fs1,160(s1)
  102dda:	0001                	nop
  102ddc:	1eb4                	addi	a3,sp,888
  102dde:	0002                	c.slli64	zero
  102de0:	be82                	fsd	ft0,376(sp)
  102de2:	0001                	nop
  102de4:	2c72                	fld	fs8,280(sp)
  102de6:	0002                	c.slli64	zero
  102de8:	cc7c                	sw	a5,92(s0)
  102dea:	0001                	nop
  102dec:	3a6c                	fld	fa1,240(a2)
  102dee:	0002                	c.slli64	zero
  102df0:	b7bc                	fsd	fa5,104(a5)
  102df2:	0001                	nop
  102df4:	25ac                	fld	fa1,72(a1)
  102df6:	0002                	c.slli64	zero
  102df8:	a342                	fsd	fa6,384(sp)
  102dfa:	0001                	nop
  102dfc:	1132                	slli	sp,sp,0x2c
  102dfe:	0002                	c.slli64	zero
  102e00:	b282                	fsd	ft0,352(sp)
  102e02:	0001                	nop
  102e04:	2472                	fld	fs0,280(sp)
  102e06:	0002                	c.slli64	zero
  102e08:	c084                	sw	s1,0(s1)
  102e0a:	0001                	nop
  102e0c:	3274                	fld	fa3,224(a2)
  102e0e:	0002                	c.slli64	zero
  102e10:	cec2                	sw	a6,92(sp)
  102e12:	0001                	nop
  102e14:	40b2                	lw	ra,12(sp)
  102e16:	0002                	c.slli64	zero
  102e18:	dd3c                	sw	a5,120(a0)
  102e1a:	0001                	nop
  102e1c:	4f2c                	lw	a1,88(a4)
  102e1e:	0002                	c.slli64	zero
  102e20:	c7bc                	sw	a5,72(a5)
  102e22:	0001                	nop
  102e24:	39ac                	fld	fa1,112(a1)
  102e26:	0002                	c.slli64	zero
  102e28:	b282                	fsd	ft0,352(sp)
  102e2a:	0001                	nop
  102e2c:	2472                	fld	fs0,280(sp)
  102e2e:	0002                	c.slli64	zero
  102e30:	c084                	sw	s1,0(s1)
  102e32:	0001                	nop
  102e34:	3274                	fld	fa3,224(a2)
  102e36:	0002                	c.slli64	zero
  102e38:	cec2                	sw	a6,92(sp)
  102e3a:	0001                	nop
  102e3c:	40b2                	lw	ra,12(sp)
  102e3e:	0002                	c.slli64	zero
  102e40:	dd3c                	sw	a5,120(a0)
  102e42:	0001                	nop
  102e44:	4f2c                	lw	a1,88(a4)
  102e46:	0002                	c.slli64	zero
  102e48:	c7bc                	sw	a5,72(a5)
  102e4a:	0001                	nop
  102e4c:	39ac                	fld	fa1,112(a1)
  102e4e:	0002                	c.slli64	zero
  102e50:	b282                	fsd	ft0,352(sp)
  102e52:	0001                	nop
  102e54:	2472                	fld	fs0,280(sp)
  102e56:	0002                	c.slli64	zero
  102e58:	c084                	sw	s1,0(s1)
  102e5a:	0001                	nop
  102e5c:	3274                	fld	fa3,224(a2)
  102e5e:	0002                	c.slli64	zero
  102e60:	cec2                	sw	a6,92(sp)
  102e62:	0001                	nop
  102e64:	40b2                	lw	ra,12(sp)
  102e66:	0002                	c.slli64	zero
  102e68:	dd3c                	sw	a5,120(a0)
  102e6a:	0001                	nop
  102e6c:	4f2c                	lw	a1,88(a4)
  102e6e:	0002                	c.slli64	zero
  102e70:	c7bc                	sw	a5,72(a5)
  102e72:	0001                	nop
  102e74:	39ac                	fld	fa1,112(a1)
  102e76:	0002                	c.slli64	zero
  102e78:	b282                	fsd	ft0,352(sp)
  102e7a:	0001                	nop
  102e7c:	2472                	fld	fs0,280(sp)
  102e7e:	0002                	c.slli64	zero
  102e80:	c1c2                	sw	a6,192(sp)
  102e82:	0001                	nop
  102e84:	37b2                	fld	fa5,296(sp)
  102e86:	0002                	c.slli64	zero
  102e88:	d044                	sw	s1,36(s0)
  102e8a:	0001                	nop
  102e8c:	4634                	lw	a3,72(a2)
  102e8e:	0002                	c.slli64	zero
  102e90:	df02                	sw	zero,188(sp)
  102e92:	0001                	nop
  102e94:	54f2                	lw	s1,60(sp)
  102e96:	0002                	c.slli64	zero
  102e98:	edfc                	fsw	fa5,92(a1)
  102e9a:	0001                	nop
  102e9c:	63ec                	flw	fa1,68(a5)
  102e9e:	0002                	c.slli64	zero
  102ea0:	d7bc                	sw	a5,104(a5)
  102ea2:	0001                	nop
  102ea4:	4dac                	lw	a1,88(a1)
  102ea6:	0002                	c.slli64	zero
  102ea8:	c1c2                	sw	a6,192(sp)
  102eaa:	0001                	nop
  102eac:	37b2                	fld	fa5,296(sp)
  102eae:	0002                	c.slli64	zero
  102eb0:	d044                	sw	s1,36(s0)
  102eb2:	0001                	nop
  102eb4:	4634                	lw	a3,72(a2)
  102eb6:	0002                	c.slli64	zero
  102eb8:	df02                	sw	zero,188(sp)
  102eba:	0001                	nop
  102ebc:	54f2                	lw	s1,60(sp)
  102ebe:	0002                	c.slli64	zero
  102ec0:	edfc                	fsw	fa5,92(a1)
  102ec2:	0001                	nop
  102ec4:	63ec                	flw	fa1,68(a5)
  102ec6:	0002                	c.slli64	zero
  102ec8:	d7bc                	sw	a5,104(a5)
  102eca:	0001                	nop
  102ecc:	4dac                	lw	a1,88(a1)
  102ece:	0002                	c.slli64	zero
  102ed0:	c1c2                	sw	a6,192(sp)
  102ed2:	0001                	nop
  102ed4:	37b2                	fld	fa5,296(sp)
  102ed6:	0002                	c.slli64	zero
  102ed8:	d044                	sw	s1,36(s0)
  102eda:	0001                	nop
  102edc:	4634                	lw	a3,72(a2)
  102ede:	0002                	c.slli64	zero
  102ee0:	df02                	sw	zero,188(sp)
  102ee2:	0001                	nop
  102ee4:	54f2                	lw	s1,60(sp)
  102ee6:	0002                	c.slli64	zero
  102ee8:	edfc                	fsw	fa5,92(a1)
  102eea:	0001                	nop
  102eec:	63ec                	flw	fa1,68(a5)
  102eee:	0002                	c.slli64	zero
  102ef0:	d7bc                	sw	a5,104(a5)
  102ef2:	0001                	nop
  102ef4:	4dac                	lw	a1,88(a1)
  102ef6:	0002                	c.slli64	zero
  102ef8:	c1c2                	sw	a6,192(sp)
  102efa:	0001                	nop
  102efc:	37b2                	fld	fa5,296(sp)
  102efe:	0002                	c.slli64	zero
  102f00:	d102                	sw	zero,160(sp)
  102f02:	0001                	nop
  102f04:	4af2                	lw	s5,28(sp)
  102f06:	0002                	c.slli64	zero
  102f08:	e004                	fsw	fs1,0(s0)
  102f0a:	0001                	nop
  102f0c:	59f4                	lw	a3,116(a1)
  102f0e:	0002                	c.slli64	zero
  102f10:	ef42                	fsw	fa6,156(sp)
  102f12:	0001                	nop
  102f14:	6932                	flw	fs2,12(sp)
  102f16:	0002                	c.slli64	zero
  102f18:	febc                	fsw	fa5,120(a3)
  102f1a:	0001                	nop
  102f1c:	78ac                	flw	fa1,112(s1)
  102f1e:	0002                	c.slli64	zero
  102f20:	e7bc                	fsw	fa5,72(a5)
  102f22:	0001                	nop
  102f24:	61ac                	flw	fa1,64(a1)
  102f26:	0002                	c.slli64	zero
  102f28:	d102                	sw	zero,160(sp)
  102f2a:	0001                	nop
  102f2c:	4af2                	lw	s5,28(sp)
  102f2e:	0002                	c.slli64	zero
  102f30:	e004                	fsw	fs1,0(s0)
  102f32:	0001                	nop
  102f34:	59f4                	lw	a3,116(a1)
  102f36:	0002                	c.slli64	zero
  102f38:	ef42                	fsw	fa6,156(sp)
  102f3a:	0001                	nop
  102f3c:	6932                	flw	fs2,12(sp)
  102f3e:	0002                	c.slli64	zero
  102f40:	febc                	fsw	fa5,120(a3)
  102f42:	0001                	nop
  102f44:	78ac                	flw	fa1,112(s1)
  102f46:	0002                	c.slli64	zero
  102f48:	e7bc                	fsw	fa5,72(a5)
  102f4a:	0001                	nop
  102f4c:	61ac                	flw	fa1,64(a1)
  102f4e:	0002                	c.slli64	zero
  102f50:	d102                	sw	zero,160(sp)
  102f52:	0001                	nop
  102f54:	4af2                	lw	s5,28(sp)
  102f56:	0002                	c.slli64	zero
  102f58:	e004                	fsw	fs1,0(s0)
  102f5a:	0001                	nop
  102f5c:	59f4                	lw	a3,116(a1)
  102f5e:	0002                	c.slli64	zero
  102f60:	ef42                	fsw	fa6,156(sp)
  102f62:	0001                	nop
  102f64:	6932                	flw	fs2,12(sp)
  102f66:	0002                	c.slli64	zero
  102f68:	febc                	fsw	fa5,120(a3)
  102f6a:	0001                	nop
  102f6c:	78ac                	flw	fa1,112(s1)
  102f6e:	0002                	c.slli64	zero
  102f70:	e7bc                	fsw	fa5,72(a5)
  102f72:	0001                	nop
  102f74:	61ac                	flw	fa1,64(a1)
  102f76:	0002                	c.slli64	zero
  102f78:	d102                	sw	zero,160(sp)
  102f7a:	0001                	nop
  102f7c:	4af2                	lw	s5,28(sp)
  102f7e:	0002                	c.slli64	zero
  102f80:	e042                	fsw	fa6,0(sp)
  102f82:	0001                	nop
  102f84:	5e32                	lw	t3,44(sp)
  102f86:	0002                	c.slli64	zero
  102f88:	efc4                	fsw	fs1,28(a5)
  102f8a:	0001                	nop
  102f8c:	6db4                	flw	fa3,88(a1)
  102f8e:	0002                	c.slli64	zero
  102f90:	ff82                	fsw	ft0,252(sp)
  102f92:	0001                	nop
  102f94:	7d72                	flw	fs10,60(sp)
  102f96:	0002                	c.slli64	zero
  102f98:	0f7c                	addi	a5,sp,924
  102f9a:	0002                	c.slli64	zero
  102f9c:	8d6c                	0x8d6c
  102f9e:	0002                	c.slli64	zero
  102fa0:	f7bc                	fsw	fa5,104(a5)
  102fa2:	0001                	nop
  102fa4:	75ac                	flw	fa1,104(a1)
  102fa6:	0002                	c.slli64	zero
  102fa8:	e042                	fsw	fa6,0(sp)
  102faa:	0001                	nop
  102fac:	5e32                	lw	t3,44(sp)
  102fae:	0002                	c.slli64	zero
  102fb0:	efc4                	fsw	fs1,28(a5)
  102fb2:	0001                	nop
  102fb4:	6db4                	flw	fa3,88(a1)
  102fb6:	0002                	c.slli64	zero
  102fb8:	ff82                	fsw	ft0,252(sp)
  102fba:	0001                	nop
  102fbc:	7d72                	flw	fs10,60(sp)
  102fbe:	0002                	c.slli64	zero
  102fc0:	0f7c                	addi	a5,sp,924
  102fc2:	0002                	c.slli64	zero
  102fc4:	8d6c                	0x8d6c
  102fc6:	0002                	c.slli64	zero
  102fc8:	f7bc                	fsw	fa5,104(a5)
  102fca:	0001                	nop
  102fcc:	75ac                	flw	fa1,104(a1)
  102fce:	0002                	c.slli64	zero
  102fd0:	e042                	fsw	fa6,0(sp)
  102fd2:	0001                	nop
  102fd4:	5e32                	lw	t3,44(sp)
  102fd6:	0002                	c.slli64	zero
  102fd8:	efc4                	fsw	fs1,28(a5)
  102fda:	0001                	nop
  102fdc:	6db4                	flw	fa3,88(a1)
  102fde:	0002                	c.slli64	zero
  102fe0:	ff82                	fsw	ft0,252(sp)
  102fe2:	0001                	nop
  102fe4:	7d72                	flw	fs10,60(sp)
  102fe6:	0002                	c.slli64	zero
  102fe8:	0f7c                	addi	a5,sp,924
  102fea:	0002                	c.slli64	zero
  102fec:	8d6c                	0x8d6c
  102fee:	0002                	c.slli64	zero
  102ff0:	f7bc                	fsw	fa5,104(a5)
  102ff2:	0001                	nop
  102ff4:	75ac                	flw	fa1,104(a1)
  102ff6:	0002                	c.slli64	zero
  102ff8:	e042                	fsw	fa6,0(sp)
  102ffa:	0001                	nop
  102ffc:	5e32                	lw	t3,44(sp)
  102ffe:	0002                	c.slli64	zero

00103000 <y_mat>:
	...

00104000 <err_count>:
  104000:	0000                	unimp
	...
