
riscv-spike.elf:     file format elf32-littleriscv


Disassembly of section .text:

00000000 <boot>:
       0:	00002fb7          	lui	t6,0x2
       4:	800f8f93          	addi	t6,t6,-2048 # 1800 <__stack_init+0x6ec>
       8:	300f9073          	csrw	mstatus,t6
       c:	0340006f          	j	40 <_mstart>
      10:	00000013          	nop
      14:	00000013          	nop
      18:	00000013          	nop
      1c:	00000013          	nop
      20:	00000013          	nop
      24:	00000013          	nop
      28:	00000013          	nop
      2c:	00000013          	nop
      30:	00000013          	nop
      34:	00000013          	nop
      38:	00000013          	nop
      3c:	00000013          	nop

00000040 <_mstart>:
      40:	00000297          	auipc	t0,0x0
      44:	0b428293          	addi	t0,t0,180 # f4 <trap_entry>
      48:	30529073          	csrw	mtvec,t0
      4c:	00000093          	li	ra,0
      50:	00000113          	li	sp,0
      54:	00000193          	li	gp,0
      58:	00000213          	li	tp,0
      5c:	00000293          	li	t0,0
      60:	00000313          	li	t1,0
      64:	00000393          	li	t2,0
      68:	00000413          	li	s0,0
      6c:	00000493          	li	s1,0
      70:	00000513          	li	a0,0
      74:	00000593          	li	a1,0
      78:	00000613          	li	a2,0
      7c:	00000693          	li	a3,0
      80:	00000713          	li	a4,0
      84:	00000793          	li	a5,0
      88:	00000813          	li	a6,0
      8c:	00000893          	li	a7,0
      90:	00000913          	li	s2,0
      94:	00000993          	li	s3,0
      98:	00000a13          	li	s4,0
      9c:	00000a93          	li	s5,0
      a0:	00000b13          	li	s6,0
      a4:	00000b93          	li	s7,0
      a8:	00000c13          	li	s8,0
      ac:	00000c93          	li	s9,0
      b0:	00000d13          	li	s10,0
      b4:	00000d93          	li	s11,0
      b8:	00000e13          	li	t3,0
      bc:	00000e93          	li	t4,0
      c0:	00000f13          	li	t5,0
      c4:	00000f93          	li	t6,0
      c8:	00021197          	auipc	gp,0x21
      cc:	7e018193          	addi	gp,gp,2016 # 218a8 <__global_pointer$>
      d0:	000ff117          	auipc	sp,0xff
      d4:	f2c10113          	addi	sp,sp,-212 # feffc <__stacktop>
      d8:	00000297          	auipc	t0,0x0
      dc:	01c28293          	addi	t0,t0,28 # f4 <trap_entry>
      e0:	00012503          	lw	a0,0(sp)
      e4:	00000613          	li	a2,0
      e8:	4c9000ef          	jal	ra,db0 <main>
      ec:	0000006f          	j	ec <_mstart+0xac>
      f0:	00008067          	ret

000000f4 <trap_entry>:
      f4:	2850006f          	j	b78 <ISR5>
      f8:	30200073          	mret
      fc:	27d0006f          	j	b78 <ISR5>
     100:	30200073          	mret
     104:	2750006f          	j	b78 <ISR5>
     108:	30200073          	mret
     10c:	26d0006f          	j	b78 <ISR5>
     110:	30200073          	mret
     114:	2650006f          	j	b78 <ISR5>
     118:	30200073          	mret
     11c:	3790006f          	j	c94 <ISR6>
     120:	30200073          	mret
	...

00000130 <UART_init>:
     130:	fd010113          	addi	sp,sp,-48
     134:	02812623          	sw	s0,44(sp)
     138:	03010413          	addi	s0,sp,48
     13c:	fca42e23          	sw	a0,-36(s0)
     140:	00058793          	mv	a5,a1
     144:	fcf40da3          	sb	a5,-37(s0)
     148:	fdc42703          	lw	a4,-36(s0)
     14c:	000097b7          	lui	a5,0x9
     150:	60078793          	addi	a5,a5,1536 # 9600 <__stack_init+0x84ec>
     154:	00f71a63          	bne	a4,a5,168 <UART_init+0x38>
     158:	fe0407a3          	sb	zero,-17(s0)
     15c:	fa200793          	li	a5,-94
     160:	fef40723          	sb	a5,-18(s0)
     164:	1180006f          	j	27c <UART_init+0x14c>
     168:	fdc42703          	lw	a4,-36(s0)
     16c:	000027b7          	lui	a5,0x2
     170:	58078793          	addi	a5,a5,1408 # 2580 <__stack_init+0x146c>
     174:	00f71c63          	bne	a4,a5,18c <UART_init+0x5c>
     178:	00200793          	li	a5,2
     17c:	fef407a3          	sb	a5,-17(s0)
     180:	f8b00793          	li	a5,-117
     184:	fef40723          	sb	a5,-18(s0)
     188:	0f40006f          	j	27c <UART_init+0x14c>
     18c:	fdc42703          	lw	a4,-36(s0)
     190:	000057b7          	lui	a5,0x5
     194:	b0078793          	addi	a5,a5,-1280 # 4b00 <__stack_init+0x39ec>
     198:	00f71c63          	bne	a4,a5,1b0 <UART_init+0x80>
     19c:	00100793          	li	a5,1
     1a0:	fef407a3          	sb	a5,-17(s0)
     1a4:	04500793          	li	a5,69
     1a8:	fef40723          	sb	a5,-18(s0)
     1ac:	0d00006f          	j	27c <UART_init+0x14c>
     1b0:	fdc42703          	lw	a4,-36(s0)
     1b4:	0000e7b7          	lui	a5,0xe
     1b8:	10078793          	addi	a5,a5,256 # e100 <__stack_init+0xcfec>
     1bc:	00f71a63          	bne	a4,a5,1d0 <UART_init+0xa0>
     1c0:	fe0407a3          	sb	zero,-17(s0)
     1c4:	03600793          	li	a5,54
     1c8:	fef40723          	sb	a5,-18(s0)
     1cc:	0b00006f          	j	27c <UART_init+0x14c>
     1d0:	fdc42703          	lw	a4,-36(s0)
     1d4:	0001c7b7          	lui	a5,0x1c
     1d8:	20078793          	addi	a5,a5,512 # 1c200 <__stack_init+0x1b0ec>
     1dc:	00f71a63          	bne	a4,a5,1f0 <UART_init+0xc0>
     1e0:	fe0407a3          	sb	zero,-17(s0)
     1e4:	01b00793          	li	a5,27
     1e8:	fef40723          	sb	a5,-18(s0)
     1ec:	0900006f          	j	27c <UART_init+0x14c>
     1f0:	fdc42703          	lw	a4,-36(s0)
     1f4:	000387b7          	lui	a5,0x38
     1f8:	40078793          	addi	a5,a5,1024 # 38400 <__BSS_END__+0x1633c>
     1fc:	00f71a63          	bne	a4,a5,210 <UART_init+0xe0>
     200:	fe0407a3          	sb	zero,-17(s0)
     204:	00e00793          	li	a5,14
     208:	fef40723          	sb	a5,-18(s0)
     20c:	0700006f          	j	27c <UART_init+0x14c>
     210:	fdc42703          	lw	a4,-36(s0)
     214:	000717b7          	lui	a5,0x71
     218:	80078793          	addi	a5,a5,-2048 # 70800 <__BSS_END__+0x4e73c>
     21c:	00f71a63          	bne	a4,a5,230 <UART_init+0x100>
     220:	fe0407a3          	sb	zero,-17(s0)
     224:	00700793          	li	a5,7
     228:	fef40723          	sb	a5,-18(s0)
     22c:	0500006f          	j	27c <UART_init+0x14c>
     230:	fdc42703          	lw	a4,-36(s0)
     234:	0017d7b7          	lui	a5,0x17d
     238:	78478793          	addi	a5,a5,1924 # 17d784 <__VMEM_END+0x4bae0>
     23c:	00f71a63          	bne	a4,a5,250 <UART_init+0x120>
     240:	fe0407a3          	sb	zero,-17(s0)
     244:	00400793          	li	a5,4
     248:	fef40723          	sb	a5,-18(s0)
     24c:	0300006f          	j	27c <UART_init+0x14c>
     250:	fdc42703          	lw	a4,-36(s0)
     254:	000bf7b7          	lui	a5,0xbf
     258:	bc278793          	addi	a5,a5,-1086 # bebc2 <__BSS_END__+0x9cafe>
     25c:	00f71a63          	bne	a4,a5,270 <UART_init+0x140>
     260:	fe0407a3          	sb	zero,-17(s0)
     264:	00800793          	li	a5,8
     268:	fef40723          	sb	a5,-18(s0)
     26c:	0100006f          	j	27c <UART_init+0x14c>
     270:	fe0407a3          	sb	zero,-17(s0)
     274:	00100793          	li	a5,1
     278:	fef40723          	sb	a5,-18(s0)
     27c:	fdb44703          	lbu	a4,-37(s0)
     280:	00100793          	li	a5,1
     284:	00f71663          	bne	a4,a5,290 <UART_init+0x160>
     288:	fe0406a3          	sb	zero,-19(s0)
     28c:	03c0006f          	j	2c8 <UART_init+0x198>
     290:	fdb44703          	lbu	a4,-37(s0)
     294:	00400793          	li	a5,4
     298:	00f71863          	bne	a4,a5,2a8 <UART_init+0x178>
     29c:	04000793          	li	a5,64
     2a0:	fef406a3          	sb	a5,-19(s0)
     2a4:	0240006f          	j	2c8 <UART_init+0x198>
     2a8:	fdb44703          	lbu	a4,-37(s0)
     2ac:	00800793          	li	a5,8
     2b0:	00f71863          	bne	a4,a5,2c0 <UART_init+0x190>
     2b4:	f8000793          	li	a5,-128
     2b8:	fef406a3          	sb	a5,-19(s0)
     2bc:	00c0006f          	j	2c8 <UART_init+0x198>
     2c0:	fc000793          	li	a5,-64
     2c4:	fef406a3          	sb	a5,-19(s0)
     2c8:	5f1007b7          	lui	a5,0x5f100
     2cc:	6f478793          	addi	a5,a5,1780 # 5f1006f4 <__VREG_END+0x5ef806f4>
     2d0:	01300713          	li	a4,19
     2d4:	00e78023          	sb	a4,0(a5)
     2d8:	5f1007b7          	lui	a5,0x5f100
     2dc:	6f378793          	addi	a5,a5,1779 # 5f1006f3 <__VREG_END+0x5ef806f3>
     2e0:	04000713          	li	a4,64
     2e4:	00e78023          	sb	a4,0(a5)
     2e8:	5f1007b7          	lui	a5,0x5f100
     2ec:	6f178793          	addi	a5,a5,1777 # 5f1006f1 <__VREG_END+0x5ef806f1>
     2f0:	00100713          	li	a4,1
     2f4:	00e78023          	sb	a4,0(a5)
     2f8:	5f1007b7          	lui	a5,0x5f100
     2fc:	6f478793          	addi	a5,a5,1780 # 5f1006f4 <__VREG_END+0x5ef806f4>
     300:	f9300713          	li	a4,-109
     304:	00e78023          	sb	a4,0(a5)
     308:	5f1007b7          	lui	a5,0x5f100
     30c:	6f178793          	addi	a5,a5,1777 # 5f1006f1 <__VREG_END+0x5ef806f1>
     310:	fef44703          	lbu	a4,-17(s0)
     314:	00e78023          	sb	a4,0(a5)
     318:	5f1007b7          	lui	a5,0x5f100
     31c:	6f078793          	addi	a5,a5,1776 # 5f1006f0 <__VREG_END+0x5ef806f0>
     320:	fee44703          	lbu	a4,-18(s0)
     324:	00e78023          	sb	a4,0(a5)
     328:	5f1007b7          	lui	a5,0x5f100
     32c:	6f478793          	addi	a5,a5,1780 # 5f1006f4 <__VREG_END+0x5ef806f4>
     330:	01300713          	li	a4,19
     334:	00e78023          	sb	a4,0(a5)
     338:	5f1007b7          	lui	a5,0x5f100
     33c:	6f378793          	addi	a5,a5,1779 # 5f1006f3 <__VREG_END+0x5ef806f3>
     340:	fed44703          	lbu	a4,-19(s0)
     344:	00e78023          	sb	a4,0(a5)
     348:	00000013          	nop
     34c:	02c12403          	lw	s0,44(sp)
     350:	03010113          	addi	sp,sp,48
     354:	00008067          	ret

00000358 <UARTCharPut>:
     358:	fe010113          	addi	sp,sp,-32
     35c:	00812e23          	sw	s0,28(sp)
     360:	02010413          	addi	s0,sp,32
     364:	00050793          	mv	a5,a0
     368:	fef407a3          	sb	a5,-17(s0)
     36c:	00000013          	nop
     370:	5f1007b7          	lui	a5,0x5f100
     374:	6f678793          	addi	a5,a5,1782 # 5f1006f6 <__VREG_END+0x5ef806f6>
     378:	0007c783          	lbu	a5,0(a5)
     37c:	0ff7f793          	andi	a5,a5,255
     380:	0207f793          	andi	a5,a5,32
     384:	0ff7f793          	andi	a5,a5,255
     388:	fe0784e3          	beqz	a5,370 <UARTCharPut+0x18>
     38c:	5f1007b7          	lui	a5,0x5f100
     390:	6f078793          	addi	a5,a5,1776 # 5f1006f0 <__VREG_END+0x5ef806f0>
     394:	fef44703          	lbu	a4,-17(s0)
     398:	00e78023          	sb	a4,0(a5)
     39c:	00000013          	nop
     3a0:	01c12403          	lw	s0,28(sp)
     3a4:	02010113          	addi	sp,sp,32
     3a8:	00008067          	ret

000003ac <UART_string>:
     3ac:	fe010113          	addi	sp,sp,-32
     3b0:	00112e23          	sw	ra,28(sp)
     3b4:	00812c23          	sw	s0,24(sp)
     3b8:	02010413          	addi	s0,sp,32
     3bc:	fea42623          	sw	a0,-20(s0)
     3c0:	01c0006f          	j	3dc <UART_string+0x30>
     3c4:	fec42783          	lw	a5,-20(s0)
     3c8:	00178713          	addi	a4,a5,1
     3cc:	fee42623          	sw	a4,-20(s0)
     3d0:	0007c783          	lbu	a5,0(a5)
     3d4:	00078513          	mv	a0,a5
     3d8:	f81ff0ef          	jal	ra,358 <UARTCharPut>
     3dc:	fec42783          	lw	a5,-20(s0)
     3e0:	0007c783          	lbu	a5,0(a5)
     3e4:	fe0790e3          	bnez	a5,3c4 <UART_string+0x18>
     3e8:	00000013          	nop
     3ec:	00000013          	nop
     3f0:	01c12083          	lw	ra,28(sp)
     3f4:	01812403          	lw	s0,24(sp)
     3f8:	02010113          	addi	sp,sp,32
     3fc:	00008067          	ret

00000400 <UART_newline>:
     400:	ff010113          	addi	sp,sp,-16
     404:	00112623          	sw	ra,12(sp)
     408:	00812423          	sw	s0,8(sp)
     40c:	01010413          	addi	s0,sp,16
     410:	00a00513          	li	a0,10
     414:	f45ff0ef          	jal	ra,358 <UARTCharPut>
     418:	00d00513          	li	a0,13
     41c:	f3dff0ef          	jal	ra,358 <UARTCharPut>
     420:	00000013          	nop
     424:	00c12083          	lw	ra,12(sp)
     428:	00812403          	lw	s0,8(sp)
     42c:	01010113          	addi	sp,sp,16
     430:	00008067          	ret

00000434 <UART_Htab>:
     434:	ff010113          	addi	sp,sp,-16
     438:	00112623          	sw	ra,12(sp)
     43c:	00812423          	sw	s0,8(sp)
     440:	01010413          	addi	s0,sp,16
     444:	00900513          	li	a0,9
     448:	f11ff0ef          	jal	ra,358 <UARTCharPut>
     44c:	00000013          	nop
     450:	00c12083          	lw	ra,12(sp)
     454:	00812403          	lw	s0,8(sp)
     458:	01010113          	addi	sp,sp,16
     45c:	00008067          	ret

00000460 <UARTwrite>:
     460:	fd010113          	addi	sp,sp,-48
     464:	02112623          	sw	ra,44(sp)
     468:	02812423          	sw	s0,40(sp)
     46c:	03010413          	addi	s0,sp,48
     470:	fca42e23          	sw	a0,-36(s0)
     474:	fcb42c23          	sw	a1,-40(s0)
     478:	fe042623          	sw	zero,-20(s0)
     47c:	0480006f          	j	4c4 <UARTwrite+0x64>
     480:	fdc42703          	lw	a4,-36(s0)
     484:	fec42783          	lw	a5,-20(s0)
     488:	00f707b3          	add	a5,a4,a5
     48c:	0007c703          	lbu	a4,0(a5)
     490:	00a00793          	li	a5,10
     494:	00f71663          	bne	a4,a5,4a0 <UARTwrite+0x40>
     498:	00d00513          	li	a0,13
     49c:	ebdff0ef          	jal	ra,358 <UARTCharPut>
     4a0:	fdc42703          	lw	a4,-36(s0)
     4a4:	fec42783          	lw	a5,-20(s0)
     4a8:	00f707b3          	add	a5,a4,a5
     4ac:	0007c783          	lbu	a5,0(a5)
     4b0:	00078513          	mv	a0,a5
     4b4:	ea5ff0ef          	jal	ra,358 <UARTCharPut>
     4b8:	fec42783          	lw	a5,-20(s0)
     4bc:	00178793          	addi	a5,a5,1
     4c0:	fef42623          	sw	a5,-20(s0)
     4c4:	fec42703          	lw	a4,-20(s0)
     4c8:	fd842783          	lw	a5,-40(s0)
     4cc:	faf76ae3          	bltu	a4,a5,480 <UARTwrite+0x20>
     4d0:	fec42783          	lw	a5,-20(s0)
     4d4:	00078513          	mv	a0,a5
     4d8:	02c12083          	lw	ra,44(sp)
     4dc:	02812403          	lw	s0,40(sp)
     4e0:	03010113          	addi	sp,sp,48
     4e4:	00008067          	ret

000004e8 <UARTvprintf>:
     4e8:	fa010113          	addi	sp,sp,-96
     4ec:	04112e23          	sw	ra,92(sp)
     4f0:	04812c23          	sw	s0,88(sp)
     4f4:	06010413          	addi	s0,sp,96
     4f8:	faa42623          	sw	a0,-84(s0)
     4fc:	fab42423          	sw	a1,-88(s0)
     500:	4440006f          	j	944 <UARTvprintf+0x45c>
     504:	fe042623          	sw	zero,-20(s0)
     508:	0100006f          	j	518 <UARTvprintf+0x30>
     50c:	fec42783          	lw	a5,-20(s0)
     510:	00178793          	addi	a5,a5,1
     514:	fef42623          	sw	a5,-20(s0)
     518:	fac42703          	lw	a4,-84(s0)
     51c:	fec42783          	lw	a5,-20(s0)
     520:	00f707b3          	add	a5,a4,a5
     524:	0007c703          	lbu	a4,0(a5)
     528:	02500793          	li	a5,37
     52c:	00f70c63          	beq	a4,a5,544 <UARTvprintf+0x5c>
     530:	fac42703          	lw	a4,-84(s0)
     534:	fec42783          	lw	a5,-20(s0)
     538:	00f707b3          	add	a5,a4,a5
     53c:	0007c783          	lbu	a5,0(a5)
     540:	fc0796e3          	bnez	a5,50c <UARTvprintf+0x24>
     544:	fec42583          	lw	a1,-20(s0)
     548:	fac42503          	lw	a0,-84(s0)
     54c:	f15ff0ef          	jal	ra,460 <UARTwrite>
     550:	fac42703          	lw	a4,-84(s0)
     554:	fec42783          	lw	a5,-20(s0)
     558:	00f707b3          	add	a5,a4,a5
     55c:	faf42623          	sw	a5,-84(s0)
     560:	fac42783          	lw	a5,-84(s0)
     564:	0007c703          	lbu	a4,0(a5)
     568:	02500793          	li	a5,37
     56c:	3cf71a63          	bne	a4,a5,940 <UARTvprintf+0x458>
     570:	fac42783          	lw	a5,-84(s0)
     574:	00178793          	addi	a5,a5,1
     578:	faf42623          	sw	a5,-84(s0)
     57c:	fe042223          	sw	zero,-28(s0)
     580:	02000793          	li	a5,32
     584:	fcf40da3          	sb	a5,-37(s0)
     588:	fac42783          	lw	a5,-84(s0)
     58c:	00178713          	addi	a4,a5,1
     590:	fae42623          	sw	a4,-84(s0)
     594:	0007c783          	lbu	a5,0(a5)
     598:	fdb78793          	addi	a5,a5,-37
     59c:	05300713          	li	a4,83
     5a0:	38f76663          	bltu	a4,a5,92c <UARTvprintf+0x444>
     5a4:	00279713          	slli	a4,a5,0x2
     5a8:	000017b7          	lui	a5,0x1
     5ac:	13878793          	addi	a5,a5,312 # 1138 <__stack_init+0x24>
     5b0:	00f707b3          	add	a5,a4,a5
     5b4:	0007a783          	lw	a5,0(a5)
     5b8:	00078067          	jr	a5
     5bc:	fac42783          	lw	a5,-84(s0)
     5c0:	fff78793          	addi	a5,a5,-1
     5c4:	0007c703          	lbu	a4,0(a5)
     5c8:	03000793          	li	a5,48
     5cc:	00f71a63          	bne	a4,a5,5e0 <UARTvprintf+0xf8>
     5d0:	fe442783          	lw	a5,-28(s0)
     5d4:	00079663          	bnez	a5,5e0 <UARTvprintf+0xf8>
     5d8:	03000793          	li	a5,48
     5dc:	fcf40da3          	sb	a5,-37(s0)
     5e0:	fe442703          	lw	a4,-28(s0)
     5e4:	00070793          	mv	a5,a4
     5e8:	00279793          	slli	a5,a5,0x2
     5ec:	00e787b3          	add	a5,a5,a4
     5f0:	00179793          	slli	a5,a5,0x1
     5f4:	fef42223          	sw	a5,-28(s0)
     5f8:	fac42783          	lw	a5,-84(s0)
     5fc:	fff78793          	addi	a5,a5,-1
     600:	0007c783          	lbu	a5,0(a5)
     604:	00078713          	mv	a4,a5
     608:	fe442783          	lw	a5,-28(s0)
     60c:	00f707b3          	add	a5,a4,a5
     610:	fd078793          	addi	a5,a5,-48
     614:	fef42223          	sw	a5,-28(s0)
     618:	f71ff06f          	j	588 <UARTvprintf+0xa0>
     61c:	fa842783          	lw	a5,-88(s0)
     620:	00478713          	addi	a4,a5,4
     624:	fae42423          	sw	a4,-88(s0)
     628:	0007a783          	lw	a5,0(a5)
     62c:	fcf42223          	sw	a5,-60(s0)
     630:	fc440793          	addi	a5,s0,-60
     634:	00100593          	li	a1,1
     638:	00078513          	mv	a0,a5
     63c:	e25ff0ef          	jal	ra,460 <UARTwrite>
     640:	3040006f          	j	944 <UARTvprintf+0x45c>
     644:	fa842783          	lw	a5,-88(s0)
     648:	00478713          	addi	a4,a5,4
     64c:	fae42423          	sw	a4,-88(s0)
     650:	0007a783          	lw	a5,0(a5)
     654:	fcf42223          	sw	a5,-60(s0)
     658:	fe042423          	sw	zero,-24(s0)
     65c:	fc442783          	lw	a5,-60(s0)
     660:	0007de63          	bgez	a5,67c <UARTvprintf+0x194>
     664:	fc442783          	lw	a5,-60(s0)
     668:	40f007b3          	neg	a5,a5
     66c:	fcf42223          	sw	a5,-60(s0)
     670:	00100793          	li	a5,1
     674:	fcf42e23          	sw	a5,-36(s0)
     678:	0080006f          	j	680 <UARTvprintf+0x198>
     67c:	fc042e23          	sw	zero,-36(s0)
     680:	00a00793          	li	a5,10
     684:	fef42023          	sw	a5,-32(s0)
     688:	1040006f          	j	78c <UARTvprintf+0x2a4>
     68c:	fa842783          	lw	a5,-88(s0)
     690:	00778793          	addi	a5,a5,7
     694:	ff87f793          	andi	a5,a5,-8
     698:	00878713          	addi	a4,a5,8
     69c:	fae42423          	sw	a4,-88(s0)
     6a0:	0007a703          	lw	a4,0(a5)
     6a4:	0047a783          	lw	a5,4(a5)
     6a8:	fce42423          	sw	a4,-56(s0)
     6ac:	fcf42623          	sw	a5,-52(s0)
     6b0:	2940006f          	j	944 <UARTvprintf+0x45c>
     6b4:	fa842783          	lw	a5,-88(s0)
     6b8:	00478713          	addi	a4,a5,4
     6bc:	fae42423          	sw	a4,-88(s0)
     6c0:	0007a783          	lw	a5,0(a5)
     6c4:	fcf42a23          	sw	a5,-44(s0)
     6c8:	fe042623          	sw	zero,-20(s0)
     6cc:	0100006f          	j	6dc <UARTvprintf+0x1f4>
     6d0:	fec42783          	lw	a5,-20(s0)
     6d4:	00178793          	addi	a5,a5,1
     6d8:	fef42623          	sw	a5,-20(s0)
     6dc:	fd442703          	lw	a4,-44(s0)
     6e0:	fec42783          	lw	a5,-20(s0)
     6e4:	00f707b3          	add	a5,a4,a5
     6e8:	0007c783          	lbu	a5,0(a5)
     6ec:	fe0792e3          	bnez	a5,6d0 <UARTvprintf+0x1e8>
     6f0:	fec42583          	lw	a1,-20(s0)
     6f4:	fd442503          	lw	a0,-44(s0)
     6f8:	d69ff0ef          	jal	ra,460 <UARTwrite>
     6fc:	fe442703          	lw	a4,-28(s0)
     700:	fec42783          	lw	a5,-20(s0)
     704:	24e7f063          	bgeu	a5,a4,944 <UARTvprintf+0x45c>
     708:	fe442703          	lw	a4,-28(s0)
     70c:	fec42783          	lw	a5,-20(s0)
     710:	40f707b3          	sub	a5,a4,a5
     714:	fef42223          	sw	a5,-28(s0)
     718:	0140006f          	j	72c <UARTvprintf+0x244>
     71c:	00100593          	li	a1,1
     720:	000017b7          	lui	a5,0x1
     724:	12c78513          	addi	a0,a5,300 # 112c <__stack_init+0x18>
     728:	d39ff0ef          	jal	ra,460 <UARTwrite>
     72c:	fe442783          	lw	a5,-28(s0)
     730:	fff78713          	addi	a4,a5,-1
     734:	fee42223          	sw	a4,-28(s0)
     738:	fe0792e3          	bnez	a5,71c <UARTvprintf+0x234>
     73c:	2080006f          	j	944 <UARTvprintf+0x45c>
     740:	fa842783          	lw	a5,-88(s0)
     744:	00478713          	addi	a4,a5,4
     748:	fae42423          	sw	a4,-88(s0)
     74c:	0007a783          	lw	a5,0(a5)
     750:	fcf42223          	sw	a5,-60(s0)
     754:	fe042423          	sw	zero,-24(s0)
     758:	00a00793          	li	a5,10
     75c:	fef42023          	sw	a5,-32(s0)
     760:	fc042e23          	sw	zero,-36(s0)
     764:	0280006f          	j	78c <UARTvprintf+0x2a4>
     768:	fa842783          	lw	a5,-88(s0)
     76c:	00478713          	addi	a4,a5,4
     770:	fae42423          	sw	a4,-88(s0)
     774:	0007a783          	lw	a5,0(a5)
     778:	fcf42223          	sw	a5,-60(s0)
     77c:	fe042423          	sw	zero,-24(s0)
     780:	01000793          	li	a5,16
     784:	fef42023          	sw	a5,-32(s0)
     788:	fc042e23          	sw	zero,-36(s0)
     78c:	00100793          	li	a5,1
     790:	fef42623          	sw	a5,-20(s0)
     794:	0200006f          	j	7b4 <UARTvprintf+0x2cc>
     798:	fec42703          	lw	a4,-20(s0)
     79c:	fe042783          	lw	a5,-32(s0)
     7a0:	02f707b3          	mul	a5,a4,a5
     7a4:	fef42623          	sw	a5,-20(s0)
     7a8:	fe442783          	lw	a5,-28(s0)
     7ac:	fff78793          	addi	a5,a5,-1
     7b0:	fef42223          	sw	a5,-28(s0)
     7b4:	fec42703          	lw	a4,-20(s0)
     7b8:	fe042783          	lw	a5,-32(s0)
     7bc:	02f70733          	mul	a4,a4,a5
     7c0:	fc442783          	lw	a5,-60(s0)
     7c4:	02e7e063          	bltu	a5,a4,7e4 <UARTvprintf+0x2fc>
     7c8:	fec42703          	lw	a4,-20(s0)
     7cc:	fe042783          	lw	a5,-32(s0)
     7d0:	02f70733          	mul	a4,a4,a5
     7d4:	fe042783          	lw	a5,-32(s0)
     7d8:	02f757b3          	divu	a5,a4,a5
     7dc:	fec42703          	lw	a4,-20(s0)
     7e0:	faf70ce3          	beq	a4,a5,798 <UARTvprintf+0x2b0>
     7e4:	fdc42783          	lw	a5,-36(s0)
     7e8:	00078863          	beqz	a5,7f8 <UARTvprintf+0x310>
     7ec:	fe442783          	lw	a5,-28(s0)
     7f0:	fff78793          	addi	a5,a5,-1
     7f4:	fef42223          	sw	a5,-28(s0)
     7f8:	fdc42783          	lw	a5,-36(s0)
     7fc:	02078863          	beqz	a5,82c <UARTvprintf+0x344>
     800:	fdb44703          	lbu	a4,-37(s0)
     804:	03000793          	li	a5,48
     808:	02f71263          	bne	a4,a5,82c <UARTvprintf+0x344>
     80c:	fe842783          	lw	a5,-24(s0)
     810:	00178713          	addi	a4,a5,1
     814:	fee42423          	sw	a4,-24(s0)
     818:	ff040713          	addi	a4,s0,-16
     81c:	00f707b3          	add	a5,a4,a5
     820:	02d00713          	li	a4,45
     824:	fce78223          	sb	a4,-60(a5)
     828:	fc042e23          	sw	zero,-36(s0)
     82c:	fe442703          	lw	a4,-28(s0)
     830:	00100793          	li	a5,1
     834:	04e7f863          	bgeu	a5,a4,884 <UARTvprintf+0x39c>
     838:	fe442703          	lw	a4,-28(s0)
     83c:	00f00793          	li	a5,15
     840:	04e7e263          	bltu	a5,a4,884 <UARTvprintf+0x39c>
     844:	fe442783          	lw	a5,-28(s0)
     848:	fff78793          	addi	a5,a5,-1
     84c:	fef42223          	sw	a5,-28(s0)
     850:	02c0006f          	j	87c <UARTvprintf+0x394>
     854:	fe842783          	lw	a5,-24(s0)
     858:	00178713          	addi	a4,a5,1
     85c:	fee42423          	sw	a4,-24(s0)
     860:	ff040713          	addi	a4,s0,-16
     864:	00f707b3          	add	a5,a4,a5
     868:	fdb44703          	lbu	a4,-37(s0)
     86c:	fce78223          	sb	a4,-60(a5)
     870:	fe442783          	lw	a5,-28(s0)
     874:	fff78793          	addi	a5,a5,-1
     878:	fef42223          	sw	a5,-28(s0)
     87c:	fe442783          	lw	a5,-28(s0)
     880:	fc079ae3          	bnez	a5,854 <UARTvprintf+0x36c>
     884:	fdc42783          	lw	a5,-36(s0)
     888:	06078863          	beqz	a5,8f8 <UARTvprintf+0x410>
     88c:	fe842783          	lw	a5,-24(s0)
     890:	00178713          	addi	a4,a5,1
     894:	fee42423          	sw	a4,-24(s0)
     898:	ff040713          	addi	a4,s0,-16
     89c:	00f707b3          	add	a5,a4,a5
     8a0:	02d00713          	li	a4,45
     8a4:	fce78223          	sb	a4,-60(a5)
     8a8:	0500006f          	j	8f8 <UARTvprintf+0x410>
     8ac:	000017b7          	lui	a5,0x1
     8b0:	11878713          	addi	a4,a5,280 # 1118 <__stack_init+0x4>
     8b4:	fc442683          	lw	a3,-60(s0)
     8b8:	fec42783          	lw	a5,-20(s0)
     8bc:	02f6d6b3          	divu	a3,a3,a5
     8c0:	fe042783          	lw	a5,-32(s0)
     8c4:	02f6f7b3          	remu	a5,a3,a5
     8c8:	00f70733          	add	a4,a4,a5
     8cc:	fe842783          	lw	a5,-24(s0)
     8d0:	00178693          	addi	a3,a5,1
     8d4:	fed42423          	sw	a3,-24(s0)
     8d8:	00074703          	lbu	a4,0(a4)
     8dc:	ff040693          	addi	a3,s0,-16
     8e0:	00f687b3          	add	a5,a3,a5
     8e4:	fce78223          	sb	a4,-60(a5)
     8e8:	fec42703          	lw	a4,-20(s0)
     8ec:	fe042783          	lw	a5,-32(s0)
     8f0:	02f757b3          	divu	a5,a4,a5
     8f4:	fef42623          	sw	a5,-20(s0)
     8f8:	fec42783          	lw	a5,-20(s0)
     8fc:	fa0798e3          	bnez	a5,8ac <UARTvprintf+0x3c4>
     900:	fb440793          	addi	a5,s0,-76
     904:	fe842583          	lw	a1,-24(s0)
     908:	00078513          	mv	a0,a5
     90c:	b55ff0ef          	jal	ra,460 <UARTwrite>
     910:	0340006f          	j	944 <UARTvprintf+0x45c>
     914:	fac42783          	lw	a5,-84(s0)
     918:	fff78793          	addi	a5,a5,-1
     91c:	00100593          	li	a1,1
     920:	00078513          	mv	a0,a5
     924:	b3dff0ef          	jal	ra,460 <UARTwrite>
     928:	01c0006f          	j	944 <UARTvprintf+0x45c>
     92c:	00500593          	li	a1,5
     930:	000017b7          	lui	a5,0x1
     934:	13078513          	addi	a0,a5,304 # 1130 <__stack_init+0x1c>
     938:	b29ff0ef          	jal	ra,460 <UARTwrite>
     93c:	0080006f          	j	944 <UARTvprintf+0x45c>
     940:	00000013          	nop
     944:	fac42783          	lw	a5,-84(s0)
     948:	0007c783          	lbu	a5,0(a5)
     94c:	ba079ce3          	bnez	a5,504 <UARTvprintf+0x1c>
     950:	00000013          	nop
     954:	00000013          	nop
     958:	05c12083          	lw	ra,92(sp)
     95c:	05812403          	lw	s0,88(sp)
     960:	06010113          	addi	sp,sp,96
     964:	00008067          	ret

00000968 <UARTprintf>:
     968:	fb010113          	addi	sp,sp,-80
     96c:	02112623          	sw	ra,44(sp)
     970:	02812423          	sw	s0,40(sp)
     974:	03010413          	addi	s0,sp,48
     978:	fca42e23          	sw	a0,-36(s0)
     97c:	00b42223          	sw	a1,4(s0)
     980:	00c42423          	sw	a2,8(s0)
     984:	00d42623          	sw	a3,12(s0)
     988:	00e42823          	sw	a4,16(s0)
     98c:	00f42a23          	sw	a5,20(s0)
     990:	01042c23          	sw	a6,24(s0)
     994:	01142e23          	sw	a7,28(s0)
     998:	02040793          	addi	a5,s0,32
     99c:	fcf42c23          	sw	a5,-40(s0)
     9a0:	fd842783          	lw	a5,-40(s0)
     9a4:	fe478793          	addi	a5,a5,-28
     9a8:	fef42623          	sw	a5,-20(s0)
     9ac:	fec42783          	lw	a5,-20(s0)
     9b0:	00078593          	mv	a1,a5
     9b4:	fdc42503          	lw	a0,-36(s0)
     9b8:	b31ff0ef          	jal	ra,4e8 <UARTvprintf>
     9bc:	00000013          	nop
     9c0:	02c12083          	lw	ra,44(sp)
     9c4:	02812403          	lw	s0,40(sp)
     9c8:	05010113          	addi	sp,sp,80
     9cc:	00008067          	ret

000009d0 <conv2d_5>:
     9d0:	fcc10113          	addi	sp,sp,-52
     9d4:	00812023          	sw	s0,0(sp)
     9d8:	00912223          	sw	s1,4(sp)
     9dc:	01212423          	sw	s2,8(sp)
     9e0:	01312623          	sw	s3,12(sp)
     9e4:	01412823          	sw	s4,16(sp)
     9e8:	01512a23          	sw	s5,20(sp)
     9ec:	01612c23          	sw	s6,24(sp)
     9f0:	01712e23          	sw	s7,28(sp)
     9f4:	03812023          	sw	s8,32(sp)
     9f8:	03912223          	sw	s9,36(sp)
     9fc:	03a12423          	sw	s10,40(sp)
     a00:	03b12623          	sw	s11,44(sp)
     a04:	03f12823          	sw	t6,48(sp)
     a08:	00300293          	li	t0,3
     a0c:	00a2b073          	csrc	vxrm,t0
     a10:	ffc68893          	addi	a7,a3,-4
     a14:	0018d813          	srli	a6,a7,0x1
     a18:	02000793          	li	a5,32
     a1c:	0127fe57          	vsetvli	t3,a5,e32,m4,tu,mu
     a20:	96006057          	vmul.vx	v0,v0,zero
     a24:	96406257          	vmul.vx	v4,v4,zero
     a28:	96806457          	vmul.vx	v8,v8,zero
     a2c:	96c06657          	vmul.vx	v12,v12,zero
     a30:	97006857          	vmul.vx	v16,v16,zero
     a34:	03404c57          	vadd.vx	v24,v20,zero
     a38:	03804e57          	vadd.vx	v28,v24,zero
     a3c:	00000293          	li	t0,0

00000a40 <OUTER_LOOP>:
     a40:	00000313          	li	t1,0

00000a44 <INNER_LOOP>:
     a44:	031283b3          	mul	t2,t0,a7
     a48:	00131e13          	slli	t3,t1,0x1
     a4c:	007e0e33          	add	t3,t3,t2
     a50:	007e1f13          	slli	t5,t3,0x7
     a54:	01e50d33          	add	s10,a0,t5
     a58:	02d283b3          	mul	t2,t0,a3
     a5c:	00131e13          	slli	t3,t1,0x1
     a60:	007e0e33          	add	t3,t3,t2
     a64:	002e1e13          	slli	t3,t3,0x2
     a68:	01c58433          	add	s0,a1,t3
     a6c:	00500713          	li	a4,5
     a70:	00000393          	li	t2,0
     a74:	00060f13          	mv	t5,a2
     a78:	00040f93          	mv	t6,s0

00000a7c <KER_ROW_LOOP>:
     a7c:	000faa83          	lw	s5,0(t6)
     a80:	004fab03          	lw	s6,4(t6)
     a84:	008fab83          	lw	s7,8(t6)
     a88:	00cfac03          	lw	s8,12(t6)
     a8c:	010fac83          	lw	s9,16(t6)
     a90:	014fad83          	lw	s11,20(t6)
     a94:	08000e13          	li	t3,128
     a98:	01cf04b3          	add	s1,t5,t3
     a9c:	01c48933          	add	s2,s1,t3
     aa0:	01c909b3          	add	s3,s2,t3
     aa4:	01c98a33          	add	s4,s3,t3
     aa8:	020f6207          	vle32.v	v4,(t5)
     aac:	0204e407          	vle32.v	v8,(s1)
     ab0:	02096607          	vle32.v	v12,(s2)
     ab4:	0209e807          	vle32.v	v16,(s3)
     ab8:	020a6a07          	vle32.v	v20,(s4)
     abc:	b64aec57          	vmacc.vx	v24,s5,v4
     ac0:	b68b6c57          	vmacc.vx	v24,s6,v8
     ac4:	b6cbec57          	vmacc.vx	v24,s7,v12
     ac8:	b70c6c57          	vmacc.vx	v24,s8,v16
     acc:	b74cec57          	vmacc.vx	v24,s9,v20
     ad0:	b64b6e57          	vmacc.vx	v28,s6,v4
     ad4:	b68bee57          	vmacc.vx	v28,s7,v8
     ad8:	b6cc6e57          	vmacc.vx	v28,s8,v12
     adc:	b70cee57          	vmacc.vx	v28,s9,v16
     ae0:	b74dee57          	vmacc.vx	v28,s11,v20
     ae4:	03c04e57          	vadd.vx	v28,v28,zero
     ae8:	00279e13          	slli	t3,a5,0x2
     aec:	03c70eb3          	mul	t4,a4,t3
     af0:	01df0f33          	add	t5,t5,t4
     af4:	00269e13          	slli	t3,a3,0x2
     af8:	01cf8fb3          	add	t6,t6,t3
     afc:	00138393          	addi	t2,t2,1
     b00:	f6e39ee3          	bne	t2,a4,a7c <KER_ROW_LOOP>
     b04:	00279e13          	slli	t3,a5,0x2
     b08:	01cd04b3          	add	s1,s10,t3
     b0c:	020d6c27          	vse32.v	v24,(s10)
     b10:	0204ee27          	vse32.v	v28,(s1)
     b14:	97806c57          	vmul.vx	v24,v24,zero
     b18:	97c06e57          	vmul.vx	v28,v28,zero
     b1c:	97a06e57          	vmul.vx	v28,v26,zero
     b20:	97c06e57          	vmul.vx	v28,v28,zero
     b24:	97a06e57          	vmul.vx	v28,v26,zero
     b28:	97c06e57          	vmul.vx	v28,v28,zero
     b2c:	00130313          	addi	t1,t1,1
     b30:	f1031ae3          	bne	t1,a6,a44 <INNER_LOOP>
     b34:	00128293          	addi	t0,t0,1
     b38:	f11294e3          	bne	t0,a7,a40 <OUTER_LOOP>
     b3c:	00012403          	lw	s0,0(sp)
     b40:	00412483          	lw	s1,4(sp)
     b44:	00812903          	lw	s2,8(sp)
     b48:	00c12983          	lw	s3,12(sp)
     b4c:	01012a03          	lw	s4,16(sp)
     b50:	01412a83          	lw	s5,20(sp)
     b54:	01812b03          	lw	s6,24(sp)
     b58:	01c12b83          	lw	s7,28(sp)
     b5c:	02012c03          	lw	s8,32(sp)
     b60:	02412c83          	lw	s9,36(sp)
     b64:	02812d03          	lw	s10,40(sp)
     b68:	02c12d83          	lw	s11,44(sp)
     b6c:	03012f83          	lw	t6,48(sp)
     b70:	03410113          	addi	sp,sp,52
     b74:	00008067          	ret

00000b78 <ISR5>:
     b78:	30047073          	csrci	mstatus,8
     b7c:	e8010113          	addi	sp,sp,-384
     b80:	10112023          	sw	ra,256(sp)
     b84:	10212223          	sw	sp,260(sp)
     b88:	10312423          	sw	gp,264(sp)
     b8c:	10412623          	sw	tp,268(sp)
     b90:	10512823          	sw	t0,272(sp)
     b94:	10612a23          	sw	t1,276(sp)
     b98:	10712c23          	sw	t2,280(sp)
     b9c:	10812e23          	sw	s0,284(sp)
     ba0:	12912023          	sw	s1,288(sp)
     ba4:	12a12223          	sw	a0,292(sp)
     ba8:	12b12423          	sw	a1,296(sp)
     bac:	12c12623          	sw	a2,300(sp)
     bb0:	12d12823          	sw	a3,304(sp)
     bb4:	12e12a23          	sw	a4,308(sp)
     bb8:	12f12c23          	sw	a5,312(sp)
     bbc:	13012e23          	sw	a6,316(sp)
     bc0:	15112023          	sw	a7,320(sp)
     bc4:	15212223          	sw	s2,324(sp)
     bc8:	15312423          	sw	s3,328(sp)
     bcc:	15412623          	sw	s4,332(sp)
     bd0:	15512823          	sw	s5,336(sp)
     bd4:	15612a23          	sw	s6,340(sp)
     bd8:	15712c23          	sw	s7,344(sp)
     bdc:	15812e23          	sw	s8,348(sp)
     be0:	17912023          	sw	s9,352(sp)
     be4:	17a12223          	sw	s10,356(sp)
     be8:	17b12423          	sw	s11,360(sp)
     bec:	17c12623          	sw	t3,364(sp)
     bf0:	17d12823          	sw	t4,368(sp)
     bf4:	17e12a23          	sw	t5,372(sp)
     bf8:	17f12c23          	sw	t6,376(sp)
     bfc:	341022f3          	csrr	t0,mepc
     c00:	16512e23          	sw	t0,380(sp)
     c04:	2d0000ef          	jal	ra,ed4 <ISR5_uart>
     c08:	30047073          	csrci	mstatus,8
     c0c:	17c12283          	lw	t0,380(sp)
     c10:	34129073          	csrw	mepc,t0
     c14:	10012083          	lw	ra,256(sp)
     c18:	10c12203          	lw	tp,268(sp)
     c1c:	11012283          	lw	t0,272(sp)
     c20:	11412303          	lw	t1,276(sp)
     c24:	11812383          	lw	t2,280(sp)
     c28:	11c12403          	lw	s0,284(sp)
     c2c:	12012483          	lw	s1,288(sp)
     c30:	12412503          	lw	a0,292(sp)
     c34:	12812583          	lw	a1,296(sp)
     c38:	12c12603          	lw	a2,300(sp)
     c3c:	13012683          	lw	a3,304(sp)
     c40:	13412703          	lw	a4,308(sp)
     c44:	13812783          	lw	a5,312(sp)
     c48:	13c12803          	lw	a6,316(sp)
     c4c:	14012883          	lw	a7,320(sp)
     c50:	14412903          	lw	s2,324(sp)
     c54:	14812983          	lw	s3,328(sp)
     c58:	14c12a03          	lw	s4,332(sp)
     c5c:	15012a83          	lw	s5,336(sp)
     c60:	15412b03          	lw	s6,340(sp)
     c64:	15812b83          	lw	s7,344(sp)
     c68:	15c12c03          	lw	s8,348(sp)
     c6c:	16012c83          	lw	s9,352(sp)
     c70:	16412d03          	lw	s10,356(sp)
     c74:	16812d83          	lw	s11,360(sp)
     c78:	16c12e03          	lw	t3,364(sp)
     c7c:	17012e83          	lw	t4,368(sp)
     c80:	17412f03          	lw	t5,372(sp)
     c84:	17812f83          	lw	t6,376(sp)
     c88:	18010113          	addi	sp,sp,384
     c8c:	30046073          	csrsi	mstatus,8
     c90:	30200073          	mret

00000c94 <ISR6>:
     c94:	30047073          	csrci	mstatus,8
     c98:	e8010113          	addi	sp,sp,-384
     c9c:	10112023          	sw	ra,256(sp)
     ca0:	10212223          	sw	sp,260(sp)
     ca4:	10312423          	sw	gp,264(sp)
     ca8:	10412623          	sw	tp,268(sp)
     cac:	10512823          	sw	t0,272(sp)
     cb0:	10612a23          	sw	t1,276(sp)
     cb4:	10712c23          	sw	t2,280(sp)
     cb8:	10812e23          	sw	s0,284(sp)
     cbc:	12912023          	sw	s1,288(sp)
     cc0:	12a12223          	sw	a0,292(sp)
     cc4:	12b12423          	sw	a1,296(sp)
     cc8:	12c12623          	sw	a2,300(sp)
     ccc:	12d12823          	sw	a3,304(sp)
     cd0:	12e12a23          	sw	a4,308(sp)
     cd4:	12f12c23          	sw	a5,312(sp)
     cd8:	13012e23          	sw	a6,316(sp)
     cdc:	15112023          	sw	a7,320(sp)
     ce0:	15212223          	sw	s2,324(sp)
     ce4:	15312423          	sw	s3,328(sp)
     ce8:	15412623          	sw	s4,332(sp)
     cec:	15512823          	sw	s5,336(sp)
     cf0:	15612a23          	sw	s6,340(sp)
     cf4:	15712c23          	sw	s7,344(sp)
     cf8:	15812e23          	sw	s8,348(sp)
     cfc:	17912023          	sw	s9,352(sp)
     d00:	17a12223          	sw	s10,356(sp)
     d04:	17b12423          	sw	s11,360(sp)
     d08:	17c12623          	sw	t3,364(sp)
     d0c:	17d12823          	sw	t4,368(sp)
     d10:	17e12a23          	sw	t5,372(sp)
     d14:	17f12c23          	sw	t6,376(sp)
     d18:	341022f3          	csrr	t0,mepc
     d1c:	16512e23          	sw	t0,380(sp)
     d20:	3d8000ef          	jal	ra,10f8 <ISR6_addr_exception>
     d24:	30047073          	csrci	mstatus,8
     d28:	17c12283          	lw	t0,380(sp)
     d2c:	34129073          	csrw	mepc,t0
     d30:	10012083          	lw	ra,256(sp)
     d34:	10c12203          	lw	tp,268(sp)
     d38:	11012283          	lw	t0,272(sp)
     d3c:	11412303          	lw	t1,276(sp)
     d40:	11812383          	lw	t2,280(sp)
     d44:	11c12403          	lw	s0,284(sp)
     d48:	12012483          	lw	s1,288(sp)
     d4c:	12412503          	lw	a0,292(sp)
     d50:	12812583          	lw	a1,296(sp)
     d54:	12c12603          	lw	a2,300(sp)
     d58:	13012683          	lw	a3,304(sp)
     d5c:	13412703          	lw	a4,308(sp)
     d60:	13812783          	lw	a5,312(sp)
     d64:	13c12803          	lw	a6,316(sp)
     d68:	14012883          	lw	a7,320(sp)
     d6c:	14412903          	lw	s2,324(sp)
     d70:	14812983          	lw	s3,328(sp)
     d74:	14c12a03          	lw	s4,332(sp)
     d78:	15012a83          	lw	s5,336(sp)
     d7c:	15412b03          	lw	s6,340(sp)
     d80:	15812b83          	lw	s7,344(sp)
     d84:	15c12c03          	lw	s8,348(sp)
     d88:	16012c83          	lw	s9,352(sp)
     d8c:	16412d03          	lw	s10,356(sp)
     d90:	16812d83          	lw	s11,360(sp)
     d94:	16c12e03          	lw	t3,364(sp)
     d98:	17012e83          	lw	t4,368(sp)
     d9c:	17412f03          	lw	t5,372(sp)
     da0:	17812f83          	lw	t6,376(sp)
     da4:	18010113          	addi	sp,sp,384
     da8:	30046073          	csrsi	mstatus,8
     dac:	30200073          	mret

00000db0 <main>:
     db0:	fd010113          	addi	sp,sp,-48
     db4:	02112623          	sw	ra,44(sp)
     db8:	02812423          	sw	s0,40(sp)
     dbc:	03010413          	addi	s0,sp,48
     dc0:	fca42e23          	sw	a0,-36(s0)
     dc4:	fcb42c23          	sw	a1,-40(s0)
     dc8:	00100593          	li	a1,1
     dcc:	0000e7b7          	lui	a5,0xe
     dd0:	10078513          	addi	a0,a5,256 # e100 <__stack_init+0xcfec>
     dd4:	b5cff0ef          	jal	ra,130 <UART_init>
     dd8:	02000693          	li	a3,32
     ddc:	001007b7          	lui	a5,0x100
     de0:	00078613          	mv	a2,a5
     de4:	000207b7          	lui	a5,0x20
     de8:	00078593          	mv	a1,a5
     dec:	001197b7          	lui	a5,0x119
     df0:	48078513          	addi	a0,a5,1152 # 119480 <Y>
     df4:	bddff0ef          	jal	ra,9d0 <conv2d_5>
     df8:	00a00793          	li	a5,10
     dfc:	fef42423          	sw	a5,-24(s0)
     e00:	001327b7          	lui	a5,0x132
     e04:	ca07a023          	sw	zero,-864(a5) # 131ca0 <err_count>
     e08:	fe042623          	sw	zero,-20(s0)
     e0c:	0a00006f          	j	eac <main+0xfc>
     e10:	001197b7          	lui	a5,0x119
     e14:	48078713          	addi	a4,a5,1152 # 119480 <Y>
     e18:	fec42783          	lw	a5,-20(s0)
     e1c:	00279793          	slli	a5,a5,0x2
     e20:	00f707b3          	add	a5,a4,a5
     e24:	0007a703          	lw	a4,0(a5)
     e28:	001017b7          	lui	a5,0x101
     e2c:	c8078693          	addi	a3,a5,-896 # 100c80 <expected_output>
     e30:	fec42783          	lw	a5,-20(s0)
     e34:	00279793          	slli	a5,a5,0x2
     e38:	00f687b3          	add	a5,a3,a5
     e3c:	0007a783          	lw	a5,0(a5)
     e40:	40f707b3          	sub	a5,a4,a5
     e44:	fe842703          	lw	a4,-24(s0)
     e48:	04f74263          	blt	a4,a5,e8c <main+0xdc>
     e4c:	001197b7          	lui	a5,0x119
     e50:	48078713          	addi	a4,a5,1152 # 119480 <Y>
     e54:	fec42783          	lw	a5,-20(s0)
     e58:	00279793          	slli	a5,a5,0x2
     e5c:	00f707b3          	add	a5,a4,a5
     e60:	0007a703          	lw	a4,0(a5)
     e64:	001017b7          	lui	a5,0x101
     e68:	c8078693          	addi	a3,a5,-896 # 100c80 <expected_output>
     e6c:	fec42783          	lw	a5,-20(s0)
     e70:	00279793          	slli	a5,a5,0x2
     e74:	00f687b3          	add	a5,a3,a5
     e78:	0007a783          	lw	a5,0(a5)
     e7c:	40f70733          	sub	a4,a4,a5
     e80:	fe842783          	lw	a5,-24(s0)
     e84:	40f007b3          	neg	a5,a5
     e88:	00f75c63          	bge	a4,a5,ea0 <main+0xf0>
     e8c:	001327b7          	lui	a5,0x132
     e90:	ca07a783          	lw	a5,-864(a5) # 131ca0 <err_count>
     e94:	00178713          	addi	a4,a5,1
     e98:	001327b7          	lui	a5,0x132
     e9c:	cae7a023          	sw	a4,-864(a5) # 131ca0 <err_count>
     ea0:	fec42783          	lw	a5,-20(s0)
     ea4:	00178793          	addi	a5,a5,1
     ea8:	fef42623          	sw	a5,-20(s0)
     eac:	fec42703          	lw	a4,-20(s0)
     eb0:	000067b7          	lui	a5,0x6
     eb4:	1ff78793          	addi	a5,a5,511 # 61ff <__stack_init+0x50eb>
     eb8:	f4e7dce3          	bge	a5,a4,e10 <main+0x60>
     ebc:	00000793          	li	a5,0
     ec0:	00078513          	mv	a0,a5
     ec4:	02c12083          	lw	ra,44(sp)
     ec8:	02812403          	lw	s0,40(sp)
     ecc:	03010113          	addi	sp,sp,48
     ed0:	00008067          	ret

00000ed4 <ISR5_uart>:
     ed4:	ff010113          	addi	sp,sp,-16
     ed8:	00112623          	sw	ra,12(sp)
     edc:	00812423          	sw	s0,8(sp)
     ee0:	01010413          	addi	s0,sp,16
     ee4:	5f1007b7          	lui	a5,0x5f100
     ee8:	6f078793          	addi	a5,a5,1776 # 5f1006f0 <__VREG_END+0x5ef806f0>
     eec:	0007c783          	lbu	a5,0(a5)
     ef0:	0ff7f713          	andi	a4,a5,255
     ef4:	000217b7          	lui	a5,0x21
     ef8:	0ae78a23          	sb	a4,180(a5) # 210b4 <read_val>
     efc:	000217b7          	lui	a5,0x21
     f00:	0b47c783          	lbu	a5,180(a5) # 210b4 <read_val>
     f04:	00078513          	mv	a0,a5
     f08:	c50ff0ef          	jal	ra,358 <UARTCharPut>
     f0c:	000217b7          	lui	a5,0x21
     f10:	0ac7a783          	lw	a5,172(a5) # 210ac <recv_counter>
     f14:	00178713          	addi	a4,a5,1
     f18:	000217b7          	lui	a5,0x21
     f1c:	0ae7a623          	sw	a4,172(a5) # 210ac <recv_counter>
     f20:	000217b7          	lui	a5,0x21
     f24:	0bd7c783          	lbu	a5,189(a5) # 210bd <start_read>
     f28:	12079a63          	bnez	a5,105c <ISR5_uart+0x188>
     f2c:	000217b7          	lui	a5,0x21
     f30:	0bc7c783          	lbu	a5,188(a5) # 210bc <header_count>
     f34:	04079063          	bnez	a5,f74 <ISR5_uart+0xa0>
     f38:	000217b7          	lui	a5,0x21
     f3c:	0b47c703          	lbu	a4,180(a5) # 210b4 <read_val>
     f40:	0aa00793          	li	a5,170
     f44:	00f71e63          	bne	a4,a5,f60 <ISR5_uart+0x8c>
     f48:	000217b7          	lui	a5,0x21
     f4c:	00100713          	li	a4,1
     f50:	0ae78e23          	sb	a4,188(a5) # 210bc <header_count>
     f54:	000217b7          	lui	a5,0x21
     f58:	0a078ea3          	sb	zero,189(a5) # 210bd <start_read>
     f5c:	1400006f          	j	109c <ISR5_uart+0x1c8>
     f60:	000217b7          	lui	a5,0x21
     f64:	0a078e23          	sb	zero,188(a5) # 210bc <header_count>
     f68:	000217b7          	lui	a5,0x21
     f6c:	0a078ea3          	sb	zero,189(a5) # 210bd <start_read>
     f70:	12c0006f          	j	109c <ISR5_uart+0x1c8>
     f74:	000217b7          	lui	a5,0x21
     f78:	0bc7c703          	lbu	a4,188(a5) # 210bc <header_count>
     f7c:	00100793          	li	a5,1
     f80:	04f71063          	bne	a4,a5,fc0 <ISR5_uart+0xec>
     f84:	000217b7          	lui	a5,0x21
     f88:	0b47c703          	lbu	a4,180(a5) # 210b4 <read_val>
     f8c:	05500793          	li	a5,85
     f90:	00f71e63          	bne	a4,a5,fac <ISR5_uart+0xd8>
     f94:	000217b7          	lui	a5,0x21
     f98:	00200713          	li	a4,2
     f9c:	0ae78e23          	sb	a4,188(a5) # 210bc <header_count>
     fa0:	000217b7          	lui	a5,0x21
     fa4:	0a078ea3          	sb	zero,189(a5) # 210bd <start_read>
     fa8:	0f40006f          	j	109c <ISR5_uart+0x1c8>
     fac:	000217b7          	lui	a5,0x21
     fb0:	0a078e23          	sb	zero,188(a5) # 210bc <header_count>
     fb4:	000217b7          	lui	a5,0x21
     fb8:	0a078ea3          	sb	zero,189(a5) # 210bd <start_read>
     fbc:	0e00006f          	j	109c <ISR5_uart+0x1c8>
     fc0:	000217b7          	lui	a5,0x21
     fc4:	0bc7c703          	lbu	a4,188(a5) # 210bc <header_count>
     fc8:	00200793          	li	a5,2
     fcc:	04f71063          	bne	a4,a5,100c <ISR5_uart+0x138>
     fd0:	000217b7          	lui	a5,0x21
     fd4:	0b47c703          	lbu	a4,180(a5) # 210b4 <read_val>
     fd8:	0bb00793          	li	a5,187
     fdc:	00f71e63          	bne	a4,a5,ff8 <ISR5_uart+0x124>
     fe0:	000217b7          	lui	a5,0x21
     fe4:	00300713          	li	a4,3
     fe8:	0ae78e23          	sb	a4,188(a5) # 210bc <header_count>
     fec:	000217b7          	lui	a5,0x21
     ff0:	0a078ea3          	sb	zero,189(a5) # 210bd <start_read>
     ff4:	0a80006f          	j	109c <ISR5_uart+0x1c8>
     ff8:	000217b7          	lui	a5,0x21
     ffc:	0a078e23          	sb	zero,188(a5) # 210bc <header_count>
    1000:	000217b7          	lui	a5,0x21
    1004:	0a078ea3          	sb	zero,189(a5) # 210bd <start_read>
    1008:	0940006f          	j	109c <ISR5_uart+0x1c8>
    100c:	000217b7          	lui	a5,0x21
    1010:	0bc7c703          	lbu	a4,188(a5) # 210bc <header_count>
    1014:	00300793          	li	a5,3
    1018:	08f71263          	bne	a4,a5,109c <ISR5_uart+0x1c8>
    101c:	000217b7          	lui	a5,0x21
    1020:	0b47c703          	lbu	a4,180(a5) # 210b4 <read_val>
    1024:	06600793          	li	a5,102
    1028:	02f71063          	bne	a4,a5,1048 <ISR5_uart+0x174>
    102c:	000217b7          	lui	a5,0x21
    1030:	00400713          	li	a4,4
    1034:	0ae78e23          	sb	a4,188(a5) # 210bc <header_count>
    1038:	000217b7          	lui	a5,0x21
    103c:	00100713          	li	a4,1
    1040:	0ae78ea3          	sb	a4,189(a5) # 210bd <start_read>
    1044:	0580006f          	j	109c <ISR5_uart+0x1c8>
    1048:	000217b7          	lui	a5,0x21
    104c:	0a078e23          	sb	zero,188(a5) # 210bc <header_count>
    1050:	000217b7          	lui	a5,0x21
    1054:	0a078ea3          	sb	zero,189(a5) # 210bd <start_read>
    1058:	0440006f          	j	109c <ISR5_uart+0x1c8>
    105c:	000217b7          	lui	a5,0x21
    1060:	0b47c783          	lbu	a5,180(a5) # 210b4 <read_val>
    1064:	00078713          	mv	a4,a5
    1068:	000217b7          	lui	a5,0x21
    106c:	0b07a783          	lw	a5,176(a5) # 210b0 <recv_num_counter>
    1070:	01071713          	slli	a4,a4,0x10
    1074:	000216b7          	lui	a3,0x21
    1078:	0c468693          	addi	a3,a3,196 # 210c4 <img_buf>
    107c:	00279793          	slli	a5,a5,0x2
    1080:	00f687b3          	add	a5,a3,a5
    1084:	00e7a023          	sw	a4,0(a5)
    1088:	000217b7          	lui	a5,0x21
    108c:	0b07a783          	lw	a5,176(a5) # 210b0 <recv_num_counter>
    1090:	00178713          	addi	a4,a5,1
    1094:	000217b7          	lui	a5,0x21
    1098:	0ae7a823          	sw	a4,176(a5) # 210b0 <recv_num_counter>
    109c:	000217b7          	lui	a5,0x21
    10a0:	0b07a703          	lw	a4,176(a5) # 210b0 <recv_num_counter>
    10a4:	40000793          	li	a5,1024
    10a8:	02f71a63          	bne	a4,a5,10dc <ISR5_uart+0x208>
    10ac:	000217b7          	lui	a5,0x21
    10b0:	00100713          	li	a4,1
    10b4:	0ae7ac23          	sw	a4,184(a5) # 210b8 <pflag>
    10b8:	000217b7          	lui	a5,0x21
    10bc:	0a07a823          	sw	zero,176(a5) # 210b0 <recv_num_counter>
    10c0:	000217b7          	lui	a5,0x21
    10c4:	0a07a623          	sw	zero,172(a5) # 210ac <recv_counter>
    10c8:	000217b7          	lui	a5,0x21
    10cc:	0a078ea3          	sb	zero,189(a5) # 210bd <start_read>
    10d0:	000217b7          	lui	a5,0x21
    10d4:	0a078e23          	sb	zero,188(a5) # 210bc <header_count>
    10d8:	00c0006f          	j	10e4 <ISR5_uart+0x210>
    10dc:	000217b7          	lui	a5,0x21
    10e0:	0a07ac23          	sw	zero,184(a5) # 210b8 <pflag>
    10e4:	00000013          	nop
    10e8:	00c12083          	lw	ra,12(sp)
    10ec:	00812403          	lw	s0,8(sp)
    10f0:	01010113          	addi	sp,sp,16
    10f4:	00008067          	ret

000010f8 <ISR6_addr_exception>:
    10f8:	ff010113          	addi	sp,sp,-16
    10fc:	00812623          	sw	s0,12(sp)
    1100:	01010413          	addi	s0,sp,16
    1104:	00000013          	nop
    1108:	00c12403          	lw	s0,12(sp)
    110c:	01010113          	addi	sp,sp,16
    1110:	00008067          	ret

00001114 <__stack_init>:
    1114:	effc                	fsw	fa5,92(a5)
    1116:	          	fence	unknown,unknown

Disassembly of section .vmem_data:

00100000 <ker>:
  100000:	0001                	nop
  100002:	0000                	unimp
  100004:	0001                	nop
  100006:	0000                	unimp
  100008:	0001                	nop
  10000a:	0000                	unimp
  10000c:	0001                	nop
  10000e:	0000                	unimp
  100010:	0001                	nop
  100012:	0000                	unimp
  100014:	0001                	nop
  100016:	0000                	unimp
  100018:	0001                	nop
  10001a:	0000                	unimp
  10001c:	0001                	nop
  10001e:	0000                	unimp
  100020:	0001                	nop
  100022:	0000                	unimp
  100024:	0001                	nop
  100026:	0000                	unimp
  100028:	0001                	nop
  10002a:	0000                	unimp
  10002c:	0001                	nop
  10002e:	0000                	unimp
  100030:	0001                	nop
  100032:	0000                	unimp
  100034:	0001                	nop
  100036:	0000                	unimp
  100038:	0001                	nop
  10003a:	0000                	unimp
  10003c:	0001                	nop
  10003e:	0000                	unimp
  100040:	0001                	nop
  100042:	0000                	unimp
  100044:	0001                	nop
  100046:	0000                	unimp
  100048:	0001                	nop
  10004a:	0000                	unimp
  10004c:	0001                	nop
  10004e:	0000                	unimp
  100050:	0001                	nop
  100052:	0000                	unimp
  100054:	0001                	nop
  100056:	0000                	unimp
  100058:	0001                	nop
  10005a:	0000                	unimp
  10005c:	0001                	nop
  10005e:	0000                	unimp
  100060:	0001                	nop
  100062:	0000                	unimp
  100064:	0001                	nop
  100066:	0000                	unimp
  100068:	0001                	nop
  10006a:	0000                	unimp
  10006c:	0001                	nop
  10006e:	0000                	unimp
  100070:	0001                	nop
  100072:	0000                	unimp
  100074:	0001                	nop
  100076:	0000                	unimp
  100078:	0001                	nop
  10007a:	0000                	unimp
  10007c:	0001                	nop
  10007e:	0000                	unimp
  100080:	0002                	c.slli64	zero
  100082:	0000                	unimp
  100084:	0002                	c.slli64	zero
  100086:	0000                	unimp
  100088:	0002                	c.slli64	zero
  10008a:	0000                	unimp
  10008c:	0002                	c.slli64	zero
  10008e:	0000                	unimp
  100090:	0002                	c.slli64	zero
  100092:	0000                	unimp
  100094:	0002                	c.slli64	zero
  100096:	0000                	unimp
  100098:	0002                	c.slli64	zero
  10009a:	0000                	unimp
  10009c:	0002                	c.slli64	zero
  10009e:	0000                	unimp
  1000a0:	0002                	c.slli64	zero
  1000a2:	0000                	unimp
  1000a4:	0002                	c.slli64	zero
  1000a6:	0000                	unimp
  1000a8:	0002                	c.slli64	zero
  1000aa:	0000                	unimp
  1000ac:	0002                	c.slli64	zero
  1000ae:	0000                	unimp
  1000b0:	0002                	c.slli64	zero
  1000b2:	0000                	unimp
  1000b4:	0002                	c.slli64	zero
  1000b6:	0000                	unimp
  1000b8:	0002                	c.slli64	zero
  1000ba:	0000                	unimp
  1000bc:	0002                	c.slli64	zero
  1000be:	0000                	unimp
  1000c0:	0002                	c.slli64	zero
  1000c2:	0000                	unimp
  1000c4:	0002                	c.slli64	zero
  1000c6:	0000                	unimp
  1000c8:	0002                	c.slli64	zero
  1000ca:	0000                	unimp
  1000cc:	0002                	c.slli64	zero
  1000ce:	0000                	unimp
  1000d0:	0002                	c.slli64	zero
  1000d2:	0000                	unimp
  1000d4:	0002                	c.slli64	zero
  1000d6:	0000                	unimp
  1000d8:	0002                	c.slli64	zero
  1000da:	0000                	unimp
  1000dc:	0002                	c.slli64	zero
  1000de:	0000                	unimp
  1000e0:	0002                	c.slli64	zero
  1000e2:	0000                	unimp
  1000e4:	0002                	c.slli64	zero
  1000e6:	0000                	unimp
  1000e8:	0002                	c.slli64	zero
  1000ea:	0000                	unimp
  1000ec:	0002                	c.slli64	zero
  1000ee:	0000                	unimp
  1000f0:	0002                	c.slli64	zero
  1000f2:	0000                	unimp
  1000f4:	0002                	c.slli64	zero
  1000f6:	0000                	unimp
  1000f8:	0002                	c.slli64	zero
  1000fa:	0000                	unimp
  1000fc:	0002                	c.slli64	zero
  1000fe:	0000                	unimp
  100100:	00000003          	lb	zero,0(zero) # 0 <boot>
  100104:	00000003          	lb	zero,0(zero) # 0 <boot>
  100108:	00000003          	lb	zero,0(zero) # 0 <boot>
  10010c:	00000003          	lb	zero,0(zero) # 0 <boot>
  100110:	00000003          	lb	zero,0(zero) # 0 <boot>
  100114:	00000003          	lb	zero,0(zero) # 0 <boot>
  100118:	00000003          	lb	zero,0(zero) # 0 <boot>
  10011c:	00000003          	lb	zero,0(zero) # 0 <boot>
  100120:	00000003          	lb	zero,0(zero) # 0 <boot>
  100124:	00000003          	lb	zero,0(zero) # 0 <boot>
  100128:	00000003          	lb	zero,0(zero) # 0 <boot>
  10012c:	00000003          	lb	zero,0(zero) # 0 <boot>
  100130:	00000003          	lb	zero,0(zero) # 0 <boot>
  100134:	00000003          	lb	zero,0(zero) # 0 <boot>
  100138:	00000003          	lb	zero,0(zero) # 0 <boot>
  10013c:	00000003          	lb	zero,0(zero) # 0 <boot>
  100140:	00000003          	lb	zero,0(zero) # 0 <boot>
  100144:	00000003          	lb	zero,0(zero) # 0 <boot>
  100148:	00000003          	lb	zero,0(zero) # 0 <boot>
  10014c:	00000003          	lb	zero,0(zero) # 0 <boot>
  100150:	00000003          	lb	zero,0(zero) # 0 <boot>
  100154:	00000003          	lb	zero,0(zero) # 0 <boot>
  100158:	00000003          	lb	zero,0(zero) # 0 <boot>
  10015c:	00000003          	lb	zero,0(zero) # 0 <boot>
  100160:	00000003          	lb	zero,0(zero) # 0 <boot>
  100164:	00000003          	lb	zero,0(zero) # 0 <boot>
  100168:	00000003          	lb	zero,0(zero) # 0 <boot>
  10016c:	00000003          	lb	zero,0(zero) # 0 <boot>
  100170:	00000003          	lb	zero,0(zero) # 0 <boot>
  100174:	00000003          	lb	zero,0(zero) # 0 <boot>
  100178:	00000003          	lb	zero,0(zero) # 0 <boot>
  10017c:	00000003          	lb	zero,0(zero) # 0 <boot>
  100180:	0004                	0x4
  100182:	0000                	unimp
  100184:	0004                	0x4
  100186:	0000                	unimp
  100188:	0004                	0x4
  10018a:	0000                	unimp
  10018c:	0004                	0x4
  10018e:	0000                	unimp
  100190:	0004                	0x4
  100192:	0000                	unimp
  100194:	0004                	0x4
  100196:	0000                	unimp
  100198:	0004                	0x4
  10019a:	0000                	unimp
  10019c:	0004                	0x4
  10019e:	0000                	unimp
  1001a0:	0004                	0x4
  1001a2:	0000                	unimp
  1001a4:	0004                	0x4
  1001a6:	0000                	unimp
  1001a8:	0004                	0x4
  1001aa:	0000                	unimp
  1001ac:	0004                	0x4
  1001ae:	0000                	unimp
  1001b0:	0004                	0x4
  1001b2:	0000                	unimp
  1001b4:	0004                	0x4
  1001b6:	0000                	unimp
  1001b8:	0004                	0x4
  1001ba:	0000                	unimp
  1001bc:	0004                	0x4
  1001be:	0000                	unimp
  1001c0:	0004                	0x4
  1001c2:	0000                	unimp
  1001c4:	0004                	0x4
  1001c6:	0000                	unimp
  1001c8:	0004                	0x4
  1001ca:	0000                	unimp
  1001cc:	0004                	0x4
  1001ce:	0000                	unimp
  1001d0:	0004                	0x4
  1001d2:	0000                	unimp
  1001d4:	0004                	0x4
  1001d6:	0000                	unimp
  1001d8:	0004                	0x4
  1001da:	0000                	unimp
  1001dc:	0004                	0x4
  1001de:	0000                	unimp
  1001e0:	0004                	0x4
  1001e2:	0000                	unimp
  1001e4:	0004                	0x4
  1001e6:	0000                	unimp
  1001e8:	0004                	0x4
  1001ea:	0000                	unimp
  1001ec:	0004                	0x4
  1001ee:	0000                	unimp
  1001f0:	0004                	0x4
  1001f2:	0000                	unimp
  1001f4:	0004                	0x4
  1001f6:	0000                	unimp
  1001f8:	0004                	0x4
  1001fa:	0000                	unimp
  1001fc:	0004                	0x4
  1001fe:	0000                	unimp
  100200:	0005                	c.nop	1
  100202:	0000                	unimp
  100204:	0005                	c.nop	1
  100206:	0000                	unimp
  100208:	0005                	c.nop	1
  10020a:	0000                	unimp
  10020c:	0005                	c.nop	1
  10020e:	0000                	unimp
  100210:	0005                	c.nop	1
  100212:	0000                	unimp
  100214:	0005                	c.nop	1
  100216:	0000                	unimp
  100218:	0005                	c.nop	1
  10021a:	0000                	unimp
  10021c:	0005                	c.nop	1
  10021e:	0000                	unimp
  100220:	0005                	c.nop	1
  100222:	0000                	unimp
  100224:	0005                	c.nop	1
  100226:	0000                	unimp
  100228:	0005                	c.nop	1
  10022a:	0000                	unimp
  10022c:	0005                	c.nop	1
  10022e:	0000                	unimp
  100230:	0005                	c.nop	1
  100232:	0000                	unimp
  100234:	0005                	c.nop	1
  100236:	0000                	unimp
  100238:	0005                	c.nop	1
  10023a:	0000                	unimp
  10023c:	0005                	c.nop	1
  10023e:	0000                	unimp
  100240:	0005                	c.nop	1
  100242:	0000                	unimp
  100244:	0005                	c.nop	1
  100246:	0000                	unimp
  100248:	0005                	c.nop	1
  10024a:	0000                	unimp
  10024c:	0005                	c.nop	1
  10024e:	0000                	unimp
  100250:	0005                	c.nop	1
  100252:	0000                	unimp
  100254:	0005                	c.nop	1
  100256:	0000                	unimp
  100258:	0005                	c.nop	1
  10025a:	0000                	unimp
  10025c:	0005                	c.nop	1
  10025e:	0000                	unimp
  100260:	0005                	c.nop	1
  100262:	0000                	unimp
  100264:	0005                	c.nop	1
  100266:	0000                	unimp
  100268:	0005                	c.nop	1
  10026a:	0000                	unimp
  10026c:	0005                	c.nop	1
  10026e:	0000                	unimp
  100270:	0005                	c.nop	1
  100272:	0000                	unimp
  100274:	0005                	c.nop	1
  100276:	0000                	unimp
  100278:	0005                	c.nop	1
  10027a:	0000                	unimp
  10027c:	0005                	c.nop	1
  10027e:	0000                	unimp
  100280:	0006                	c.slli	zero,0x1
  100282:	0000                	unimp
  100284:	0006                	c.slli	zero,0x1
  100286:	0000                	unimp
  100288:	0006                	c.slli	zero,0x1
  10028a:	0000                	unimp
  10028c:	0006                	c.slli	zero,0x1
  10028e:	0000                	unimp
  100290:	0006                	c.slli	zero,0x1
  100292:	0000                	unimp
  100294:	0006                	c.slli	zero,0x1
  100296:	0000                	unimp
  100298:	0006                	c.slli	zero,0x1
  10029a:	0000                	unimp
  10029c:	0006                	c.slli	zero,0x1
  10029e:	0000                	unimp
  1002a0:	0006                	c.slli	zero,0x1
  1002a2:	0000                	unimp
  1002a4:	0006                	c.slli	zero,0x1
  1002a6:	0000                	unimp
  1002a8:	0006                	c.slli	zero,0x1
  1002aa:	0000                	unimp
  1002ac:	0006                	c.slli	zero,0x1
  1002ae:	0000                	unimp
  1002b0:	0006                	c.slli	zero,0x1
  1002b2:	0000                	unimp
  1002b4:	0006                	c.slli	zero,0x1
  1002b6:	0000                	unimp
  1002b8:	0006                	c.slli	zero,0x1
  1002ba:	0000                	unimp
  1002bc:	0006                	c.slli	zero,0x1
  1002be:	0000                	unimp
  1002c0:	0006                	c.slli	zero,0x1
  1002c2:	0000                	unimp
  1002c4:	0006                	c.slli	zero,0x1
  1002c6:	0000                	unimp
  1002c8:	0006                	c.slli	zero,0x1
  1002ca:	0000                	unimp
  1002cc:	0006                	c.slli	zero,0x1
  1002ce:	0000                	unimp
  1002d0:	0006                	c.slli	zero,0x1
  1002d2:	0000                	unimp
  1002d4:	0006                	c.slli	zero,0x1
  1002d6:	0000                	unimp
  1002d8:	0006                	c.slli	zero,0x1
  1002da:	0000                	unimp
  1002dc:	0006                	c.slli	zero,0x1
  1002de:	0000                	unimp
  1002e0:	0006                	c.slli	zero,0x1
  1002e2:	0000                	unimp
  1002e4:	0006                	c.slli	zero,0x1
  1002e6:	0000                	unimp
  1002e8:	0006                	c.slli	zero,0x1
  1002ea:	0000                	unimp
  1002ec:	0006                	c.slli	zero,0x1
  1002ee:	0000                	unimp
  1002f0:	0006                	c.slli	zero,0x1
  1002f2:	0000                	unimp
  1002f4:	0006                	c.slli	zero,0x1
  1002f6:	0000                	unimp
  1002f8:	0006                	c.slli	zero,0x1
  1002fa:	0000                	unimp
  1002fc:	0006                	c.slli	zero,0x1
  1002fe:	0000                	unimp
  100300:	00000007          	vle8.v	v0,(zero),v0.t
  100304:	00000007          	vle8.v	v0,(zero),v0.t
  100308:	00000007          	vle8.v	v0,(zero),v0.t
  10030c:	00000007          	vle8.v	v0,(zero),v0.t
  100310:	00000007          	vle8.v	v0,(zero),v0.t
  100314:	00000007          	vle8.v	v0,(zero),v0.t
  100318:	00000007          	vle8.v	v0,(zero),v0.t
  10031c:	00000007          	vle8.v	v0,(zero),v0.t
  100320:	00000007          	vle8.v	v0,(zero),v0.t
  100324:	00000007          	vle8.v	v0,(zero),v0.t
  100328:	00000007          	vle8.v	v0,(zero),v0.t
  10032c:	00000007          	vle8.v	v0,(zero),v0.t
  100330:	00000007          	vle8.v	v0,(zero),v0.t
  100334:	00000007          	vle8.v	v0,(zero),v0.t
  100338:	00000007          	vle8.v	v0,(zero),v0.t
  10033c:	00000007          	vle8.v	v0,(zero),v0.t
  100340:	00000007          	vle8.v	v0,(zero),v0.t
  100344:	00000007          	vle8.v	v0,(zero),v0.t
  100348:	00000007          	vle8.v	v0,(zero),v0.t
  10034c:	00000007          	vle8.v	v0,(zero),v0.t
  100350:	00000007          	vle8.v	v0,(zero),v0.t
  100354:	00000007          	vle8.v	v0,(zero),v0.t
  100358:	00000007          	vle8.v	v0,(zero),v0.t
  10035c:	00000007          	vle8.v	v0,(zero),v0.t
  100360:	00000007          	vle8.v	v0,(zero),v0.t
  100364:	00000007          	vle8.v	v0,(zero),v0.t
  100368:	00000007          	vle8.v	v0,(zero),v0.t
  10036c:	00000007          	vle8.v	v0,(zero),v0.t
  100370:	00000007          	vle8.v	v0,(zero),v0.t
  100374:	00000007          	vle8.v	v0,(zero),v0.t
  100378:	00000007          	vle8.v	v0,(zero),v0.t
  10037c:	00000007          	vle8.v	v0,(zero),v0.t
  100380:	0008                	0x8
  100382:	0000                	unimp
  100384:	0008                	0x8
  100386:	0000                	unimp
  100388:	0008                	0x8
  10038a:	0000                	unimp
  10038c:	0008                	0x8
  10038e:	0000                	unimp
  100390:	0008                	0x8
  100392:	0000                	unimp
  100394:	0008                	0x8
  100396:	0000                	unimp
  100398:	0008                	0x8
  10039a:	0000                	unimp
  10039c:	0008                	0x8
  10039e:	0000                	unimp
  1003a0:	0008                	0x8
  1003a2:	0000                	unimp
  1003a4:	0008                	0x8
  1003a6:	0000                	unimp
  1003a8:	0008                	0x8
  1003aa:	0000                	unimp
  1003ac:	0008                	0x8
  1003ae:	0000                	unimp
  1003b0:	0008                	0x8
  1003b2:	0000                	unimp
  1003b4:	0008                	0x8
  1003b6:	0000                	unimp
  1003b8:	0008                	0x8
  1003ba:	0000                	unimp
  1003bc:	0008                	0x8
  1003be:	0000                	unimp
  1003c0:	0008                	0x8
  1003c2:	0000                	unimp
  1003c4:	0008                	0x8
  1003c6:	0000                	unimp
  1003c8:	0008                	0x8
  1003ca:	0000                	unimp
  1003cc:	0008                	0x8
  1003ce:	0000                	unimp
  1003d0:	0008                	0x8
  1003d2:	0000                	unimp
  1003d4:	0008                	0x8
  1003d6:	0000                	unimp
  1003d8:	0008                	0x8
  1003da:	0000                	unimp
  1003dc:	0008                	0x8
  1003de:	0000                	unimp
  1003e0:	0008                	0x8
  1003e2:	0000                	unimp
  1003e4:	0008                	0x8
  1003e6:	0000                	unimp
  1003e8:	0008                	0x8
  1003ea:	0000                	unimp
  1003ec:	0008                	0x8
  1003ee:	0000                	unimp
  1003f0:	0008                	0x8
  1003f2:	0000                	unimp
  1003f4:	0008                	0x8
  1003f6:	0000                	unimp
  1003f8:	0008                	0x8
  1003fa:	0000                	unimp
  1003fc:	0008                	0x8
  1003fe:	0000                	unimp
  100400:	0009                	c.nop	2
  100402:	0000                	unimp
  100404:	0009                	c.nop	2
  100406:	0000                	unimp
  100408:	0009                	c.nop	2
  10040a:	0000                	unimp
  10040c:	0009                	c.nop	2
  10040e:	0000                	unimp
  100410:	0009                	c.nop	2
  100412:	0000                	unimp
  100414:	0009                	c.nop	2
  100416:	0000                	unimp
  100418:	0009                	c.nop	2
  10041a:	0000                	unimp
  10041c:	0009                	c.nop	2
  10041e:	0000                	unimp
  100420:	0009                	c.nop	2
  100422:	0000                	unimp
  100424:	0009                	c.nop	2
  100426:	0000                	unimp
  100428:	0009                	c.nop	2
  10042a:	0000                	unimp
  10042c:	0009                	c.nop	2
  10042e:	0000                	unimp
  100430:	0009                	c.nop	2
  100432:	0000                	unimp
  100434:	0009                	c.nop	2
  100436:	0000                	unimp
  100438:	0009                	c.nop	2
  10043a:	0000                	unimp
  10043c:	0009                	c.nop	2
  10043e:	0000                	unimp
  100440:	0009                	c.nop	2
  100442:	0000                	unimp
  100444:	0009                	c.nop	2
  100446:	0000                	unimp
  100448:	0009                	c.nop	2
  10044a:	0000                	unimp
  10044c:	0009                	c.nop	2
  10044e:	0000                	unimp
  100450:	0009                	c.nop	2
  100452:	0000                	unimp
  100454:	0009                	c.nop	2
  100456:	0000                	unimp
  100458:	0009                	c.nop	2
  10045a:	0000                	unimp
  10045c:	0009                	c.nop	2
  10045e:	0000                	unimp
  100460:	0009                	c.nop	2
  100462:	0000                	unimp
  100464:	0009                	c.nop	2
  100466:	0000                	unimp
  100468:	0009                	c.nop	2
  10046a:	0000                	unimp
  10046c:	0009                	c.nop	2
  10046e:	0000                	unimp
  100470:	0009                	c.nop	2
  100472:	0000                	unimp
  100474:	0009                	c.nop	2
  100476:	0000                	unimp
  100478:	0009                	c.nop	2
  10047a:	0000                	unimp
  10047c:	0009                	c.nop	2
  10047e:	0000                	unimp
  100480:	000a                	c.slli	zero,0x2
  100482:	0000                	unimp
  100484:	000a                	c.slli	zero,0x2
  100486:	0000                	unimp
  100488:	000a                	c.slli	zero,0x2
  10048a:	0000                	unimp
  10048c:	000a                	c.slli	zero,0x2
  10048e:	0000                	unimp
  100490:	000a                	c.slli	zero,0x2
  100492:	0000                	unimp
  100494:	000a                	c.slli	zero,0x2
  100496:	0000                	unimp
  100498:	000a                	c.slli	zero,0x2
  10049a:	0000                	unimp
  10049c:	000a                	c.slli	zero,0x2
  10049e:	0000                	unimp
  1004a0:	000a                	c.slli	zero,0x2
  1004a2:	0000                	unimp
  1004a4:	000a                	c.slli	zero,0x2
  1004a6:	0000                	unimp
  1004a8:	000a                	c.slli	zero,0x2
  1004aa:	0000                	unimp
  1004ac:	000a                	c.slli	zero,0x2
  1004ae:	0000                	unimp
  1004b0:	000a                	c.slli	zero,0x2
  1004b2:	0000                	unimp
  1004b4:	000a                	c.slli	zero,0x2
  1004b6:	0000                	unimp
  1004b8:	000a                	c.slli	zero,0x2
  1004ba:	0000                	unimp
  1004bc:	000a                	c.slli	zero,0x2
  1004be:	0000                	unimp
  1004c0:	000a                	c.slli	zero,0x2
  1004c2:	0000                	unimp
  1004c4:	000a                	c.slli	zero,0x2
  1004c6:	0000                	unimp
  1004c8:	000a                	c.slli	zero,0x2
  1004ca:	0000                	unimp
  1004cc:	000a                	c.slli	zero,0x2
  1004ce:	0000                	unimp
  1004d0:	000a                	c.slli	zero,0x2
  1004d2:	0000                	unimp
  1004d4:	000a                	c.slli	zero,0x2
  1004d6:	0000                	unimp
  1004d8:	000a                	c.slli	zero,0x2
  1004da:	0000                	unimp
  1004dc:	000a                	c.slli	zero,0x2
  1004de:	0000                	unimp
  1004e0:	000a                	c.slli	zero,0x2
  1004e2:	0000                	unimp
  1004e4:	000a                	c.slli	zero,0x2
  1004e6:	0000                	unimp
  1004e8:	000a                	c.slli	zero,0x2
  1004ea:	0000                	unimp
  1004ec:	000a                	c.slli	zero,0x2
  1004ee:	0000                	unimp
  1004f0:	000a                	c.slli	zero,0x2
  1004f2:	0000                	unimp
  1004f4:	000a                	c.slli	zero,0x2
  1004f6:	0000                	unimp
  1004f8:	000a                	c.slli	zero,0x2
  1004fa:	0000                	unimp
  1004fc:	000a                	c.slli	zero,0x2
  1004fe:	0000                	unimp
  100500:	0000000b          	0xb
  100504:	0000000b          	0xb
  100508:	0000000b          	0xb
  10050c:	0000000b          	0xb
  100510:	0000000b          	0xb
  100514:	0000000b          	0xb
  100518:	0000000b          	0xb
  10051c:	0000000b          	0xb
  100520:	0000000b          	0xb
  100524:	0000000b          	0xb
  100528:	0000000b          	0xb
  10052c:	0000000b          	0xb
  100530:	0000000b          	0xb
  100534:	0000000b          	0xb
  100538:	0000000b          	0xb
  10053c:	0000000b          	0xb
  100540:	0000000b          	0xb
  100544:	0000000b          	0xb
  100548:	0000000b          	0xb
  10054c:	0000000b          	0xb
  100550:	0000000b          	0xb
  100554:	0000000b          	0xb
  100558:	0000000b          	0xb
  10055c:	0000000b          	0xb
  100560:	0000000b          	0xb
  100564:	0000000b          	0xb
  100568:	0000000b          	0xb
  10056c:	0000000b          	0xb
  100570:	0000000b          	0xb
  100574:	0000000b          	0xb
  100578:	0000000b          	0xb
  10057c:	0000000b          	0xb
  100580:	000c                	0xc
  100582:	0000                	unimp
  100584:	000c                	0xc
  100586:	0000                	unimp
  100588:	000c                	0xc
  10058a:	0000                	unimp
  10058c:	000c                	0xc
  10058e:	0000                	unimp
  100590:	000c                	0xc
  100592:	0000                	unimp
  100594:	000c                	0xc
  100596:	0000                	unimp
  100598:	000c                	0xc
  10059a:	0000                	unimp
  10059c:	000c                	0xc
  10059e:	0000                	unimp
  1005a0:	000c                	0xc
  1005a2:	0000                	unimp
  1005a4:	000c                	0xc
  1005a6:	0000                	unimp
  1005a8:	000c                	0xc
  1005aa:	0000                	unimp
  1005ac:	000c                	0xc
  1005ae:	0000                	unimp
  1005b0:	000c                	0xc
  1005b2:	0000                	unimp
  1005b4:	000c                	0xc
  1005b6:	0000                	unimp
  1005b8:	000c                	0xc
  1005ba:	0000                	unimp
  1005bc:	000c                	0xc
  1005be:	0000                	unimp
  1005c0:	000c                	0xc
  1005c2:	0000                	unimp
  1005c4:	000c                	0xc
  1005c6:	0000                	unimp
  1005c8:	000c                	0xc
  1005ca:	0000                	unimp
  1005cc:	000c                	0xc
  1005ce:	0000                	unimp
  1005d0:	000c                	0xc
  1005d2:	0000                	unimp
  1005d4:	000c                	0xc
  1005d6:	0000                	unimp
  1005d8:	000c                	0xc
  1005da:	0000                	unimp
  1005dc:	000c                	0xc
  1005de:	0000                	unimp
  1005e0:	000c                	0xc
  1005e2:	0000                	unimp
  1005e4:	000c                	0xc
  1005e6:	0000                	unimp
  1005e8:	000c                	0xc
  1005ea:	0000                	unimp
  1005ec:	000c                	0xc
  1005ee:	0000                	unimp
  1005f0:	000c                	0xc
  1005f2:	0000                	unimp
  1005f4:	000c                	0xc
  1005f6:	0000                	unimp
  1005f8:	000c                	0xc
  1005fa:	0000                	unimp
  1005fc:	000c                	0xc
  1005fe:	0000                	unimp
  100600:	000d                	c.nop	3
  100602:	0000                	unimp
  100604:	000d                	c.nop	3
  100606:	0000                	unimp
  100608:	000d                	c.nop	3
  10060a:	0000                	unimp
  10060c:	000d                	c.nop	3
  10060e:	0000                	unimp
  100610:	000d                	c.nop	3
  100612:	0000                	unimp
  100614:	000d                	c.nop	3
  100616:	0000                	unimp
  100618:	000d                	c.nop	3
  10061a:	0000                	unimp
  10061c:	000d                	c.nop	3
  10061e:	0000                	unimp
  100620:	000d                	c.nop	3
  100622:	0000                	unimp
  100624:	000d                	c.nop	3
  100626:	0000                	unimp
  100628:	000d                	c.nop	3
  10062a:	0000                	unimp
  10062c:	000d                	c.nop	3
  10062e:	0000                	unimp
  100630:	000d                	c.nop	3
  100632:	0000                	unimp
  100634:	000d                	c.nop	3
  100636:	0000                	unimp
  100638:	000d                	c.nop	3
  10063a:	0000                	unimp
  10063c:	000d                	c.nop	3
  10063e:	0000                	unimp
  100640:	000d                	c.nop	3
  100642:	0000                	unimp
  100644:	000d                	c.nop	3
  100646:	0000                	unimp
  100648:	000d                	c.nop	3
  10064a:	0000                	unimp
  10064c:	000d                	c.nop	3
  10064e:	0000                	unimp
  100650:	000d                	c.nop	3
  100652:	0000                	unimp
  100654:	000d                	c.nop	3
  100656:	0000                	unimp
  100658:	000d                	c.nop	3
  10065a:	0000                	unimp
  10065c:	000d                	c.nop	3
  10065e:	0000                	unimp
  100660:	000d                	c.nop	3
  100662:	0000                	unimp
  100664:	000d                	c.nop	3
  100666:	0000                	unimp
  100668:	000d                	c.nop	3
  10066a:	0000                	unimp
  10066c:	000d                	c.nop	3
  10066e:	0000                	unimp
  100670:	000d                	c.nop	3
  100672:	0000                	unimp
  100674:	000d                	c.nop	3
  100676:	0000                	unimp
  100678:	000d                	c.nop	3
  10067a:	0000                	unimp
  10067c:	000d                	c.nop	3
  10067e:	0000                	unimp
  100680:	000e                	c.slli	zero,0x3
  100682:	0000                	unimp
  100684:	000e                	c.slli	zero,0x3
  100686:	0000                	unimp
  100688:	000e                	c.slli	zero,0x3
  10068a:	0000                	unimp
  10068c:	000e                	c.slli	zero,0x3
  10068e:	0000                	unimp
  100690:	000e                	c.slli	zero,0x3
  100692:	0000                	unimp
  100694:	000e                	c.slli	zero,0x3
  100696:	0000                	unimp
  100698:	000e                	c.slli	zero,0x3
  10069a:	0000                	unimp
  10069c:	000e                	c.slli	zero,0x3
  10069e:	0000                	unimp
  1006a0:	000e                	c.slli	zero,0x3
  1006a2:	0000                	unimp
  1006a4:	000e                	c.slli	zero,0x3
  1006a6:	0000                	unimp
  1006a8:	000e                	c.slli	zero,0x3
  1006aa:	0000                	unimp
  1006ac:	000e                	c.slli	zero,0x3
  1006ae:	0000                	unimp
  1006b0:	000e                	c.slli	zero,0x3
  1006b2:	0000                	unimp
  1006b4:	000e                	c.slli	zero,0x3
  1006b6:	0000                	unimp
  1006b8:	000e                	c.slli	zero,0x3
  1006ba:	0000                	unimp
  1006bc:	000e                	c.slli	zero,0x3
  1006be:	0000                	unimp
  1006c0:	000e                	c.slli	zero,0x3
  1006c2:	0000                	unimp
  1006c4:	000e                	c.slli	zero,0x3
  1006c6:	0000                	unimp
  1006c8:	000e                	c.slli	zero,0x3
  1006ca:	0000                	unimp
  1006cc:	000e                	c.slli	zero,0x3
  1006ce:	0000                	unimp
  1006d0:	000e                	c.slli	zero,0x3
  1006d2:	0000                	unimp
  1006d4:	000e                	c.slli	zero,0x3
  1006d6:	0000                	unimp
  1006d8:	000e                	c.slli	zero,0x3
  1006da:	0000                	unimp
  1006dc:	000e                	c.slli	zero,0x3
  1006de:	0000                	unimp
  1006e0:	000e                	c.slli	zero,0x3
  1006e2:	0000                	unimp
  1006e4:	000e                	c.slli	zero,0x3
  1006e6:	0000                	unimp
  1006e8:	000e                	c.slli	zero,0x3
  1006ea:	0000                	unimp
  1006ec:	000e                	c.slli	zero,0x3
  1006ee:	0000                	unimp
  1006f0:	000e                	c.slli	zero,0x3
  1006f2:	0000                	unimp
  1006f4:	000e                	c.slli	zero,0x3
  1006f6:	0000                	unimp
  1006f8:	000e                	c.slli	zero,0x3
  1006fa:	0000                	unimp
  1006fc:	000e                	c.slli	zero,0x3
  1006fe:	0000                	unimp
  100700:	0000000f          	fence	unknown,unknown
  100704:	0000000f          	fence	unknown,unknown
  100708:	0000000f          	fence	unknown,unknown
  10070c:	0000000f          	fence	unknown,unknown
  100710:	0000000f          	fence	unknown,unknown
  100714:	0000000f          	fence	unknown,unknown
  100718:	0000000f          	fence	unknown,unknown
  10071c:	0000000f          	fence	unknown,unknown
  100720:	0000000f          	fence	unknown,unknown
  100724:	0000000f          	fence	unknown,unknown
  100728:	0000000f          	fence	unknown,unknown
  10072c:	0000000f          	fence	unknown,unknown
  100730:	0000000f          	fence	unknown,unknown
  100734:	0000000f          	fence	unknown,unknown
  100738:	0000000f          	fence	unknown,unknown
  10073c:	0000000f          	fence	unknown,unknown
  100740:	0000000f          	fence	unknown,unknown
  100744:	0000000f          	fence	unknown,unknown
  100748:	0000000f          	fence	unknown,unknown
  10074c:	0000000f          	fence	unknown,unknown
  100750:	0000000f          	fence	unknown,unknown
  100754:	0000000f          	fence	unknown,unknown
  100758:	0000000f          	fence	unknown,unknown
  10075c:	0000000f          	fence	unknown,unknown
  100760:	0000000f          	fence	unknown,unknown
  100764:	0000000f          	fence	unknown,unknown
  100768:	0000000f          	fence	unknown,unknown
  10076c:	0000000f          	fence	unknown,unknown
  100770:	0000000f          	fence	unknown,unknown
  100774:	0000000f          	fence	unknown,unknown
  100778:	0000000f          	fence	unknown,unknown
  10077c:	0000000f          	fence	unknown,unknown
  100780:	0010                	0x10
  100782:	0000                	unimp
  100784:	0010                	0x10
  100786:	0000                	unimp
  100788:	0010                	0x10
  10078a:	0000                	unimp
  10078c:	0010                	0x10
  10078e:	0000                	unimp
  100790:	0010                	0x10
  100792:	0000                	unimp
  100794:	0010                	0x10
  100796:	0000                	unimp
  100798:	0010                	0x10
  10079a:	0000                	unimp
  10079c:	0010                	0x10
  10079e:	0000                	unimp
  1007a0:	0010                	0x10
  1007a2:	0000                	unimp
  1007a4:	0010                	0x10
  1007a6:	0000                	unimp
  1007a8:	0010                	0x10
  1007aa:	0000                	unimp
  1007ac:	0010                	0x10
  1007ae:	0000                	unimp
  1007b0:	0010                	0x10
  1007b2:	0000                	unimp
  1007b4:	0010                	0x10
  1007b6:	0000                	unimp
  1007b8:	0010                	0x10
  1007ba:	0000                	unimp
  1007bc:	0010                	0x10
  1007be:	0000                	unimp
  1007c0:	0010                	0x10
  1007c2:	0000                	unimp
  1007c4:	0010                	0x10
  1007c6:	0000                	unimp
  1007c8:	0010                	0x10
  1007ca:	0000                	unimp
  1007cc:	0010                	0x10
  1007ce:	0000                	unimp
  1007d0:	0010                	0x10
  1007d2:	0000                	unimp
  1007d4:	0010                	0x10
  1007d6:	0000                	unimp
  1007d8:	0010                	0x10
  1007da:	0000                	unimp
  1007dc:	0010                	0x10
  1007de:	0000                	unimp
  1007e0:	0010                	0x10
  1007e2:	0000                	unimp
  1007e4:	0010                	0x10
  1007e6:	0000                	unimp
  1007e8:	0010                	0x10
  1007ea:	0000                	unimp
  1007ec:	0010                	0x10
  1007ee:	0000                	unimp
  1007f0:	0010                	0x10
  1007f2:	0000                	unimp
  1007f4:	0010                	0x10
  1007f6:	0000                	unimp
  1007f8:	0010                	0x10
  1007fa:	0000                	unimp
  1007fc:	0010                	0x10
  1007fe:	0000                	unimp
  100800:	0011                	c.nop	4
  100802:	0000                	unimp
  100804:	0011                	c.nop	4
  100806:	0000                	unimp
  100808:	0011                	c.nop	4
  10080a:	0000                	unimp
  10080c:	0011                	c.nop	4
  10080e:	0000                	unimp
  100810:	0011                	c.nop	4
  100812:	0000                	unimp
  100814:	0011                	c.nop	4
  100816:	0000                	unimp
  100818:	0011                	c.nop	4
  10081a:	0000                	unimp
  10081c:	0011                	c.nop	4
  10081e:	0000                	unimp
  100820:	0011                	c.nop	4
  100822:	0000                	unimp
  100824:	0011                	c.nop	4
  100826:	0000                	unimp
  100828:	0011                	c.nop	4
  10082a:	0000                	unimp
  10082c:	0011                	c.nop	4
  10082e:	0000                	unimp
  100830:	0011                	c.nop	4
  100832:	0000                	unimp
  100834:	0011                	c.nop	4
  100836:	0000                	unimp
  100838:	0011                	c.nop	4
  10083a:	0000                	unimp
  10083c:	0011                	c.nop	4
  10083e:	0000                	unimp
  100840:	0011                	c.nop	4
  100842:	0000                	unimp
  100844:	0011                	c.nop	4
  100846:	0000                	unimp
  100848:	0011                	c.nop	4
  10084a:	0000                	unimp
  10084c:	0011                	c.nop	4
  10084e:	0000                	unimp
  100850:	0011                	c.nop	4
  100852:	0000                	unimp
  100854:	0011                	c.nop	4
  100856:	0000                	unimp
  100858:	0011                	c.nop	4
  10085a:	0000                	unimp
  10085c:	0011                	c.nop	4
  10085e:	0000                	unimp
  100860:	0011                	c.nop	4
  100862:	0000                	unimp
  100864:	0011                	c.nop	4
  100866:	0000                	unimp
  100868:	0011                	c.nop	4
  10086a:	0000                	unimp
  10086c:	0011                	c.nop	4
  10086e:	0000                	unimp
  100870:	0011                	c.nop	4
  100872:	0000                	unimp
  100874:	0011                	c.nop	4
  100876:	0000                	unimp
  100878:	0011                	c.nop	4
  10087a:	0000                	unimp
  10087c:	0011                	c.nop	4
  10087e:	0000                	unimp
  100880:	0012                	c.slli	zero,0x4
  100882:	0000                	unimp
  100884:	0012                	c.slli	zero,0x4
  100886:	0000                	unimp
  100888:	0012                	c.slli	zero,0x4
  10088a:	0000                	unimp
  10088c:	0012                	c.slli	zero,0x4
  10088e:	0000                	unimp
  100890:	0012                	c.slli	zero,0x4
  100892:	0000                	unimp
  100894:	0012                	c.slli	zero,0x4
  100896:	0000                	unimp
  100898:	0012                	c.slli	zero,0x4
  10089a:	0000                	unimp
  10089c:	0012                	c.slli	zero,0x4
  10089e:	0000                	unimp
  1008a0:	0012                	c.slli	zero,0x4
  1008a2:	0000                	unimp
  1008a4:	0012                	c.slli	zero,0x4
  1008a6:	0000                	unimp
  1008a8:	0012                	c.slli	zero,0x4
  1008aa:	0000                	unimp
  1008ac:	0012                	c.slli	zero,0x4
  1008ae:	0000                	unimp
  1008b0:	0012                	c.slli	zero,0x4
  1008b2:	0000                	unimp
  1008b4:	0012                	c.slli	zero,0x4
  1008b6:	0000                	unimp
  1008b8:	0012                	c.slli	zero,0x4
  1008ba:	0000                	unimp
  1008bc:	0012                	c.slli	zero,0x4
  1008be:	0000                	unimp
  1008c0:	0012                	c.slli	zero,0x4
  1008c2:	0000                	unimp
  1008c4:	0012                	c.slli	zero,0x4
  1008c6:	0000                	unimp
  1008c8:	0012                	c.slli	zero,0x4
  1008ca:	0000                	unimp
  1008cc:	0012                	c.slli	zero,0x4
  1008ce:	0000                	unimp
  1008d0:	0012                	c.slli	zero,0x4
  1008d2:	0000                	unimp
  1008d4:	0012                	c.slli	zero,0x4
  1008d6:	0000                	unimp
  1008d8:	0012                	c.slli	zero,0x4
  1008da:	0000                	unimp
  1008dc:	0012                	c.slli	zero,0x4
  1008de:	0000                	unimp
  1008e0:	0012                	c.slli	zero,0x4
  1008e2:	0000                	unimp
  1008e4:	0012                	c.slli	zero,0x4
  1008e6:	0000                	unimp
  1008e8:	0012                	c.slli	zero,0x4
  1008ea:	0000                	unimp
  1008ec:	0012                	c.slli	zero,0x4
  1008ee:	0000                	unimp
  1008f0:	0012                	c.slli	zero,0x4
  1008f2:	0000                	unimp
  1008f4:	0012                	c.slli	zero,0x4
  1008f6:	0000                	unimp
  1008f8:	0012                	c.slli	zero,0x4
  1008fa:	0000                	unimp
  1008fc:	0012                	c.slli	zero,0x4
  1008fe:	0000                	unimp
  100900:	00000013          	nop
  100904:	00000013          	nop
  100908:	00000013          	nop
  10090c:	00000013          	nop
  100910:	00000013          	nop
  100914:	00000013          	nop
  100918:	00000013          	nop
  10091c:	00000013          	nop
  100920:	00000013          	nop
  100924:	00000013          	nop
  100928:	00000013          	nop
  10092c:	00000013          	nop
  100930:	00000013          	nop
  100934:	00000013          	nop
  100938:	00000013          	nop
  10093c:	00000013          	nop
  100940:	00000013          	nop
  100944:	00000013          	nop
  100948:	00000013          	nop
  10094c:	00000013          	nop
  100950:	00000013          	nop
  100954:	00000013          	nop
  100958:	00000013          	nop
  10095c:	00000013          	nop
  100960:	00000013          	nop
  100964:	00000013          	nop
  100968:	00000013          	nop
  10096c:	00000013          	nop
  100970:	00000013          	nop
  100974:	00000013          	nop
  100978:	00000013          	nop
  10097c:	00000013          	nop
  100980:	0014                	0x14
  100982:	0000                	unimp
  100984:	0014                	0x14
  100986:	0000                	unimp
  100988:	0014                	0x14
  10098a:	0000                	unimp
  10098c:	0014                	0x14
  10098e:	0000                	unimp
  100990:	0014                	0x14
  100992:	0000                	unimp
  100994:	0014                	0x14
  100996:	0000                	unimp
  100998:	0014                	0x14
  10099a:	0000                	unimp
  10099c:	0014                	0x14
  10099e:	0000                	unimp
  1009a0:	0014                	0x14
  1009a2:	0000                	unimp
  1009a4:	0014                	0x14
  1009a6:	0000                	unimp
  1009a8:	0014                	0x14
  1009aa:	0000                	unimp
  1009ac:	0014                	0x14
  1009ae:	0000                	unimp
  1009b0:	0014                	0x14
  1009b2:	0000                	unimp
  1009b4:	0014                	0x14
  1009b6:	0000                	unimp
  1009b8:	0014                	0x14
  1009ba:	0000                	unimp
  1009bc:	0014                	0x14
  1009be:	0000                	unimp
  1009c0:	0014                	0x14
  1009c2:	0000                	unimp
  1009c4:	0014                	0x14
  1009c6:	0000                	unimp
  1009c8:	0014                	0x14
  1009ca:	0000                	unimp
  1009cc:	0014                	0x14
  1009ce:	0000                	unimp
  1009d0:	0014                	0x14
  1009d2:	0000                	unimp
  1009d4:	0014                	0x14
  1009d6:	0000                	unimp
  1009d8:	0014                	0x14
  1009da:	0000                	unimp
  1009dc:	0014                	0x14
  1009de:	0000                	unimp
  1009e0:	0014                	0x14
  1009e2:	0000                	unimp
  1009e4:	0014                	0x14
  1009e6:	0000                	unimp
  1009e8:	0014                	0x14
  1009ea:	0000                	unimp
  1009ec:	0014                	0x14
  1009ee:	0000                	unimp
  1009f0:	0014                	0x14
  1009f2:	0000                	unimp
  1009f4:	0014                	0x14
  1009f6:	0000                	unimp
  1009f8:	0014                	0x14
  1009fa:	0000                	unimp
  1009fc:	0014                	0x14
  1009fe:	0000                	unimp
  100a00:	0015                	c.nop	5
  100a02:	0000                	unimp
  100a04:	0015                	c.nop	5
  100a06:	0000                	unimp
  100a08:	0015                	c.nop	5
  100a0a:	0000                	unimp
  100a0c:	0015                	c.nop	5
  100a0e:	0000                	unimp
  100a10:	0015                	c.nop	5
  100a12:	0000                	unimp
  100a14:	0015                	c.nop	5
  100a16:	0000                	unimp
  100a18:	0015                	c.nop	5
  100a1a:	0000                	unimp
  100a1c:	0015                	c.nop	5
  100a1e:	0000                	unimp
  100a20:	0015                	c.nop	5
  100a22:	0000                	unimp
  100a24:	0015                	c.nop	5
  100a26:	0000                	unimp
  100a28:	0015                	c.nop	5
  100a2a:	0000                	unimp
  100a2c:	0015                	c.nop	5
  100a2e:	0000                	unimp
  100a30:	0015                	c.nop	5
  100a32:	0000                	unimp
  100a34:	0015                	c.nop	5
  100a36:	0000                	unimp
  100a38:	0015                	c.nop	5
  100a3a:	0000                	unimp
  100a3c:	0015                	c.nop	5
  100a3e:	0000                	unimp
  100a40:	0015                	c.nop	5
  100a42:	0000                	unimp
  100a44:	0015                	c.nop	5
  100a46:	0000                	unimp
  100a48:	0015                	c.nop	5
  100a4a:	0000                	unimp
  100a4c:	0015                	c.nop	5
  100a4e:	0000                	unimp
  100a50:	0015                	c.nop	5
  100a52:	0000                	unimp
  100a54:	0015                	c.nop	5
  100a56:	0000                	unimp
  100a58:	0015                	c.nop	5
  100a5a:	0000                	unimp
  100a5c:	0015                	c.nop	5
  100a5e:	0000                	unimp
  100a60:	0015                	c.nop	5
  100a62:	0000                	unimp
  100a64:	0015                	c.nop	5
  100a66:	0000                	unimp
  100a68:	0015                	c.nop	5
  100a6a:	0000                	unimp
  100a6c:	0015                	c.nop	5
  100a6e:	0000                	unimp
  100a70:	0015                	c.nop	5
  100a72:	0000                	unimp
  100a74:	0015                	c.nop	5
  100a76:	0000                	unimp
  100a78:	0015                	c.nop	5
  100a7a:	0000                	unimp
  100a7c:	0015                	c.nop	5
  100a7e:	0000                	unimp
  100a80:	0016                	c.slli	zero,0x5
  100a82:	0000                	unimp
  100a84:	0016                	c.slli	zero,0x5
  100a86:	0000                	unimp
  100a88:	0016                	c.slli	zero,0x5
  100a8a:	0000                	unimp
  100a8c:	0016                	c.slli	zero,0x5
  100a8e:	0000                	unimp
  100a90:	0016                	c.slli	zero,0x5
  100a92:	0000                	unimp
  100a94:	0016                	c.slli	zero,0x5
  100a96:	0000                	unimp
  100a98:	0016                	c.slli	zero,0x5
  100a9a:	0000                	unimp
  100a9c:	0016                	c.slli	zero,0x5
  100a9e:	0000                	unimp
  100aa0:	0016                	c.slli	zero,0x5
  100aa2:	0000                	unimp
  100aa4:	0016                	c.slli	zero,0x5
  100aa6:	0000                	unimp
  100aa8:	0016                	c.slli	zero,0x5
  100aaa:	0000                	unimp
  100aac:	0016                	c.slli	zero,0x5
  100aae:	0000                	unimp
  100ab0:	0016                	c.slli	zero,0x5
  100ab2:	0000                	unimp
  100ab4:	0016                	c.slli	zero,0x5
  100ab6:	0000                	unimp
  100ab8:	0016                	c.slli	zero,0x5
  100aba:	0000                	unimp
  100abc:	0016                	c.slli	zero,0x5
  100abe:	0000                	unimp
  100ac0:	0016                	c.slli	zero,0x5
  100ac2:	0000                	unimp
  100ac4:	0016                	c.slli	zero,0x5
  100ac6:	0000                	unimp
  100ac8:	0016                	c.slli	zero,0x5
  100aca:	0000                	unimp
  100acc:	0016                	c.slli	zero,0x5
  100ace:	0000                	unimp
  100ad0:	0016                	c.slli	zero,0x5
  100ad2:	0000                	unimp
  100ad4:	0016                	c.slli	zero,0x5
  100ad6:	0000                	unimp
  100ad8:	0016                	c.slli	zero,0x5
  100ada:	0000                	unimp
  100adc:	0016                	c.slli	zero,0x5
  100ade:	0000                	unimp
  100ae0:	0016                	c.slli	zero,0x5
  100ae2:	0000                	unimp
  100ae4:	0016                	c.slli	zero,0x5
  100ae6:	0000                	unimp
  100ae8:	0016                	c.slli	zero,0x5
  100aea:	0000                	unimp
  100aec:	0016                	c.slli	zero,0x5
  100aee:	0000                	unimp
  100af0:	0016                	c.slli	zero,0x5
  100af2:	0000                	unimp
  100af4:	0016                	c.slli	zero,0x5
  100af6:	0000                	unimp
  100af8:	0016                	c.slli	zero,0x5
  100afa:	0000                	unimp
  100afc:	0016                	c.slli	zero,0x5
  100afe:	0000                	unimp
  100b00:	00000017          	auipc	zero,0x0
  100b04:	00000017          	auipc	zero,0x0
  100b08:	00000017          	auipc	zero,0x0
  100b0c:	00000017          	auipc	zero,0x0
  100b10:	00000017          	auipc	zero,0x0
  100b14:	00000017          	auipc	zero,0x0
  100b18:	00000017          	auipc	zero,0x0
  100b1c:	00000017          	auipc	zero,0x0
  100b20:	00000017          	auipc	zero,0x0
  100b24:	00000017          	auipc	zero,0x0
  100b28:	00000017          	auipc	zero,0x0
  100b2c:	00000017          	auipc	zero,0x0
  100b30:	00000017          	auipc	zero,0x0
  100b34:	00000017          	auipc	zero,0x0
  100b38:	00000017          	auipc	zero,0x0
  100b3c:	00000017          	auipc	zero,0x0
  100b40:	00000017          	auipc	zero,0x0
  100b44:	00000017          	auipc	zero,0x0
  100b48:	00000017          	auipc	zero,0x0
  100b4c:	00000017          	auipc	zero,0x0
  100b50:	00000017          	auipc	zero,0x0
  100b54:	00000017          	auipc	zero,0x0
  100b58:	00000017          	auipc	zero,0x0
  100b5c:	00000017          	auipc	zero,0x0
  100b60:	00000017          	auipc	zero,0x0
  100b64:	00000017          	auipc	zero,0x0
  100b68:	00000017          	auipc	zero,0x0
  100b6c:	00000017          	auipc	zero,0x0
  100b70:	00000017          	auipc	zero,0x0
  100b74:	00000017          	auipc	zero,0x0
  100b78:	00000017          	auipc	zero,0x0
  100b7c:	00000017          	auipc	zero,0x0
  100b80:	0018                	0x18
  100b82:	0000                	unimp
  100b84:	0018                	0x18
  100b86:	0000                	unimp
  100b88:	0018                	0x18
  100b8a:	0000                	unimp
  100b8c:	0018                	0x18
  100b8e:	0000                	unimp
  100b90:	0018                	0x18
  100b92:	0000                	unimp
  100b94:	0018                	0x18
  100b96:	0000                	unimp
  100b98:	0018                	0x18
  100b9a:	0000                	unimp
  100b9c:	0018                	0x18
  100b9e:	0000                	unimp
  100ba0:	0018                	0x18
  100ba2:	0000                	unimp
  100ba4:	0018                	0x18
  100ba6:	0000                	unimp
  100ba8:	0018                	0x18
  100baa:	0000                	unimp
  100bac:	0018                	0x18
  100bae:	0000                	unimp
  100bb0:	0018                	0x18
  100bb2:	0000                	unimp
  100bb4:	0018                	0x18
  100bb6:	0000                	unimp
  100bb8:	0018                	0x18
  100bba:	0000                	unimp
  100bbc:	0018                	0x18
  100bbe:	0000                	unimp
  100bc0:	0018                	0x18
  100bc2:	0000                	unimp
  100bc4:	0018                	0x18
  100bc6:	0000                	unimp
  100bc8:	0018                	0x18
  100bca:	0000                	unimp
  100bcc:	0018                	0x18
  100bce:	0000                	unimp
  100bd0:	0018                	0x18
  100bd2:	0000                	unimp
  100bd4:	0018                	0x18
  100bd6:	0000                	unimp
  100bd8:	0018                	0x18
  100bda:	0000                	unimp
  100bdc:	0018                	0x18
  100bde:	0000                	unimp
  100be0:	0018                	0x18
  100be2:	0000                	unimp
  100be4:	0018                	0x18
  100be6:	0000                	unimp
  100be8:	0018                	0x18
  100bea:	0000                	unimp
  100bec:	0018                	0x18
  100bee:	0000                	unimp
  100bf0:	0018                	0x18
  100bf2:	0000                	unimp
  100bf4:	0018                	0x18
  100bf6:	0000                	unimp
  100bf8:	0018                	0x18
  100bfa:	0000                	unimp
  100bfc:	0018                	0x18
  100bfe:	0000                	unimp
  100c00:	0019                	c.nop	6
  100c02:	0000                	unimp
  100c04:	0019                	c.nop	6
  100c06:	0000                	unimp
  100c08:	0019                	c.nop	6
  100c0a:	0000                	unimp
  100c0c:	0019                	c.nop	6
  100c0e:	0000                	unimp
  100c10:	0019                	c.nop	6
  100c12:	0000                	unimp
  100c14:	0019                	c.nop	6
  100c16:	0000                	unimp
  100c18:	0019                	c.nop	6
  100c1a:	0000                	unimp
  100c1c:	0019                	c.nop	6
  100c1e:	0000                	unimp
  100c20:	0019                	c.nop	6
  100c22:	0000                	unimp
  100c24:	0019                	c.nop	6
  100c26:	0000                	unimp
  100c28:	0019                	c.nop	6
  100c2a:	0000                	unimp
  100c2c:	0019                	c.nop	6
  100c2e:	0000                	unimp
  100c30:	0019                	c.nop	6
  100c32:	0000                	unimp
  100c34:	0019                	c.nop	6
  100c36:	0000                	unimp
  100c38:	0019                	c.nop	6
  100c3a:	0000                	unimp
  100c3c:	0019                	c.nop	6
  100c3e:	0000                	unimp
  100c40:	0019                	c.nop	6
  100c42:	0000                	unimp
  100c44:	0019                	c.nop	6
  100c46:	0000                	unimp
  100c48:	0019                	c.nop	6
  100c4a:	0000                	unimp
  100c4c:	0019                	c.nop	6
  100c4e:	0000                	unimp
  100c50:	0019                	c.nop	6
  100c52:	0000                	unimp
  100c54:	0019                	c.nop	6
  100c56:	0000                	unimp
  100c58:	0019                	c.nop	6
  100c5a:	0000                	unimp
  100c5c:	0019                	c.nop	6
  100c5e:	0000                	unimp
  100c60:	0019                	c.nop	6
  100c62:	0000                	unimp
  100c64:	0019                	c.nop	6
  100c66:	0000                	unimp
  100c68:	0019                	c.nop	6
  100c6a:	0000                	unimp
  100c6c:	0019                	c.nop	6
  100c6e:	0000                	unimp
  100c70:	0019                	c.nop	6
  100c72:	0000                	unimp
  100c74:	0019                	c.nop	6
  100c76:	0000                	unimp
  100c78:	0019                	c.nop	6
  100c7a:	0000                	unimp
  100c7c:	0019                	c.nop	6
	...

00100c80 <expected_output>:
  100c80:	733c                	flw	fa5,96(a4)
  100c82:	0000                	unimp
  100c84:	733c                	flw	fa5,96(a4)
  100c86:	0000                	unimp
  100c88:	733c                	flw	fa5,96(a4)
  100c8a:	0000                	unimp
  100c8c:	733c                	flw	fa5,96(a4)
  100c8e:	0000                	unimp
  100c90:	733c                	flw	fa5,96(a4)
  100c92:	0000                	unimp
  100c94:	733c                	flw	fa5,96(a4)
  100c96:	0000                	unimp
  100c98:	733c                	flw	fa5,96(a4)
  100c9a:	0000                	unimp
  100c9c:	733c                	flw	fa5,96(a4)
  100c9e:	0000                	unimp
  100ca0:	733c                	flw	fa5,96(a4)
  100ca2:	0000                	unimp
  100ca4:	733c                	flw	fa5,96(a4)
  100ca6:	0000                	unimp
  100ca8:	733c                	flw	fa5,96(a4)
  100caa:	0000                	unimp
  100cac:	733c                	flw	fa5,96(a4)
  100cae:	0000                	unimp
  100cb0:	733c                	flw	fa5,96(a4)
  100cb2:	0000                	unimp
  100cb4:	733c                	flw	fa5,96(a4)
  100cb6:	0000                	unimp
  100cb8:	733c                	flw	fa5,96(a4)
  100cba:	0000                	unimp
  100cbc:	733c                	flw	fa5,96(a4)
  100cbe:	0000                	unimp
  100cc0:	733c                	flw	fa5,96(a4)
  100cc2:	0000                	unimp
  100cc4:	733c                	flw	fa5,96(a4)
  100cc6:	0000                	unimp
  100cc8:	733c                	flw	fa5,96(a4)
  100cca:	0000                	unimp
  100ccc:	733c                	flw	fa5,96(a4)
  100cce:	0000                	unimp
  100cd0:	733c                	flw	fa5,96(a4)
  100cd2:	0000                	unimp
  100cd4:	733c                	flw	fa5,96(a4)
  100cd6:	0000                	unimp
  100cd8:	733c                	flw	fa5,96(a4)
  100cda:	0000                	unimp
  100cdc:	733c                	flw	fa5,96(a4)
  100cde:	0000                	unimp
  100ce0:	733c                	flw	fa5,96(a4)
  100ce2:	0000                	unimp
  100ce4:	733c                	flw	fa5,96(a4)
  100ce6:	0000                	unimp
  100ce8:	733c                	flw	fa5,96(a4)
  100cea:	0000                	unimp
  100cec:	733c                	flw	fa5,96(a4)
  100cee:	0000                	unimp
  100cf0:	733c                	flw	fa5,96(a4)
  100cf2:	0000                	unimp
  100cf4:	733c                	flw	fa5,96(a4)
  100cf6:	0000                	unimp
  100cf8:	733c                	flw	fa5,96(a4)
  100cfa:	0000                	unimp
  100cfc:	733c                	flw	fa5,96(a4)
  100cfe:	0000                	unimp
  100d00:	7481                	lui	s1,0xfffe0
  100d02:	0000                	unimp
  100d04:	7481                	lui	s1,0xfffe0
  100d06:	0000                	unimp
  100d08:	7481                	lui	s1,0xfffe0
  100d0a:	0000                	unimp
  100d0c:	7481                	lui	s1,0xfffe0
  100d0e:	0000                	unimp
  100d10:	7481                	lui	s1,0xfffe0
  100d12:	0000                	unimp
  100d14:	7481                	lui	s1,0xfffe0
  100d16:	0000                	unimp
  100d18:	7481                	lui	s1,0xfffe0
  100d1a:	0000                	unimp
  100d1c:	7481                	lui	s1,0xfffe0
  100d1e:	0000                	unimp
  100d20:	7481                	lui	s1,0xfffe0
  100d22:	0000                	unimp
  100d24:	7481                	lui	s1,0xfffe0
  100d26:	0000                	unimp
  100d28:	7481                	lui	s1,0xfffe0
  100d2a:	0000                	unimp
  100d2c:	7481                	lui	s1,0xfffe0
  100d2e:	0000                	unimp
  100d30:	7481                	lui	s1,0xfffe0
  100d32:	0000                	unimp
  100d34:	7481                	lui	s1,0xfffe0
  100d36:	0000                	unimp
  100d38:	7481                	lui	s1,0xfffe0
  100d3a:	0000                	unimp
  100d3c:	7481                	lui	s1,0xfffe0
  100d3e:	0000                	unimp
  100d40:	7481                	lui	s1,0xfffe0
  100d42:	0000                	unimp
  100d44:	7481                	lui	s1,0xfffe0
  100d46:	0000                	unimp
  100d48:	7481                	lui	s1,0xfffe0
  100d4a:	0000                	unimp
  100d4c:	7481                	lui	s1,0xfffe0
  100d4e:	0000                	unimp
  100d50:	7481                	lui	s1,0xfffe0
  100d52:	0000                	unimp
  100d54:	7481                	lui	s1,0xfffe0
  100d56:	0000                	unimp
  100d58:	7481                	lui	s1,0xfffe0
  100d5a:	0000                	unimp
  100d5c:	7481                	lui	s1,0xfffe0
  100d5e:	0000                	unimp
  100d60:	7481                	lui	s1,0xfffe0
  100d62:	0000                	unimp
  100d64:	7481                	lui	s1,0xfffe0
  100d66:	0000                	unimp
  100d68:	7481                	lui	s1,0xfffe0
  100d6a:	0000                	unimp
  100d6c:	7481                	lui	s1,0xfffe0
  100d6e:	0000                	unimp
  100d70:	7481                	lui	s1,0xfffe0
  100d72:	0000                	unimp
  100d74:	7481                	lui	s1,0xfffe0
  100d76:	0000                	unimp
  100d78:	7481                	lui	s1,0xfffe0
  100d7a:	0000                	unimp
  100d7c:	7481                	lui	s1,0xfffe0
  100d7e:	0000                	unimp
  100d80:	75c6                	flw	fa1,112(sp)
  100d82:	0000                	unimp
  100d84:	75c6                	flw	fa1,112(sp)
  100d86:	0000                	unimp
  100d88:	75c6                	flw	fa1,112(sp)
  100d8a:	0000                	unimp
  100d8c:	75c6                	flw	fa1,112(sp)
  100d8e:	0000                	unimp
  100d90:	75c6                	flw	fa1,112(sp)
  100d92:	0000                	unimp
  100d94:	75c6                	flw	fa1,112(sp)
  100d96:	0000                	unimp
  100d98:	75c6                	flw	fa1,112(sp)
  100d9a:	0000                	unimp
  100d9c:	75c6                	flw	fa1,112(sp)
  100d9e:	0000                	unimp
  100da0:	75c6                	flw	fa1,112(sp)
  100da2:	0000                	unimp
  100da4:	75c6                	flw	fa1,112(sp)
  100da6:	0000                	unimp
  100da8:	75c6                	flw	fa1,112(sp)
  100daa:	0000                	unimp
  100dac:	75c6                	flw	fa1,112(sp)
  100dae:	0000                	unimp
  100db0:	75c6                	flw	fa1,112(sp)
  100db2:	0000                	unimp
  100db4:	75c6                	flw	fa1,112(sp)
  100db6:	0000                	unimp
  100db8:	75c6                	flw	fa1,112(sp)
  100dba:	0000                	unimp
  100dbc:	75c6                	flw	fa1,112(sp)
  100dbe:	0000                	unimp
  100dc0:	75c6                	flw	fa1,112(sp)
  100dc2:	0000                	unimp
  100dc4:	75c6                	flw	fa1,112(sp)
  100dc6:	0000                	unimp
  100dc8:	75c6                	flw	fa1,112(sp)
  100dca:	0000                	unimp
  100dcc:	75c6                	flw	fa1,112(sp)
  100dce:	0000                	unimp
  100dd0:	75c6                	flw	fa1,112(sp)
  100dd2:	0000                	unimp
  100dd4:	75c6                	flw	fa1,112(sp)
  100dd6:	0000                	unimp
  100dd8:	75c6                	flw	fa1,112(sp)
  100dda:	0000                	unimp
  100ddc:	75c6                	flw	fa1,112(sp)
  100dde:	0000                	unimp
  100de0:	75c6                	flw	fa1,112(sp)
  100de2:	0000                	unimp
  100de4:	75c6                	flw	fa1,112(sp)
  100de6:	0000                	unimp
  100de8:	75c6                	flw	fa1,112(sp)
  100dea:	0000                	unimp
  100dec:	75c6                	flw	fa1,112(sp)
  100dee:	0000                	unimp
  100df0:	75c6                	flw	fa1,112(sp)
  100df2:	0000                	unimp
  100df4:	75c6                	flw	fa1,112(sp)
  100df6:	0000                	unimp
  100df8:	75c6                	flw	fa1,112(sp)
  100dfa:	0000                	unimp
  100dfc:	75c6                	flw	fa1,112(sp)
  100dfe:	0000                	unimp
  100e00:	0000770b          	0x770b
  100e04:	0000770b          	0x770b
  100e08:	0000770b          	0x770b
  100e0c:	0000770b          	0x770b
  100e10:	0000770b          	0x770b
  100e14:	0000770b          	0x770b
  100e18:	0000770b          	0x770b
  100e1c:	0000770b          	0x770b
  100e20:	0000770b          	0x770b
  100e24:	0000770b          	0x770b
  100e28:	0000770b          	0x770b
  100e2c:	0000770b          	0x770b
  100e30:	0000770b          	0x770b
  100e34:	0000770b          	0x770b
  100e38:	0000770b          	0x770b
  100e3c:	0000770b          	0x770b
  100e40:	0000770b          	0x770b
  100e44:	0000770b          	0x770b
  100e48:	0000770b          	0x770b
  100e4c:	0000770b          	0x770b
  100e50:	0000770b          	0x770b
  100e54:	0000770b          	0x770b
  100e58:	0000770b          	0x770b
  100e5c:	0000770b          	0x770b
  100e60:	0000770b          	0x770b
  100e64:	0000770b          	0x770b
  100e68:	0000770b          	0x770b
  100e6c:	0000770b          	0x770b
  100e70:	0000770b          	0x770b
  100e74:	0000770b          	0x770b
  100e78:	0000770b          	0x770b
  100e7c:	0000770b          	0x770b
  100e80:	7850                	flw	fa2,52(s0)
  100e82:	0000                	unimp
  100e84:	7850                	flw	fa2,52(s0)
  100e86:	0000                	unimp
  100e88:	7850                	flw	fa2,52(s0)
  100e8a:	0000                	unimp
  100e8c:	7850                	flw	fa2,52(s0)
  100e8e:	0000                	unimp
  100e90:	7850                	flw	fa2,52(s0)
  100e92:	0000                	unimp
  100e94:	7850                	flw	fa2,52(s0)
  100e96:	0000                	unimp
  100e98:	7850                	flw	fa2,52(s0)
  100e9a:	0000                	unimp
  100e9c:	7850                	flw	fa2,52(s0)
  100e9e:	0000                	unimp
  100ea0:	7850                	flw	fa2,52(s0)
  100ea2:	0000                	unimp
  100ea4:	7850                	flw	fa2,52(s0)
  100ea6:	0000                	unimp
  100ea8:	7850                	flw	fa2,52(s0)
  100eaa:	0000                	unimp
  100eac:	7850                	flw	fa2,52(s0)
  100eae:	0000                	unimp
  100eb0:	7850                	flw	fa2,52(s0)
  100eb2:	0000                	unimp
  100eb4:	7850                	flw	fa2,52(s0)
  100eb6:	0000                	unimp
  100eb8:	7850                	flw	fa2,52(s0)
  100eba:	0000                	unimp
  100ebc:	7850                	flw	fa2,52(s0)
  100ebe:	0000                	unimp
  100ec0:	7850                	flw	fa2,52(s0)
  100ec2:	0000                	unimp
  100ec4:	7850                	flw	fa2,52(s0)
  100ec6:	0000                	unimp
  100ec8:	7850                	flw	fa2,52(s0)
  100eca:	0000                	unimp
  100ecc:	7850                	flw	fa2,52(s0)
  100ece:	0000                	unimp
  100ed0:	7850                	flw	fa2,52(s0)
  100ed2:	0000                	unimp
  100ed4:	7850                	flw	fa2,52(s0)
  100ed6:	0000                	unimp
  100ed8:	7850                	flw	fa2,52(s0)
  100eda:	0000                	unimp
  100edc:	7850                	flw	fa2,52(s0)
  100ede:	0000                	unimp
  100ee0:	7850                	flw	fa2,52(s0)
  100ee2:	0000                	unimp
  100ee4:	7850                	flw	fa2,52(s0)
  100ee6:	0000                	unimp
  100ee8:	7850                	flw	fa2,52(s0)
  100eea:	0000                	unimp
  100eec:	7850                	flw	fa2,52(s0)
  100eee:	0000                	unimp
  100ef0:	7850                	flw	fa2,52(s0)
  100ef2:	0000                	unimp
  100ef4:	7850                	flw	fa2,52(s0)
  100ef6:	0000                	unimp
  100ef8:	7850                	flw	fa2,52(s0)
  100efa:	0000                	unimp
  100efc:	7850                	flw	fa2,52(s0)
  100efe:	0000                	unimp
  100f00:	7995                	lui	s3,0xfffe5
  100f02:	0000                	unimp
  100f04:	7995                	lui	s3,0xfffe5
  100f06:	0000                	unimp
  100f08:	7995                	lui	s3,0xfffe5
  100f0a:	0000                	unimp
  100f0c:	7995                	lui	s3,0xfffe5
  100f0e:	0000                	unimp
  100f10:	7995                	lui	s3,0xfffe5
  100f12:	0000                	unimp
  100f14:	7995                	lui	s3,0xfffe5
  100f16:	0000                	unimp
  100f18:	7995                	lui	s3,0xfffe5
  100f1a:	0000                	unimp
  100f1c:	7995                	lui	s3,0xfffe5
  100f1e:	0000                	unimp
  100f20:	7995                	lui	s3,0xfffe5
  100f22:	0000                	unimp
  100f24:	7995                	lui	s3,0xfffe5
  100f26:	0000                	unimp
  100f28:	7995                	lui	s3,0xfffe5
  100f2a:	0000                	unimp
  100f2c:	7995                	lui	s3,0xfffe5
  100f2e:	0000                	unimp
  100f30:	7995                	lui	s3,0xfffe5
  100f32:	0000                	unimp
  100f34:	7995                	lui	s3,0xfffe5
  100f36:	0000                	unimp
  100f38:	7995                	lui	s3,0xfffe5
  100f3a:	0000                	unimp
  100f3c:	7995                	lui	s3,0xfffe5
  100f3e:	0000                	unimp
  100f40:	7995                	lui	s3,0xfffe5
  100f42:	0000                	unimp
  100f44:	7995                	lui	s3,0xfffe5
  100f46:	0000                	unimp
  100f48:	7995                	lui	s3,0xfffe5
  100f4a:	0000                	unimp
  100f4c:	7995                	lui	s3,0xfffe5
  100f4e:	0000                	unimp
  100f50:	7995                	lui	s3,0xfffe5
  100f52:	0000                	unimp
  100f54:	7995                	lui	s3,0xfffe5
  100f56:	0000                	unimp
  100f58:	7995                	lui	s3,0xfffe5
  100f5a:	0000                	unimp
  100f5c:	7995                	lui	s3,0xfffe5
  100f5e:	0000                	unimp
  100f60:	7995                	lui	s3,0xfffe5
  100f62:	0000                	unimp
  100f64:	7995                	lui	s3,0xfffe5
  100f66:	0000                	unimp
  100f68:	7995                	lui	s3,0xfffe5
  100f6a:	0000                	unimp
  100f6c:	7995                	lui	s3,0xfffe5
  100f6e:	0000                	unimp
  100f70:	7995                	lui	s3,0xfffe5
  100f72:	0000                	unimp
  100f74:	7995                	lui	s3,0xfffe5
  100f76:	0000                	unimp
  100f78:	7995                	lui	s3,0xfffe5
  100f7a:	0000                	unimp
  100f7c:	7995                	lui	s3,0xfffe5
  100f7e:	0000                	unimp
  100f80:	7ada                	flw	fs5,180(sp)
  100f82:	0000                	unimp
  100f84:	7ada                	flw	fs5,180(sp)
  100f86:	0000                	unimp
  100f88:	7ada                	flw	fs5,180(sp)
  100f8a:	0000                	unimp
  100f8c:	7ada                	flw	fs5,180(sp)
  100f8e:	0000                	unimp
  100f90:	7ada                	flw	fs5,180(sp)
  100f92:	0000                	unimp
  100f94:	7ada                	flw	fs5,180(sp)
  100f96:	0000                	unimp
  100f98:	7ada                	flw	fs5,180(sp)
  100f9a:	0000                	unimp
  100f9c:	7ada                	flw	fs5,180(sp)
  100f9e:	0000                	unimp
  100fa0:	7ada                	flw	fs5,180(sp)
  100fa2:	0000                	unimp
  100fa4:	7ada                	flw	fs5,180(sp)
  100fa6:	0000                	unimp
  100fa8:	7ada                	flw	fs5,180(sp)
  100faa:	0000                	unimp
  100fac:	7ada                	flw	fs5,180(sp)
  100fae:	0000                	unimp
  100fb0:	7ada                	flw	fs5,180(sp)
  100fb2:	0000                	unimp
  100fb4:	7ada                	flw	fs5,180(sp)
  100fb6:	0000                	unimp
  100fb8:	7ada                	flw	fs5,180(sp)
  100fba:	0000                	unimp
  100fbc:	7ada                	flw	fs5,180(sp)
  100fbe:	0000                	unimp
  100fc0:	7ada                	flw	fs5,180(sp)
  100fc2:	0000                	unimp
  100fc4:	7ada                	flw	fs5,180(sp)
  100fc6:	0000                	unimp
  100fc8:	7ada                	flw	fs5,180(sp)
  100fca:	0000                	unimp
  100fcc:	7ada                	flw	fs5,180(sp)
  100fce:	0000                	unimp
  100fd0:	7ada                	flw	fs5,180(sp)
  100fd2:	0000                	unimp
  100fd4:	7ada                	flw	fs5,180(sp)
  100fd6:	0000                	unimp
  100fd8:	7ada                	flw	fs5,180(sp)
  100fda:	0000                	unimp
  100fdc:	7ada                	flw	fs5,180(sp)
  100fde:	0000                	unimp
  100fe0:	7ada                	flw	fs5,180(sp)
  100fe2:	0000                	unimp
  100fe4:	7ada                	flw	fs5,180(sp)
  100fe6:	0000                	unimp
  100fe8:	7ada                	flw	fs5,180(sp)
  100fea:	0000                	unimp
  100fec:	7ada                	flw	fs5,180(sp)
  100fee:	0000                	unimp
  100ff0:	7ada                	flw	fs5,180(sp)
  100ff2:	0000                	unimp
  100ff4:	7ada                	flw	fs5,180(sp)
  100ff6:	0000                	unimp
  100ff8:	7ada                	flw	fs5,180(sp)
  100ffa:	0000                	unimp
  100ffc:	7ada                	flw	fs5,180(sp)
  100ffe:	0000                	unimp
  101000:	7c1f 0000 7c1f      	0x7c1f00007c1f
  101006:	0000                	unimp
  101008:	7c1f 0000 7c1f      	0x7c1f00007c1f
  10100e:	0000                	unimp
  101010:	7c1f 0000 7c1f      	0x7c1f00007c1f
  101016:	0000                	unimp
  101018:	7c1f 0000 7c1f      	0x7c1f00007c1f
  10101e:	0000                	unimp
  101020:	7c1f 0000 7c1f      	0x7c1f00007c1f
  101026:	0000                	unimp
  101028:	7c1f 0000 7c1f      	0x7c1f00007c1f
  10102e:	0000                	unimp
  101030:	7c1f 0000 7c1f      	0x7c1f00007c1f
  101036:	0000                	unimp
  101038:	7c1f 0000 7c1f      	0x7c1f00007c1f
  10103e:	0000                	unimp
  101040:	7c1f 0000 7c1f      	0x7c1f00007c1f
  101046:	0000                	unimp
  101048:	7c1f 0000 7c1f      	0x7c1f00007c1f
  10104e:	0000                	unimp
  101050:	7c1f 0000 7c1f      	0x7c1f00007c1f
  101056:	0000                	unimp
  101058:	7c1f 0000 7c1f      	0x7c1f00007c1f
  10105e:	0000                	unimp
  101060:	7c1f 0000 7c1f      	0x7c1f00007c1f
  101066:	0000                	unimp
  101068:	7c1f 0000 7c1f      	0x7c1f00007c1f
  10106e:	0000                	unimp
  101070:	7c1f 0000 7c1f      	0x7c1f00007c1f
  101076:	0000                	unimp
  101078:	7c1f 0000 7c1f      	0x7c1f00007c1f
  10107e:	0000                	unimp
  101080:	7d64                	flw	fs1,124(a0)
  101082:	0000                	unimp
  101084:	7d64                	flw	fs1,124(a0)
  101086:	0000                	unimp
  101088:	7d64                	flw	fs1,124(a0)
  10108a:	0000                	unimp
  10108c:	7d64                	flw	fs1,124(a0)
  10108e:	0000                	unimp
  101090:	7d64                	flw	fs1,124(a0)
  101092:	0000                	unimp
  101094:	7d64                	flw	fs1,124(a0)
  101096:	0000                	unimp
  101098:	7d64                	flw	fs1,124(a0)
  10109a:	0000                	unimp
  10109c:	7d64                	flw	fs1,124(a0)
  10109e:	0000                	unimp
  1010a0:	7d64                	flw	fs1,124(a0)
  1010a2:	0000                	unimp
  1010a4:	7d64                	flw	fs1,124(a0)
  1010a6:	0000                	unimp
  1010a8:	7d64                	flw	fs1,124(a0)
  1010aa:	0000                	unimp
  1010ac:	7d64                	flw	fs1,124(a0)
  1010ae:	0000                	unimp
  1010b0:	7d64                	flw	fs1,124(a0)
  1010b2:	0000                	unimp
  1010b4:	7d64                	flw	fs1,124(a0)
  1010b6:	0000                	unimp
  1010b8:	7d64                	flw	fs1,124(a0)
  1010ba:	0000                	unimp
  1010bc:	7d64                	flw	fs1,124(a0)
  1010be:	0000                	unimp
  1010c0:	7d64                	flw	fs1,124(a0)
  1010c2:	0000                	unimp
  1010c4:	7d64                	flw	fs1,124(a0)
  1010c6:	0000                	unimp
  1010c8:	7d64                	flw	fs1,124(a0)
  1010ca:	0000                	unimp
  1010cc:	7d64                	flw	fs1,124(a0)
  1010ce:	0000                	unimp
  1010d0:	7d64                	flw	fs1,124(a0)
  1010d2:	0000                	unimp
  1010d4:	7d64                	flw	fs1,124(a0)
  1010d6:	0000                	unimp
  1010d8:	7d64                	flw	fs1,124(a0)
  1010da:	0000                	unimp
  1010dc:	7d64                	flw	fs1,124(a0)
  1010de:	0000                	unimp
  1010e0:	7d64                	flw	fs1,124(a0)
  1010e2:	0000                	unimp
  1010e4:	7d64                	flw	fs1,124(a0)
  1010e6:	0000                	unimp
  1010e8:	7d64                	flw	fs1,124(a0)
  1010ea:	0000                	unimp
  1010ec:	7d64                	flw	fs1,124(a0)
  1010ee:	0000                	unimp
  1010f0:	7d64                	flw	fs1,124(a0)
  1010f2:	0000                	unimp
  1010f4:	7d64                	flw	fs1,124(a0)
  1010f6:	0000                	unimp
  1010f8:	7d64                	flw	fs1,124(a0)
  1010fa:	0000                	unimp
  1010fc:	7d64                	flw	fs1,124(a0)
  1010fe:	0000                	unimp
  101100:	7ea9                	lui	t4,0xfffea
  101102:	0000                	unimp
  101104:	7ea9                	lui	t4,0xfffea
  101106:	0000                	unimp
  101108:	7ea9                	lui	t4,0xfffea
  10110a:	0000                	unimp
  10110c:	7ea9                	lui	t4,0xfffea
  10110e:	0000                	unimp
  101110:	7ea9                	lui	t4,0xfffea
  101112:	0000                	unimp
  101114:	7ea9                	lui	t4,0xfffea
  101116:	0000                	unimp
  101118:	7ea9                	lui	t4,0xfffea
  10111a:	0000                	unimp
  10111c:	7ea9                	lui	t4,0xfffea
  10111e:	0000                	unimp
  101120:	7ea9                	lui	t4,0xfffea
  101122:	0000                	unimp
  101124:	7ea9                	lui	t4,0xfffea
  101126:	0000                	unimp
  101128:	7ea9                	lui	t4,0xfffea
  10112a:	0000                	unimp
  10112c:	7ea9                	lui	t4,0xfffea
  10112e:	0000                	unimp
  101130:	7ea9                	lui	t4,0xfffea
  101132:	0000                	unimp
  101134:	7ea9                	lui	t4,0xfffea
  101136:	0000                	unimp
  101138:	7ea9                	lui	t4,0xfffea
  10113a:	0000                	unimp
  10113c:	7ea9                	lui	t4,0xfffea
  10113e:	0000                	unimp
  101140:	7ea9                	lui	t4,0xfffea
  101142:	0000                	unimp
  101144:	7ea9                	lui	t4,0xfffea
  101146:	0000                	unimp
  101148:	7ea9                	lui	t4,0xfffea
  10114a:	0000                	unimp
  10114c:	7ea9                	lui	t4,0xfffea
  10114e:	0000                	unimp
  101150:	7ea9                	lui	t4,0xfffea
  101152:	0000                	unimp
  101154:	7ea9                	lui	t4,0xfffea
  101156:	0000                	unimp
  101158:	7ea9                	lui	t4,0xfffea
  10115a:	0000                	unimp
  10115c:	7ea9                	lui	t4,0xfffea
  10115e:	0000                	unimp
  101160:	7ea9                	lui	t4,0xfffea
  101162:	0000                	unimp
  101164:	7ea9                	lui	t4,0xfffea
  101166:	0000                	unimp
  101168:	7ea9                	lui	t4,0xfffea
  10116a:	0000                	unimp
  10116c:	7ea9                	lui	t4,0xfffea
  10116e:	0000                	unimp
  101170:	7ea9                	lui	t4,0xfffea
  101172:	0000                	unimp
  101174:	7ea9                	lui	t4,0xfffea
  101176:	0000                	unimp
  101178:	7ea9                	lui	t4,0xfffea
  10117a:	0000                	unimp
  10117c:	7ea9                	lui	t4,0xfffea
  10117e:	0000                	unimp
  101180:	7fee                	flw	ft11,248(sp)
  101182:	0000                	unimp
  101184:	7fee                	flw	ft11,248(sp)
  101186:	0000                	unimp
  101188:	7fee                	flw	ft11,248(sp)
  10118a:	0000                	unimp
  10118c:	7fee                	flw	ft11,248(sp)
  10118e:	0000                	unimp
  101190:	7fee                	flw	ft11,248(sp)
  101192:	0000                	unimp
  101194:	7fee                	flw	ft11,248(sp)
  101196:	0000                	unimp
  101198:	7fee                	flw	ft11,248(sp)
  10119a:	0000                	unimp
  10119c:	7fee                	flw	ft11,248(sp)
  10119e:	0000                	unimp
  1011a0:	7fee                	flw	ft11,248(sp)
  1011a2:	0000                	unimp
  1011a4:	7fee                	flw	ft11,248(sp)
  1011a6:	0000                	unimp
  1011a8:	7fee                	flw	ft11,248(sp)
  1011aa:	0000                	unimp
  1011ac:	7fee                	flw	ft11,248(sp)
  1011ae:	0000                	unimp
  1011b0:	7fee                	flw	ft11,248(sp)
  1011b2:	0000                	unimp
  1011b4:	7fee                	flw	ft11,248(sp)
  1011b6:	0000                	unimp
  1011b8:	7fee                	flw	ft11,248(sp)
  1011ba:	0000                	unimp
  1011bc:	7fee                	flw	ft11,248(sp)
  1011be:	0000                	unimp
  1011c0:	7fee                	flw	ft11,248(sp)
  1011c2:	0000                	unimp
  1011c4:	7fee                	flw	ft11,248(sp)
  1011c6:	0000                	unimp
  1011c8:	7fee                	flw	ft11,248(sp)
  1011ca:	0000                	unimp
  1011cc:	7fee                	flw	ft11,248(sp)
  1011ce:	0000                	unimp
  1011d0:	7fee                	flw	ft11,248(sp)
  1011d2:	0000                	unimp
  1011d4:	7fee                	flw	ft11,248(sp)
  1011d6:	0000                	unimp
  1011d8:	7fee                	flw	ft11,248(sp)
  1011da:	0000                	unimp
  1011dc:	7fee                	flw	ft11,248(sp)
  1011de:	0000                	unimp
  1011e0:	7fee                	flw	ft11,248(sp)
  1011e2:	0000                	unimp
  1011e4:	7fee                	flw	ft11,248(sp)
  1011e6:	0000                	unimp
  1011e8:	7fee                	flw	ft11,248(sp)
  1011ea:	0000                	unimp
  1011ec:	7fee                	flw	ft11,248(sp)
  1011ee:	0000                	unimp
  1011f0:	7fee                	flw	ft11,248(sp)
  1011f2:	0000                	unimp
  1011f4:	7fee                	flw	ft11,248(sp)
  1011f6:	0000                	unimp
  1011f8:	7fee                	flw	ft11,248(sp)
  1011fa:	0000                	unimp
  1011fc:	7fee                	flw	ft11,248(sp)
  1011fe:	0000                	unimp
  101200:	00008133          	add	sp,ra,zero
  101204:	00008133          	add	sp,ra,zero
  101208:	00008133          	add	sp,ra,zero
  10120c:	00008133          	add	sp,ra,zero
  101210:	00008133          	add	sp,ra,zero
  101214:	00008133          	add	sp,ra,zero
  101218:	00008133          	add	sp,ra,zero
  10121c:	00008133          	add	sp,ra,zero
  101220:	00008133          	add	sp,ra,zero
  101224:	00008133          	add	sp,ra,zero
  101228:	00008133          	add	sp,ra,zero
  10122c:	00008133          	add	sp,ra,zero
  101230:	00008133          	add	sp,ra,zero
  101234:	00008133          	add	sp,ra,zero
  101238:	00008133          	add	sp,ra,zero
  10123c:	00008133          	add	sp,ra,zero
  101240:	00008133          	add	sp,ra,zero
  101244:	00008133          	add	sp,ra,zero
  101248:	00008133          	add	sp,ra,zero
  10124c:	00008133          	add	sp,ra,zero
  101250:	00008133          	add	sp,ra,zero
  101254:	00008133          	add	sp,ra,zero
  101258:	00008133          	add	sp,ra,zero
  10125c:	00008133          	add	sp,ra,zero
  101260:	00008133          	add	sp,ra,zero
  101264:	00008133          	add	sp,ra,zero
  101268:	00008133          	add	sp,ra,zero
  10126c:	00008133          	add	sp,ra,zero
  101270:	00008133          	add	sp,ra,zero
  101274:	00008133          	add	sp,ra,zero
  101278:	00008133          	add	sp,ra,zero
  10127c:	00008133          	add	sp,ra,zero
  101280:	8278                	0x8278
  101282:	0000                	unimp
  101284:	8278                	0x8278
  101286:	0000                	unimp
  101288:	8278                	0x8278
  10128a:	0000                	unimp
  10128c:	8278                	0x8278
  10128e:	0000                	unimp
  101290:	8278                	0x8278
  101292:	0000                	unimp
  101294:	8278                	0x8278
  101296:	0000                	unimp
  101298:	8278                	0x8278
  10129a:	0000                	unimp
  10129c:	8278                	0x8278
  10129e:	0000                	unimp
  1012a0:	8278                	0x8278
  1012a2:	0000                	unimp
  1012a4:	8278                	0x8278
  1012a6:	0000                	unimp
  1012a8:	8278                	0x8278
  1012aa:	0000                	unimp
  1012ac:	8278                	0x8278
  1012ae:	0000                	unimp
  1012b0:	8278                	0x8278
  1012b2:	0000                	unimp
  1012b4:	8278                	0x8278
  1012b6:	0000                	unimp
  1012b8:	8278                	0x8278
  1012ba:	0000                	unimp
  1012bc:	8278                	0x8278
  1012be:	0000                	unimp
  1012c0:	8278                	0x8278
  1012c2:	0000                	unimp
  1012c4:	8278                	0x8278
  1012c6:	0000                	unimp
  1012c8:	8278                	0x8278
  1012ca:	0000                	unimp
  1012cc:	8278                	0x8278
  1012ce:	0000                	unimp
  1012d0:	8278                	0x8278
  1012d2:	0000                	unimp
  1012d4:	8278                	0x8278
  1012d6:	0000                	unimp
  1012d8:	8278                	0x8278
  1012da:	0000                	unimp
  1012dc:	8278                	0x8278
  1012de:	0000                	unimp
  1012e0:	8278                	0x8278
  1012e2:	0000                	unimp
  1012e4:	8278                	0x8278
  1012e6:	0000                	unimp
  1012e8:	8278                	0x8278
  1012ea:	0000                	unimp
  1012ec:	8278                	0x8278
  1012ee:	0000                	unimp
  1012f0:	8278                	0x8278
  1012f2:	0000                	unimp
  1012f4:	8278                	0x8278
  1012f6:	0000                	unimp
  1012f8:	8278                	0x8278
  1012fa:	0000                	unimp
  1012fc:	8278                	0x8278
  1012fe:	0000                	unimp
  101300:	83bd                	srli	a5,a5,0xf
  101302:	0000                	unimp
  101304:	83bd                	srli	a5,a5,0xf
  101306:	0000                	unimp
  101308:	83bd                	srli	a5,a5,0xf
  10130a:	0000                	unimp
  10130c:	83bd                	srli	a5,a5,0xf
  10130e:	0000                	unimp
  101310:	83bd                	srli	a5,a5,0xf
  101312:	0000                	unimp
  101314:	83bd                	srli	a5,a5,0xf
  101316:	0000                	unimp
  101318:	83bd                	srli	a5,a5,0xf
  10131a:	0000                	unimp
  10131c:	83bd                	srli	a5,a5,0xf
  10131e:	0000                	unimp
  101320:	83bd                	srli	a5,a5,0xf
  101322:	0000                	unimp
  101324:	83bd                	srli	a5,a5,0xf
  101326:	0000                	unimp
  101328:	83bd                	srli	a5,a5,0xf
  10132a:	0000                	unimp
  10132c:	83bd                	srli	a5,a5,0xf
  10132e:	0000                	unimp
  101330:	83bd                	srli	a5,a5,0xf
  101332:	0000                	unimp
  101334:	83bd                	srli	a5,a5,0xf
  101336:	0000                	unimp
  101338:	83bd                	srli	a5,a5,0xf
  10133a:	0000                	unimp
  10133c:	83bd                	srli	a5,a5,0xf
  10133e:	0000                	unimp
  101340:	83bd                	srli	a5,a5,0xf
  101342:	0000                	unimp
  101344:	83bd                	srli	a5,a5,0xf
  101346:	0000                	unimp
  101348:	83bd                	srli	a5,a5,0xf
  10134a:	0000                	unimp
  10134c:	83bd                	srli	a5,a5,0xf
  10134e:	0000                	unimp
  101350:	83bd                	srli	a5,a5,0xf
  101352:	0000                	unimp
  101354:	83bd                	srli	a5,a5,0xf
  101356:	0000                	unimp
  101358:	83bd                	srli	a5,a5,0xf
  10135a:	0000                	unimp
  10135c:	83bd                	srli	a5,a5,0xf
  10135e:	0000                	unimp
  101360:	83bd                	srli	a5,a5,0xf
  101362:	0000                	unimp
  101364:	83bd                	srli	a5,a5,0xf
  101366:	0000                	unimp
  101368:	83bd                	srli	a5,a5,0xf
  10136a:	0000                	unimp
  10136c:	83bd                	srli	a5,a5,0xf
  10136e:	0000                	unimp
  101370:	83bd                	srli	a5,a5,0xf
  101372:	0000                	unimp
  101374:	83bd                	srli	a5,a5,0xf
  101376:	0000                	unimp
  101378:	83bd                	srli	a5,a5,0xf
  10137a:	0000                	unimp
  10137c:	83bd                	srli	a5,a5,0xf
  10137e:	0000                	unimp
  101380:	8502                	jr	a0
  101382:	0000                	unimp
  101384:	8502                	jr	a0
  101386:	0000                	unimp
  101388:	8502                	jr	a0
  10138a:	0000                	unimp
  10138c:	8502                	jr	a0
  10138e:	0000                	unimp
  101390:	8502                	jr	a0
  101392:	0000                	unimp
  101394:	8502                	jr	a0
  101396:	0000                	unimp
  101398:	8502                	jr	a0
  10139a:	0000                	unimp
  10139c:	8502                	jr	a0
  10139e:	0000                	unimp
  1013a0:	8502                	jr	a0
  1013a2:	0000                	unimp
  1013a4:	8502                	jr	a0
  1013a6:	0000                	unimp
  1013a8:	8502                	jr	a0
  1013aa:	0000                	unimp
  1013ac:	8502                	jr	a0
  1013ae:	0000                	unimp
  1013b0:	8502                	jr	a0
  1013b2:	0000                	unimp
  1013b4:	8502                	jr	a0
  1013b6:	0000                	unimp
  1013b8:	8502                	jr	a0
  1013ba:	0000                	unimp
  1013bc:	8502                	jr	a0
  1013be:	0000                	unimp
  1013c0:	8502                	jr	a0
  1013c2:	0000                	unimp
  1013c4:	8502                	jr	a0
  1013c6:	0000                	unimp
  1013c8:	8502                	jr	a0
  1013ca:	0000                	unimp
  1013cc:	8502                	jr	a0
  1013ce:	0000                	unimp
  1013d0:	8502                	jr	a0
  1013d2:	0000                	unimp
  1013d4:	8502                	jr	a0
  1013d6:	0000                	unimp
  1013d8:	8502                	jr	a0
  1013da:	0000                	unimp
  1013dc:	8502                	jr	a0
  1013de:	0000                	unimp
  1013e0:	8502                	jr	a0
  1013e2:	0000                	unimp
  1013e4:	8502                	jr	a0
  1013e6:	0000                	unimp
  1013e8:	8502                	jr	a0
  1013ea:	0000                	unimp
  1013ec:	8502                	jr	a0
  1013ee:	0000                	unimp
  1013f0:	8502                	jr	a0
  1013f2:	0000                	unimp
  1013f4:	8502                	jr	a0
  1013f6:	0000                	unimp
  1013f8:	8502                	jr	a0
  1013fa:	0000                	unimp
  1013fc:	8502                	jr	a0
  1013fe:	0000                	unimp
  101400:	00008647          	fmsub.s	fa2,ft1,ft0,ft0,rne
  101404:	00008647          	fmsub.s	fa2,ft1,ft0,ft0,rne
  101408:	00008647          	fmsub.s	fa2,ft1,ft0,ft0,rne
  10140c:	00008647          	fmsub.s	fa2,ft1,ft0,ft0,rne
  101410:	00008647          	fmsub.s	fa2,ft1,ft0,ft0,rne
  101414:	00008647          	fmsub.s	fa2,ft1,ft0,ft0,rne
  101418:	00008647          	fmsub.s	fa2,ft1,ft0,ft0,rne
  10141c:	00008647          	fmsub.s	fa2,ft1,ft0,ft0,rne
  101420:	00008647          	fmsub.s	fa2,ft1,ft0,ft0,rne
  101424:	00008647          	fmsub.s	fa2,ft1,ft0,ft0,rne
  101428:	00008647          	fmsub.s	fa2,ft1,ft0,ft0,rne
  10142c:	00008647          	fmsub.s	fa2,ft1,ft0,ft0,rne
  101430:	00008647          	fmsub.s	fa2,ft1,ft0,ft0,rne
  101434:	00008647          	fmsub.s	fa2,ft1,ft0,ft0,rne
  101438:	00008647          	fmsub.s	fa2,ft1,ft0,ft0,rne
  10143c:	00008647          	fmsub.s	fa2,ft1,ft0,ft0,rne
  101440:	00008647          	fmsub.s	fa2,ft1,ft0,ft0,rne
  101444:	00008647          	fmsub.s	fa2,ft1,ft0,ft0,rne
  101448:	00008647          	fmsub.s	fa2,ft1,ft0,ft0,rne
  10144c:	00008647          	fmsub.s	fa2,ft1,ft0,ft0,rne
  101450:	00008647          	fmsub.s	fa2,ft1,ft0,ft0,rne
  101454:	00008647          	fmsub.s	fa2,ft1,ft0,ft0,rne
  101458:	00008647          	fmsub.s	fa2,ft1,ft0,ft0,rne
  10145c:	00008647          	fmsub.s	fa2,ft1,ft0,ft0,rne
  101460:	00008647          	fmsub.s	fa2,ft1,ft0,ft0,rne
  101464:	00008647          	fmsub.s	fa2,ft1,ft0,ft0,rne
  101468:	00008647          	fmsub.s	fa2,ft1,ft0,ft0,rne
  10146c:	00008647          	fmsub.s	fa2,ft1,ft0,ft0,rne
  101470:	00008647          	fmsub.s	fa2,ft1,ft0,ft0,rne
  101474:	00008647          	fmsub.s	fa2,ft1,ft0,ft0,rne
  101478:	00008647          	fmsub.s	fa2,ft1,ft0,ft0,rne
  10147c:	00008647          	fmsub.s	fa2,ft1,ft0,ft0,rne
  101480:	878c                	0x878c
  101482:	0000                	unimp
  101484:	878c                	0x878c
  101486:	0000                	unimp
  101488:	878c                	0x878c
  10148a:	0000                	unimp
  10148c:	878c                	0x878c
  10148e:	0000                	unimp
  101490:	878c                	0x878c
  101492:	0000                	unimp
  101494:	878c                	0x878c
  101496:	0000                	unimp
  101498:	878c                	0x878c
  10149a:	0000                	unimp
  10149c:	878c                	0x878c
  10149e:	0000                	unimp
  1014a0:	878c                	0x878c
  1014a2:	0000                	unimp
  1014a4:	878c                	0x878c
  1014a6:	0000                	unimp
  1014a8:	878c                	0x878c
  1014aa:	0000                	unimp
  1014ac:	878c                	0x878c
  1014ae:	0000                	unimp
  1014b0:	878c                	0x878c
  1014b2:	0000                	unimp
  1014b4:	878c                	0x878c
  1014b6:	0000                	unimp
  1014b8:	878c                	0x878c
  1014ba:	0000                	unimp
  1014bc:	878c                	0x878c
  1014be:	0000                	unimp
  1014c0:	878c                	0x878c
  1014c2:	0000                	unimp
  1014c4:	878c                	0x878c
  1014c6:	0000                	unimp
  1014c8:	878c                	0x878c
  1014ca:	0000                	unimp
  1014cc:	878c                	0x878c
  1014ce:	0000                	unimp
  1014d0:	878c                	0x878c
  1014d2:	0000                	unimp
  1014d4:	878c                	0x878c
  1014d6:	0000                	unimp
  1014d8:	878c                	0x878c
  1014da:	0000                	unimp
  1014dc:	878c                	0x878c
  1014de:	0000                	unimp
  1014e0:	878c                	0x878c
  1014e2:	0000                	unimp
  1014e4:	878c                	0x878c
  1014e6:	0000                	unimp
  1014e8:	878c                	0x878c
  1014ea:	0000                	unimp
  1014ec:	878c                	0x878c
  1014ee:	0000                	unimp
  1014f0:	878c                	0x878c
  1014f2:	0000                	unimp
  1014f4:	878c                	0x878c
  1014f6:	0000                	unimp
  1014f8:	878c                	0x878c
  1014fa:	0000                	unimp
  1014fc:	878c                	0x878c
  1014fe:	0000                	unimp
  101500:	88d1                	andi	s1,s1,20
  101502:	0000                	unimp
  101504:	88d1                	andi	s1,s1,20
  101506:	0000                	unimp
  101508:	88d1                	andi	s1,s1,20
  10150a:	0000                	unimp
  10150c:	88d1                	andi	s1,s1,20
  10150e:	0000                	unimp
  101510:	88d1                	andi	s1,s1,20
  101512:	0000                	unimp
  101514:	88d1                	andi	s1,s1,20
  101516:	0000                	unimp
  101518:	88d1                	andi	s1,s1,20
  10151a:	0000                	unimp
  10151c:	88d1                	andi	s1,s1,20
  10151e:	0000                	unimp
  101520:	88d1                	andi	s1,s1,20
  101522:	0000                	unimp
  101524:	88d1                	andi	s1,s1,20
  101526:	0000                	unimp
  101528:	88d1                	andi	s1,s1,20
  10152a:	0000                	unimp
  10152c:	88d1                	andi	s1,s1,20
  10152e:	0000                	unimp
  101530:	88d1                	andi	s1,s1,20
  101532:	0000                	unimp
  101534:	88d1                	andi	s1,s1,20
  101536:	0000                	unimp
  101538:	88d1                	andi	s1,s1,20
  10153a:	0000                	unimp
  10153c:	88d1                	andi	s1,s1,20
  10153e:	0000                	unimp
  101540:	88d1                	andi	s1,s1,20
  101542:	0000                	unimp
  101544:	88d1                	andi	s1,s1,20
  101546:	0000                	unimp
  101548:	88d1                	andi	s1,s1,20
  10154a:	0000                	unimp
  10154c:	88d1                	andi	s1,s1,20
  10154e:	0000                	unimp
  101550:	88d1                	andi	s1,s1,20
  101552:	0000                	unimp
  101554:	88d1                	andi	s1,s1,20
  101556:	0000                	unimp
  101558:	88d1                	andi	s1,s1,20
  10155a:	0000                	unimp
  10155c:	88d1                	andi	s1,s1,20
  10155e:	0000                	unimp
  101560:	88d1                	andi	s1,s1,20
  101562:	0000                	unimp
  101564:	88d1                	andi	s1,s1,20
  101566:	0000                	unimp
  101568:	88d1                	andi	s1,s1,20
  10156a:	0000                	unimp
  10156c:	88d1                	andi	s1,s1,20
  10156e:	0000                	unimp
  101570:	88d1                	andi	s1,s1,20
  101572:	0000                	unimp
  101574:	88d1                	andi	s1,s1,20
  101576:	0000                	unimp
  101578:	88d1                	andi	s1,s1,20
  10157a:	0000                	unimp
  10157c:	88d1                	andi	s1,s1,20
  10157e:	0000                	unimp
  101580:	8a16                	mv	s4,t0
  101582:	0000                	unimp
  101584:	8a16                	mv	s4,t0
  101586:	0000                	unimp
  101588:	8a16                	mv	s4,t0
  10158a:	0000                	unimp
  10158c:	8a16                	mv	s4,t0
  10158e:	0000                	unimp
  101590:	8a16                	mv	s4,t0
  101592:	0000                	unimp
  101594:	8a16                	mv	s4,t0
  101596:	0000                	unimp
  101598:	8a16                	mv	s4,t0
  10159a:	0000                	unimp
  10159c:	8a16                	mv	s4,t0
  10159e:	0000                	unimp
  1015a0:	8a16                	mv	s4,t0
  1015a2:	0000                	unimp
  1015a4:	8a16                	mv	s4,t0
  1015a6:	0000                	unimp
  1015a8:	8a16                	mv	s4,t0
  1015aa:	0000                	unimp
  1015ac:	8a16                	mv	s4,t0
  1015ae:	0000                	unimp
  1015b0:	8a16                	mv	s4,t0
  1015b2:	0000                	unimp
  1015b4:	8a16                	mv	s4,t0
  1015b6:	0000                	unimp
  1015b8:	8a16                	mv	s4,t0
  1015ba:	0000                	unimp
  1015bc:	8a16                	mv	s4,t0
  1015be:	0000                	unimp
  1015c0:	8a16                	mv	s4,t0
  1015c2:	0000                	unimp
  1015c4:	8a16                	mv	s4,t0
  1015c6:	0000                	unimp
  1015c8:	8a16                	mv	s4,t0
  1015ca:	0000                	unimp
  1015cc:	8a16                	mv	s4,t0
  1015ce:	0000                	unimp
  1015d0:	8a16                	mv	s4,t0
  1015d2:	0000                	unimp
  1015d4:	8a16                	mv	s4,t0
  1015d6:	0000                	unimp
  1015d8:	8a16                	mv	s4,t0
  1015da:	0000                	unimp
  1015dc:	8a16                	mv	s4,t0
  1015de:	0000                	unimp
  1015e0:	8a16                	mv	s4,t0
  1015e2:	0000                	unimp
  1015e4:	8a16                	mv	s4,t0
  1015e6:	0000                	unimp
  1015e8:	8a16                	mv	s4,t0
  1015ea:	0000                	unimp
  1015ec:	8a16                	mv	s4,t0
  1015ee:	0000                	unimp
  1015f0:	8a16                	mv	s4,t0
  1015f2:	0000                	unimp
  1015f4:	8a16                	mv	s4,t0
  1015f6:	0000                	unimp
  1015f8:	8a16                	mv	s4,t0
  1015fa:	0000                	unimp
  1015fc:	8a16                	mv	s4,t0
  1015fe:	0000                	unimp
  101600:	00008b5b          	0x8b5b
  101604:	00008b5b          	0x8b5b
  101608:	00008b5b          	0x8b5b
  10160c:	00008b5b          	0x8b5b
  101610:	00008b5b          	0x8b5b
  101614:	00008b5b          	0x8b5b
  101618:	00008b5b          	0x8b5b
  10161c:	00008b5b          	0x8b5b
  101620:	00008b5b          	0x8b5b
  101624:	00008b5b          	0x8b5b
  101628:	00008b5b          	0x8b5b
  10162c:	00008b5b          	0x8b5b
  101630:	00008b5b          	0x8b5b
  101634:	00008b5b          	0x8b5b
  101638:	00008b5b          	0x8b5b
  10163c:	00008b5b          	0x8b5b
  101640:	00008b5b          	0x8b5b
  101644:	00008b5b          	0x8b5b
  101648:	00008b5b          	0x8b5b
  10164c:	00008b5b          	0x8b5b
  101650:	00008b5b          	0x8b5b
  101654:	00008b5b          	0x8b5b
  101658:	00008b5b          	0x8b5b
  10165c:	00008b5b          	0x8b5b
  101660:	00008b5b          	0x8b5b
  101664:	00008b5b          	0x8b5b
  101668:	00008b5b          	0x8b5b
  10166c:	00008b5b          	0x8b5b
  101670:	00008b5b          	0x8b5b
  101674:	00008b5b          	0x8b5b
  101678:	00008b5b          	0x8b5b
  10167c:	00008b5b          	0x8b5b
  101680:	8ca0                	0x8ca0
  101682:	0000                	unimp
  101684:	8ca0                	0x8ca0
  101686:	0000                	unimp
  101688:	8ca0                	0x8ca0
  10168a:	0000                	unimp
  10168c:	8ca0                	0x8ca0
  10168e:	0000                	unimp
  101690:	8ca0                	0x8ca0
  101692:	0000                	unimp
  101694:	8ca0                	0x8ca0
  101696:	0000                	unimp
  101698:	8ca0                	0x8ca0
  10169a:	0000                	unimp
  10169c:	8ca0                	0x8ca0
  10169e:	0000                	unimp
  1016a0:	8ca0                	0x8ca0
  1016a2:	0000                	unimp
  1016a4:	8ca0                	0x8ca0
  1016a6:	0000                	unimp
  1016a8:	8ca0                	0x8ca0
  1016aa:	0000                	unimp
  1016ac:	8ca0                	0x8ca0
  1016ae:	0000                	unimp
  1016b0:	8ca0                	0x8ca0
  1016b2:	0000                	unimp
  1016b4:	8ca0                	0x8ca0
  1016b6:	0000                	unimp
  1016b8:	8ca0                	0x8ca0
  1016ba:	0000                	unimp
  1016bc:	8ca0                	0x8ca0
  1016be:	0000                	unimp
  1016c0:	8ca0                	0x8ca0
  1016c2:	0000                	unimp
  1016c4:	8ca0                	0x8ca0
  1016c6:	0000                	unimp
  1016c8:	8ca0                	0x8ca0
  1016ca:	0000                	unimp
  1016cc:	8ca0                	0x8ca0
  1016ce:	0000                	unimp
  1016d0:	8ca0                	0x8ca0
  1016d2:	0000                	unimp
  1016d4:	8ca0                	0x8ca0
  1016d6:	0000                	unimp
  1016d8:	8ca0                	0x8ca0
  1016da:	0000                	unimp
  1016dc:	8ca0                	0x8ca0
  1016de:	0000                	unimp
  1016e0:	8ca0                	0x8ca0
  1016e2:	0000                	unimp
  1016e4:	8ca0                	0x8ca0
  1016e6:	0000                	unimp
  1016e8:	8ca0                	0x8ca0
  1016ea:	0000                	unimp
  1016ec:	8ca0                	0x8ca0
  1016ee:	0000                	unimp
  1016f0:	8ca0                	0x8ca0
  1016f2:	0000                	unimp
  1016f4:	8ca0                	0x8ca0
  1016f6:	0000                	unimp
  1016f8:	8ca0                	0x8ca0
  1016fa:	0000                	unimp
  1016fc:	8ca0                	0x8ca0
  1016fe:	0000                	unimp
  101700:	8de5                	and	a1,a1,s1
  101702:	0000                	unimp
  101704:	8de5                	and	a1,a1,s1
  101706:	0000                	unimp
  101708:	8de5                	and	a1,a1,s1
  10170a:	0000                	unimp
  10170c:	8de5                	and	a1,a1,s1
  10170e:	0000                	unimp
  101710:	8de5                	and	a1,a1,s1
  101712:	0000                	unimp
  101714:	8de5                	and	a1,a1,s1
  101716:	0000                	unimp
  101718:	8de5                	and	a1,a1,s1
  10171a:	0000                	unimp
  10171c:	8de5                	and	a1,a1,s1
  10171e:	0000                	unimp
  101720:	8de5                	and	a1,a1,s1
  101722:	0000                	unimp
  101724:	8de5                	and	a1,a1,s1
  101726:	0000                	unimp
  101728:	8de5                	and	a1,a1,s1
  10172a:	0000                	unimp
  10172c:	8de5                	and	a1,a1,s1
  10172e:	0000                	unimp
  101730:	8de5                	and	a1,a1,s1
  101732:	0000                	unimp
  101734:	8de5                	and	a1,a1,s1
  101736:	0000                	unimp
  101738:	8de5                	and	a1,a1,s1
  10173a:	0000                	unimp
  10173c:	8de5                	and	a1,a1,s1
  10173e:	0000                	unimp
  101740:	8de5                	and	a1,a1,s1
  101742:	0000                	unimp
  101744:	8de5                	and	a1,a1,s1
  101746:	0000                	unimp
  101748:	8de5                	and	a1,a1,s1
  10174a:	0000                	unimp
  10174c:	8de5                	and	a1,a1,s1
  10174e:	0000                	unimp
  101750:	8de5                	and	a1,a1,s1
  101752:	0000                	unimp
  101754:	8de5                	and	a1,a1,s1
  101756:	0000                	unimp
  101758:	8de5                	and	a1,a1,s1
  10175a:	0000                	unimp
  10175c:	8de5                	and	a1,a1,s1
  10175e:	0000                	unimp
  101760:	8de5                	and	a1,a1,s1
  101762:	0000                	unimp
  101764:	8de5                	and	a1,a1,s1
  101766:	0000                	unimp
  101768:	8de5                	and	a1,a1,s1
  10176a:	0000                	unimp
  10176c:	8de5                	and	a1,a1,s1
  10176e:	0000                	unimp
  101770:	8de5                	and	a1,a1,s1
  101772:	0000                	unimp
  101774:	8de5                	and	a1,a1,s1
  101776:	0000                	unimp
  101778:	8de5                	and	a1,a1,s1
  10177a:	0000                	unimp
  10177c:	8de5                	and	a1,a1,s1
  10177e:	0000                	unimp
  101780:	8f2a                	mv	t5,a0
  101782:	0000                	unimp
  101784:	8f2a                	mv	t5,a0
  101786:	0000                	unimp
  101788:	8f2a                	mv	t5,a0
  10178a:	0000                	unimp
  10178c:	8f2a                	mv	t5,a0
  10178e:	0000                	unimp
  101790:	8f2a                	mv	t5,a0
  101792:	0000                	unimp
  101794:	8f2a                	mv	t5,a0
  101796:	0000                	unimp
  101798:	8f2a                	mv	t5,a0
  10179a:	0000                	unimp
  10179c:	8f2a                	mv	t5,a0
  10179e:	0000                	unimp
  1017a0:	8f2a                	mv	t5,a0
  1017a2:	0000                	unimp
  1017a4:	8f2a                	mv	t5,a0
  1017a6:	0000                	unimp
  1017a8:	8f2a                	mv	t5,a0
  1017aa:	0000                	unimp
  1017ac:	8f2a                	mv	t5,a0
  1017ae:	0000                	unimp
  1017b0:	8f2a                	mv	t5,a0
  1017b2:	0000                	unimp
  1017b4:	8f2a                	mv	t5,a0
  1017b6:	0000                	unimp
  1017b8:	8f2a                	mv	t5,a0
  1017ba:	0000                	unimp
  1017bc:	8f2a                	mv	t5,a0
  1017be:	0000                	unimp
  1017c0:	8f2a                	mv	t5,a0
  1017c2:	0000                	unimp
  1017c4:	8f2a                	mv	t5,a0
  1017c6:	0000                	unimp
  1017c8:	8f2a                	mv	t5,a0
  1017ca:	0000                	unimp
  1017cc:	8f2a                	mv	t5,a0
  1017ce:	0000                	unimp
  1017d0:	8f2a                	mv	t5,a0
  1017d2:	0000                	unimp
  1017d4:	8f2a                	mv	t5,a0
  1017d6:	0000                	unimp
  1017d8:	8f2a                	mv	t5,a0
  1017da:	0000                	unimp
  1017dc:	8f2a                	mv	t5,a0
  1017de:	0000                	unimp
  1017e0:	8f2a                	mv	t5,a0
  1017e2:	0000                	unimp
  1017e4:	8f2a                	mv	t5,a0
  1017e6:	0000                	unimp
  1017e8:	8f2a                	mv	t5,a0
  1017ea:	0000                	unimp
  1017ec:	8f2a                	mv	t5,a0
  1017ee:	0000                	unimp
  1017f0:	8f2a                	mv	t5,a0
  1017f2:	0000                	unimp
  1017f4:	8f2a                	mv	t5,a0
  1017f6:	0000                	unimp
  1017f8:	8f2a                	mv	t5,a0
  1017fa:	0000                	unimp
  1017fc:	8f2a                	mv	t5,a0
  1017fe:	0000                	unimp
  101800:	0000906f          	j	10a800 <expected_output+0x9b80>
  101804:	0000906f          	j	10a804 <expected_output+0x9b84>
  101808:	0000906f          	j	10a808 <expected_output+0x9b88>
  10180c:	0000906f          	j	10a80c <expected_output+0x9b8c>
  101810:	0000906f          	j	10a810 <expected_output+0x9b90>
  101814:	0000906f          	j	10a814 <expected_output+0x9b94>
  101818:	0000906f          	j	10a818 <expected_output+0x9b98>
  10181c:	0000906f          	j	10a81c <expected_output+0x9b9c>
  101820:	0000906f          	j	10a820 <expected_output+0x9ba0>
  101824:	0000906f          	j	10a824 <expected_output+0x9ba4>
  101828:	0000906f          	j	10a828 <expected_output+0x9ba8>
  10182c:	0000906f          	j	10a82c <expected_output+0x9bac>
  101830:	0000906f          	j	10a830 <expected_output+0x9bb0>
  101834:	0000906f          	j	10a834 <expected_output+0x9bb4>
  101838:	0000906f          	j	10a838 <expected_output+0x9bb8>
  10183c:	0000906f          	j	10a83c <expected_output+0x9bbc>
  101840:	0000906f          	j	10a840 <expected_output+0x9bc0>
  101844:	0000906f          	j	10a844 <expected_output+0x9bc4>
  101848:	0000906f          	j	10a848 <expected_output+0x9bc8>
  10184c:	0000906f          	j	10a84c <expected_output+0x9bcc>
  101850:	0000906f          	j	10a850 <expected_output+0x9bd0>
  101854:	0000906f          	j	10a854 <expected_output+0x9bd4>
  101858:	0000906f          	j	10a858 <expected_output+0x9bd8>
  10185c:	0000906f          	j	10a85c <expected_output+0x9bdc>
  101860:	0000906f          	j	10a860 <expected_output+0x9be0>
  101864:	0000906f          	j	10a864 <expected_output+0x9be4>
  101868:	0000906f          	j	10a868 <expected_output+0x9be8>
  10186c:	0000906f          	j	10a86c <expected_output+0x9bec>
  101870:	0000906f          	j	10a870 <expected_output+0x9bf0>
  101874:	0000906f          	j	10a874 <expected_output+0x9bf4>
  101878:	0000906f          	j	10a878 <expected_output+0x9bf8>
  10187c:	0000906f          	j	10a87c <expected_output+0x9bfc>
  101880:	91b4                	0x91b4
  101882:	0000                	unimp
  101884:	91b4                	0x91b4
  101886:	0000                	unimp
  101888:	91b4                	0x91b4
  10188a:	0000                	unimp
  10188c:	91b4                	0x91b4
  10188e:	0000                	unimp
  101890:	91b4                	0x91b4
  101892:	0000                	unimp
  101894:	91b4                	0x91b4
  101896:	0000                	unimp
  101898:	91b4                	0x91b4
  10189a:	0000                	unimp
  10189c:	91b4                	0x91b4
  10189e:	0000                	unimp
  1018a0:	91b4                	0x91b4
  1018a2:	0000                	unimp
  1018a4:	91b4                	0x91b4
  1018a6:	0000                	unimp
  1018a8:	91b4                	0x91b4
  1018aa:	0000                	unimp
  1018ac:	91b4                	0x91b4
  1018ae:	0000                	unimp
  1018b0:	91b4                	0x91b4
  1018b2:	0000                	unimp
  1018b4:	91b4                	0x91b4
  1018b6:	0000                	unimp
  1018b8:	91b4                	0x91b4
  1018ba:	0000                	unimp
  1018bc:	91b4                	0x91b4
  1018be:	0000                	unimp
  1018c0:	91b4                	0x91b4
  1018c2:	0000                	unimp
  1018c4:	91b4                	0x91b4
  1018c6:	0000                	unimp
  1018c8:	91b4                	0x91b4
  1018ca:	0000                	unimp
  1018cc:	91b4                	0x91b4
  1018ce:	0000                	unimp
  1018d0:	91b4                	0x91b4
  1018d2:	0000                	unimp
  1018d4:	91b4                	0x91b4
  1018d6:	0000                	unimp
  1018d8:	91b4                	0x91b4
  1018da:	0000                	unimp
  1018dc:	91b4                	0x91b4
  1018de:	0000                	unimp
  1018e0:	91b4                	0x91b4
  1018e2:	0000                	unimp
  1018e4:	91b4                	0x91b4
  1018e6:	0000                	unimp
  1018e8:	91b4                	0x91b4
  1018ea:	0000                	unimp
  1018ec:	91b4                	0x91b4
  1018ee:	0000                	unimp
  1018f0:	91b4                	0x91b4
  1018f2:	0000                	unimp
  1018f4:	91b4                	0x91b4
  1018f6:	0000                	unimp
  1018f8:	91b4                	0x91b4
  1018fa:	0000                	unimp
  1018fc:	91b4                	0x91b4
  1018fe:	0000                	unimp
  101900:	92f9                	srli	a3,a3,0x3e
  101902:	0000                	unimp
  101904:	92f9                	srli	a3,a3,0x3e
  101906:	0000                	unimp
  101908:	92f9                	srli	a3,a3,0x3e
  10190a:	0000                	unimp
  10190c:	92f9                	srli	a3,a3,0x3e
  10190e:	0000                	unimp
  101910:	92f9                	srli	a3,a3,0x3e
  101912:	0000                	unimp
  101914:	92f9                	srli	a3,a3,0x3e
  101916:	0000                	unimp
  101918:	92f9                	srli	a3,a3,0x3e
  10191a:	0000                	unimp
  10191c:	92f9                	srli	a3,a3,0x3e
  10191e:	0000                	unimp
  101920:	92f9                	srli	a3,a3,0x3e
  101922:	0000                	unimp
  101924:	92f9                	srli	a3,a3,0x3e
  101926:	0000                	unimp
  101928:	92f9                	srli	a3,a3,0x3e
  10192a:	0000                	unimp
  10192c:	92f9                	srli	a3,a3,0x3e
  10192e:	0000                	unimp
  101930:	92f9                	srli	a3,a3,0x3e
  101932:	0000                	unimp
  101934:	92f9                	srli	a3,a3,0x3e
  101936:	0000                	unimp
  101938:	92f9                	srli	a3,a3,0x3e
  10193a:	0000                	unimp
  10193c:	92f9                	srli	a3,a3,0x3e
  10193e:	0000                	unimp
  101940:	92f9                	srli	a3,a3,0x3e
  101942:	0000                	unimp
  101944:	92f9                	srli	a3,a3,0x3e
  101946:	0000                	unimp
  101948:	92f9                	srli	a3,a3,0x3e
  10194a:	0000                	unimp
  10194c:	92f9                	srli	a3,a3,0x3e
  10194e:	0000                	unimp
  101950:	92f9                	srli	a3,a3,0x3e
  101952:	0000                	unimp
  101954:	92f9                	srli	a3,a3,0x3e
  101956:	0000                	unimp
  101958:	92f9                	srli	a3,a3,0x3e
  10195a:	0000                	unimp
  10195c:	92f9                	srli	a3,a3,0x3e
  10195e:	0000                	unimp
  101960:	92f9                	srli	a3,a3,0x3e
  101962:	0000                	unimp
  101964:	92f9                	srli	a3,a3,0x3e
  101966:	0000                	unimp
  101968:	92f9                	srli	a3,a3,0x3e
  10196a:	0000                	unimp
  10196c:	92f9                	srli	a3,a3,0x3e
  10196e:	0000                	unimp
  101970:	92f9                	srli	a3,a3,0x3e
  101972:	0000                	unimp
  101974:	92f9                	srli	a3,a3,0x3e
  101976:	0000                	unimp
  101978:	92f9                	srli	a3,a3,0x3e
  10197a:	0000                	unimp
  10197c:	92f9                	srli	a3,a3,0x3e
  10197e:	0000                	unimp
  101980:	943e                	add	s0,s0,a5
  101982:	0000                	unimp
  101984:	943e                	add	s0,s0,a5
  101986:	0000                	unimp
  101988:	943e                	add	s0,s0,a5
  10198a:	0000                	unimp
  10198c:	943e                	add	s0,s0,a5
  10198e:	0000                	unimp
  101990:	943e                	add	s0,s0,a5
  101992:	0000                	unimp
  101994:	943e                	add	s0,s0,a5
  101996:	0000                	unimp
  101998:	943e                	add	s0,s0,a5
  10199a:	0000                	unimp
  10199c:	943e                	add	s0,s0,a5
  10199e:	0000                	unimp
  1019a0:	943e                	add	s0,s0,a5
  1019a2:	0000                	unimp
  1019a4:	943e                	add	s0,s0,a5
  1019a6:	0000                	unimp
  1019a8:	943e                	add	s0,s0,a5
  1019aa:	0000                	unimp
  1019ac:	943e                	add	s0,s0,a5
  1019ae:	0000                	unimp
  1019b0:	943e                	add	s0,s0,a5
  1019b2:	0000                	unimp
  1019b4:	943e                	add	s0,s0,a5
  1019b6:	0000                	unimp
  1019b8:	943e                	add	s0,s0,a5
  1019ba:	0000                	unimp
  1019bc:	943e                	add	s0,s0,a5
  1019be:	0000                	unimp
  1019c0:	943e                	add	s0,s0,a5
  1019c2:	0000                	unimp
  1019c4:	943e                	add	s0,s0,a5
  1019c6:	0000                	unimp
  1019c8:	943e                	add	s0,s0,a5
  1019ca:	0000                	unimp
  1019cc:	943e                	add	s0,s0,a5
  1019ce:	0000                	unimp
  1019d0:	943e                	add	s0,s0,a5
  1019d2:	0000                	unimp
  1019d4:	943e                	add	s0,s0,a5
  1019d6:	0000                	unimp
  1019d8:	943e                	add	s0,s0,a5
  1019da:	0000                	unimp
  1019dc:	943e                	add	s0,s0,a5
  1019de:	0000                	unimp
  1019e0:	943e                	add	s0,s0,a5
  1019e2:	0000                	unimp
  1019e4:	943e                	add	s0,s0,a5
  1019e6:	0000                	unimp
  1019e8:	943e                	add	s0,s0,a5
  1019ea:	0000                	unimp
  1019ec:	943e                	add	s0,s0,a5
  1019ee:	0000                	unimp
  1019f0:	943e                	add	s0,s0,a5
  1019f2:	0000                	unimp
  1019f4:	943e                	add	s0,s0,a5
  1019f6:	0000                	unimp
  1019f8:	943e                	add	s0,s0,a5
  1019fa:	0000                	unimp
  1019fc:	943e                	add	s0,s0,a5
  1019fe:	0000                	unimp
  101a00:	00009583          	lh	a1,0(ra) # 0 <boot>
  101a04:	00009583          	lh	a1,0(ra)
  101a08:	00009583          	lh	a1,0(ra)
  101a0c:	00009583          	lh	a1,0(ra)
  101a10:	00009583          	lh	a1,0(ra)
  101a14:	00009583          	lh	a1,0(ra)
  101a18:	00009583          	lh	a1,0(ra)
  101a1c:	00009583          	lh	a1,0(ra)
  101a20:	00009583          	lh	a1,0(ra)
  101a24:	00009583          	lh	a1,0(ra)
  101a28:	00009583          	lh	a1,0(ra)
  101a2c:	00009583          	lh	a1,0(ra)
  101a30:	00009583          	lh	a1,0(ra)
  101a34:	00009583          	lh	a1,0(ra)
  101a38:	00009583          	lh	a1,0(ra)
  101a3c:	00009583          	lh	a1,0(ra)
  101a40:	00009583          	lh	a1,0(ra)
  101a44:	00009583          	lh	a1,0(ra)
  101a48:	00009583          	lh	a1,0(ra)
  101a4c:	00009583          	lh	a1,0(ra)
  101a50:	00009583          	lh	a1,0(ra)
  101a54:	00009583          	lh	a1,0(ra)
  101a58:	00009583          	lh	a1,0(ra)
  101a5c:	00009583          	lh	a1,0(ra)
  101a60:	00009583          	lh	a1,0(ra)
  101a64:	00009583          	lh	a1,0(ra)
  101a68:	00009583          	lh	a1,0(ra)
  101a6c:	00009583          	lh	a1,0(ra)
  101a70:	00009583          	lh	a1,0(ra)
  101a74:	00009583          	lh	a1,0(ra)
  101a78:	00009583          	lh	a1,0(ra)
  101a7c:	00009583          	lh	a1,0(ra)
  101a80:	9bdc                	0x9bdc
  101a82:	0000                	unimp
  101a84:	9bdc                	0x9bdc
  101a86:	0000                	unimp
  101a88:	9bdc                	0x9bdc
  101a8a:	0000                	unimp
  101a8c:	9bdc                	0x9bdc
  101a8e:	0000                	unimp
  101a90:	9bdc                	0x9bdc
  101a92:	0000                	unimp
  101a94:	9bdc                	0x9bdc
  101a96:	0000                	unimp
  101a98:	9bdc                	0x9bdc
  101a9a:	0000                	unimp
  101a9c:	9bdc                	0x9bdc
  101a9e:	0000                	unimp
  101aa0:	9bdc                	0x9bdc
  101aa2:	0000                	unimp
  101aa4:	9bdc                	0x9bdc
  101aa6:	0000                	unimp
  101aa8:	9bdc                	0x9bdc
  101aaa:	0000                	unimp
  101aac:	9bdc                	0x9bdc
  101aae:	0000                	unimp
  101ab0:	9bdc                	0x9bdc
  101ab2:	0000                	unimp
  101ab4:	9bdc                	0x9bdc
  101ab6:	0000                	unimp
  101ab8:	9bdc                	0x9bdc
  101aba:	0000                	unimp
  101abc:	9bdc                	0x9bdc
  101abe:	0000                	unimp
  101ac0:	9bdc                	0x9bdc
  101ac2:	0000                	unimp
  101ac4:	9bdc                	0x9bdc
  101ac6:	0000                	unimp
  101ac8:	9bdc                	0x9bdc
  101aca:	0000                	unimp
  101acc:	9bdc                	0x9bdc
  101ace:	0000                	unimp
  101ad0:	9bdc                	0x9bdc
  101ad2:	0000                	unimp
  101ad4:	9bdc                	0x9bdc
  101ad6:	0000                	unimp
  101ad8:	9bdc                	0x9bdc
  101ada:	0000                	unimp
  101adc:	9bdc                	0x9bdc
  101ade:	0000                	unimp
  101ae0:	9bdc                	0x9bdc
  101ae2:	0000                	unimp
  101ae4:	9bdc                	0x9bdc
  101ae6:	0000                	unimp
  101ae8:	9bdc                	0x9bdc
  101aea:	0000                	unimp
  101aec:	9bdc                	0x9bdc
  101aee:	0000                	unimp
  101af0:	9bdc                	0x9bdc
  101af2:	0000                	unimp
  101af4:	9bdc                	0x9bdc
  101af6:	0000                	unimp
  101af8:	9bdc                	0x9bdc
  101afa:	0000                	unimp
  101afc:	9bdc                	0x9bdc
  101afe:	0000                	unimp
  101b00:	9d21                	0x9d21
  101b02:	0000                	unimp
  101b04:	9d21                	0x9d21
  101b06:	0000                	unimp
  101b08:	9d21                	0x9d21
  101b0a:	0000                	unimp
  101b0c:	9d21                	0x9d21
  101b0e:	0000                	unimp
  101b10:	9d21                	0x9d21
  101b12:	0000                	unimp
  101b14:	9d21                	0x9d21
  101b16:	0000                	unimp
  101b18:	9d21                	0x9d21
  101b1a:	0000                	unimp
  101b1c:	9d21                	0x9d21
  101b1e:	0000                	unimp
  101b20:	9d21                	0x9d21
  101b22:	0000                	unimp
  101b24:	9d21                	0x9d21
  101b26:	0000                	unimp
  101b28:	9d21                	0x9d21
  101b2a:	0000                	unimp
  101b2c:	9d21                	0x9d21
  101b2e:	0000                	unimp
  101b30:	9d21                	0x9d21
  101b32:	0000                	unimp
  101b34:	9d21                	0x9d21
  101b36:	0000                	unimp
  101b38:	9d21                	0x9d21
  101b3a:	0000                	unimp
  101b3c:	9d21                	0x9d21
  101b3e:	0000                	unimp
  101b40:	9d21                	0x9d21
  101b42:	0000                	unimp
  101b44:	9d21                	0x9d21
  101b46:	0000                	unimp
  101b48:	9d21                	0x9d21
  101b4a:	0000                	unimp
  101b4c:	9d21                	0x9d21
  101b4e:	0000                	unimp
  101b50:	9d21                	0x9d21
  101b52:	0000                	unimp
  101b54:	9d21                	0x9d21
  101b56:	0000                	unimp
  101b58:	9d21                	0x9d21
  101b5a:	0000                	unimp
  101b5c:	9d21                	0x9d21
  101b5e:	0000                	unimp
  101b60:	9d21                	0x9d21
  101b62:	0000                	unimp
  101b64:	9d21                	0x9d21
  101b66:	0000                	unimp
  101b68:	9d21                	0x9d21
  101b6a:	0000                	unimp
  101b6c:	9d21                	0x9d21
  101b6e:	0000                	unimp
  101b70:	9d21                	0x9d21
  101b72:	0000                	unimp
  101b74:	9d21                	0x9d21
  101b76:	0000                	unimp
  101b78:	9d21                	0x9d21
  101b7a:	0000                	unimp
  101b7c:	9d21                	0x9d21
  101b7e:	0000                	unimp
  101b80:	9e66                	add	t3,t3,s9
  101b82:	0000                	unimp
  101b84:	9e66                	add	t3,t3,s9
  101b86:	0000                	unimp
  101b88:	9e66                	add	t3,t3,s9
  101b8a:	0000                	unimp
  101b8c:	9e66                	add	t3,t3,s9
  101b8e:	0000                	unimp
  101b90:	9e66                	add	t3,t3,s9
  101b92:	0000                	unimp
  101b94:	9e66                	add	t3,t3,s9
  101b96:	0000                	unimp
  101b98:	9e66                	add	t3,t3,s9
  101b9a:	0000                	unimp
  101b9c:	9e66                	add	t3,t3,s9
  101b9e:	0000                	unimp
  101ba0:	9e66                	add	t3,t3,s9
  101ba2:	0000                	unimp
  101ba4:	9e66                	add	t3,t3,s9
  101ba6:	0000                	unimp
  101ba8:	9e66                	add	t3,t3,s9
  101baa:	0000                	unimp
  101bac:	9e66                	add	t3,t3,s9
  101bae:	0000                	unimp
  101bb0:	9e66                	add	t3,t3,s9
  101bb2:	0000                	unimp
  101bb4:	9e66                	add	t3,t3,s9
  101bb6:	0000                	unimp
  101bb8:	9e66                	add	t3,t3,s9
  101bba:	0000                	unimp
  101bbc:	9e66                	add	t3,t3,s9
  101bbe:	0000                	unimp
  101bc0:	9e66                	add	t3,t3,s9
  101bc2:	0000                	unimp
  101bc4:	9e66                	add	t3,t3,s9
  101bc6:	0000                	unimp
  101bc8:	9e66                	add	t3,t3,s9
  101bca:	0000                	unimp
  101bcc:	9e66                	add	t3,t3,s9
  101bce:	0000                	unimp
  101bd0:	9e66                	add	t3,t3,s9
  101bd2:	0000                	unimp
  101bd4:	9e66                	add	t3,t3,s9
  101bd6:	0000                	unimp
  101bd8:	9e66                	add	t3,t3,s9
  101bda:	0000                	unimp
  101bdc:	9e66                	add	t3,t3,s9
  101bde:	0000                	unimp
  101be0:	9e66                	add	t3,t3,s9
  101be2:	0000                	unimp
  101be4:	9e66                	add	t3,t3,s9
  101be6:	0000                	unimp
  101be8:	9e66                	add	t3,t3,s9
  101bea:	0000                	unimp
  101bec:	9e66                	add	t3,t3,s9
  101bee:	0000                	unimp
  101bf0:	9e66                	add	t3,t3,s9
  101bf2:	0000                	unimp
  101bf4:	9e66                	add	t3,t3,s9
  101bf6:	0000                	unimp
  101bf8:	9e66                	add	t3,t3,s9
  101bfa:	0000                	unimp
  101bfc:	9e66                	add	t3,t3,s9
  101bfe:	0000                	unimp
  101c00:	00009fab          	0x9fab
  101c04:	00009fab          	0x9fab
  101c08:	00009fab          	0x9fab
  101c0c:	00009fab          	0x9fab
  101c10:	00009fab          	0x9fab
  101c14:	00009fab          	0x9fab
  101c18:	00009fab          	0x9fab
  101c1c:	00009fab          	0x9fab
  101c20:	00009fab          	0x9fab
  101c24:	00009fab          	0x9fab
  101c28:	00009fab          	0x9fab
  101c2c:	00009fab          	0x9fab
  101c30:	00009fab          	0x9fab
  101c34:	00009fab          	0x9fab
  101c38:	00009fab          	0x9fab
  101c3c:	00009fab          	0x9fab
  101c40:	00009fab          	0x9fab
  101c44:	00009fab          	0x9fab
  101c48:	00009fab          	0x9fab
  101c4c:	00009fab          	0x9fab
  101c50:	00009fab          	0x9fab
  101c54:	00009fab          	0x9fab
  101c58:	00009fab          	0x9fab
  101c5c:	00009fab          	0x9fab
  101c60:	00009fab          	0x9fab
  101c64:	00009fab          	0x9fab
  101c68:	00009fab          	0x9fab
  101c6c:	00009fab          	0x9fab
  101c70:	00009fab          	0x9fab
  101c74:	00009fab          	0x9fab
  101c78:	00009fab          	0x9fab
  101c7c:	00009fab          	0x9fab
  101c80:	a0f0                	fsd	fa2,192(s1)
  101c82:	0000                	unimp
  101c84:	a0f0                	fsd	fa2,192(s1)
  101c86:	0000                	unimp
  101c88:	a0f0                	fsd	fa2,192(s1)
  101c8a:	0000                	unimp
  101c8c:	a0f0                	fsd	fa2,192(s1)
  101c8e:	0000                	unimp
  101c90:	a0f0                	fsd	fa2,192(s1)
  101c92:	0000                	unimp
  101c94:	a0f0                	fsd	fa2,192(s1)
  101c96:	0000                	unimp
  101c98:	a0f0                	fsd	fa2,192(s1)
  101c9a:	0000                	unimp
  101c9c:	a0f0                	fsd	fa2,192(s1)
  101c9e:	0000                	unimp
  101ca0:	a0f0                	fsd	fa2,192(s1)
  101ca2:	0000                	unimp
  101ca4:	a0f0                	fsd	fa2,192(s1)
  101ca6:	0000                	unimp
  101ca8:	a0f0                	fsd	fa2,192(s1)
  101caa:	0000                	unimp
  101cac:	a0f0                	fsd	fa2,192(s1)
  101cae:	0000                	unimp
  101cb0:	a0f0                	fsd	fa2,192(s1)
  101cb2:	0000                	unimp
  101cb4:	a0f0                	fsd	fa2,192(s1)
  101cb6:	0000                	unimp
  101cb8:	a0f0                	fsd	fa2,192(s1)
  101cba:	0000                	unimp
  101cbc:	a0f0                	fsd	fa2,192(s1)
  101cbe:	0000                	unimp
  101cc0:	a0f0                	fsd	fa2,192(s1)
  101cc2:	0000                	unimp
  101cc4:	a0f0                	fsd	fa2,192(s1)
  101cc6:	0000                	unimp
  101cc8:	a0f0                	fsd	fa2,192(s1)
  101cca:	0000                	unimp
  101ccc:	a0f0                	fsd	fa2,192(s1)
  101cce:	0000                	unimp
  101cd0:	a0f0                	fsd	fa2,192(s1)
  101cd2:	0000                	unimp
  101cd4:	a0f0                	fsd	fa2,192(s1)
  101cd6:	0000                	unimp
  101cd8:	a0f0                	fsd	fa2,192(s1)
  101cda:	0000                	unimp
  101cdc:	a0f0                	fsd	fa2,192(s1)
  101cde:	0000                	unimp
  101ce0:	a0f0                	fsd	fa2,192(s1)
  101ce2:	0000                	unimp
  101ce4:	a0f0                	fsd	fa2,192(s1)
  101ce6:	0000                	unimp
  101ce8:	a0f0                	fsd	fa2,192(s1)
  101cea:	0000                	unimp
  101cec:	a0f0                	fsd	fa2,192(s1)
  101cee:	0000                	unimp
  101cf0:	a0f0                	fsd	fa2,192(s1)
  101cf2:	0000                	unimp
  101cf4:	a0f0                	fsd	fa2,192(s1)
  101cf6:	0000                	unimp
  101cf8:	a0f0                	fsd	fa2,192(s1)
  101cfa:	0000                	unimp
  101cfc:	a0f0                	fsd	fa2,192(s1)
  101cfe:	0000                	unimp
  101d00:	a235                	j	101e2c <expected_output+0x11ac>
  101d02:	0000                	unimp
  101d04:	a235                	j	101e30 <expected_output+0x11b0>
  101d06:	0000                	unimp
  101d08:	a235                	j	101e34 <expected_output+0x11b4>
  101d0a:	0000                	unimp
  101d0c:	a235                	j	101e38 <expected_output+0x11b8>
  101d0e:	0000                	unimp
  101d10:	a235                	j	101e3c <expected_output+0x11bc>
  101d12:	0000                	unimp
  101d14:	a235                	j	101e40 <expected_output+0x11c0>
  101d16:	0000                	unimp
  101d18:	a235                	j	101e44 <expected_output+0x11c4>
  101d1a:	0000                	unimp
  101d1c:	a235                	j	101e48 <expected_output+0x11c8>
  101d1e:	0000                	unimp
  101d20:	a235                	j	101e4c <expected_output+0x11cc>
  101d22:	0000                	unimp
  101d24:	a235                	j	101e50 <expected_output+0x11d0>
  101d26:	0000                	unimp
  101d28:	a235                	j	101e54 <expected_output+0x11d4>
  101d2a:	0000                	unimp
  101d2c:	a235                	j	101e58 <expected_output+0x11d8>
  101d2e:	0000                	unimp
  101d30:	a235                	j	101e5c <expected_output+0x11dc>
  101d32:	0000                	unimp
  101d34:	a235                	j	101e60 <expected_output+0x11e0>
  101d36:	0000                	unimp
  101d38:	a235                	j	101e64 <expected_output+0x11e4>
  101d3a:	0000                	unimp
  101d3c:	a235                	j	101e68 <expected_output+0x11e8>
  101d3e:	0000                	unimp
  101d40:	a235                	j	101e6c <expected_output+0x11ec>
  101d42:	0000                	unimp
  101d44:	a235                	j	101e70 <expected_output+0x11f0>
  101d46:	0000                	unimp
  101d48:	a235                	j	101e74 <expected_output+0x11f4>
  101d4a:	0000                	unimp
  101d4c:	a235                	j	101e78 <expected_output+0x11f8>
  101d4e:	0000                	unimp
  101d50:	a235                	j	101e7c <expected_output+0x11fc>
  101d52:	0000                	unimp
  101d54:	a235                	j	101e80 <expected_output+0x1200>
  101d56:	0000                	unimp
  101d58:	a235                	j	101e84 <expected_output+0x1204>
  101d5a:	0000                	unimp
  101d5c:	a235                	j	101e88 <expected_output+0x1208>
  101d5e:	0000                	unimp
  101d60:	a235                	j	101e8c <expected_output+0x120c>
  101d62:	0000                	unimp
  101d64:	a235                	j	101e90 <expected_output+0x1210>
  101d66:	0000                	unimp
  101d68:	a235                	j	101e94 <expected_output+0x1214>
  101d6a:	0000                	unimp
  101d6c:	a235                	j	101e98 <expected_output+0x1218>
  101d6e:	0000                	unimp
  101d70:	a235                	j	101e9c <expected_output+0x121c>
  101d72:	0000                	unimp
  101d74:	a235                	j	101ea0 <expected_output+0x1220>
  101d76:	0000                	unimp
  101d78:	a235                	j	101ea4 <expected_output+0x1224>
  101d7a:	0000                	unimp
  101d7c:	a235                	j	101ea8 <expected_output+0x1228>
  101d7e:	0000                	unimp
  101d80:	a37a                	fsd	ft10,384(sp)
  101d82:	0000                	unimp
  101d84:	a37a                	fsd	ft10,384(sp)
  101d86:	0000                	unimp
  101d88:	a37a                	fsd	ft10,384(sp)
  101d8a:	0000                	unimp
  101d8c:	a37a                	fsd	ft10,384(sp)
  101d8e:	0000                	unimp
  101d90:	a37a                	fsd	ft10,384(sp)
  101d92:	0000                	unimp
  101d94:	a37a                	fsd	ft10,384(sp)
  101d96:	0000                	unimp
  101d98:	a37a                	fsd	ft10,384(sp)
  101d9a:	0000                	unimp
  101d9c:	a37a                	fsd	ft10,384(sp)
  101d9e:	0000                	unimp
  101da0:	a37a                	fsd	ft10,384(sp)
  101da2:	0000                	unimp
  101da4:	a37a                	fsd	ft10,384(sp)
  101da6:	0000                	unimp
  101da8:	a37a                	fsd	ft10,384(sp)
  101daa:	0000                	unimp
  101dac:	a37a                	fsd	ft10,384(sp)
  101dae:	0000                	unimp
  101db0:	a37a                	fsd	ft10,384(sp)
  101db2:	0000                	unimp
  101db4:	a37a                	fsd	ft10,384(sp)
  101db6:	0000                	unimp
  101db8:	a37a                	fsd	ft10,384(sp)
  101dba:	0000                	unimp
  101dbc:	a37a                	fsd	ft10,384(sp)
  101dbe:	0000                	unimp
  101dc0:	a37a                	fsd	ft10,384(sp)
  101dc2:	0000                	unimp
  101dc4:	a37a                	fsd	ft10,384(sp)
  101dc6:	0000                	unimp
  101dc8:	a37a                	fsd	ft10,384(sp)
  101dca:	0000                	unimp
  101dcc:	a37a                	fsd	ft10,384(sp)
  101dce:	0000                	unimp
  101dd0:	a37a                	fsd	ft10,384(sp)
  101dd2:	0000                	unimp
  101dd4:	a37a                	fsd	ft10,384(sp)
  101dd6:	0000                	unimp
  101dd8:	a37a                	fsd	ft10,384(sp)
  101dda:	0000                	unimp
  101ddc:	a37a                	fsd	ft10,384(sp)
  101dde:	0000                	unimp
  101de0:	a37a                	fsd	ft10,384(sp)
  101de2:	0000                	unimp
  101de4:	a37a                	fsd	ft10,384(sp)
  101de6:	0000                	unimp
  101de8:	a37a                	fsd	ft10,384(sp)
  101dea:	0000                	unimp
  101dec:	a37a                	fsd	ft10,384(sp)
  101dee:	0000                	unimp
  101df0:	a37a                	fsd	ft10,384(sp)
  101df2:	0000                	unimp
  101df4:	a37a                	fsd	ft10,384(sp)
  101df6:	0000                	unimp
  101df8:	a37a                	fsd	ft10,384(sp)
  101dfa:	0000                	unimp
  101dfc:	a37a                	fsd	ft10,384(sp)
  101dfe:	0000                	unimp
  101e00:	0000a4bf 0000a4bf 	0xa4bf0000a4bf
  101e08:	0000a4bf 0000a4bf 	0xa4bf0000a4bf
  101e10:	0000a4bf 0000a4bf 	0xa4bf0000a4bf
  101e18:	0000a4bf 0000a4bf 	0xa4bf0000a4bf
  101e20:	0000a4bf 0000a4bf 	0xa4bf0000a4bf
  101e28:	0000a4bf 0000a4bf 	0xa4bf0000a4bf
  101e30:	0000a4bf 0000a4bf 	0xa4bf0000a4bf
  101e38:	0000a4bf 0000a4bf 	0xa4bf0000a4bf
  101e40:	0000a4bf 0000a4bf 	0xa4bf0000a4bf
  101e48:	0000a4bf 0000a4bf 	0xa4bf0000a4bf
  101e50:	0000a4bf 0000a4bf 	0xa4bf0000a4bf
  101e58:	0000a4bf 0000a4bf 	0xa4bf0000a4bf
  101e60:	0000a4bf 0000a4bf 	0xa4bf0000a4bf
  101e68:	0000a4bf 0000a4bf 	0xa4bf0000a4bf
  101e70:	0000a4bf 0000a4bf 	0xa4bf0000a4bf
  101e78:	0000a4bf 0000a4bf 	0xa4bf0000a4bf
  101e80:	a604                	fsd	fs1,8(a2)
  101e82:	0000                	unimp
  101e84:	a604                	fsd	fs1,8(a2)
  101e86:	0000                	unimp
  101e88:	a604                	fsd	fs1,8(a2)
  101e8a:	0000                	unimp
  101e8c:	a604                	fsd	fs1,8(a2)
  101e8e:	0000                	unimp
  101e90:	a604                	fsd	fs1,8(a2)
  101e92:	0000                	unimp
  101e94:	a604                	fsd	fs1,8(a2)
  101e96:	0000                	unimp
  101e98:	a604                	fsd	fs1,8(a2)
  101e9a:	0000                	unimp
  101e9c:	a604                	fsd	fs1,8(a2)
  101e9e:	0000                	unimp
  101ea0:	a604                	fsd	fs1,8(a2)
  101ea2:	0000                	unimp
  101ea4:	a604                	fsd	fs1,8(a2)
  101ea6:	0000                	unimp
  101ea8:	a604                	fsd	fs1,8(a2)
  101eaa:	0000                	unimp
  101eac:	a604                	fsd	fs1,8(a2)
  101eae:	0000                	unimp
  101eb0:	a604                	fsd	fs1,8(a2)
  101eb2:	0000                	unimp
  101eb4:	a604                	fsd	fs1,8(a2)
  101eb6:	0000                	unimp
  101eb8:	a604                	fsd	fs1,8(a2)
  101eba:	0000                	unimp
  101ebc:	a604                	fsd	fs1,8(a2)
  101ebe:	0000                	unimp
  101ec0:	a604                	fsd	fs1,8(a2)
  101ec2:	0000                	unimp
  101ec4:	a604                	fsd	fs1,8(a2)
  101ec6:	0000                	unimp
  101ec8:	a604                	fsd	fs1,8(a2)
  101eca:	0000                	unimp
  101ecc:	a604                	fsd	fs1,8(a2)
  101ece:	0000                	unimp
  101ed0:	a604                	fsd	fs1,8(a2)
  101ed2:	0000                	unimp
  101ed4:	a604                	fsd	fs1,8(a2)
  101ed6:	0000                	unimp
  101ed8:	a604                	fsd	fs1,8(a2)
  101eda:	0000                	unimp
  101edc:	a604                	fsd	fs1,8(a2)
  101ede:	0000                	unimp
  101ee0:	a604                	fsd	fs1,8(a2)
  101ee2:	0000                	unimp
  101ee4:	a604                	fsd	fs1,8(a2)
  101ee6:	0000                	unimp
  101ee8:	a604                	fsd	fs1,8(a2)
  101eea:	0000                	unimp
  101eec:	a604                	fsd	fs1,8(a2)
  101eee:	0000                	unimp
  101ef0:	a604                	fsd	fs1,8(a2)
  101ef2:	0000                	unimp
  101ef4:	a604                	fsd	fs1,8(a2)
  101ef6:	0000                	unimp
  101ef8:	a604                	fsd	fs1,8(a2)
  101efa:	0000                	unimp
  101efc:	a604                	fsd	fs1,8(a2)
  101efe:	0000                	unimp
  101f00:	a749                	j	102682 <expected_output+0x1a02>
  101f02:	0000                	unimp
  101f04:	a749                	j	102686 <expected_output+0x1a06>
  101f06:	0000                	unimp
  101f08:	a749                	j	10268a <expected_output+0x1a0a>
  101f0a:	0000                	unimp
  101f0c:	a749                	j	10268e <expected_output+0x1a0e>
  101f0e:	0000                	unimp
  101f10:	a749                	j	102692 <expected_output+0x1a12>
  101f12:	0000                	unimp
  101f14:	a749                	j	102696 <expected_output+0x1a16>
  101f16:	0000                	unimp
  101f18:	a749                	j	10269a <expected_output+0x1a1a>
  101f1a:	0000                	unimp
  101f1c:	a749                	j	10269e <expected_output+0x1a1e>
  101f1e:	0000                	unimp
  101f20:	a749                	j	1026a2 <expected_output+0x1a22>
  101f22:	0000                	unimp
  101f24:	a749                	j	1026a6 <expected_output+0x1a26>
  101f26:	0000                	unimp
  101f28:	a749                	j	1026aa <expected_output+0x1a2a>
  101f2a:	0000                	unimp
  101f2c:	a749                	j	1026ae <expected_output+0x1a2e>
  101f2e:	0000                	unimp
  101f30:	a749                	j	1026b2 <expected_output+0x1a32>
  101f32:	0000                	unimp
  101f34:	a749                	j	1026b6 <expected_output+0x1a36>
  101f36:	0000                	unimp
  101f38:	a749                	j	1026ba <expected_output+0x1a3a>
  101f3a:	0000                	unimp
  101f3c:	a749                	j	1026be <expected_output+0x1a3e>
  101f3e:	0000                	unimp
  101f40:	a749                	j	1026c2 <expected_output+0x1a42>
  101f42:	0000                	unimp
  101f44:	a749                	j	1026c6 <expected_output+0x1a46>
  101f46:	0000                	unimp
  101f48:	a749                	j	1026ca <expected_output+0x1a4a>
  101f4a:	0000                	unimp
  101f4c:	a749                	j	1026ce <expected_output+0x1a4e>
  101f4e:	0000                	unimp
  101f50:	a749                	j	1026d2 <expected_output+0x1a52>
  101f52:	0000                	unimp
  101f54:	a749                	j	1026d6 <expected_output+0x1a56>
  101f56:	0000                	unimp
  101f58:	a749                	j	1026da <expected_output+0x1a5a>
  101f5a:	0000                	unimp
  101f5c:	a749                	j	1026de <expected_output+0x1a5e>
  101f5e:	0000                	unimp
  101f60:	a749                	j	1026e2 <expected_output+0x1a62>
  101f62:	0000                	unimp
  101f64:	a749                	j	1026e6 <expected_output+0x1a66>
  101f66:	0000                	unimp
  101f68:	a749                	j	1026ea <expected_output+0x1a6a>
  101f6a:	0000                	unimp
  101f6c:	a749                	j	1026ee <expected_output+0x1a6e>
  101f6e:	0000                	unimp
  101f70:	a749                	j	1026f2 <expected_output+0x1a72>
  101f72:	0000                	unimp
  101f74:	a749                	j	1026f6 <expected_output+0x1a76>
  101f76:	0000                	unimp
  101f78:	a749                	j	1026fa <expected_output+0x1a7a>
  101f7a:	0000                	unimp
  101f7c:	a749                	j	1026fe <expected_output+0x1a7e>
  101f7e:	0000                	unimp
  101f80:	a88e                	fsd	ft3,80(sp)
  101f82:	0000                	unimp
  101f84:	a88e                	fsd	ft3,80(sp)
  101f86:	0000                	unimp
  101f88:	a88e                	fsd	ft3,80(sp)
  101f8a:	0000                	unimp
  101f8c:	a88e                	fsd	ft3,80(sp)
  101f8e:	0000                	unimp
  101f90:	a88e                	fsd	ft3,80(sp)
  101f92:	0000                	unimp
  101f94:	a88e                	fsd	ft3,80(sp)
  101f96:	0000                	unimp
  101f98:	a88e                	fsd	ft3,80(sp)
  101f9a:	0000                	unimp
  101f9c:	a88e                	fsd	ft3,80(sp)
  101f9e:	0000                	unimp
  101fa0:	a88e                	fsd	ft3,80(sp)
  101fa2:	0000                	unimp
  101fa4:	a88e                	fsd	ft3,80(sp)
  101fa6:	0000                	unimp
  101fa8:	a88e                	fsd	ft3,80(sp)
  101faa:	0000                	unimp
  101fac:	a88e                	fsd	ft3,80(sp)
  101fae:	0000                	unimp
  101fb0:	a88e                	fsd	ft3,80(sp)
  101fb2:	0000                	unimp
  101fb4:	a88e                	fsd	ft3,80(sp)
  101fb6:	0000                	unimp
  101fb8:	a88e                	fsd	ft3,80(sp)
  101fba:	0000                	unimp
  101fbc:	a88e                	fsd	ft3,80(sp)
  101fbe:	0000                	unimp
  101fc0:	a88e                	fsd	ft3,80(sp)
  101fc2:	0000                	unimp
  101fc4:	a88e                	fsd	ft3,80(sp)
  101fc6:	0000                	unimp
  101fc8:	a88e                	fsd	ft3,80(sp)
  101fca:	0000                	unimp
  101fcc:	a88e                	fsd	ft3,80(sp)
  101fce:	0000                	unimp
  101fd0:	a88e                	fsd	ft3,80(sp)
  101fd2:	0000                	unimp
  101fd4:	a88e                	fsd	ft3,80(sp)
  101fd6:	0000                	unimp
  101fd8:	a88e                	fsd	ft3,80(sp)
  101fda:	0000                	unimp
  101fdc:	a88e                	fsd	ft3,80(sp)
  101fde:	0000                	unimp
  101fe0:	a88e                	fsd	ft3,80(sp)
  101fe2:	0000                	unimp
  101fe4:	a88e                	fsd	ft3,80(sp)
  101fe6:	0000                	unimp
  101fe8:	a88e                	fsd	ft3,80(sp)
  101fea:	0000                	unimp
  101fec:	a88e                	fsd	ft3,80(sp)
  101fee:	0000                	unimp
  101ff0:	a88e                	fsd	ft3,80(sp)
  101ff2:	0000                	unimp
  101ff4:	a88e                	fsd	ft3,80(sp)
  101ff6:	0000                	unimp
  101ff8:	a88e                	fsd	ft3,80(sp)
  101ffa:	0000                	unimp
  101ffc:	a88e                	fsd	ft3,80(sp)
  101ffe:	0000                	unimp
  102000:	0000a9d3          	fadd.s	fs3,ft1,ft0,rdn
  102004:	0000a9d3          	fadd.s	fs3,ft1,ft0,rdn
  102008:	0000a9d3          	fadd.s	fs3,ft1,ft0,rdn
  10200c:	0000a9d3          	fadd.s	fs3,ft1,ft0,rdn
  102010:	0000a9d3          	fadd.s	fs3,ft1,ft0,rdn
  102014:	0000a9d3          	fadd.s	fs3,ft1,ft0,rdn
  102018:	0000a9d3          	fadd.s	fs3,ft1,ft0,rdn
  10201c:	0000a9d3          	fadd.s	fs3,ft1,ft0,rdn
  102020:	0000a9d3          	fadd.s	fs3,ft1,ft0,rdn
  102024:	0000a9d3          	fadd.s	fs3,ft1,ft0,rdn
  102028:	0000a9d3          	fadd.s	fs3,ft1,ft0,rdn
  10202c:	0000a9d3          	fadd.s	fs3,ft1,ft0,rdn
  102030:	0000a9d3          	fadd.s	fs3,ft1,ft0,rdn
  102034:	0000a9d3          	fadd.s	fs3,ft1,ft0,rdn
  102038:	0000a9d3          	fadd.s	fs3,ft1,ft0,rdn
  10203c:	0000a9d3          	fadd.s	fs3,ft1,ft0,rdn
  102040:	0000a9d3          	fadd.s	fs3,ft1,ft0,rdn
  102044:	0000a9d3          	fadd.s	fs3,ft1,ft0,rdn
  102048:	0000a9d3          	fadd.s	fs3,ft1,ft0,rdn
  10204c:	0000a9d3          	fadd.s	fs3,ft1,ft0,rdn
  102050:	0000a9d3          	fadd.s	fs3,ft1,ft0,rdn
  102054:	0000a9d3          	fadd.s	fs3,ft1,ft0,rdn
  102058:	0000a9d3          	fadd.s	fs3,ft1,ft0,rdn
  10205c:	0000a9d3          	fadd.s	fs3,ft1,ft0,rdn
  102060:	0000a9d3          	fadd.s	fs3,ft1,ft0,rdn
  102064:	0000a9d3          	fadd.s	fs3,ft1,ft0,rdn
  102068:	0000a9d3          	fadd.s	fs3,ft1,ft0,rdn
  10206c:	0000a9d3          	fadd.s	fs3,ft1,ft0,rdn
  102070:	0000a9d3          	fadd.s	fs3,ft1,ft0,rdn
  102074:	0000a9d3          	fadd.s	fs3,ft1,ft0,rdn
  102078:	0000a9d3          	fadd.s	fs3,ft1,ft0,rdn
  10207c:	0000a9d3          	fadd.s	fs3,ft1,ft0,rdn
  102080:	ab18                	fsd	fa4,16(a4)
  102082:	0000                	unimp
  102084:	ab18                	fsd	fa4,16(a4)
  102086:	0000                	unimp
  102088:	ab18                	fsd	fa4,16(a4)
  10208a:	0000                	unimp
  10208c:	ab18                	fsd	fa4,16(a4)
  10208e:	0000                	unimp
  102090:	ab18                	fsd	fa4,16(a4)
  102092:	0000                	unimp
  102094:	ab18                	fsd	fa4,16(a4)
  102096:	0000                	unimp
  102098:	ab18                	fsd	fa4,16(a4)
  10209a:	0000                	unimp
  10209c:	ab18                	fsd	fa4,16(a4)
  10209e:	0000                	unimp
  1020a0:	ab18                	fsd	fa4,16(a4)
  1020a2:	0000                	unimp
  1020a4:	ab18                	fsd	fa4,16(a4)
  1020a6:	0000                	unimp
  1020a8:	ab18                	fsd	fa4,16(a4)
  1020aa:	0000                	unimp
  1020ac:	ab18                	fsd	fa4,16(a4)
  1020ae:	0000                	unimp
  1020b0:	ab18                	fsd	fa4,16(a4)
  1020b2:	0000                	unimp
  1020b4:	ab18                	fsd	fa4,16(a4)
  1020b6:	0000                	unimp
  1020b8:	ab18                	fsd	fa4,16(a4)
  1020ba:	0000                	unimp
  1020bc:	ab18                	fsd	fa4,16(a4)
  1020be:	0000                	unimp
  1020c0:	ab18                	fsd	fa4,16(a4)
  1020c2:	0000                	unimp
  1020c4:	ab18                	fsd	fa4,16(a4)
  1020c6:	0000                	unimp
  1020c8:	ab18                	fsd	fa4,16(a4)
  1020ca:	0000                	unimp
  1020cc:	ab18                	fsd	fa4,16(a4)
  1020ce:	0000                	unimp
  1020d0:	ab18                	fsd	fa4,16(a4)
  1020d2:	0000                	unimp
  1020d4:	ab18                	fsd	fa4,16(a4)
  1020d6:	0000                	unimp
  1020d8:	ab18                	fsd	fa4,16(a4)
  1020da:	0000                	unimp
  1020dc:	ab18                	fsd	fa4,16(a4)
  1020de:	0000                	unimp
  1020e0:	ab18                	fsd	fa4,16(a4)
  1020e2:	0000                	unimp
  1020e4:	ab18                	fsd	fa4,16(a4)
  1020e6:	0000                	unimp
  1020e8:	ab18                	fsd	fa4,16(a4)
  1020ea:	0000                	unimp
  1020ec:	ab18                	fsd	fa4,16(a4)
  1020ee:	0000                	unimp
  1020f0:	ab18                	fsd	fa4,16(a4)
  1020f2:	0000                	unimp
  1020f4:	ab18                	fsd	fa4,16(a4)
  1020f6:	0000                	unimp
  1020f8:	ab18                	fsd	fa4,16(a4)
  1020fa:	0000                	unimp
  1020fc:	ab18                	fsd	fa4,16(a4)
  1020fe:	0000                	unimp
  102100:	ac5d                	j	1023b6 <expected_output+0x1736>
  102102:	0000                	unimp
  102104:	ac5d                	j	1023ba <expected_output+0x173a>
  102106:	0000                	unimp
  102108:	ac5d                	j	1023be <expected_output+0x173e>
  10210a:	0000                	unimp
  10210c:	ac5d                	j	1023c2 <expected_output+0x1742>
  10210e:	0000                	unimp
  102110:	ac5d                	j	1023c6 <expected_output+0x1746>
  102112:	0000                	unimp
  102114:	ac5d                	j	1023ca <expected_output+0x174a>
  102116:	0000                	unimp
  102118:	ac5d                	j	1023ce <expected_output+0x174e>
  10211a:	0000                	unimp
  10211c:	ac5d                	j	1023d2 <expected_output+0x1752>
  10211e:	0000                	unimp
  102120:	ac5d                	j	1023d6 <expected_output+0x1756>
  102122:	0000                	unimp
  102124:	ac5d                	j	1023da <expected_output+0x175a>
  102126:	0000                	unimp
  102128:	ac5d                	j	1023de <expected_output+0x175e>
  10212a:	0000                	unimp
  10212c:	ac5d                	j	1023e2 <expected_output+0x1762>
  10212e:	0000                	unimp
  102130:	ac5d                	j	1023e6 <expected_output+0x1766>
  102132:	0000                	unimp
  102134:	ac5d                	j	1023ea <expected_output+0x176a>
  102136:	0000                	unimp
  102138:	ac5d                	j	1023ee <expected_output+0x176e>
  10213a:	0000                	unimp
  10213c:	ac5d                	j	1023f2 <expected_output+0x1772>
  10213e:	0000                	unimp
  102140:	ac5d                	j	1023f6 <expected_output+0x1776>
  102142:	0000                	unimp
  102144:	ac5d                	j	1023fa <expected_output+0x177a>
  102146:	0000                	unimp
  102148:	ac5d                	j	1023fe <expected_output+0x177e>
  10214a:	0000                	unimp
  10214c:	ac5d                	j	102402 <expected_output+0x1782>
  10214e:	0000                	unimp
  102150:	ac5d                	j	102406 <expected_output+0x1786>
  102152:	0000                	unimp
  102154:	ac5d                	j	10240a <expected_output+0x178a>
  102156:	0000                	unimp
  102158:	ac5d                	j	10240e <expected_output+0x178e>
  10215a:	0000                	unimp
  10215c:	ac5d                	j	102412 <expected_output+0x1792>
  10215e:	0000                	unimp
  102160:	ac5d                	j	102416 <expected_output+0x1796>
  102162:	0000                	unimp
  102164:	ac5d                	j	10241a <expected_output+0x179a>
  102166:	0000                	unimp
  102168:	ac5d                	j	10241e <expected_output+0x179e>
  10216a:	0000                	unimp
  10216c:	ac5d                	j	102422 <expected_output+0x17a2>
  10216e:	0000                	unimp
  102170:	ac5d                	j	102426 <expected_output+0x17a6>
  102172:	0000                	unimp
  102174:	ac5d                	j	10242a <expected_output+0x17aa>
  102176:	0000                	unimp
  102178:	ac5d                	j	10242e <expected_output+0x17ae>
  10217a:	0000                	unimp
  10217c:	ac5d                	j	102432 <expected_output+0x17b2>
  10217e:	0000                	unimp
  102180:	ada2                	fsd	fs0,216(sp)
  102182:	0000                	unimp
  102184:	ada2                	fsd	fs0,216(sp)
  102186:	0000                	unimp
  102188:	ada2                	fsd	fs0,216(sp)
  10218a:	0000                	unimp
  10218c:	ada2                	fsd	fs0,216(sp)
  10218e:	0000                	unimp
  102190:	ada2                	fsd	fs0,216(sp)
  102192:	0000                	unimp
  102194:	ada2                	fsd	fs0,216(sp)
  102196:	0000                	unimp
  102198:	ada2                	fsd	fs0,216(sp)
  10219a:	0000                	unimp
  10219c:	ada2                	fsd	fs0,216(sp)
  10219e:	0000                	unimp
  1021a0:	ada2                	fsd	fs0,216(sp)
  1021a2:	0000                	unimp
  1021a4:	ada2                	fsd	fs0,216(sp)
  1021a6:	0000                	unimp
  1021a8:	ada2                	fsd	fs0,216(sp)
  1021aa:	0000                	unimp
  1021ac:	ada2                	fsd	fs0,216(sp)
  1021ae:	0000                	unimp
  1021b0:	ada2                	fsd	fs0,216(sp)
  1021b2:	0000                	unimp
  1021b4:	ada2                	fsd	fs0,216(sp)
  1021b6:	0000                	unimp
  1021b8:	ada2                	fsd	fs0,216(sp)
  1021ba:	0000                	unimp
  1021bc:	ada2                	fsd	fs0,216(sp)
  1021be:	0000                	unimp
  1021c0:	ada2                	fsd	fs0,216(sp)
  1021c2:	0000                	unimp
  1021c4:	ada2                	fsd	fs0,216(sp)
  1021c6:	0000                	unimp
  1021c8:	ada2                	fsd	fs0,216(sp)
  1021ca:	0000                	unimp
  1021cc:	ada2                	fsd	fs0,216(sp)
  1021ce:	0000                	unimp
  1021d0:	ada2                	fsd	fs0,216(sp)
  1021d2:	0000                	unimp
  1021d4:	ada2                	fsd	fs0,216(sp)
  1021d6:	0000                	unimp
  1021d8:	ada2                	fsd	fs0,216(sp)
  1021da:	0000                	unimp
  1021dc:	ada2                	fsd	fs0,216(sp)
  1021de:	0000                	unimp
  1021e0:	ada2                	fsd	fs0,216(sp)
  1021e2:	0000                	unimp
  1021e4:	ada2                	fsd	fs0,216(sp)
  1021e6:	0000                	unimp
  1021e8:	ada2                	fsd	fs0,216(sp)
  1021ea:	0000                	unimp
  1021ec:	ada2                	fsd	fs0,216(sp)
  1021ee:	0000                	unimp
  1021f0:	ada2                	fsd	fs0,216(sp)
  1021f2:	0000                	unimp
  1021f4:	ada2                	fsd	fs0,216(sp)
  1021f6:	0000                	unimp
  1021f8:	ada2                	fsd	fs0,216(sp)
  1021fa:	0000                	unimp
  1021fc:	ada2                	fsd	fs0,216(sp)
  1021fe:	0000                	unimp
  102200:	0000aee7          	0xaee7
  102204:	0000aee7          	0xaee7
  102208:	0000aee7          	0xaee7
  10220c:	0000aee7          	0xaee7
  102210:	0000aee7          	0xaee7
  102214:	0000aee7          	0xaee7
  102218:	0000aee7          	0xaee7
  10221c:	0000aee7          	0xaee7
  102220:	0000aee7          	0xaee7
  102224:	0000aee7          	0xaee7
  102228:	0000aee7          	0xaee7
  10222c:	0000aee7          	0xaee7
  102230:	0000aee7          	0xaee7
  102234:	0000aee7          	0xaee7
  102238:	0000aee7          	0xaee7
  10223c:	0000aee7          	0xaee7
  102240:	0000aee7          	0xaee7
  102244:	0000aee7          	0xaee7
  102248:	0000aee7          	0xaee7
  10224c:	0000aee7          	0xaee7
  102250:	0000aee7          	0xaee7
  102254:	0000aee7          	0xaee7
  102258:	0000aee7          	0xaee7
  10225c:	0000aee7          	0xaee7
  102260:	0000aee7          	0xaee7
  102264:	0000aee7          	0xaee7
  102268:	0000aee7          	0xaee7
  10226c:	0000aee7          	0xaee7
  102270:	0000aee7          	0xaee7
  102274:	0000aee7          	0xaee7
  102278:	0000aee7          	0xaee7
  10227c:	0000aee7          	0xaee7
  102280:	b02c                	fsd	fa1,96(s0)
  102282:	0000                	unimp
  102284:	b02c                	fsd	fa1,96(s0)
  102286:	0000                	unimp
  102288:	b02c                	fsd	fa1,96(s0)
  10228a:	0000                	unimp
  10228c:	b02c                	fsd	fa1,96(s0)
  10228e:	0000                	unimp
  102290:	b02c                	fsd	fa1,96(s0)
  102292:	0000                	unimp
  102294:	b02c                	fsd	fa1,96(s0)
  102296:	0000                	unimp
  102298:	b02c                	fsd	fa1,96(s0)
  10229a:	0000                	unimp
  10229c:	b02c                	fsd	fa1,96(s0)
  10229e:	0000                	unimp
  1022a0:	b02c                	fsd	fa1,96(s0)
  1022a2:	0000                	unimp
  1022a4:	b02c                	fsd	fa1,96(s0)
  1022a6:	0000                	unimp
  1022a8:	b02c                	fsd	fa1,96(s0)
  1022aa:	0000                	unimp
  1022ac:	b02c                	fsd	fa1,96(s0)
  1022ae:	0000                	unimp
  1022b0:	b02c                	fsd	fa1,96(s0)
  1022b2:	0000                	unimp
  1022b4:	b02c                	fsd	fa1,96(s0)
  1022b6:	0000                	unimp
  1022b8:	b02c                	fsd	fa1,96(s0)
  1022ba:	0000                	unimp
  1022bc:	b02c                	fsd	fa1,96(s0)
  1022be:	0000                	unimp
  1022c0:	b02c                	fsd	fa1,96(s0)
  1022c2:	0000                	unimp
  1022c4:	b02c                	fsd	fa1,96(s0)
  1022c6:	0000                	unimp
  1022c8:	b02c                	fsd	fa1,96(s0)
  1022ca:	0000                	unimp
  1022cc:	b02c                	fsd	fa1,96(s0)
  1022ce:	0000                	unimp
  1022d0:	b02c                	fsd	fa1,96(s0)
  1022d2:	0000                	unimp
  1022d4:	b02c                	fsd	fa1,96(s0)
  1022d6:	0000                	unimp
  1022d8:	b02c                	fsd	fa1,96(s0)
  1022da:	0000                	unimp
  1022dc:	b02c                	fsd	fa1,96(s0)
  1022de:	0000                	unimp
  1022e0:	b02c                	fsd	fa1,96(s0)
  1022e2:	0000                	unimp
  1022e4:	b02c                	fsd	fa1,96(s0)
  1022e6:	0000                	unimp
  1022e8:	b02c                	fsd	fa1,96(s0)
  1022ea:	0000                	unimp
  1022ec:	b02c                	fsd	fa1,96(s0)
  1022ee:	0000                	unimp
  1022f0:	b02c                	fsd	fa1,96(s0)
  1022f2:	0000                	unimp
  1022f4:	b02c                	fsd	fa1,96(s0)
  1022f6:	0000                	unimp
  1022f8:	b02c                	fsd	fa1,96(s0)
  1022fa:	0000                	unimp
  1022fc:	b02c                	fsd	fa1,96(s0)
  1022fe:	0000                	unimp
  102300:	b171                	j	101f8c <expected_output+0x130c>
  102302:	0000                	unimp
  102304:	b171                	j	101f90 <expected_output+0x1310>
  102306:	0000                	unimp
  102308:	b171                	j	101f94 <expected_output+0x1314>
  10230a:	0000                	unimp
  10230c:	b171                	j	101f98 <expected_output+0x1318>
  10230e:	0000                	unimp
  102310:	b171                	j	101f9c <expected_output+0x131c>
  102312:	0000                	unimp
  102314:	b171                	j	101fa0 <expected_output+0x1320>
  102316:	0000                	unimp
  102318:	b171                	j	101fa4 <expected_output+0x1324>
  10231a:	0000                	unimp
  10231c:	b171                	j	101fa8 <expected_output+0x1328>
  10231e:	0000                	unimp
  102320:	b171                	j	101fac <expected_output+0x132c>
  102322:	0000                	unimp
  102324:	b171                	j	101fb0 <expected_output+0x1330>
  102326:	0000                	unimp
  102328:	b171                	j	101fb4 <expected_output+0x1334>
  10232a:	0000                	unimp
  10232c:	b171                	j	101fb8 <expected_output+0x1338>
  10232e:	0000                	unimp
  102330:	b171                	j	101fbc <expected_output+0x133c>
  102332:	0000                	unimp
  102334:	b171                	j	101fc0 <expected_output+0x1340>
  102336:	0000                	unimp
  102338:	b171                	j	101fc4 <expected_output+0x1344>
  10233a:	0000                	unimp
  10233c:	b171                	j	101fc8 <expected_output+0x1348>
  10233e:	0000                	unimp
  102340:	b171                	j	101fcc <expected_output+0x134c>
  102342:	0000                	unimp
  102344:	b171                	j	101fd0 <expected_output+0x1350>
  102346:	0000                	unimp
  102348:	b171                	j	101fd4 <expected_output+0x1354>
  10234a:	0000                	unimp
  10234c:	b171                	j	101fd8 <expected_output+0x1358>
  10234e:	0000                	unimp
  102350:	b171                	j	101fdc <expected_output+0x135c>
  102352:	0000                	unimp
  102354:	b171                	j	101fe0 <expected_output+0x1360>
  102356:	0000                	unimp
  102358:	b171                	j	101fe4 <expected_output+0x1364>
  10235a:	0000                	unimp
  10235c:	b171                	j	101fe8 <expected_output+0x1368>
  10235e:	0000                	unimp
  102360:	b171                	j	101fec <expected_output+0x136c>
  102362:	0000                	unimp
  102364:	b171                	j	101ff0 <expected_output+0x1370>
  102366:	0000                	unimp
  102368:	b171                	j	101ff4 <expected_output+0x1374>
  10236a:	0000                	unimp
  10236c:	b171                	j	101ff8 <expected_output+0x1378>
  10236e:	0000                	unimp
  102370:	b171                	j	101ffc <expected_output+0x137c>
  102372:	0000                	unimp
  102374:	b171                	j	102000 <expected_output+0x1380>
  102376:	0000                	unimp
  102378:	b171                	j	102004 <expected_output+0x1384>
  10237a:	0000                	unimp
  10237c:	b171                	j	102008 <expected_output+0x1388>
  10237e:	0000                	unimp
  102380:	b2b6                	fsd	fa3,352(sp)
  102382:	0000                	unimp
  102384:	b2b6                	fsd	fa3,352(sp)
  102386:	0000                	unimp
  102388:	b2b6                	fsd	fa3,352(sp)
  10238a:	0000                	unimp
  10238c:	b2b6                	fsd	fa3,352(sp)
  10238e:	0000                	unimp
  102390:	b2b6                	fsd	fa3,352(sp)
  102392:	0000                	unimp
  102394:	b2b6                	fsd	fa3,352(sp)
  102396:	0000                	unimp
  102398:	b2b6                	fsd	fa3,352(sp)
  10239a:	0000                	unimp
  10239c:	b2b6                	fsd	fa3,352(sp)
  10239e:	0000                	unimp
  1023a0:	b2b6                	fsd	fa3,352(sp)
  1023a2:	0000                	unimp
  1023a4:	b2b6                	fsd	fa3,352(sp)
  1023a6:	0000                	unimp
  1023a8:	b2b6                	fsd	fa3,352(sp)
  1023aa:	0000                	unimp
  1023ac:	b2b6                	fsd	fa3,352(sp)
  1023ae:	0000                	unimp
  1023b0:	b2b6                	fsd	fa3,352(sp)
  1023b2:	0000                	unimp
  1023b4:	b2b6                	fsd	fa3,352(sp)
  1023b6:	0000                	unimp
  1023b8:	b2b6                	fsd	fa3,352(sp)
  1023ba:	0000                	unimp
  1023bc:	b2b6                	fsd	fa3,352(sp)
  1023be:	0000                	unimp
  1023c0:	b2b6                	fsd	fa3,352(sp)
  1023c2:	0000                	unimp
  1023c4:	b2b6                	fsd	fa3,352(sp)
  1023c6:	0000                	unimp
  1023c8:	b2b6                	fsd	fa3,352(sp)
  1023ca:	0000                	unimp
  1023cc:	b2b6                	fsd	fa3,352(sp)
  1023ce:	0000                	unimp
  1023d0:	b2b6                	fsd	fa3,352(sp)
  1023d2:	0000                	unimp
  1023d4:	b2b6                	fsd	fa3,352(sp)
  1023d6:	0000                	unimp
  1023d8:	b2b6                	fsd	fa3,352(sp)
  1023da:	0000                	unimp
  1023dc:	b2b6                	fsd	fa3,352(sp)
  1023de:	0000                	unimp
  1023e0:	b2b6                	fsd	fa3,352(sp)
  1023e2:	0000                	unimp
  1023e4:	b2b6                	fsd	fa3,352(sp)
  1023e6:	0000                	unimp
  1023e8:	b2b6                	fsd	fa3,352(sp)
  1023ea:	0000                	unimp
  1023ec:	b2b6                	fsd	fa3,352(sp)
  1023ee:	0000                	unimp
  1023f0:	b2b6                	fsd	fa3,352(sp)
  1023f2:	0000                	unimp
  1023f4:	b2b6                	fsd	fa3,352(sp)
  1023f6:	0000                	unimp
  1023f8:	b2b6                	fsd	fa3,352(sp)
  1023fa:	0000                	unimp
  1023fc:	b2b6                	fsd	fa3,352(sp)
  1023fe:	0000                	unimp
  102400:	0000b3fb          	0xb3fb
  102404:	0000b3fb          	0xb3fb
  102408:	0000b3fb          	0xb3fb
  10240c:	0000b3fb          	0xb3fb
  102410:	0000b3fb          	0xb3fb
  102414:	0000b3fb          	0xb3fb
  102418:	0000b3fb          	0xb3fb
  10241c:	0000b3fb          	0xb3fb
  102420:	0000b3fb          	0xb3fb
  102424:	0000b3fb          	0xb3fb
  102428:	0000b3fb          	0xb3fb
  10242c:	0000b3fb          	0xb3fb
  102430:	0000b3fb          	0xb3fb
  102434:	0000b3fb          	0xb3fb
  102438:	0000b3fb          	0xb3fb
  10243c:	0000b3fb          	0xb3fb
  102440:	0000b3fb          	0xb3fb
  102444:	0000b3fb          	0xb3fb
  102448:	0000b3fb          	0xb3fb
  10244c:	0000b3fb          	0xb3fb
  102450:	0000b3fb          	0xb3fb
  102454:	0000b3fb          	0xb3fb
  102458:	0000b3fb          	0xb3fb
  10245c:	0000b3fb          	0xb3fb
  102460:	0000b3fb          	0xb3fb
  102464:	0000b3fb          	0xb3fb
  102468:	0000b3fb          	0xb3fb
  10246c:	0000b3fb          	0xb3fb
  102470:	0000b3fb          	0xb3fb
  102474:	0000b3fb          	0xb3fb
  102478:	0000b3fb          	0xb3fb
  10247c:	0000b3fb          	0xb3fb
  102480:	b540                	fsd	fs0,168(a0)
  102482:	0000                	unimp
  102484:	b540                	fsd	fs0,168(a0)
  102486:	0000                	unimp
  102488:	b540                	fsd	fs0,168(a0)
  10248a:	0000                	unimp
  10248c:	b540                	fsd	fs0,168(a0)
  10248e:	0000                	unimp
  102490:	b540                	fsd	fs0,168(a0)
  102492:	0000                	unimp
  102494:	b540                	fsd	fs0,168(a0)
  102496:	0000                	unimp
  102498:	b540                	fsd	fs0,168(a0)
  10249a:	0000                	unimp
  10249c:	b540                	fsd	fs0,168(a0)
  10249e:	0000                	unimp
  1024a0:	b540                	fsd	fs0,168(a0)
  1024a2:	0000                	unimp
  1024a4:	b540                	fsd	fs0,168(a0)
  1024a6:	0000                	unimp
  1024a8:	b540                	fsd	fs0,168(a0)
  1024aa:	0000                	unimp
  1024ac:	b540                	fsd	fs0,168(a0)
  1024ae:	0000                	unimp
  1024b0:	b540                	fsd	fs0,168(a0)
  1024b2:	0000                	unimp
  1024b4:	b540                	fsd	fs0,168(a0)
  1024b6:	0000                	unimp
  1024b8:	b540                	fsd	fs0,168(a0)
  1024ba:	0000                	unimp
  1024bc:	b540                	fsd	fs0,168(a0)
  1024be:	0000                	unimp
  1024c0:	b540                	fsd	fs0,168(a0)
  1024c2:	0000                	unimp
  1024c4:	b540                	fsd	fs0,168(a0)
  1024c6:	0000                	unimp
  1024c8:	b540                	fsd	fs0,168(a0)
  1024ca:	0000                	unimp
  1024cc:	b540                	fsd	fs0,168(a0)
  1024ce:	0000                	unimp
  1024d0:	b540                	fsd	fs0,168(a0)
  1024d2:	0000                	unimp
  1024d4:	b540                	fsd	fs0,168(a0)
  1024d6:	0000                	unimp
  1024d8:	b540                	fsd	fs0,168(a0)
  1024da:	0000                	unimp
  1024dc:	b540                	fsd	fs0,168(a0)
  1024de:	0000                	unimp
  1024e0:	b540                	fsd	fs0,168(a0)
  1024e2:	0000                	unimp
  1024e4:	b540                	fsd	fs0,168(a0)
  1024e6:	0000                	unimp
  1024e8:	b540                	fsd	fs0,168(a0)
  1024ea:	0000                	unimp
  1024ec:	b540                	fsd	fs0,168(a0)
  1024ee:	0000                	unimp
  1024f0:	b540                	fsd	fs0,168(a0)
  1024f2:	0000                	unimp
  1024f4:	b540                	fsd	fs0,168(a0)
  1024f6:	0000                	unimp
  1024f8:	b540                	fsd	fs0,168(a0)
  1024fa:	0000                	unimp
  1024fc:	b540                	fsd	fs0,168(a0)
  1024fe:	0000                	unimp
  102500:	b685                	j	102060 <expected_output+0x13e0>
  102502:	0000                	unimp
  102504:	b685                	j	102064 <expected_output+0x13e4>
  102506:	0000                	unimp
  102508:	b685                	j	102068 <expected_output+0x13e8>
  10250a:	0000                	unimp
  10250c:	b685                	j	10206c <expected_output+0x13ec>
  10250e:	0000                	unimp
  102510:	b685                	j	102070 <expected_output+0x13f0>
  102512:	0000                	unimp
  102514:	b685                	j	102074 <expected_output+0x13f4>
  102516:	0000                	unimp
  102518:	b685                	j	102078 <expected_output+0x13f8>
  10251a:	0000                	unimp
  10251c:	b685                	j	10207c <expected_output+0x13fc>
  10251e:	0000                	unimp
  102520:	b685                	j	102080 <expected_output+0x1400>
  102522:	0000                	unimp
  102524:	b685                	j	102084 <expected_output+0x1404>
  102526:	0000                	unimp
  102528:	b685                	j	102088 <expected_output+0x1408>
  10252a:	0000                	unimp
  10252c:	b685                	j	10208c <expected_output+0x140c>
  10252e:	0000                	unimp
  102530:	b685                	j	102090 <expected_output+0x1410>
  102532:	0000                	unimp
  102534:	b685                	j	102094 <expected_output+0x1414>
  102536:	0000                	unimp
  102538:	b685                	j	102098 <expected_output+0x1418>
  10253a:	0000                	unimp
  10253c:	b685                	j	10209c <expected_output+0x141c>
  10253e:	0000                	unimp
  102540:	b685                	j	1020a0 <expected_output+0x1420>
  102542:	0000                	unimp
  102544:	b685                	j	1020a4 <expected_output+0x1424>
  102546:	0000                	unimp
  102548:	b685                	j	1020a8 <expected_output+0x1428>
  10254a:	0000                	unimp
  10254c:	b685                	j	1020ac <expected_output+0x142c>
  10254e:	0000                	unimp
  102550:	b685                	j	1020b0 <expected_output+0x1430>
  102552:	0000                	unimp
  102554:	b685                	j	1020b4 <expected_output+0x1434>
  102556:	0000                	unimp
  102558:	b685                	j	1020b8 <expected_output+0x1438>
  10255a:	0000                	unimp
  10255c:	b685                	j	1020bc <expected_output+0x143c>
  10255e:	0000                	unimp
  102560:	b685                	j	1020c0 <expected_output+0x1440>
  102562:	0000                	unimp
  102564:	b685                	j	1020c4 <expected_output+0x1444>
  102566:	0000                	unimp
  102568:	b685                	j	1020c8 <expected_output+0x1448>
  10256a:	0000                	unimp
  10256c:	b685                	j	1020cc <expected_output+0x144c>
  10256e:	0000                	unimp
  102570:	b685                	j	1020d0 <expected_output+0x1450>
  102572:	0000                	unimp
  102574:	b685                	j	1020d4 <expected_output+0x1454>
  102576:	0000                	unimp
  102578:	b685                	j	1020d8 <expected_output+0x1458>
  10257a:	0000                	unimp
  10257c:	b685                	j	1020dc <expected_output+0x145c>
  10257e:	0000                	unimp
  102580:	b7ca                	fsd	fs2,488(sp)
  102582:	0000                	unimp
  102584:	b7ca                	fsd	fs2,488(sp)
  102586:	0000                	unimp
  102588:	b7ca                	fsd	fs2,488(sp)
  10258a:	0000                	unimp
  10258c:	b7ca                	fsd	fs2,488(sp)
  10258e:	0000                	unimp
  102590:	b7ca                	fsd	fs2,488(sp)
  102592:	0000                	unimp
  102594:	b7ca                	fsd	fs2,488(sp)
  102596:	0000                	unimp
  102598:	b7ca                	fsd	fs2,488(sp)
  10259a:	0000                	unimp
  10259c:	b7ca                	fsd	fs2,488(sp)
  10259e:	0000                	unimp
  1025a0:	b7ca                	fsd	fs2,488(sp)
  1025a2:	0000                	unimp
  1025a4:	b7ca                	fsd	fs2,488(sp)
  1025a6:	0000                	unimp
  1025a8:	b7ca                	fsd	fs2,488(sp)
  1025aa:	0000                	unimp
  1025ac:	b7ca                	fsd	fs2,488(sp)
  1025ae:	0000                	unimp
  1025b0:	b7ca                	fsd	fs2,488(sp)
  1025b2:	0000                	unimp
  1025b4:	b7ca                	fsd	fs2,488(sp)
  1025b6:	0000                	unimp
  1025b8:	b7ca                	fsd	fs2,488(sp)
  1025ba:	0000                	unimp
  1025bc:	b7ca                	fsd	fs2,488(sp)
  1025be:	0000                	unimp
  1025c0:	b7ca                	fsd	fs2,488(sp)
  1025c2:	0000                	unimp
  1025c4:	b7ca                	fsd	fs2,488(sp)
  1025c6:	0000                	unimp
  1025c8:	b7ca                	fsd	fs2,488(sp)
  1025ca:	0000                	unimp
  1025cc:	b7ca                	fsd	fs2,488(sp)
  1025ce:	0000                	unimp
  1025d0:	b7ca                	fsd	fs2,488(sp)
  1025d2:	0000                	unimp
  1025d4:	b7ca                	fsd	fs2,488(sp)
  1025d6:	0000                	unimp
  1025d8:	b7ca                	fsd	fs2,488(sp)
  1025da:	0000                	unimp
  1025dc:	b7ca                	fsd	fs2,488(sp)
  1025de:	0000                	unimp
  1025e0:	b7ca                	fsd	fs2,488(sp)
  1025e2:	0000                	unimp
  1025e4:	b7ca                	fsd	fs2,488(sp)
  1025e6:	0000                	unimp
  1025e8:	b7ca                	fsd	fs2,488(sp)
  1025ea:	0000                	unimp
  1025ec:	b7ca                	fsd	fs2,488(sp)
  1025ee:	0000                	unimp
  1025f0:	b7ca                	fsd	fs2,488(sp)
  1025f2:	0000                	unimp
  1025f4:	b7ca                	fsd	fs2,488(sp)
  1025f6:	0000                	unimp
  1025f8:	b7ca                	fsd	fs2,488(sp)
  1025fa:	0000                	unimp
  1025fc:	b7ca                	fsd	fs2,488(sp)
  1025fe:	0000                	unimp
  102600:	0000b90f          	0xb90f
  102604:	0000b90f          	0xb90f
  102608:	0000b90f          	0xb90f
  10260c:	0000b90f          	0xb90f
  102610:	0000b90f          	0xb90f
  102614:	0000b90f          	0xb90f
  102618:	0000b90f          	0xb90f
  10261c:	0000b90f          	0xb90f
  102620:	0000b90f          	0xb90f
  102624:	0000b90f          	0xb90f
  102628:	0000b90f          	0xb90f
  10262c:	0000b90f          	0xb90f
  102630:	0000b90f          	0xb90f
  102634:	0000b90f          	0xb90f
  102638:	0000b90f          	0xb90f
  10263c:	0000b90f          	0xb90f
  102640:	0000b90f          	0xb90f
  102644:	0000b90f          	0xb90f
  102648:	0000b90f          	0xb90f
  10264c:	0000b90f          	0xb90f
  102650:	0000b90f          	0xb90f
  102654:	0000b90f          	0xb90f
  102658:	0000b90f          	0xb90f
  10265c:	0000b90f          	0xb90f
  102660:	0000b90f          	0xb90f
  102664:	0000b90f          	0xb90f
  102668:	0000b90f          	0xb90f
  10266c:	0000b90f          	0xb90f
  102670:	0000b90f          	0xb90f
  102674:	0000b90f          	0xb90f
  102678:	0000b90f          	0xb90f
  10267c:	0000b90f          	0xb90f
  102680:	ba54                	fsd	fa3,176(a2)
  102682:	0000                	unimp
  102684:	ba54                	fsd	fa3,176(a2)
  102686:	0000                	unimp
  102688:	ba54                	fsd	fa3,176(a2)
  10268a:	0000                	unimp
  10268c:	ba54                	fsd	fa3,176(a2)
  10268e:	0000                	unimp
  102690:	ba54                	fsd	fa3,176(a2)
  102692:	0000                	unimp
  102694:	ba54                	fsd	fa3,176(a2)
  102696:	0000                	unimp
  102698:	ba54                	fsd	fa3,176(a2)
  10269a:	0000                	unimp
  10269c:	ba54                	fsd	fa3,176(a2)
  10269e:	0000                	unimp
  1026a0:	ba54                	fsd	fa3,176(a2)
  1026a2:	0000                	unimp
  1026a4:	ba54                	fsd	fa3,176(a2)
  1026a6:	0000                	unimp
  1026a8:	ba54                	fsd	fa3,176(a2)
  1026aa:	0000                	unimp
  1026ac:	ba54                	fsd	fa3,176(a2)
  1026ae:	0000                	unimp
  1026b0:	ba54                	fsd	fa3,176(a2)
  1026b2:	0000                	unimp
  1026b4:	ba54                	fsd	fa3,176(a2)
  1026b6:	0000                	unimp
  1026b8:	ba54                	fsd	fa3,176(a2)
  1026ba:	0000                	unimp
  1026bc:	ba54                	fsd	fa3,176(a2)
  1026be:	0000                	unimp
  1026c0:	ba54                	fsd	fa3,176(a2)
  1026c2:	0000                	unimp
  1026c4:	ba54                	fsd	fa3,176(a2)
  1026c6:	0000                	unimp
  1026c8:	ba54                	fsd	fa3,176(a2)
  1026ca:	0000                	unimp
  1026cc:	ba54                	fsd	fa3,176(a2)
  1026ce:	0000                	unimp
  1026d0:	ba54                	fsd	fa3,176(a2)
  1026d2:	0000                	unimp
  1026d4:	ba54                	fsd	fa3,176(a2)
  1026d6:	0000                	unimp
  1026d8:	ba54                	fsd	fa3,176(a2)
  1026da:	0000                	unimp
  1026dc:	ba54                	fsd	fa3,176(a2)
  1026de:	0000                	unimp
  1026e0:	ba54                	fsd	fa3,176(a2)
  1026e2:	0000                	unimp
  1026e4:	ba54                	fsd	fa3,176(a2)
  1026e6:	0000                	unimp
  1026e8:	ba54                	fsd	fa3,176(a2)
  1026ea:	0000                	unimp
  1026ec:	ba54                	fsd	fa3,176(a2)
  1026ee:	0000                	unimp
  1026f0:	ba54                	fsd	fa3,176(a2)
  1026f2:	0000                	unimp
  1026f4:	ba54                	fsd	fa3,176(a2)
  1026f6:	0000                	unimp
  1026f8:	ba54                	fsd	fa3,176(a2)
  1026fa:	0000                	unimp
  1026fc:	ba54                	fsd	fa3,176(a2)
  1026fe:	0000                	unimp
  102700:	bb99                	j	102456 <expected_output+0x17d6>
  102702:	0000                	unimp
  102704:	bb99                	j	10245a <expected_output+0x17da>
  102706:	0000                	unimp
  102708:	bb99                	j	10245e <expected_output+0x17de>
  10270a:	0000                	unimp
  10270c:	bb99                	j	102462 <expected_output+0x17e2>
  10270e:	0000                	unimp
  102710:	bb99                	j	102466 <expected_output+0x17e6>
  102712:	0000                	unimp
  102714:	bb99                	j	10246a <expected_output+0x17ea>
  102716:	0000                	unimp
  102718:	bb99                	j	10246e <expected_output+0x17ee>
  10271a:	0000                	unimp
  10271c:	bb99                	j	102472 <expected_output+0x17f2>
  10271e:	0000                	unimp
  102720:	bb99                	j	102476 <expected_output+0x17f6>
  102722:	0000                	unimp
  102724:	bb99                	j	10247a <expected_output+0x17fa>
  102726:	0000                	unimp
  102728:	bb99                	j	10247e <expected_output+0x17fe>
  10272a:	0000                	unimp
  10272c:	bb99                	j	102482 <expected_output+0x1802>
  10272e:	0000                	unimp
  102730:	bb99                	j	102486 <expected_output+0x1806>
  102732:	0000                	unimp
  102734:	bb99                	j	10248a <expected_output+0x180a>
  102736:	0000                	unimp
  102738:	bb99                	j	10248e <expected_output+0x180e>
  10273a:	0000                	unimp
  10273c:	bb99                	j	102492 <expected_output+0x1812>
  10273e:	0000                	unimp
  102740:	bb99                	j	102496 <expected_output+0x1816>
  102742:	0000                	unimp
  102744:	bb99                	j	10249a <expected_output+0x181a>
  102746:	0000                	unimp
  102748:	bb99                	j	10249e <expected_output+0x181e>
  10274a:	0000                	unimp
  10274c:	bb99                	j	1024a2 <expected_output+0x1822>
  10274e:	0000                	unimp
  102750:	bb99                	j	1024a6 <expected_output+0x1826>
  102752:	0000                	unimp
  102754:	bb99                	j	1024aa <expected_output+0x182a>
  102756:	0000                	unimp
  102758:	bb99                	j	1024ae <expected_output+0x182e>
  10275a:	0000                	unimp
  10275c:	bb99                	j	1024b2 <expected_output+0x1832>
  10275e:	0000                	unimp
  102760:	bb99                	j	1024b6 <expected_output+0x1836>
  102762:	0000                	unimp
  102764:	bb99                	j	1024ba <expected_output+0x183a>
  102766:	0000                	unimp
  102768:	bb99                	j	1024be <expected_output+0x183e>
  10276a:	0000                	unimp
  10276c:	bb99                	j	1024c2 <expected_output+0x1842>
  10276e:	0000                	unimp
  102770:	bb99                	j	1024c6 <expected_output+0x1846>
  102772:	0000                	unimp
  102774:	bb99                	j	1024ca <expected_output+0x184a>
  102776:	0000                	unimp
  102778:	bb99                	j	1024ce <expected_output+0x184e>
  10277a:	0000                	unimp
  10277c:	bb99                	j	1024d2 <expected_output+0x1852>
  10277e:	0000                	unimp
  102780:	bcde                	fsd	fs7,120(sp)
  102782:	0000                	unimp
  102784:	bcde                	fsd	fs7,120(sp)
  102786:	0000                	unimp
  102788:	bcde                	fsd	fs7,120(sp)
  10278a:	0000                	unimp
  10278c:	bcde                	fsd	fs7,120(sp)
  10278e:	0000                	unimp
  102790:	bcde                	fsd	fs7,120(sp)
  102792:	0000                	unimp
  102794:	bcde                	fsd	fs7,120(sp)
  102796:	0000                	unimp
  102798:	bcde                	fsd	fs7,120(sp)
  10279a:	0000                	unimp
  10279c:	bcde                	fsd	fs7,120(sp)
  10279e:	0000                	unimp
  1027a0:	bcde                	fsd	fs7,120(sp)
  1027a2:	0000                	unimp
  1027a4:	bcde                	fsd	fs7,120(sp)
  1027a6:	0000                	unimp
  1027a8:	bcde                	fsd	fs7,120(sp)
  1027aa:	0000                	unimp
  1027ac:	bcde                	fsd	fs7,120(sp)
  1027ae:	0000                	unimp
  1027b0:	bcde                	fsd	fs7,120(sp)
  1027b2:	0000                	unimp
  1027b4:	bcde                	fsd	fs7,120(sp)
  1027b6:	0000                	unimp
  1027b8:	bcde                	fsd	fs7,120(sp)
  1027ba:	0000                	unimp
  1027bc:	bcde                	fsd	fs7,120(sp)
  1027be:	0000                	unimp
  1027c0:	bcde                	fsd	fs7,120(sp)
  1027c2:	0000                	unimp
  1027c4:	bcde                	fsd	fs7,120(sp)
  1027c6:	0000                	unimp
  1027c8:	bcde                	fsd	fs7,120(sp)
  1027ca:	0000                	unimp
  1027cc:	bcde                	fsd	fs7,120(sp)
  1027ce:	0000                	unimp
  1027d0:	bcde                	fsd	fs7,120(sp)
  1027d2:	0000                	unimp
  1027d4:	bcde                	fsd	fs7,120(sp)
  1027d6:	0000                	unimp
  1027d8:	bcde                	fsd	fs7,120(sp)
  1027da:	0000                	unimp
  1027dc:	bcde                	fsd	fs7,120(sp)
  1027de:	0000                	unimp
  1027e0:	bcde                	fsd	fs7,120(sp)
  1027e2:	0000                	unimp
  1027e4:	bcde                	fsd	fs7,120(sp)
  1027e6:	0000                	unimp
  1027e8:	bcde                	fsd	fs7,120(sp)
  1027ea:	0000                	unimp
  1027ec:	bcde                	fsd	fs7,120(sp)
  1027ee:	0000                	unimp
  1027f0:	bcde                	fsd	fs7,120(sp)
  1027f2:	0000                	unimp
  1027f4:	bcde                	fsd	fs7,120(sp)
  1027f6:	0000                	unimp
  1027f8:	bcde                	fsd	fs7,120(sp)
  1027fa:	0000                	unimp
  1027fc:	bcde                	fsd	fs7,120(sp)
  1027fe:	0000                	unimp
  102800:	0000be23          	0xbe23
  102804:	0000be23          	0xbe23
  102808:	0000be23          	0xbe23
  10280c:	0000be23          	0xbe23
  102810:	0000be23          	0xbe23
  102814:	0000be23          	0xbe23
  102818:	0000be23          	0xbe23
  10281c:	0000be23          	0xbe23
  102820:	0000be23          	0xbe23
  102824:	0000be23          	0xbe23
  102828:	0000be23          	0xbe23
  10282c:	0000be23          	0xbe23
  102830:	0000be23          	0xbe23
  102834:	0000be23          	0xbe23
  102838:	0000be23          	0xbe23
  10283c:	0000be23          	0xbe23
  102840:	0000be23          	0xbe23
  102844:	0000be23          	0xbe23
  102848:	0000be23          	0xbe23
  10284c:	0000be23          	0xbe23
  102850:	0000be23          	0xbe23
  102854:	0000be23          	0xbe23
  102858:	0000be23          	0xbe23
  10285c:	0000be23          	0xbe23
  102860:	0000be23          	0xbe23
  102864:	0000be23          	0xbe23
  102868:	0000be23          	0xbe23
  10286c:	0000be23          	0xbe23
  102870:	0000be23          	0xbe23
  102874:	0000be23          	0xbe23
  102878:	0000be23          	0xbe23
  10287c:	0000be23          	0xbe23
  102880:	c47c                	sw	a5,76(s0)
  102882:	0000                	unimp
  102884:	c47c                	sw	a5,76(s0)
  102886:	0000                	unimp
  102888:	c47c                	sw	a5,76(s0)
  10288a:	0000                	unimp
  10288c:	c47c                	sw	a5,76(s0)
  10288e:	0000                	unimp
  102890:	c47c                	sw	a5,76(s0)
  102892:	0000                	unimp
  102894:	c47c                	sw	a5,76(s0)
  102896:	0000                	unimp
  102898:	c47c                	sw	a5,76(s0)
  10289a:	0000                	unimp
  10289c:	c47c                	sw	a5,76(s0)
  10289e:	0000                	unimp
  1028a0:	c47c                	sw	a5,76(s0)
  1028a2:	0000                	unimp
  1028a4:	c47c                	sw	a5,76(s0)
  1028a6:	0000                	unimp
  1028a8:	c47c                	sw	a5,76(s0)
  1028aa:	0000                	unimp
  1028ac:	c47c                	sw	a5,76(s0)
  1028ae:	0000                	unimp
  1028b0:	c47c                	sw	a5,76(s0)
  1028b2:	0000                	unimp
  1028b4:	c47c                	sw	a5,76(s0)
  1028b6:	0000                	unimp
  1028b8:	c47c                	sw	a5,76(s0)
  1028ba:	0000                	unimp
  1028bc:	c47c                	sw	a5,76(s0)
  1028be:	0000                	unimp
  1028c0:	c47c                	sw	a5,76(s0)
  1028c2:	0000                	unimp
  1028c4:	c47c                	sw	a5,76(s0)
  1028c6:	0000                	unimp
  1028c8:	c47c                	sw	a5,76(s0)
  1028ca:	0000                	unimp
  1028cc:	c47c                	sw	a5,76(s0)
  1028ce:	0000                	unimp
  1028d0:	c47c                	sw	a5,76(s0)
  1028d2:	0000                	unimp
  1028d4:	c47c                	sw	a5,76(s0)
  1028d6:	0000                	unimp
  1028d8:	c47c                	sw	a5,76(s0)
  1028da:	0000                	unimp
  1028dc:	c47c                	sw	a5,76(s0)
  1028de:	0000                	unimp
  1028e0:	c47c                	sw	a5,76(s0)
  1028e2:	0000                	unimp
  1028e4:	c47c                	sw	a5,76(s0)
  1028e6:	0000                	unimp
  1028e8:	c47c                	sw	a5,76(s0)
  1028ea:	0000                	unimp
  1028ec:	c47c                	sw	a5,76(s0)
  1028ee:	0000                	unimp
  1028f0:	c47c                	sw	a5,76(s0)
  1028f2:	0000                	unimp
  1028f4:	c47c                	sw	a5,76(s0)
  1028f6:	0000                	unimp
  1028f8:	c47c                	sw	a5,76(s0)
  1028fa:	0000                	unimp
  1028fc:	c47c                	sw	a5,76(s0)
  1028fe:	0000                	unimp
  102900:	c5c1                	beqz	a1,102988 <expected_output+0x1d08>
  102902:	0000                	unimp
  102904:	c5c1                	beqz	a1,10298c <expected_output+0x1d0c>
  102906:	0000                	unimp
  102908:	c5c1                	beqz	a1,102990 <expected_output+0x1d10>
  10290a:	0000                	unimp
  10290c:	c5c1                	beqz	a1,102994 <expected_output+0x1d14>
  10290e:	0000                	unimp
  102910:	c5c1                	beqz	a1,102998 <expected_output+0x1d18>
  102912:	0000                	unimp
  102914:	c5c1                	beqz	a1,10299c <expected_output+0x1d1c>
  102916:	0000                	unimp
  102918:	c5c1                	beqz	a1,1029a0 <expected_output+0x1d20>
  10291a:	0000                	unimp
  10291c:	c5c1                	beqz	a1,1029a4 <expected_output+0x1d24>
  10291e:	0000                	unimp
  102920:	c5c1                	beqz	a1,1029a8 <expected_output+0x1d28>
  102922:	0000                	unimp
  102924:	c5c1                	beqz	a1,1029ac <expected_output+0x1d2c>
  102926:	0000                	unimp
  102928:	c5c1                	beqz	a1,1029b0 <expected_output+0x1d30>
  10292a:	0000                	unimp
  10292c:	c5c1                	beqz	a1,1029b4 <expected_output+0x1d34>
  10292e:	0000                	unimp
  102930:	c5c1                	beqz	a1,1029b8 <expected_output+0x1d38>
  102932:	0000                	unimp
  102934:	c5c1                	beqz	a1,1029bc <expected_output+0x1d3c>
  102936:	0000                	unimp
  102938:	c5c1                	beqz	a1,1029c0 <expected_output+0x1d40>
  10293a:	0000                	unimp
  10293c:	c5c1                	beqz	a1,1029c4 <expected_output+0x1d44>
  10293e:	0000                	unimp
  102940:	c5c1                	beqz	a1,1029c8 <expected_output+0x1d48>
  102942:	0000                	unimp
  102944:	c5c1                	beqz	a1,1029cc <expected_output+0x1d4c>
  102946:	0000                	unimp
  102948:	c5c1                	beqz	a1,1029d0 <expected_output+0x1d50>
  10294a:	0000                	unimp
  10294c:	c5c1                	beqz	a1,1029d4 <expected_output+0x1d54>
  10294e:	0000                	unimp
  102950:	c5c1                	beqz	a1,1029d8 <expected_output+0x1d58>
  102952:	0000                	unimp
  102954:	c5c1                	beqz	a1,1029dc <expected_output+0x1d5c>
  102956:	0000                	unimp
  102958:	c5c1                	beqz	a1,1029e0 <expected_output+0x1d60>
  10295a:	0000                	unimp
  10295c:	c5c1                	beqz	a1,1029e4 <expected_output+0x1d64>
  10295e:	0000                	unimp
  102960:	c5c1                	beqz	a1,1029e8 <expected_output+0x1d68>
  102962:	0000                	unimp
  102964:	c5c1                	beqz	a1,1029ec <expected_output+0x1d6c>
  102966:	0000                	unimp
  102968:	c5c1                	beqz	a1,1029f0 <expected_output+0x1d70>
  10296a:	0000                	unimp
  10296c:	c5c1                	beqz	a1,1029f4 <expected_output+0x1d74>
  10296e:	0000                	unimp
  102970:	c5c1                	beqz	a1,1029f8 <expected_output+0x1d78>
  102972:	0000                	unimp
  102974:	c5c1                	beqz	a1,1029fc <expected_output+0x1d7c>
  102976:	0000                	unimp
  102978:	c5c1                	beqz	a1,102a00 <expected_output+0x1d80>
  10297a:	0000                	unimp
  10297c:	c5c1                	beqz	a1,102a04 <expected_output+0x1d84>
  10297e:	0000                	unimp
  102980:	c706                	sw	ra,140(sp)
  102982:	0000                	unimp
  102984:	c706                	sw	ra,140(sp)
  102986:	0000                	unimp
  102988:	c706                	sw	ra,140(sp)
  10298a:	0000                	unimp
  10298c:	c706                	sw	ra,140(sp)
  10298e:	0000                	unimp
  102990:	c706                	sw	ra,140(sp)
  102992:	0000                	unimp
  102994:	c706                	sw	ra,140(sp)
  102996:	0000                	unimp
  102998:	c706                	sw	ra,140(sp)
  10299a:	0000                	unimp
  10299c:	c706                	sw	ra,140(sp)
  10299e:	0000                	unimp
  1029a0:	c706                	sw	ra,140(sp)
  1029a2:	0000                	unimp
  1029a4:	c706                	sw	ra,140(sp)
  1029a6:	0000                	unimp
  1029a8:	c706                	sw	ra,140(sp)
  1029aa:	0000                	unimp
  1029ac:	c706                	sw	ra,140(sp)
  1029ae:	0000                	unimp
  1029b0:	c706                	sw	ra,140(sp)
  1029b2:	0000                	unimp
  1029b4:	c706                	sw	ra,140(sp)
  1029b6:	0000                	unimp
  1029b8:	c706                	sw	ra,140(sp)
  1029ba:	0000                	unimp
  1029bc:	c706                	sw	ra,140(sp)
  1029be:	0000                	unimp
  1029c0:	c706                	sw	ra,140(sp)
  1029c2:	0000                	unimp
  1029c4:	c706                	sw	ra,140(sp)
  1029c6:	0000                	unimp
  1029c8:	c706                	sw	ra,140(sp)
  1029ca:	0000                	unimp
  1029cc:	c706                	sw	ra,140(sp)
  1029ce:	0000                	unimp
  1029d0:	c706                	sw	ra,140(sp)
  1029d2:	0000                	unimp
  1029d4:	c706                	sw	ra,140(sp)
  1029d6:	0000                	unimp
  1029d8:	c706                	sw	ra,140(sp)
  1029da:	0000                	unimp
  1029dc:	c706                	sw	ra,140(sp)
  1029de:	0000                	unimp
  1029e0:	c706                	sw	ra,140(sp)
  1029e2:	0000                	unimp
  1029e4:	c706                	sw	ra,140(sp)
  1029e6:	0000                	unimp
  1029e8:	c706                	sw	ra,140(sp)
  1029ea:	0000                	unimp
  1029ec:	c706                	sw	ra,140(sp)
  1029ee:	0000                	unimp
  1029f0:	c706                	sw	ra,140(sp)
  1029f2:	0000                	unimp
  1029f4:	c706                	sw	ra,140(sp)
  1029f6:	0000                	unimp
  1029f8:	c706                	sw	ra,140(sp)
  1029fa:	0000                	unimp
  1029fc:	c706                	sw	ra,140(sp)
  1029fe:	0000                	unimp
  102a00:	0000c84b          	fnmsub.s	fa6,ft1,ft0,ft0,rmm
  102a04:	0000c84b          	fnmsub.s	fa6,ft1,ft0,ft0,rmm
  102a08:	0000c84b          	fnmsub.s	fa6,ft1,ft0,ft0,rmm
  102a0c:	0000c84b          	fnmsub.s	fa6,ft1,ft0,ft0,rmm
  102a10:	0000c84b          	fnmsub.s	fa6,ft1,ft0,ft0,rmm
  102a14:	0000c84b          	fnmsub.s	fa6,ft1,ft0,ft0,rmm
  102a18:	0000c84b          	fnmsub.s	fa6,ft1,ft0,ft0,rmm
  102a1c:	0000c84b          	fnmsub.s	fa6,ft1,ft0,ft0,rmm
  102a20:	0000c84b          	fnmsub.s	fa6,ft1,ft0,ft0,rmm
  102a24:	0000c84b          	fnmsub.s	fa6,ft1,ft0,ft0,rmm
  102a28:	0000c84b          	fnmsub.s	fa6,ft1,ft0,ft0,rmm
  102a2c:	0000c84b          	fnmsub.s	fa6,ft1,ft0,ft0,rmm
  102a30:	0000c84b          	fnmsub.s	fa6,ft1,ft0,ft0,rmm
  102a34:	0000c84b          	fnmsub.s	fa6,ft1,ft0,ft0,rmm
  102a38:	0000c84b          	fnmsub.s	fa6,ft1,ft0,ft0,rmm
  102a3c:	0000c84b          	fnmsub.s	fa6,ft1,ft0,ft0,rmm
  102a40:	0000c84b          	fnmsub.s	fa6,ft1,ft0,ft0,rmm
  102a44:	0000c84b          	fnmsub.s	fa6,ft1,ft0,ft0,rmm
  102a48:	0000c84b          	fnmsub.s	fa6,ft1,ft0,ft0,rmm
  102a4c:	0000c84b          	fnmsub.s	fa6,ft1,ft0,ft0,rmm
  102a50:	0000c84b          	fnmsub.s	fa6,ft1,ft0,ft0,rmm
  102a54:	0000c84b          	fnmsub.s	fa6,ft1,ft0,ft0,rmm
  102a58:	0000c84b          	fnmsub.s	fa6,ft1,ft0,ft0,rmm
  102a5c:	0000c84b          	fnmsub.s	fa6,ft1,ft0,ft0,rmm
  102a60:	0000c84b          	fnmsub.s	fa6,ft1,ft0,ft0,rmm
  102a64:	0000c84b          	fnmsub.s	fa6,ft1,ft0,ft0,rmm
  102a68:	0000c84b          	fnmsub.s	fa6,ft1,ft0,ft0,rmm
  102a6c:	0000c84b          	fnmsub.s	fa6,ft1,ft0,ft0,rmm
  102a70:	0000c84b          	fnmsub.s	fa6,ft1,ft0,ft0,rmm
  102a74:	0000c84b          	fnmsub.s	fa6,ft1,ft0,ft0,rmm
  102a78:	0000c84b          	fnmsub.s	fa6,ft1,ft0,ft0,rmm
  102a7c:	0000c84b          	fnmsub.s	fa6,ft1,ft0,ft0,rmm
  102a80:	c990                	sw	a2,16(a1)
  102a82:	0000                	unimp
  102a84:	c990                	sw	a2,16(a1)
  102a86:	0000                	unimp
  102a88:	c990                	sw	a2,16(a1)
  102a8a:	0000                	unimp
  102a8c:	c990                	sw	a2,16(a1)
  102a8e:	0000                	unimp
  102a90:	c990                	sw	a2,16(a1)
  102a92:	0000                	unimp
  102a94:	c990                	sw	a2,16(a1)
  102a96:	0000                	unimp
  102a98:	c990                	sw	a2,16(a1)
  102a9a:	0000                	unimp
  102a9c:	c990                	sw	a2,16(a1)
  102a9e:	0000                	unimp
  102aa0:	c990                	sw	a2,16(a1)
  102aa2:	0000                	unimp
  102aa4:	c990                	sw	a2,16(a1)
  102aa6:	0000                	unimp
  102aa8:	c990                	sw	a2,16(a1)
  102aaa:	0000                	unimp
  102aac:	c990                	sw	a2,16(a1)
  102aae:	0000                	unimp
  102ab0:	c990                	sw	a2,16(a1)
  102ab2:	0000                	unimp
  102ab4:	c990                	sw	a2,16(a1)
  102ab6:	0000                	unimp
  102ab8:	c990                	sw	a2,16(a1)
  102aba:	0000                	unimp
  102abc:	c990                	sw	a2,16(a1)
  102abe:	0000                	unimp
  102ac0:	c990                	sw	a2,16(a1)
  102ac2:	0000                	unimp
  102ac4:	c990                	sw	a2,16(a1)
  102ac6:	0000                	unimp
  102ac8:	c990                	sw	a2,16(a1)
  102aca:	0000                	unimp
  102acc:	c990                	sw	a2,16(a1)
  102ace:	0000                	unimp
  102ad0:	c990                	sw	a2,16(a1)
  102ad2:	0000                	unimp
  102ad4:	c990                	sw	a2,16(a1)
  102ad6:	0000                	unimp
  102ad8:	c990                	sw	a2,16(a1)
  102ada:	0000                	unimp
  102adc:	c990                	sw	a2,16(a1)
  102ade:	0000                	unimp
  102ae0:	c990                	sw	a2,16(a1)
  102ae2:	0000                	unimp
  102ae4:	c990                	sw	a2,16(a1)
  102ae6:	0000                	unimp
  102ae8:	c990                	sw	a2,16(a1)
  102aea:	0000                	unimp
  102aec:	c990                	sw	a2,16(a1)
  102aee:	0000                	unimp
  102af0:	c990                	sw	a2,16(a1)
  102af2:	0000                	unimp
