
riscv-spike.elf:     file format elf32-littleriscv


Disassembly of section .text:

00000000 <boot>:
       0:	00002fb7          	lui	t6,0x2
       4:	800f8f93          	addi	t6,t6,-2048 # 1800 <__stack_init+0x64c>
       8:	300f9073          	csrw	mstatus,t6
       c:	0340006f          	j	40 <_mstart>
      10:	00000013          	nop
      14:	00000013          	nop
      18:	00000013          	nop
      1c:	00000013          	nop
      20:	00000013          	nop
      24:	00000013          	nop
      28:	00000013          	nop
      2c:	00000013          	nop
      30:	00000013          	nop
      34:	00000013          	nop
      38:	00000013          	nop
      3c:	00000013          	nop

00000040 <_mstart>:
      40:	00000297          	auipc	t0,0x0
      44:	0b428293          	addi	t0,t0,180 # f4 <trap_entry>
      48:	30529073          	csrw	mtvec,t0
      4c:	00000093          	li	ra,0
      50:	00000113          	li	sp,0
      54:	00000193          	li	gp,0
      58:	00000213          	li	tp,0
      5c:	00000293          	li	t0,0
      60:	00000313          	li	t1,0
      64:	00000393          	li	t2,0
      68:	00000413          	li	s0,0
      6c:	00000493          	li	s1,0
      70:	00000513          	li	a0,0
      74:	00000593          	li	a1,0
      78:	00000613          	li	a2,0
      7c:	00000693          	li	a3,0
      80:	00000713          	li	a4,0
      84:	00000793          	li	a5,0
      88:	00000813          	li	a6,0
      8c:	00000893          	li	a7,0
      90:	00000913          	li	s2,0
      94:	00000993          	li	s3,0
      98:	00000a13          	li	s4,0
      9c:	00000a93          	li	s5,0
      a0:	00000b13          	li	s6,0
      a4:	00000b93          	li	s7,0
      a8:	00000c13          	li	s8,0
      ac:	00000c93          	li	s9,0
      b0:	00000d13          	li	s10,0
      b4:	00000d93          	li	s11,0
      b8:	00000e13          	li	t3,0
      bc:	00000e93          	li	t4,0
      c0:	00000f13          	li	t5,0
      c4:	00000f93          	li	t6,0
      c8:	00021197          	auipc	gp,0x21
      cc:	7e018193          	addi	gp,gp,2016 # 218a8 <__global_pointer$>
      d0:	000ff117          	auipc	sp,0xff
      d4:	f2c10113          	addi	sp,sp,-212 # feffc <__stacktop>
      d8:	00000297          	auipc	t0,0x0
      dc:	01c28293          	addi	t0,t0,28 # f4 <trap_entry>
      e0:	00012503          	lw	a0,0(sp)
      e4:	00000613          	li	a2,0
      e8:	55d000ef          	jal	ra,e44 <main>
      ec:	0000006f          	j	ec <_mstart+0xac>
      f0:	00008067          	ret

000000f4 <trap_entry>:
      f4:	3190006f          	j	c0c <ISR5>
      f8:	30200073          	mret
      fc:	3110006f          	j	c0c <ISR5>
     100:	30200073          	mret
     104:	3090006f          	j	c0c <ISR5>
     108:	30200073          	mret
     10c:	3010006f          	j	c0c <ISR5>
     110:	30200073          	mret
     114:	2f90006f          	j	c0c <ISR5>
     118:	30200073          	mret
     11c:	40d0006f          	j	d28 <ISR6>
     120:	30200073          	mret
	...

00000130 <UART_init>:
     130:	fd010113          	addi	sp,sp,-48
     134:	02812623          	sw	s0,44(sp)
     138:	03010413          	addi	s0,sp,48
     13c:	fca42e23          	sw	a0,-36(s0)
     140:	00058793          	mv	a5,a1
     144:	fcf40da3          	sb	a5,-37(s0)
     148:	fdc42703          	lw	a4,-36(s0)
     14c:	000097b7          	lui	a5,0x9
     150:	60078793          	addi	a5,a5,1536 # 9600 <__stack_init+0x844c>
     154:	00f71a63          	bne	a4,a5,168 <UART_init+0x38>
     158:	fe0407a3          	sb	zero,-17(s0)
     15c:	fa200793          	li	a5,-94
     160:	fef40723          	sb	a5,-18(s0)
     164:	1180006f          	j	27c <UART_init+0x14c>
     168:	fdc42703          	lw	a4,-36(s0)
     16c:	000027b7          	lui	a5,0x2
     170:	58078793          	addi	a5,a5,1408 # 2580 <__stack_init+0x13cc>
     174:	00f71c63          	bne	a4,a5,18c <UART_init+0x5c>
     178:	00200793          	li	a5,2
     17c:	fef407a3          	sb	a5,-17(s0)
     180:	f8b00793          	li	a5,-117
     184:	fef40723          	sb	a5,-18(s0)
     188:	0f40006f          	j	27c <UART_init+0x14c>
     18c:	fdc42703          	lw	a4,-36(s0)
     190:	000057b7          	lui	a5,0x5
     194:	b0078793          	addi	a5,a5,-1280 # 4b00 <__stack_init+0x394c>
     198:	00f71c63          	bne	a4,a5,1b0 <UART_init+0x80>
     19c:	00100793          	li	a5,1
     1a0:	fef407a3          	sb	a5,-17(s0)
     1a4:	04500793          	li	a5,69
     1a8:	fef40723          	sb	a5,-18(s0)
     1ac:	0d00006f          	j	27c <UART_init+0x14c>
     1b0:	fdc42703          	lw	a4,-36(s0)
     1b4:	0000e7b7          	lui	a5,0xe
     1b8:	10078793          	addi	a5,a5,256 # e100 <__stack_init+0xcf4c>
     1bc:	00f71a63          	bne	a4,a5,1d0 <UART_init+0xa0>
     1c0:	fe0407a3          	sb	zero,-17(s0)
     1c4:	03600793          	li	a5,54
     1c8:	fef40723          	sb	a5,-18(s0)
     1cc:	0b00006f          	j	27c <UART_init+0x14c>
     1d0:	fdc42703          	lw	a4,-36(s0)
     1d4:	0001c7b7          	lui	a5,0x1c
     1d8:	20078793          	addi	a5,a5,512 # 1c200 <__stack_init+0x1b04c>
     1dc:	00f71a63          	bne	a4,a5,1f0 <UART_init+0xc0>
     1e0:	fe0407a3          	sb	zero,-17(s0)
     1e4:	01b00793          	li	a5,27
     1e8:	fef40723          	sb	a5,-18(s0)
     1ec:	0900006f          	j	27c <UART_init+0x14c>
     1f0:	fdc42703          	lw	a4,-36(s0)
     1f4:	000387b7          	lui	a5,0x38
     1f8:	40078793          	addi	a5,a5,1024 # 38400 <__BSS_END__+0x1633c>
     1fc:	00f71a63          	bne	a4,a5,210 <UART_init+0xe0>
     200:	fe0407a3          	sb	zero,-17(s0)
     204:	00e00793          	li	a5,14
     208:	fef40723          	sb	a5,-18(s0)
     20c:	0700006f          	j	27c <UART_init+0x14c>
     210:	fdc42703          	lw	a4,-36(s0)
     214:	000717b7          	lui	a5,0x71
     218:	80078793          	addi	a5,a5,-2048 # 70800 <__BSS_END__+0x4e73c>
     21c:	00f71a63          	bne	a4,a5,230 <UART_init+0x100>
     220:	fe0407a3          	sb	zero,-17(s0)
     224:	00700793          	li	a5,7
     228:	fef40723          	sb	a5,-18(s0)
     22c:	0500006f          	j	27c <UART_init+0x14c>
     230:	fdc42703          	lw	a4,-36(s0)
     234:	0017d7b7          	lui	a5,0x17d
     238:	78478793          	addi	a5,a5,1924 # 17d784 <__VMEM_END+0x612e0>
     23c:	00f71a63          	bne	a4,a5,250 <UART_init+0x120>
     240:	fe0407a3          	sb	zero,-17(s0)
     244:	00400793          	li	a5,4
     248:	fef40723          	sb	a5,-18(s0)
     24c:	0300006f          	j	27c <UART_init+0x14c>
     250:	fdc42703          	lw	a4,-36(s0)
     254:	000bf7b7          	lui	a5,0xbf
     258:	bc278793          	addi	a5,a5,-1086 # bebc2 <__BSS_END__+0x9cafe>
     25c:	00f71a63          	bne	a4,a5,270 <UART_init+0x140>
     260:	fe0407a3          	sb	zero,-17(s0)
     264:	00800793          	li	a5,8
     268:	fef40723          	sb	a5,-18(s0)
     26c:	0100006f          	j	27c <UART_init+0x14c>
     270:	fe0407a3          	sb	zero,-17(s0)
     274:	00100793          	li	a5,1
     278:	fef40723          	sb	a5,-18(s0)
     27c:	fdb44703          	lbu	a4,-37(s0)
     280:	00100793          	li	a5,1
     284:	00f71663          	bne	a4,a5,290 <UART_init+0x160>
     288:	fe0406a3          	sb	zero,-19(s0)
     28c:	03c0006f          	j	2c8 <UART_init+0x198>
     290:	fdb44703          	lbu	a4,-37(s0)
     294:	00400793          	li	a5,4
     298:	00f71863          	bne	a4,a5,2a8 <UART_init+0x178>
     29c:	04000793          	li	a5,64
     2a0:	fef406a3          	sb	a5,-19(s0)
     2a4:	0240006f          	j	2c8 <UART_init+0x198>
     2a8:	fdb44703          	lbu	a4,-37(s0)
     2ac:	00800793          	li	a5,8
     2b0:	00f71863          	bne	a4,a5,2c0 <UART_init+0x190>
     2b4:	f8000793          	li	a5,-128
     2b8:	fef406a3          	sb	a5,-19(s0)
     2bc:	00c0006f          	j	2c8 <UART_init+0x198>
     2c0:	fc000793          	li	a5,-64
     2c4:	fef406a3          	sb	a5,-19(s0)
     2c8:	5f1007b7          	lui	a5,0x5f100
     2cc:	6f478793          	addi	a5,a5,1780 # 5f1006f4 <__VREG_END+0x5ef806f4>
     2d0:	01300713          	li	a4,19
     2d4:	00e78023          	sb	a4,0(a5)
     2d8:	5f1007b7          	lui	a5,0x5f100
     2dc:	6f378793          	addi	a5,a5,1779 # 5f1006f3 <__VREG_END+0x5ef806f3>
     2e0:	04000713          	li	a4,64
     2e4:	00e78023          	sb	a4,0(a5)
     2e8:	5f1007b7          	lui	a5,0x5f100
     2ec:	6f178793          	addi	a5,a5,1777 # 5f1006f1 <__VREG_END+0x5ef806f1>
     2f0:	00100713          	li	a4,1
     2f4:	00e78023          	sb	a4,0(a5)
     2f8:	5f1007b7          	lui	a5,0x5f100
     2fc:	6f478793          	addi	a5,a5,1780 # 5f1006f4 <__VREG_END+0x5ef806f4>
     300:	f9300713          	li	a4,-109
     304:	00e78023          	sb	a4,0(a5)
     308:	5f1007b7          	lui	a5,0x5f100
     30c:	6f178793          	addi	a5,a5,1777 # 5f1006f1 <__VREG_END+0x5ef806f1>
     310:	fef44703          	lbu	a4,-17(s0)
     314:	00e78023          	sb	a4,0(a5)
     318:	5f1007b7          	lui	a5,0x5f100
     31c:	6f078793          	addi	a5,a5,1776 # 5f1006f0 <__VREG_END+0x5ef806f0>
     320:	fee44703          	lbu	a4,-18(s0)
     324:	00e78023          	sb	a4,0(a5)
     328:	5f1007b7          	lui	a5,0x5f100
     32c:	6f478793          	addi	a5,a5,1780 # 5f1006f4 <__VREG_END+0x5ef806f4>
     330:	01300713          	li	a4,19
     334:	00e78023          	sb	a4,0(a5)
     338:	5f1007b7          	lui	a5,0x5f100
     33c:	6f378793          	addi	a5,a5,1779 # 5f1006f3 <__VREG_END+0x5ef806f3>
     340:	fed44703          	lbu	a4,-19(s0)
     344:	00e78023          	sb	a4,0(a5)
     348:	00000013          	nop
     34c:	02c12403          	lw	s0,44(sp)
     350:	03010113          	addi	sp,sp,48
     354:	00008067          	ret

00000358 <UARTCharPut>:
     358:	fe010113          	addi	sp,sp,-32
     35c:	00812e23          	sw	s0,28(sp)
     360:	02010413          	addi	s0,sp,32
     364:	00050793          	mv	a5,a0
     368:	fef407a3          	sb	a5,-17(s0)
     36c:	00000013          	nop
     370:	5f1007b7          	lui	a5,0x5f100
     374:	6f678793          	addi	a5,a5,1782 # 5f1006f6 <__VREG_END+0x5ef806f6>
     378:	0007c783          	lbu	a5,0(a5)
     37c:	0ff7f793          	andi	a5,a5,255
     380:	0207f793          	andi	a5,a5,32
     384:	0ff7f793          	andi	a5,a5,255
     388:	fe0784e3          	beqz	a5,370 <UARTCharPut+0x18>
     38c:	5f1007b7          	lui	a5,0x5f100
     390:	6f078793          	addi	a5,a5,1776 # 5f1006f0 <__VREG_END+0x5ef806f0>
     394:	fef44703          	lbu	a4,-17(s0)
     398:	00e78023          	sb	a4,0(a5)
     39c:	00000013          	nop
     3a0:	01c12403          	lw	s0,28(sp)
     3a4:	02010113          	addi	sp,sp,32
     3a8:	00008067          	ret

000003ac <UART_string>:
     3ac:	fe010113          	addi	sp,sp,-32
     3b0:	00112e23          	sw	ra,28(sp)
     3b4:	00812c23          	sw	s0,24(sp)
     3b8:	02010413          	addi	s0,sp,32
     3bc:	fea42623          	sw	a0,-20(s0)
     3c0:	01c0006f          	j	3dc <UART_string+0x30>
     3c4:	fec42783          	lw	a5,-20(s0)
     3c8:	00178713          	addi	a4,a5,1
     3cc:	fee42623          	sw	a4,-20(s0)
     3d0:	0007c783          	lbu	a5,0(a5)
     3d4:	00078513          	mv	a0,a5
     3d8:	f81ff0ef          	jal	ra,358 <UARTCharPut>
     3dc:	fec42783          	lw	a5,-20(s0)
     3e0:	0007c783          	lbu	a5,0(a5)
     3e4:	fe0790e3          	bnez	a5,3c4 <UART_string+0x18>
     3e8:	00000013          	nop
     3ec:	00000013          	nop
     3f0:	01c12083          	lw	ra,28(sp)
     3f4:	01812403          	lw	s0,24(sp)
     3f8:	02010113          	addi	sp,sp,32
     3fc:	00008067          	ret

00000400 <UART_newline>:
     400:	ff010113          	addi	sp,sp,-16
     404:	00112623          	sw	ra,12(sp)
     408:	00812423          	sw	s0,8(sp)
     40c:	01010413          	addi	s0,sp,16
     410:	00a00513          	li	a0,10
     414:	f45ff0ef          	jal	ra,358 <UARTCharPut>
     418:	00d00513          	li	a0,13
     41c:	f3dff0ef          	jal	ra,358 <UARTCharPut>
     420:	00000013          	nop
     424:	00c12083          	lw	ra,12(sp)
     428:	00812403          	lw	s0,8(sp)
     42c:	01010113          	addi	sp,sp,16
     430:	00008067          	ret

00000434 <UART_Htab>:
     434:	ff010113          	addi	sp,sp,-16
     438:	00112623          	sw	ra,12(sp)
     43c:	00812423          	sw	s0,8(sp)
     440:	01010413          	addi	s0,sp,16
     444:	00900513          	li	a0,9
     448:	f11ff0ef          	jal	ra,358 <UARTCharPut>
     44c:	00000013          	nop
     450:	00c12083          	lw	ra,12(sp)
     454:	00812403          	lw	s0,8(sp)
     458:	01010113          	addi	sp,sp,16
     45c:	00008067          	ret

00000460 <UARTwrite>:
     460:	fd010113          	addi	sp,sp,-48
     464:	02112623          	sw	ra,44(sp)
     468:	02812423          	sw	s0,40(sp)
     46c:	03010413          	addi	s0,sp,48
     470:	fca42e23          	sw	a0,-36(s0)
     474:	fcb42c23          	sw	a1,-40(s0)
     478:	fe042623          	sw	zero,-20(s0)
     47c:	0480006f          	j	4c4 <UARTwrite+0x64>
     480:	fdc42703          	lw	a4,-36(s0)
     484:	fec42783          	lw	a5,-20(s0)
     488:	00f707b3          	add	a5,a4,a5
     48c:	0007c703          	lbu	a4,0(a5)
     490:	00a00793          	li	a5,10
     494:	00f71663          	bne	a4,a5,4a0 <UARTwrite+0x40>
     498:	00d00513          	li	a0,13
     49c:	ebdff0ef          	jal	ra,358 <UARTCharPut>
     4a0:	fdc42703          	lw	a4,-36(s0)
     4a4:	fec42783          	lw	a5,-20(s0)
     4a8:	00f707b3          	add	a5,a4,a5
     4ac:	0007c783          	lbu	a5,0(a5)
     4b0:	00078513          	mv	a0,a5
     4b4:	ea5ff0ef          	jal	ra,358 <UARTCharPut>
     4b8:	fec42783          	lw	a5,-20(s0)
     4bc:	00178793          	addi	a5,a5,1
     4c0:	fef42623          	sw	a5,-20(s0)
     4c4:	fec42703          	lw	a4,-20(s0)
     4c8:	fd842783          	lw	a5,-40(s0)
     4cc:	faf76ae3          	bltu	a4,a5,480 <UARTwrite+0x20>
     4d0:	fec42783          	lw	a5,-20(s0)
     4d4:	00078513          	mv	a0,a5
     4d8:	02c12083          	lw	ra,44(sp)
     4dc:	02812403          	lw	s0,40(sp)
     4e0:	03010113          	addi	sp,sp,48
     4e4:	00008067          	ret

000004e8 <UARTvprintf>:
     4e8:	fa010113          	addi	sp,sp,-96
     4ec:	04112e23          	sw	ra,92(sp)
     4f0:	04812c23          	sw	s0,88(sp)
     4f4:	06010413          	addi	s0,sp,96
     4f8:	faa42623          	sw	a0,-84(s0)
     4fc:	fab42423          	sw	a1,-88(s0)
     500:	4440006f          	j	944 <UARTvprintf+0x45c>
     504:	fe042623          	sw	zero,-20(s0)
     508:	0100006f          	j	518 <UARTvprintf+0x30>
     50c:	fec42783          	lw	a5,-20(s0)
     510:	00178793          	addi	a5,a5,1
     514:	fef42623          	sw	a5,-20(s0)
     518:	fac42703          	lw	a4,-84(s0)
     51c:	fec42783          	lw	a5,-20(s0)
     520:	00f707b3          	add	a5,a4,a5
     524:	0007c703          	lbu	a4,0(a5)
     528:	02500793          	li	a5,37
     52c:	00f70c63          	beq	a4,a5,544 <UARTvprintf+0x5c>
     530:	fac42703          	lw	a4,-84(s0)
     534:	fec42783          	lw	a5,-20(s0)
     538:	00f707b3          	add	a5,a4,a5
     53c:	0007c783          	lbu	a5,0(a5)
     540:	fc0796e3          	bnez	a5,50c <UARTvprintf+0x24>
     544:	fec42583          	lw	a1,-20(s0)
     548:	fac42503          	lw	a0,-84(s0)
     54c:	f15ff0ef          	jal	ra,460 <UARTwrite>
     550:	fac42703          	lw	a4,-84(s0)
     554:	fec42783          	lw	a5,-20(s0)
     558:	00f707b3          	add	a5,a4,a5
     55c:	faf42623          	sw	a5,-84(s0)
     560:	fac42783          	lw	a5,-84(s0)
     564:	0007c703          	lbu	a4,0(a5)
     568:	02500793          	li	a5,37
     56c:	3cf71a63          	bne	a4,a5,940 <UARTvprintf+0x458>
     570:	fac42783          	lw	a5,-84(s0)
     574:	00178793          	addi	a5,a5,1
     578:	faf42623          	sw	a5,-84(s0)
     57c:	fe042223          	sw	zero,-28(s0)
     580:	02000793          	li	a5,32
     584:	fcf40da3          	sb	a5,-37(s0)
     588:	fac42783          	lw	a5,-84(s0)
     58c:	00178713          	addi	a4,a5,1
     590:	fae42623          	sw	a4,-84(s0)
     594:	0007c783          	lbu	a5,0(a5)
     598:	fdb78793          	addi	a5,a5,-37
     59c:	05300713          	li	a4,83
     5a0:	38f76663          	bltu	a4,a5,92c <UARTvprintf+0x444>
     5a4:	00279713          	slli	a4,a5,0x2
     5a8:	000017b7          	lui	a5,0x1
     5ac:	1d878793          	addi	a5,a5,472 # 11d8 <__stack_init+0x24>
     5b0:	00f707b3          	add	a5,a4,a5
     5b4:	0007a783          	lw	a5,0(a5)
     5b8:	00078067          	jr	a5
     5bc:	fac42783          	lw	a5,-84(s0)
     5c0:	fff78793          	addi	a5,a5,-1
     5c4:	0007c703          	lbu	a4,0(a5)
     5c8:	03000793          	li	a5,48
     5cc:	00f71a63          	bne	a4,a5,5e0 <UARTvprintf+0xf8>
     5d0:	fe442783          	lw	a5,-28(s0)
     5d4:	00079663          	bnez	a5,5e0 <UARTvprintf+0xf8>
     5d8:	03000793          	li	a5,48
     5dc:	fcf40da3          	sb	a5,-37(s0)
     5e0:	fe442703          	lw	a4,-28(s0)
     5e4:	00070793          	mv	a5,a4
     5e8:	00279793          	slli	a5,a5,0x2
     5ec:	00e787b3          	add	a5,a5,a4
     5f0:	00179793          	slli	a5,a5,0x1
     5f4:	fef42223          	sw	a5,-28(s0)
     5f8:	fac42783          	lw	a5,-84(s0)
     5fc:	fff78793          	addi	a5,a5,-1
     600:	0007c783          	lbu	a5,0(a5)
     604:	00078713          	mv	a4,a5
     608:	fe442783          	lw	a5,-28(s0)
     60c:	00f707b3          	add	a5,a4,a5
     610:	fd078793          	addi	a5,a5,-48
     614:	fef42223          	sw	a5,-28(s0)
     618:	f71ff06f          	j	588 <UARTvprintf+0xa0>
     61c:	fa842783          	lw	a5,-88(s0)
     620:	00478713          	addi	a4,a5,4
     624:	fae42423          	sw	a4,-88(s0)
     628:	0007a783          	lw	a5,0(a5)
     62c:	fcf42223          	sw	a5,-60(s0)
     630:	fc440793          	addi	a5,s0,-60
     634:	00100593          	li	a1,1
     638:	00078513          	mv	a0,a5
     63c:	e25ff0ef          	jal	ra,460 <UARTwrite>
     640:	3040006f          	j	944 <UARTvprintf+0x45c>
     644:	fa842783          	lw	a5,-88(s0)
     648:	00478713          	addi	a4,a5,4
     64c:	fae42423          	sw	a4,-88(s0)
     650:	0007a783          	lw	a5,0(a5)
     654:	fcf42223          	sw	a5,-60(s0)
     658:	fe042423          	sw	zero,-24(s0)
     65c:	fc442783          	lw	a5,-60(s0)
     660:	0007de63          	bgez	a5,67c <UARTvprintf+0x194>
     664:	fc442783          	lw	a5,-60(s0)
     668:	40f007b3          	neg	a5,a5
     66c:	fcf42223          	sw	a5,-60(s0)
     670:	00100793          	li	a5,1
     674:	fcf42e23          	sw	a5,-36(s0)
     678:	0080006f          	j	680 <UARTvprintf+0x198>
     67c:	fc042e23          	sw	zero,-36(s0)
     680:	00a00793          	li	a5,10
     684:	fef42023          	sw	a5,-32(s0)
     688:	1040006f          	j	78c <UARTvprintf+0x2a4>
     68c:	fa842783          	lw	a5,-88(s0)
     690:	00778793          	addi	a5,a5,7
     694:	ff87f793          	andi	a5,a5,-8
     698:	00878713          	addi	a4,a5,8
     69c:	fae42423          	sw	a4,-88(s0)
     6a0:	0007a703          	lw	a4,0(a5)
     6a4:	0047a783          	lw	a5,4(a5)
     6a8:	fce42423          	sw	a4,-56(s0)
     6ac:	fcf42623          	sw	a5,-52(s0)
     6b0:	2940006f          	j	944 <UARTvprintf+0x45c>
     6b4:	fa842783          	lw	a5,-88(s0)
     6b8:	00478713          	addi	a4,a5,4
     6bc:	fae42423          	sw	a4,-88(s0)
     6c0:	0007a783          	lw	a5,0(a5)
     6c4:	fcf42a23          	sw	a5,-44(s0)
     6c8:	fe042623          	sw	zero,-20(s0)
     6cc:	0100006f          	j	6dc <UARTvprintf+0x1f4>
     6d0:	fec42783          	lw	a5,-20(s0)
     6d4:	00178793          	addi	a5,a5,1
     6d8:	fef42623          	sw	a5,-20(s0)
     6dc:	fd442703          	lw	a4,-44(s0)
     6e0:	fec42783          	lw	a5,-20(s0)
     6e4:	00f707b3          	add	a5,a4,a5
     6e8:	0007c783          	lbu	a5,0(a5)
     6ec:	fe0792e3          	bnez	a5,6d0 <UARTvprintf+0x1e8>
     6f0:	fec42583          	lw	a1,-20(s0)
     6f4:	fd442503          	lw	a0,-44(s0)
     6f8:	d69ff0ef          	jal	ra,460 <UARTwrite>
     6fc:	fe442703          	lw	a4,-28(s0)
     700:	fec42783          	lw	a5,-20(s0)
     704:	24e7f063          	bgeu	a5,a4,944 <UARTvprintf+0x45c>
     708:	fe442703          	lw	a4,-28(s0)
     70c:	fec42783          	lw	a5,-20(s0)
     710:	40f707b3          	sub	a5,a4,a5
     714:	fef42223          	sw	a5,-28(s0)
     718:	0140006f          	j	72c <UARTvprintf+0x244>
     71c:	00100593          	li	a1,1
     720:	000017b7          	lui	a5,0x1
     724:	1cc78513          	addi	a0,a5,460 # 11cc <__stack_init+0x18>
     728:	d39ff0ef          	jal	ra,460 <UARTwrite>
     72c:	fe442783          	lw	a5,-28(s0)
     730:	fff78713          	addi	a4,a5,-1
     734:	fee42223          	sw	a4,-28(s0)
     738:	fe0792e3          	bnez	a5,71c <UARTvprintf+0x234>
     73c:	2080006f          	j	944 <UARTvprintf+0x45c>
     740:	fa842783          	lw	a5,-88(s0)
     744:	00478713          	addi	a4,a5,4
     748:	fae42423          	sw	a4,-88(s0)
     74c:	0007a783          	lw	a5,0(a5)
     750:	fcf42223          	sw	a5,-60(s0)
     754:	fe042423          	sw	zero,-24(s0)
     758:	00a00793          	li	a5,10
     75c:	fef42023          	sw	a5,-32(s0)
     760:	fc042e23          	sw	zero,-36(s0)
     764:	0280006f          	j	78c <UARTvprintf+0x2a4>
     768:	fa842783          	lw	a5,-88(s0)
     76c:	00478713          	addi	a4,a5,4
     770:	fae42423          	sw	a4,-88(s0)
     774:	0007a783          	lw	a5,0(a5)
     778:	fcf42223          	sw	a5,-60(s0)
     77c:	fe042423          	sw	zero,-24(s0)
     780:	01000793          	li	a5,16
     784:	fef42023          	sw	a5,-32(s0)
     788:	fc042e23          	sw	zero,-36(s0)
     78c:	00100793          	li	a5,1
     790:	fef42623          	sw	a5,-20(s0)
     794:	0200006f          	j	7b4 <UARTvprintf+0x2cc>
     798:	fec42703          	lw	a4,-20(s0)
     79c:	fe042783          	lw	a5,-32(s0)
     7a0:	02f707b3          	mul	a5,a4,a5
     7a4:	fef42623          	sw	a5,-20(s0)
     7a8:	fe442783          	lw	a5,-28(s0)
     7ac:	fff78793          	addi	a5,a5,-1
     7b0:	fef42223          	sw	a5,-28(s0)
     7b4:	fec42703          	lw	a4,-20(s0)
     7b8:	fe042783          	lw	a5,-32(s0)
     7bc:	02f70733          	mul	a4,a4,a5
     7c0:	fc442783          	lw	a5,-60(s0)
     7c4:	02e7e063          	bltu	a5,a4,7e4 <UARTvprintf+0x2fc>
     7c8:	fec42703          	lw	a4,-20(s0)
     7cc:	fe042783          	lw	a5,-32(s0)
     7d0:	02f70733          	mul	a4,a4,a5
     7d4:	fe042783          	lw	a5,-32(s0)
     7d8:	02f757b3          	divu	a5,a4,a5
     7dc:	fec42703          	lw	a4,-20(s0)
     7e0:	faf70ce3          	beq	a4,a5,798 <UARTvprintf+0x2b0>
     7e4:	fdc42783          	lw	a5,-36(s0)
     7e8:	00078863          	beqz	a5,7f8 <UARTvprintf+0x310>
     7ec:	fe442783          	lw	a5,-28(s0)
     7f0:	fff78793          	addi	a5,a5,-1
     7f4:	fef42223          	sw	a5,-28(s0)
     7f8:	fdc42783          	lw	a5,-36(s0)
     7fc:	02078863          	beqz	a5,82c <UARTvprintf+0x344>
     800:	fdb44703          	lbu	a4,-37(s0)
     804:	03000793          	li	a5,48
     808:	02f71263          	bne	a4,a5,82c <UARTvprintf+0x344>
     80c:	fe842783          	lw	a5,-24(s0)
     810:	00178713          	addi	a4,a5,1
     814:	fee42423          	sw	a4,-24(s0)
     818:	ff040713          	addi	a4,s0,-16
     81c:	00f707b3          	add	a5,a4,a5
     820:	02d00713          	li	a4,45
     824:	fce78223          	sb	a4,-60(a5)
     828:	fc042e23          	sw	zero,-36(s0)
     82c:	fe442703          	lw	a4,-28(s0)
     830:	00100793          	li	a5,1
     834:	04e7f863          	bgeu	a5,a4,884 <UARTvprintf+0x39c>
     838:	fe442703          	lw	a4,-28(s0)
     83c:	00f00793          	li	a5,15
     840:	04e7e263          	bltu	a5,a4,884 <UARTvprintf+0x39c>
     844:	fe442783          	lw	a5,-28(s0)
     848:	fff78793          	addi	a5,a5,-1
     84c:	fef42223          	sw	a5,-28(s0)
     850:	02c0006f          	j	87c <UARTvprintf+0x394>
     854:	fe842783          	lw	a5,-24(s0)
     858:	00178713          	addi	a4,a5,1
     85c:	fee42423          	sw	a4,-24(s0)
     860:	ff040713          	addi	a4,s0,-16
     864:	00f707b3          	add	a5,a4,a5
     868:	fdb44703          	lbu	a4,-37(s0)
     86c:	fce78223          	sb	a4,-60(a5)
     870:	fe442783          	lw	a5,-28(s0)
     874:	fff78793          	addi	a5,a5,-1
     878:	fef42223          	sw	a5,-28(s0)
     87c:	fe442783          	lw	a5,-28(s0)
     880:	fc079ae3          	bnez	a5,854 <UARTvprintf+0x36c>
     884:	fdc42783          	lw	a5,-36(s0)
     888:	06078863          	beqz	a5,8f8 <UARTvprintf+0x410>
     88c:	fe842783          	lw	a5,-24(s0)
     890:	00178713          	addi	a4,a5,1
     894:	fee42423          	sw	a4,-24(s0)
     898:	ff040713          	addi	a4,s0,-16
     89c:	00f707b3          	add	a5,a4,a5
     8a0:	02d00713          	li	a4,45
     8a4:	fce78223          	sb	a4,-60(a5)
     8a8:	0500006f          	j	8f8 <UARTvprintf+0x410>
     8ac:	000017b7          	lui	a5,0x1
     8b0:	1b878713          	addi	a4,a5,440 # 11b8 <__stack_init+0x4>
     8b4:	fc442683          	lw	a3,-60(s0)
     8b8:	fec42783          	lw	a5,-20(s0)
     8bc:	02f6d6b3          	divu	a3,a3,a5
     8c0:	fe042783          	lw	a5,-32(s0)
     8c4:	02f6f7b3          	remu	a5,a3,a5
     8c8:	00f70733          	add	a4,a4,a5
     8cc:	fe842783          	lw	a5,-24(s0)
     8d0:	00178693          	addi	a3,a5,1
     8d4:	fed42423          	sw	a3,-24(s0)
     8d8:	00074703          	lbu	a4,0(a4)
     8dc:	ff040693          	addi	a3,s0,-16
     8e0:	00f687b3          	add	a5,a3,a5
     8e4:	fce78223          	sb	a4,-60(a5)
     8e8:	fec42703          	lw	a4,-20(s0)
     8ec:	fe042783          	lw	a5,-32(s0)
     8f0:	02f757b3          	divu	a5,a4,a5
     8f4:	fef42623          	sw	a5,-20(s0)
     8f8:	fec42783          	lw	a5,-20(s0)
     8fc:	fa0798e3          	bnez	a5,8ac <UARTvprintf+0x3c4>
     900:	fb440793          	addi	a5,s0,-76
     904:	fe842583          	lw	a1,-24(s0)
     908:	00078513          	mv	a0,a5
     90c:	b55ff0ef          	jal	ra,460 <UARTwrite>
     910:	0340006f          	j	944 <UARTvprintf+0x45c>
     914:	fac42783          	lw	a5,-84(s0)
     918:	fff78793          	addi	a5,a5,-1
     91c:	00100593          	li	a1,1
     920:	00078513          	mv	a0,a5
     924:	b3dff0ef          	jal	ra,460 <UARTwrite>
     928:	01c0006f          	j	944 <UARTvprintf+0x45c>
     92c:	00500593          	li	a1,5
     930:	000017b7          	lui	a5,0x1
     934:	1d078513          	addi	a0,a5,464 # 11d0 <__stack_init+0x1c>
     938:	b29ff0ef          	jal	ra,460 <UARTwrite>
     93c:	0080006f          	j	944 <UARTvprintf+0x45c>
     940:	00000013          	nop
     944:	fac42783          	lw	a5,-84(s0)
     948:	0007c783          	lbu	a5,0(a5)
     94c:	ba079ce3          	bnez	a5,504 <UARTvprintf+0x1c>
     950:	00000013          	nop
     954:	00000013          	nop
     958:	05c12083          	lw	ra,92(sp)
     95c:	05812403          	lw	s0,88(sp)
     960:	06010113          	addi	sp,sp,96
     964:	00008067          	ret

00000968 <UARTprintf>:
     968:	fb010113          	addi	sp,sp,-80
     96c:	02112623          	sw	ra,44(sp)
     970:	02812423          	sw	s0,40(sp)
     974:	03010413          	addi	s0,sp,48
     978:	fca42e23          	sw	a0,-36(s0)
     97c:	00b42223          	sw	a1,4(s0)
     980:	00c42423          	sw	a2,8(s0)
     984:	00d42623          	sw	a3,12(s0)
     988:	00e42823          	sw	a4,16(s0)
     98c:	00f42a23          	sw	a5,20(s0)
     990:	01042c23          	sw	a6,24(s0)
     994:	01142e23          	sw	a7,28(s0)
     998:	02040793          	addi	a5,s0,32
     99c:	fcf42c23          	sw	a5,-40(s0)
     9a0:	fd842783          	lw	a5,-40(s0)
     9a4:	fe478793          	addi	a5,a5,-28
     9a8:	fef42623          	sw	a5,-20(s0)
     9ac:	fec42783          	lw	a5,-20(s0)
     9b0:	00078593          	mv	a1,a5
     9b4:	fdc42503          	lw	a0,-36(s0)
     9b8:	b31ff0ef          	jal	ra,4e8 <UARTvprintf>
     9bc:	00000013          	nop
     9c0:	02c12083          	lw	ra,44(sp)
     9c4:	02812403          	lw	s0,40(sp)
     9c8:	05010113          	addi	sp,sp,80
     9cc:	00008067          	ret

000009d0 <conv2d>:
     9d0:	fd410113          	addi	sp,sp,-44
     9d4:	00812023          	sw	s0,0(sp)
     9d8:	00912223          	sw	s1,4(sp)
     9dc:	01212423          	sw	s2,8(sp)
     9e0:	01312623          	sw	s3,12(sp)
     9e4:	01412823          	sw	s4,16(sp)
     9e8:	01512a23          	sw	s5,20(sp)
     9ec:	01612c23          	sw	s6,24(sp)
     9f0:	01712e23          	sw	s7,28(sp)
     9f4:	03812023          	sw	s8,32(sp)
     9f8:	03912223          	sw	s9,36(sp)
     9fc:	03a12423          	sw	s10,40(sp)
     a00:	00300293          	li	t0,3
     a04:	00a2b073          	csrc	vxrm,t0
     a08:	ffe68893          	addi	a7,a3,-2
     a0c:	0018d813          	srli	a6,a7,0x1
     a10:	0127fe57          	vsetvli	t3,a5,e32,m4,tu,mu
     a14:	00279e13          	slli	t3,a5,0x2
     a18:	01c604b3          	add	s1,a2,t3
     a1c:	01c48933          	add	s2,s1,t3
     a20:	01c909b3          	add	s3,s2,t3
     a24:	01c98a33          	add	s4,s3,t3
     a28:	01ca0ab3          	add	s5,s4,t3
     a2c:	01ca8b33          	add	s6,s5,t3
     a30:	01cb0bb3          	add	s7,s6,t3
     a34:	01cb8c33          	add	s8,s7,t3
     a38:	02066107          	vle32.v	v2,(a2)
     a3c:	0204e207          	vle32.v	v4,(s1)
     a40:	02096307          	vle32.v	v6,(s2)
     a44:	0209e407          	vle32.v	v8,(s3)
     a48:	020a6507          	vle32.v	v10,(s4)
     a4c:	020ae607          	vle32.v	v12,(s5)
     a50:	020b6707          	vle32.v	v14,(s6)
     a54:	020be807          	vle32.v	v16,(s7)
     a58:	020c6907          	vle32.v	v18,(s8)
     a5c:	02076a07          	vle32.v	v20,(a4)
     a60:	97606b57          	vmul.vx	v22,v22,zero
     a64:	97806c57          	vmul.vx	v24,v24,zero
     a68:	97a06d57          	vmul.vx	v26,v26,zero
     a6c:	97c06e57          	vmul.vx	v28,v28,zero
     a70:	97e06f57          	vmul.vx	v30,v30,zero
     a74:	03c04e57          	vadd.vx	v28,v28,zero
     a78:	00000293          	li	t0,0

00000a7c <OUTER_LOOP>:
     a7c:	00000313          	li	t1,0

00000a80 <INNER_LOOP>:
     a80:	02d283b3          	mul	t2,t0,a3
     a84:	00730e33          	add	t3,t1,t2
     a88:	003e1e13          	slli	t3,t3,0x3
     a8c:	01c58433          	add	s0,a1,t3
     a90:	031283b3          	mul	t2,t0,a7
     a94:	00730e33          	add	t3,t1,t2
     a98:	003e1e13          	slli	t3,t3,0x3
     a9c:	02fe0f33          	mul	t5,t3,a5
     aa0:	01e50d33          	add	s10,a0,t5
     aa4:	00042483          	lw	s1,0(s0)
     aa8:	00442903          	lw	s2,4(s0)
     aac:	00842983          	lw	s3,8(s0)
     ab0:	00c42a03          	lw	s4,12(s0)
     ab4:	b624eb57          	vmacc.vx	v22,s1,v2
     ab8:	b6496b57          	vmacc.vx	v22,s2,v4
     abc:	b669eb57          	vmacc.vx	v22,s3,v6
     ac0:	b6296c57          	vmacc.vx	v24,s2,v2
     ac4:	b649ec57          	vmacc.vx	v24,s3,v4
     ac8:	b66a6c57          	vmacc.vx	v24,s4,v6
     acc:	03c04e57          	vadd.vx	v28,v28,zero
     ad0:	03c04e57          	vadd.vx	v28,v28,zero
     ad4:	00269e13          	slli	t3,a3,0x2
     ad8:	01c40433          	add	s0,s0,t3
     adc:	00042483          	lw	s1,0(s0)
     ae0:	00442903          	lw	s2,4(s0)
     ae4:	00842983          	lw	s3,8(s0)
     ae8:	00c42a03          	lw	s4,12(s0)
     aec:	01c40433          	add	s0,s0,t3
     af0:	00042a83          	lw	s5,0(s0)
     af4:	00442b03          	lw	s6,4(s0)
     af8:	00842b83          	lw	s7,8(s0)
     afc:	00c42c03          	lw	s8,12(s0)
     b00:	b684eb57          	vmacc.vx	v22,s1,v8
     b04:	b6a96b57          	vmacc.vx	v22,s2,v10
     b08:	b6c9eb57          	vmacc.vx	v22,s3,v12
     b0c:	b6896c57          	vmacc.vx	v24,s2,v8
     b10:	b6a9ec57          	vmacc.vx	v24,s3,v10
     b14:	b6ca6c57          	vmacc.vx	v24,s4,v12
     b18:	b624ed57          	vmacc.vx	v26,s1,v2
     b1c:	b6496d57          	vmacc.vx	v26,s2,v4
     b20:	b669ed57          	vmacc.vx	v26,s3,v6
     b24:	b6296e57          	vmacc.vx	v28,s2,v2
     b28:	b649ee57          	vmacc.vx	v28,s3,v4
     b2c:	b66a6e57          	vmacc.vx	v28,s4,v6
     b30:	b6eaeb57          	vmacc.vx	v22,s5,v14
     b34:	b70b6b57          	vmacc.vx	v22,s6,v16
     b38:	b72beb57          	vmacc.vx	v22,s7,v18
     b3c:	b6eb6c57          	vmacc.vx	v24,s6,v14
     b40:	b70bec57          	vmacc.vx	v24,s7,v16
     b44:	b72c6c57          	vmacc.vx	v24,s8,v18
     b48:	b68aed57          	vmacc.vx	v26,s5,v8
     b4c:	b6ab6d57          	vmacc.vx	v26,s6,v10
     b50:	b6cbed57          	vmacc.vx	v26,s7,v12
     b54:	b68b6e57          	vmacc.vx	v28,s6,v8
     b58:	b6abee57          	vmacc.vx	v28,s7,v10
     b5c:	b6cc6e57          	vmacc.vx	v28,s8,v12
     b60:	01c40433          	add	s0,s0,t3
     b64:	00042483          	lw	s1,0(s0)
     b68:	00442903          	lw	s2,4(s0)
     b6c:	00842983          	lw	s3,8(s0)
     b70:	00c42a03          	lw	s4,12(s0)
     b74:	b6e4ed57          	vmacc.vx	v26,s1,v14
     b78:	b7096d57          	vmacc.vx	v26,s2,v16
     b7c:	b729ed57          	vmacc.vx	v26,s3,v18
     b80:	b6e96e57          	vmacc.vx	v28,s2,v14
     b84:	b709ee57          	vmacc.vx	v28,s3,v16
     b88:	b72a6e57          	vmacc.vx	v28,s4,v18
     b8c:	03c04e57          	vadd.vx	v28,v28,zero
     b90:	03c04e57          	vadd.vx	v28,v28,zero
     b94:	00279e13          	slli	t3,a5,0x2
     b98:	01cd04b3          	add	s1,s10,t3
     b9c:	031e0eb3          	mul	t4,t3,a7
     ba0:	01dd0933          	add	s2,s10,t4
     ba4:	01c909b3          	add	s3,s2,t3
     ba8:	020d6b27          	vse32.v	v22,(s10)
     bac:	0204ec27          	vse32.v	v24,(s1)
     bb0:	02096d27          	vse32.v	v26,(s2)
     bb4:	0209ee27          	vse32.v	v28,(s3)
     bb8:	97606b57          	vmul.vx	v22,v22,zero
     bbc:	97806c57          	vmul.vx	v24,v24,zero
     bc0:	97a06d57          	vmul.vx	v26,v26,zero
     bc4:	97c06e57          	vmul.vx	v28,v28,zero
     bc8:	00130313          	addi	t1,t1,1
     bcc:	eb031ae3          	bne	t1,a6,a80 <INNER_LOOP>
     bd0:	00128293          	addi	t0,t0,1
     bd4:	eb0294e3          	bne	t0,a6,a7c <OUTER_LOOP>
     bd8:	00012403          	lw	s0,0(sp)
     bdc:	00412483          	lw	s1,4(sp)
     be0:	00812903          	lw	s2,8(sp)
     be4:	00c12983          	lw	s3,12(sp)
     be8:	01012a03          	lw	s4,16(sp)
     bec:	01412a83          	lw	s5,20(sp)
     bf0:	01812b03          	lw	s6,24(sp)
     bf4:	01c12b83          	lw	s7,28(sp)
     bf8:	02012c03          	lw	s8,32(sp)
     bfc:	02412c83          	lw	s9,36(sp)
     c00:	02812d03          	lw	s10,40(sp)
     c04:	02c10113          	addi	sp,sp,44
     c08:	00008067          	ret

00000c0c <ISR5>:
     c0c:	30047073          	csrci	mstatus,8
     c10:	e8010113          	addi	sp,sp,-384
     c14:	10112023          	sw	ra,256(sp)
     c18:	10212223          	sw	sp,260(sp)
     c1c:	10312423          	sw	gp,264(sp)
     c20:	10412623          	sw	tp,268(sp)
     c24:	10512823          	sw	t0,272(sp)
     c28:	10612a23          	sw	t1,276(sp)
     c2c:	10712c23          	sw	t2,280(sp)
     c30:	10812e23          	sw	s0,284(sp)
     c34:	12912023          	sw	s1,288(sp)
     c38:	12a12223          	sw	a0,292(sp)
     c3c:	12b12423          	sw	a1,296(sp)
     c40:	12c12623          	sw	a2,300(sp)
     c44:	12d12823          	sw	a3,304(sp)
     c48:	12e12a23          	sw	a4,308(sp)
     c4c:	12f12c23          	sw	a5,312(sp)
     c50:	13012e23          	sw	a6,316(sp)
     c54:	15112023          	sw	a7,320(sp)
     c58:	15212223          	sw	s2,324(sp)
     c5c:	15312423          	sw	s3,328(sp)
     c60:	15412623          	sw	s4,332(sp)
     c64:	15512823          	sw	s5,336(sp)
     c68:	15612a23          	sw	s6,340(sp)
     c6c:	15712c23          	sw	s7,344(sp)
     c70:	15812e23          	sw	s8,348(sp)
     c74:	17912023          	sw	s9,352(sp)
     c78:	17a12223          	sw	s10,356(sp)
     c7c:	17b12423          	sw	s11,360(sp)
     c80:	17c12623          	sw	t3,364(sp)
     c84:	17d12823          	sw	t4,368(sp)
     c88:	17e12a23          	sw	t5,372(sp)
     c8c:	17f12c23          	sw	t6,376(sp)
     c90:	341022f3          	csrr	t0,mepc
     c94:	16512e23          	sw	t0,380(sp)
     c98:	2dc000ef          	jal	ra,f74 <ISR5_uart>
     c9c:	30047073          	csrci	mstatus,8
     ca0:	17c12283          	lw	t0,380(sp)
     ca4:	34129073          	csrw	mepc,t0
     ca8:	10012083          	lw	ra,256(sp)
     cac:	10c12203          	lw	tp,268(sp)
     cb0:	11012283          	lw	t0,272(sp)
     cb4:	11412303          	lw	t1,276(sp)
     cb8:	11812383          	lw	t2,280(sp)
     cbc:	11c12403          	lw	s0,284(sp)
     cc0:	12012483          	lw	s1,288(sp)
     cc4:	12412503          	lw	a0,292(sp)
     cc8:	12812583          	lw	a1,296(sp)
     ccc:	12c12603          	lw	a2,300(sp)
     cd0:	13012683          	lw	a3,304(sp)
     cd4:	13412703          	lw	a4,308(sp)
     cd8:	13812783          	lw	a5,312(sp)
     cdc:	13c12803          	lw	a6,316(sp)
     ce0:	14012883          	lw	a7,320(sp)
     ce4:	14412903          	lw	s2,324(sp)
     ce8:	14812983          	lw	s3,328(sp)
     cec:	14c12a03          	lw	s4,332(sp)
     cf0:	15012a83          	lw	s5,336(sp)
     cf4:	15412b03          	lw	s6,340(sp)
     cf8:	15812b83          	lw	s7,344(sp)
     cfc:	15c12c03          	lw	s8,348(sp)
     d00:	16012c83          	lw	s9,352(sp)
     d04:	16412d03          	lw	s10,356(sp)
     d08:	16812d83          	lw	s11,360(sp)
     d0c:	16c12e03          	lw	t3,364(sp)
     d10:	17012e83          	lw	t4,368(sp)
     d14:	17412f03          	lw	t5,372(sp)
     d18:	17812f83          	lw	t6,376(sp)
     d1c:	18010113          	addi	sp,sp,384
     d20:	30046073          	csrsi	mstatus,8
     d24:	30200073          	mret

00000d28 <ISR6>:
     d28:	30047073          	csrci	mstatus,8
     d2c:	e8010113          	addi	sp,sp,-384
     d30:	10112023          	sw	ra,256(sp)
     d34:	10212223          	sw	sp,260(sp)
     d38:	10312423          	sw	gp,264(sp)
     d3c:	10412623          	sw	tp,268(sp)
     d40:	10512823          	sw	t0,272(sp)
     d44:	10612a23          	sw	t1,276(sp)
     d48:	10712c23          	sw	t2,280(sp)
     d4c:	10812e23          	sw	s0,284(sp)
     d50:	12912023          	sw	s1,288(sp)
     d54:	12a12223          	sw	a0,292(sp)
     d58:	12b12423          	sw	a1,296(sp)
     d5c:	12c12623          	sw	a2,300(sp)
     d60:	12d12823          	sw	a3,304(sp)
     d64:	12e12a23          	sw	a4,308(sp)
     d68:	12f12c23          	sw	a5,312(sp)
     d6c:	13012e23          	sw	a6,316(sp)
     d70:	15112023          	sw	a7,320(sp)
     d74:	15212223          	sw	s2,324(sp)
     d78:	15312423          	sw	s3,328(sp)
     d7c:	15412623          	sw	s4,332(sp)
     d80:	15512823          	sw	s5,336(sp)
     d84:	15612a23          	sw	s6,340(sp)
     d88:	15712c23          	sw	s7,344(sp)
     d8c:	15812e23          	sw	s8,348(sp)
     d90:	17912023          	sw	s9,352(sp)
     d94:	17a12223          	sw	s10,356(sp)
     d98:	17b12423          	sw	s11,360(sp)
     d9c:	17c12623          	sw	t3,364(sp)
     da0:	17d12823          	sw	t4,368(sp)
     da4:	17e12a23          	sw	t5,372(sp)
     da8:	17f12c23          	sw	t6,376(sp)
     dac:	341022f3          	csrr	t0,mepc
     db0:	16512e23          	sw	t0,380(sp)
     db4:	3e4000ef          	jal	ra,1198 <ISR6_addr_exception>
     db8:	30047073          	csrci	mstatus,8
     dbc:	17c12283          	lw	t0,380(sp)
     dc0:	34129073          	csrw	mepc,t0
     dc4:	10012083          	lw	ra,256(sp)
     dc8:	10c12203          	lw	tp,268(sp)
     dcc:	11012283          	lw	t0,272(sp)
     dd0:	11412303          	lw	t1,276(sp)
     dd4:	11812383          	lw	t2,280(sp)
     dd8:	11c12403          	lw	s0,284(sp)
     ddc:	12012483          	lw	s1,288(sp)
     de0:	12412503          	lw	a0,292(sp)
     de4:	12812583          	lw	a1,296(sp)
     de8:	12c12603          	lw	a2,300(sp)
     dec:	13012683          	lw	a3,304(sp)
     df0:	13412703          	lw	a4,308(sp)
     df4:	13812783          	lw	a5,312(sp)
     df8:	13c12803          	lw	a6,316(sp)
     dfc:	14012883          	lw	a7,320(sp)
     e00:	14412903          	lw	s2,324(sp)
     e04:	14812983          	lw	s3,328(sp)
     e08:	14c12a03          	lw	s4,332(sp)
     e0c:	15012a83          	lw	s5,336(sp)
     e10:	15412b03          	lw	s6,340(sp)
     e14:	15812b83          	lw	s7,344(sp)
     e18:	15c12c03          	lw	s8,348(sp)
     e1c:	16012c83          	lw	s9,352(sp)
     e20:	16412d03          	lw	s10,356(sp)
     e24:	16812d83          	lw	s11,360(sp)
     e28:	16c12e03          	lw	t3,364(sp)
     e2c:	17012e83          	lw	t4,368(sp)
     e30:	17412f03          	lw	t5,372(sp)
     e34:	17812f83          	lw	t6,376(sp)
     e38:	18010113          	addi	sp,sp,384
     e3c:	30046073          	csrsi	mstatus,8
     e40:	30200073          	mret

00000e44 <main>:
     e44:	fd010113          	addi	sp,sp,-48
     e48:	02112623          	sw	ra,44(sp)
     e4c:	02812423          	sw	s0,40(sp)
     e50:	03010413          	addi	s0,sp,48
     e54:	fca42e23          	sw	a0,-36(s0)
     e58:	fcb42c23          	sw	a1,-40(s0)
     e5c:	00100593          	li	a1,1
     e60:	0000e7b7          	lui	a5,0xe
     e64:	10078513          	addi	a0,a5,256 # e100 <__stack_init+0xcf4c>
     e68:	ac8ff0ef          	jal	ra,130 <UART_init>
     e6c:	01000793          	li	a5,16
     e70:	00100737          	lui	a4,0x100
     e74:	24070713          	addi	a4,a4,576 # 100240 <bias>
     e78:	02000693          	li	a3,32
     e7c:	00100637          	lui	a2,0x100
     e80:	00060613          	mv	a2,a2
     e84:	000205b7          	lui	a1,0x20
     e88:	00058593          	mv	a1,a1
     e8c:	0010e537          	lui	a0,0x10e
     e90:	38050513          	addi	a0,a0,896 # 10e380 <Y>
     e94:	b3dff0ef          	jal	ra,9d0 <conv2d>
     e98:	00a00793          	li	a5,10
     e9c:	fef42423          	sw	a5,-24(s0)
     ea0:	0011c7b7          	lui	a5,0x11c
     ea4:	4a07a023          	sw	zero,1184(a5) # 11c4a0 <err_count>
     ea8:	fe042623          	sw	zero,-20(s0)
     eac:	0a00006f          	j	f4c <main+0x108>
     eb0:	0010e7b7          	lui	a5,0x10e
     eb4:	38078713          	addi	a4,a5,896 # 10e380 <Y>
     eb8:	fec42783          	lw	a5,-20(s0)
     ebc:	00279793          	slli	a5,a5,0x2
     ec0:	00f707b3          	add	a5,a4,a5
     ec4:	0007a703          	lw	a4,0(a5)
     ec8:	001007b7          	lui	a5,0x100
     ecc:	28078693          	addi	a3,a5,640 # 100280 <expected_output>
     ed0:	fec42783          	lw	a5,-20(s0)
     ed4:	00279793          	slli	a5,a5,0x2
     ed8:	00f687b3          	add	a5,a3,a5
     edc:	0007a783          	lw	a5,0(a5)
     ee0:	40f707b3          	sub	a5,a4,a5
     ee4:	fe842703          	lw	a4,-24(s0)
     ee8:	04f74263          	blt	a4,a5,f2c <main+0xe8>
     eec:	0010e7b7          	lui	a5,0x10e
     ef0:	38078713          	addi	a4,a5,896 # 10e380 <Y>
     ef4:	fec42783          	lw	a5,-20(s0)
     ef8:	00279793          	slli	a5,a5,0x2
     efc:	00f707b3          	add	a5,a4,a5
     f00:	0007a703          	lw	a4,0(a5)
     f04:	001007b7          	lui	a5,0x100
     f08:	28078693          	addi	a3,a5,640 # 100280 <expected_output>
     f0c:	fec42783          	lw	a5,-20(s0)
     f10:	00279793          	slli	a5,a5,0x2
     f14:	00f687b3          	add	a5,a3,a5
     f18:	0007a783          	lw	a5,0(a5)
     f1c:	40f70733          	sub	a4,a4,a5
     f20:	fe842783          	lw	a5,-24(s0)
     f24:	40f007b3          	neg	a5,a5
     f28:	00f75c63          	bge	a4,a5,f40 <main+0xfc>
     f2c:	0011c7b7          	lui	a5,0x11c
     f30:	4a07a783          	lw	a5,1184(a5) # 11c4a0 <err_count>
     f34:	00178713          	addi	a4,a5,1
     f38:	0011c7b7          	lui	a5,0x11c
     f3c:	4ae7a023          	sw	a4,1184(a5) # 11c4a0 <err_count>
     f40:	fec42783          	lw	a5,-20(s0)
     f44:	00178793          	addi	a5,a5,1
     f48:	fef42623          	sw	a5,-20(s0)
     f4c:	fec42703          	lw	a4,-20(s0)
     f50:	000047b7          	lui	a5,0x4
     f54:	83f78793          	addi	a5,a5,-1985 # 383f <__stack_init+0x268b>
     f58:	f4e7dce3          	bge	a5,a4,eb0 <main+0x6c>
     f5c:	00000793          	li	a5,0
     f60:	00078513          	mv	a0,a5
     f64:	02c12083          	lw	ra,44(sp)
     f68:	02812403          	lw	s0,40(sp)
     f6c:	03010113          	addi	sp,sp,48
     f70:	00008067          	ret

00000f74 <ISR5_uart>:
     f74:	ff010113          	addi	sp,sp,-16
     f78:	00112623          	sw	ra,12(sp)
     f7c:	00812423          	sw	s0,8(sp)
     f80:	01010413          	addi	s0,sp,16
     f84:	5f1007b7          	lui	a5,0x5f100
     f88:	6f078793          	addi	a5,a5,1776 # 5f1006f0 <__VREG_END+0x5ef806f0>
     f8c:	0007c783          	lbu	a5,0(a5)
     f90:	0ff7f713          	andi	a4,a5,255
     f94:	000217b7          	lui	a5,0x21
     f98:	0ae78a23          	sb	a4,180(a5) # 210b4 <read_val>
     f9c:	000217b7          	lui	a5,0x21
     fa0:	0b47c783          	lbu	a5,180(a5) # 210b4 <read_val>
     fa4:	00078513          	mv	a0,a5
     fa8:	bb0ff0ef          	jal	ra,358 <UARTCharPut>
     fac:	000217b7          	lui	a5,0x21
     fb0:	0ac7a783          	lw	a5,172(a5) # 210ac <recv_counter>
     fb4:	00178713          	addi	a4,a5,1
     fb8:	000217b7          	lui	a5,0x21
     fbc:	0ae7a623          	sw	a4,172(a5) # 210ac <recv_counter>
     fc0:	000217b7          	lui	a5,0x21
     fc4:	0bd7c783          	lbu	a5,189(a5) # 210bd <start_read>
     fc8:	12079a63          	bnez	a5,10fc <ISR5_uart+0x188>
     fcc:	000217b7          	lui	a5,0x21
     fd0:	0bc7c783          	lbu	a5,188(a5) # 210bc <header_count>
     fd4:	04079063          	bnez	a5,1014 <ISR5_uart+0xa0>
     fd8:	000217b7          	lui	a5,0x21
     fdc:	0b47c703          	lbu	a4,180(a5) # 210b4 <read_val>
     fe0:	0aa00793          	li	a5,170
     fe4:	00f71e63          	bne	a4,a5,1000 <ISR5_uart+0x8c>
     fe8:	000217b7          	lui	a5,0x21
     fec:	00100713          	li	a4,1
     ff0:	0ae78e23          	sb	a4,188(a5) # 210bc <header_count>
     ff4:	000217b7          	lui	a5,0x21
     ff8:	0a078ea3          	sb	zero,189(a5) # 210bd <start_read>
     ffc:	1400006f          	j	113c <ISR5_uart+0x1c8>
    1000:	000217b7          	lui	a5,0x21
    1004:	0a078e23          	sb	zero,188(a5) # 210bc <header_count>
    1008:	000217b7          	lui	a5,0x21
    100c:	0a078ea3          	sb	zero,189(a5) # 210bd <start_read>
    1010:	12c0006f          	j	113c <ISR5_uart+0x1c8>
    1014:	000217b7          	lui	a5,0x21
    1018:	0bc7c703          	lbu	a4,188(a5) # 210bc <header_count>
    101c:	00100793          	li	a5,1
    1020:	04f71063          	bne	a4,a5,1060 <ISR5_uart+0xec>
    1024:	000217b7          	lui	a5,0x21
    1028:	0b47c703          	lbu	a4,180(a5) # 210b4 <read_val>
    102c:	05500793          	li	a5,85
    1030:	00f71e63          	bne	a4,a5,104c <ISR5_uart+0xd8>
    1034:	000217b7          	lui	a5,0x21
    1038:	00200713          	li	a4,2
    103c:	0ae78e23          	sb	a4,188(a5) # 210bc <header_count>
    1040:	000217b7          	lui	a5,0x21
    1044:	0a078ea3          	sb	zero,189(a5) # 210bd <start_read>
    1048:	0f40006f          	j	113c <ISR5_uart+0x1c8>
    104c:	000217b7          	lui	a5,0x21
    1050:	0a078e23          	sb	zero,188(a5) # 210bc <header_count>
    1054:	000217b7          	lui	a5,0x21
    1058:	0a078ea3          	sb	zero,189(a5) # 210bd <start_read>
    105c:	0e00006f          	j	113c <ISR5_uart+0x1c8>
    1060:	000217b7          	lui	a5,0x21
    1064:	0bc7c703          	lbu	a4,188(a5) # 210bc <header_count>
    1068:	00200793          	li	a5,2
    106c:	04f71063          	bne	a4,a5,10ac <ISR5_uart+0x138>
    1070:	000217b7          	lui	a5,0x21
    1074:	0b47c703          	lbu	a4,180(a5) # 210b4 <read_val>
    1078:	0bb00793          	li	a5,187
    107c:	00f71e63          	bne	a4,a5,1098 <ISR5_uart+0x124>
    1080:	000217b7          	lui	a5,0x21
    1084:	00300713          	li	a4,3
    1088:	0ae78e23          	sb	a4,188(a5) # 210bc <header_count>
    108c:	000217b7          	lui	a5,0x21
    1090:	0a078ea3          	sb	zero,189(a5) # 210bd <start_read>
    1094:	0a80006f          	j	113c <ISR5_uart+0x1c8>
    1098:	000217b7          	lui	a5,0x21
    109c:	0a078e23          	sb	zero,188(a5) # 210bc <header_count>
    10a0:	000217b7          	lui	a5,0x21
    10a4:	0a078ea3          	sb	zero,189(a5) # 210bd <start_read>
    10a8:	0940006f          	j	113c <ISR5_uart+0x1c8>
    10ac:	000217b7          	lui	a5,0x21
    10b0:	0bc7c703          	lbu	a4,188(a5) # 210bc <header_count>
    10b4:	00300793          	li	a5,3
    10b8:	08f71263          	bne	a4,a5,113c <ISR5_uart+0x1c8>
    10bc:	000217b7          	lui	a5,0x21
    10c0:	0b47c703          	lbu	a4,180(a5) # 210b4 <read_val>
    10c4:	06600793          	li	a5,102
    10c8:	02f71063          	bne	a4,a5,10e8 <ISR5_uart+0x174>
    10cc:	000217b7          	lui	a5,0x21
    10d0:	00400713          	li	a4,4
    10d4:	0ae78e23          	sb	a4,188(a5) # 210bc <header_count>
    10d8:	000217b7          	lui	a5,0x21
    10dc:	00100713          	li	a4,1
    10e0:	0ae78ea3          	sb	a4,189(a5) # 210bd <start_read>
    10e4:	0580006f          	j	113c <ISR5_uart+0x1c8>
    10e8:	000217b7          	lui	a5,0x21
    10ec:	0a078e23          	sb	zero,188(a5) # 210bc <header_count>
    10f0:	000217b7          	lui	a5,0x21
    10f4:	0a078ea3          	sb	zero,189(a5) # 210bd <start_read>
    10f8:	0440006f          	j	113c <ISR5_uart+0x1c8>
    10fc:	000217b7          	lui	a5,0x21
    1100:	0b47c783          	lbu	a5,180(a5) # 210b4 <read_val>
    1104:	00078713          	mv	a4,a5
    1108:	000217b7          	lui	a5,0x21
    110c:	0b07a783          	lw	a5,176(a5) # 210b0 <recv_num_counter>
    1110:	01071713          	slli	a4,a4,0x10
    1114:	000216b7          	lui	a3,0x21
    1118:	0c468693          	addi	a3,a3,196 # 210c4 <img_buf>
    111c:	00279793          	slli	a5,a5,0x2
    1120:	00f687b3          	add	a5,a3,a5
    1124:	00e7a023          	sw	a4,0(a5)
    1128:	000217b7          	lui	a5,0x21
    112c:	0b07a783          	lw	a5,176(a5) # 210b0 <recv_num_counter>
    1130:	00178713          	addi	a4,a5,1
    1134:	000217b7          	lui	a5,0x21
    1138:	0ae7a823          	sw	a4,176(a5) # 210b0 <recv_num_counter>
    113c:	000217b7          	lui	a5,0x21
    1140:	0b07a703          	lw	a4,176(a5) # 210b0 <recv_num_counter>
    1144:	40000793          	li	a5,1024
    1148:	02f71a63          	bne	a4,a5,117c <ISR5_uart+0x208>
    114c:	000217b7          	lui	a5,0x21
    1150:	00100713          	li	a4,1
    1154:	0ae7ac23          	sw	a4,184(a5) # 210b8 <pflag>
    1158:	000217b7          	lui	a5,0x21
    115c:	0a07a823          	sw	zero,176(a5) # 210b0 <recv_num_counter>
    1160:	000217b7          	lui	a5,0x21
    1164:	0a07a623          	sw	zero,172(a5) # 210ac <recv_counter>
    1168:	000217b7          	lui	a5,0x21
    116c:	0a078ea3          	sb	zero,189(a5) # 210bd <start_read>
    1170:	000217b7          	lui	a5,0x21
    1174:	0a078e23          	sb	zero,188(a5) # 210bc <header_count>
    1178:	00c0006f          	j	1184 <ISR5_uart+0x210>
    117c:	000217b7          	lui	a5,0x21
    1180:	0a07ac23          	sw	zero,184(a5) # 210b8 <pflag>
    1184:	00000013          	nop
    1188:	00c12083          	lw	ra,12(sp)
    118c:	00812403          	lw	s0,8(sp)
    1190:	01010113          	addi	sp,sp,16
    1194:	00008067          	ret

00001198 <ISR6_addr_exception>:
    1198:	ff010113          	addi	sp,sp,-16
    119c:	00812623          	sw	s0,12(sp)
    11a0:	01010413          	addi	s0,sp,16
    11a4:	00000013          	nop
    11a8:	00c12403          	lw	s0,12(sp)
    11ac:	01010113          	addi	sp,sp,16
    11b0:	00008067          	ret

000011b4 <__stack_init>:
    11b4:	effc                	fsw	fa5,92(a5)
    11b6:	          	fence	unknown,unknown

Disassembly of section .vmem_data:

00100000 <ker>:
  100000:	0001                	nop
  100002:	0000                	unimp
  100004:	0001                	nop
  100006:	0000                	unimp
  100008:	0001                	nop
  10000a:	0000                	unimp
  10000c:	0001                	nop
  10000e:	0000                	unimp
  100010:	0001                	nop
  100012:	0000                	unimp
  100014:	0001                	nop
  100016:	0000                	unimp
  100018:	0001                	nop
  10001a:	0000                	unimp
  10001c:	0001                	nop
  10001e:	0000                	unimp
  100020:	0001                	nop
  100022:	0000                	unimp
  100024:	0001                	nop
  100026:	0000                	unimp
  100028:	0001                	nop
  10002a:	0000                	unimp
  10002c:	0001                	nop
  10002e:	0000                	unimp
  100030:	0001                	nop
  100032:	0000                	unimp
  100034:	0001                	nop
  100036:	0000                	unimp
  100038:	0001                	nop
  10003a:	0000                	unimp
  10003c:	0001                	nop
  10003e:	0000                	unimp
  100040:	0002                	c.slli64	zero
  100042:	0000                	unimp
  100044:	0002                	c.slli64	zero
  100046:	0000                	unimp
  100048:	0002                	c.slli64	zero
  10004a:	0000                	unimp
  10004c:	0002                	c.slli64	zero
  10004e:	0000                	unimp
  100050:	0002                	c.slli64	zero
  100052:	0000                	unimp
  100054:	0002                	c.slli64	zero
  100056:	0000                	unimp
  100058:	0002                	c.slli64	zero
  10005a:	0000                	unimp
  10005c:	0002                	c.slli64	zero
  10005e:	0000                	unimp
  100060:	0002                	c.slli64	zero
  100062:	0000                	unimp
  100064:	0002                	c.slli64	zero
  100066:	0000                	unimp
  100068:	0002                	c.slli64	zero
  10006a:	0000                	unimp
  10006c:	0002                	c.slli64	zero
  10006e:	0000                	unimp
  100070:	0002                	c.slli64	zero
  100072:	0000                	unimp
  100074:	0002                	c.slli64	zero
  100076:	0000                	unimp
  100078:	0002                	c.slli64	zero
  10007a:	0000                	unimp
  10007c:	0002                	c.slli64	zero
  10007e:	0000                	unimp
  100080:	00000003          	lb	zero,0(zero) # 0 <boot>
  100084:	00000003          	lb	zero,0(zero) # 0 <boot>
  100088:	00000003          	lb	zero,0(zero) # 0 <boot>
  10008c:	00000003          	lb	zero,0(zero) # 0 <boot>
  100090:	00000003          	lb	zero,0(zero) # 0 <boot>
  100094:	00000003          	lb	zero,0(zero) # 0 <boot>
  100098:	00000003          	lb	zero,0(zero) # 0 <boot>
  10009c:	00000003          	lb	zero,0(zero) # 0 <boot>
  1000a0:	00000003          	lb	zero,0(zero) # 0 <boot>
  1000a4:	00000003          	lb	zero,0(zero) # 0 <boot>
  1000a8:	00000003          	lb	zero,0(zero) # 0 <boot>
  1000ac:	00000003          	lb	zero,0(zero) # 0 <boot>
  1000b0:	00000003          	lb	zero,0(zero) # 0 <boot>
  1000b4:	00000003          	lb	zero,0(zero) # 0 <boot>
  1000b8:	00000003          	lb	zero,0(zero) # 0 <boot>
  1000bc:	00000003          	lb	zero,0(zero) # 0 <boot>
  1000c0:	0004                	0x4
  1000c2:	0000                	unimp
  1000c4:	0004                	0x4
  1000c6:	0000                	unimp
  1000c8:	0004                	0x4
  1000ca:	0000                	unimp
  1000cc:	0004                	0x4
  1000ce:	0000                	unimp
  1000d0:	0004                	0x4
  1000d2:	0000                	unimp
  1000d4:	0004                	0x4
  1000d6:	0000                	unimp
  1000d8:	0004                	0x4
  1000da:	0000                	unimp
  1000dc:	0004                	0x4
  1000de:	0000                	unimp
  1000e0:	0004                	0x4
  1000e2:	0000                	unimp
  1000e4:	0004                	0x4
  1000e6:	0000                	unimp
  1000e8:	0004                	0x4
  1000ea:	0000                	unimp
  1000ec:	0004                	0x4
  1000ee:	0000                	unimp
  1000f0:	0004                	0x4
  1000f2:	0000                	unimp
  1000f4:	0004                	0x4
  1000f6:	0000                	unimp
  1000f8:	0004                	0x4
  1000fa:	0000                	unimp
  1000fc:	0004                	0x4
  1000fe:	0000                	unimp
  100100:	0005                	c.nop	1
  100102:	0000                	unimp
  100104:	0005                	c.nop	1
  100106:	0000                	unimp
  100108:	0005                	c.nop	1
  10010a:	0000                	unimp
  10010c:	0005                	c.nop	1
  10010e:	0000                	unimp
  100110:	0005                	c.nop	1
  100112:	0000                	unimp
  100114:	0005                	c.nop	1
  100116:	0000                	unimp
  100118:	0005                	c.nop	1
  10011a:	0000                	unimp
  10011c:	0005                	c.nop	1
  10011e:	0000                	unimp
  100120:	0005                	c.nop	1
  100122:	0000                	unimp
  100124:	0005                	c.nop	1
  100126:	0000                	unimp
  100128:	0005                	c.nop	1
  10012a:	0000                	unimp
  10012c:	0005                	c.nop	1
  10012e:	0000                	unimp
  100130:	0005                	c.nop	1
  100132:	0000                	unimp
  100134:	0005                	c.nop	1
  100136:	0000                	unimp
  100138:	0005                	c.nop	1
  10013a:	0000                	unimp
  10013c:	0005                	c.nop	1
  10013e:	0000                	unimp
  100140:	0006                	c.slli	zero,0x1
  100142:	0000                	unimp
  100144:	0006                	c.slli	zero,0x1
  100146:	0000                	unimp
  100148:	0006                	c.slli	zero,0x1
  10014a:	0000                	unimp
  10014c:	0006                	c.slli	zero,0x1
  10014e:	0000                	unimp
  100150:	0006                	c.slli	zero,0x1
  100152:	0000                	unimp
  100154:	0006                	c.slli	zero,0x1
  100156:	0000                	unimp
  100158:	0006                	c.slli	zero,0x1
  10015a:	0000                	unimp
  10015c:	0006                	c.slli	zero,0x1
  10015e:	0000                	unimp
  100160:	0006                	c.slli	zero,0x1
  100162:	0000                	unimp
  100164:	0006                	c.slli	zero,0x1
  100166:	0000                	unimp
  100168:	0006                	c.slli	zero,0x1
  10016a:	0000                	unimp
  10016c:	0006                	c.slli	zero,0x1
  10016e:	0000                	unimp
  100170:	0006                	c.slli	zero,0x1
  100172:	0000                	unimp
  100174:	0006                	c.slli	zero,0x1
  100176:	0000                	unimp
  100178:	0006                	c.slli	zero,0x1
  10017a:	0000                	unimp
  10017c:	0006                	c.slli	zero,0x1
  10017e:	0000                	unimp
  100180:	00000007          	vle8.v	v0,(zero),v0.t
  100184:	00000007          	vle8.v	v0,(zero),v0.t
  100188:	00000007          	vle8.v	v0,(zero),v0.t
  10018c:	00000007          	vle8.v	v0,(zero),v0.t
  100190:	00000007          	vle8.v	v0,(zero),v0.t
  100194:	00000007          	vle8.v	v0,(zero),v0.t
  100198:	00000007          	vle8.v	v0,(zero),v0.t
  10019c:	00000007          	vle8.v	v0,(zero),v0.t
  1001a0:	00000007          	vle8.v	v0,(zero),v0.t
  1001a4:	00000007          	vle8.v	v0,(zero),v0.t
  1001a8:	00000007          	vle8.v	v0,(zero),v0.t
  1001ac:	00000007          	vle8.v	v0,(zero),v0.t
  1001b0:	00000007          	vle8.v	v0,(zero),v0.t
  1001b4:	00000007          	vle8.v	v0,(zero),v0.t
  1001b8:	00000007          	vle8.v	v0,(zero),v0.t
  1001bc:	00000007          	vle8.v	v0,(zero),v0.t
  1001c0:	0008                	0x8
  1001c2:	0000                	unimp
  1001c4:	0008                	0x8
  1001c6:	0000                	unimp
  1001c8:	0008                	0x8
  1001ca:	0000                	unimp
  1001cc:	0008                	0x8
  1001ce:	0000                	unimp
  1001d0:	0008                	0x8
  1001d2:	0000                	unimp
  1001d4:	0008                	0x8
  1001d6:	0000                	unimp
  1001d8:	0008                	0x8
  1001da:	0000                	unimp
  1001dc:	0008                	0x8
  1001de:	0000                	unimp
  1001e0:	0008                	0x8
  1001e2:	0000                	unimp
  1001e4:	0008                	0x8
  1001e6:	0000                	unimp
  1001e8:	0008                	0x8
  1001ea:	0000                	unimp
  1001ec:	0008                	0x8
  1001ee:	0000                	unimp
  1001f0:	0008                	0x8
  1001f2:	0000                	unimp
  1001f4:	0008                	0x8
  1001f6:	0000                	unimp
  1001f8:	0008                	0x8
  1001fa:	0000                	unimp
  1001fc:	0008                	0x8
  1001fe:	0000                	unimp
  100200:	0009                	c.nop	2
  100202:	0000                	unimp
  100204:	0009                	c.nop	2
  100206:	0000                	unimp
  100208:	0009                	c.nop	2
  10020a:	0000                	unimp
  10020c:	0009                	c.nop	2
  10020e:	0000                	unimp
  100210:	0009                	c.nop	2
  100212:	0000                	unimp
  100214:	0009                	c.nop	2
  100216:	0000                	unimp
  100218:	0009                	c.nop	2
  10021a:	0000                	unimp
  10021c:	0009                	c.nop	2
  10021e:	0000                	unimp
  100220:	0009                	c.nop	2
  100222:	0000                	unimp
  100224:	0009                	c.nop	2
  100226:	0000                	unimp
  100228:	0009                	c.nop	2
  10022a:	0000                	unimp
  10022c:	0009                	c.nop	2
  10022e:	0000                	unimp
  100230:	0009                	c.nop	2
  100232:	0000                	unimp
  100234:	0009                	c.nop	2
  100236:	0000                	unimp
  100238:	0009                	c.nop	2
  10023a:	0000                	unimp
  10023c:	0009                	c.nop	2
	...

00100240 <bias>:
	...

00100280 <expected_output>:
  100280:	00000813          	li	a6,0
  100284:	00000813          	li	a6,0
  100288:	00000813          	li	a6,0
  10028c:	00000813          	li	a6,0
  100290:	00000813          	li	a6,0
  100294:	00000813          	li	a6,0
  100298:	00000813          	li	a6,0
  10029c:	00000813          	li	a6,0
  1002a0:	00000813          	li	a6,0
  1002a4:	00000813          	li	a6,0
  1002a8:	00000813          	li	a6,0
  1002ac:	00000813          	li	a6,0
  1002b0:	00000813          	li	a6,0
  1002b4:	00000813          	li	a6,0
  1002b8:	00000813          	li	a6,0
  1002bc:	00000813          	li	a6,0
  1002c0:	0840                	addi	s0,sp,20
  1002c2:	0000                	unimp
  1002c4:	0840                	addi	s0,sp,20
  1002c6:	0000                	unimp
  1002c8:	0840                	addi	s0,sp,20
  1002ca:	0000                	unimp
  1002cc:	0840                	addi	s0,sp,20
  1002ce:	0000                	unimp
  1002d0:	0840                	addi	s0,sp,20
  1002d2:	0000                	unimp
  1002d4:	0840                	addi	s0,sp,20
  1002d6:	0000                	unimp
  1002d8:	0840                	addi	s0,sp,20
  1002da:	0000                	unimp
  1002dc:	0840                	addi	s0,sp,20
  1002de:	0000                	unimp
  1002e0:	0840                	addi	s0,sp,20
  1002e2:	0000                	unimp
  1002e4:	0840                	addi	s0,sp,20
  1002e6:	0000                	unimp
  1002e8:	0840                	addi	s0,sp,20
  1002ea:	0000                	unimp
  1002ec:	0840                	addi	s0,sp,20
  1002ee:	0000                	unimp
  1002f0:	0840                	addi	s0,sp,20
  1002f2:	0000                	unimp
  1002f4:	0840                	addi	s0,sp,20
  1002f6:	0000                	unimp
  1002f8:	0840                	addi	s0,sp,20
  1002fa:	0000                	unimp
  1002fc:	0840                	addi	s0,sp,20
  1002fe:	0000                	unimp
  100300:	086d                	addi	a6,a6,27
  100302:	0000                	unimp
  100304:	086d                	addi	a6,a6,27
  100306:	0000                	unimp
  100308:	086d                	addi	a6,a6,27
  10030a:	0000                	unimp
  10030c:	086d                	addi	a6,a6,27
  10030e:	0000                	unimp
  100310:	086d                	addi	a6,a6,27
  100312:	0000                	unimp
  100314:	086d                	addi	a6,a6,27
  100316:	0000                	unimp
  100318:	086d                	addi	a6,a6,27
  10031a:	0000                	unimp
  10031c:	086d                	addi	a6,a6,27
  10031e:	0000                	unimp
  100320:	086d                	addi	a6,a6,27
  100322:	0000                	unimp
  100324:	086d                	addi	a6,a6,27
  100326:	0000                	unimp
  100328:	086d                	addi	a6,a6,27
  10032a:	0000                	unimp
  10032c:	086d                	addi	a6,a6,27
  10032e:	0000                	unimp
  100330:	086d                	addi	a6,a6,27
  100332:	0000                	unimp
  100334:	086d                	addi	a6,a6,27
  100336:	0000                	unimp
  100338:	086d                	addi	a6,a6,27
  10033a:	0000                	unimp
  10033c:	086d                	addi	a6,a6,27
  10033e:	0000                	unimp
  100340:	089a                	slli	a7,a7,0x6
  100342:	0000                	unimp
  100344:	089a                	slli	a7,a7,0x6
  100346:	0000                	unimp
  100348:	089a                	slli	a7,a7,0x6
  10034a:	0000                	unimp
  10034c:	089a                	slli	a7,a7,0x6
  10034e:	0000                	unimp
  100350:	089a                	slli	a7,a7,0x6
  100352:	0000                	unimp
  100354:	089a                	slli	a7,a7,0x6
  100356:	0000                	unimp
  100358:	089a                	slli	a7,a7,0x6
  10035a:	0000                	unimp
  10035c:	089a                	slli	a7,a7,0x6
  10035e:	0000                	unimp
  100360:	089a                	slli	a7,a7,0x6
  100362:	0000                	unimp
  100364:	089a                	slli	a7,a7,0x6
  100366:	0000                	unimp
  100368:	089a                	slli	a7,a7,0x6
  10036a:	0000                	unimp
  10036c:	089a                	slli	a7,a7,0x6
  10036e:	0000                	unimp
  100370:	089a                	slli	a7,a7,0x6
  100372:	0000                	unimp
  100374:	089a                	slli	a7,a7,0x6
  100376:	0000                	unimp
  100378:	089a                	slli	a7,a7,0x6
  10037a:	0000                	unimp
  10037c:	089a                	slli	a7,a7,0x6
  10037e:	0000                	unimp
  100380:	000008c7          	fmsub.s	fa7,ft0,ft0,ft0,rne
  100384:	000008c7          	fmsub.s	fa7,ft0,ft0,ft0,rne
  100388:	000008c7          	fmsub.s	fa7,ft0,ft0,ft0,rne
  10038c:	000008c7          	fmsub.s	fa7,ft0,ft0,ft0,rne
  100390:	000008c7          	fmsub.s	fa7,ft0,ft0,ft0,rne
  100394:	000008c7          	fmsub.s	fa7,ft0,ft0,ft0,rne
  100398:	000008c7          	fmsub.s	fa7,ft0,ft0,ft0,rne
  10039c:	000008c7          	fmsub.s	fa7,ft0,ft0,ft0,rne
  1003a0:	000008c7          	fmsub.s	fa7,ft0,ft0,ft0,rne
  1003a4:	000008c7          	fmsub.s	fa7,ft0,ft0,ft0,rne
  1003a8:	000008c7          	fmsub.s	fa7,ft0,ft0,ft0,rne
  1003ac:	000008c7          	fmsub.s	fa7,ft0,ft0,ft0,rne
  1003b0:	000008c7          	fmsub.s	fa7,ft0,ft0,ft0,rne
  1003b4:	000008c7          	fmsub.s	fa7,ft0,ft0,ft0,rne
  1003b8:	000008c7          	fmsub.s	fa7,ft0,ft0,ft0,rne
  1003bc:	000008c7          	fmsub.s	fa7,ft0,ft0,ft0,rne
  1003c0:	08f4                	addi	a3,sp,92
  1003c2:	0000                	unimp
  1003c4:	08f4                	addi	a3,sp,92
  1003c6:	0000                	unimp
  1003c8:	08f4                	addi	a3,sp,92
  1003ca:	0000                	unimp
  1003cc:	08f4                	addi	a3,sp,92
  1003ce:	0000                	unimp
  1003d0:	08f4                	addi	a3,sp,92
  1003d2:	0000                	unimp
  1003d4:	08f4                	addi	a3,sp,92
  1003d6:	0000                	unimp
  1003d8:	08f4                	addi	a3,sp,92
  1003da:	0000                	unimp
  1003dc:	08f4                	addi	a3,sp,92
  1003de:	0000                	unimp
  1003e0:	08f4                	addi	a3,sp,92
  1003e2:	0000                	unimp
  1003e4:	08f4                	addi	a3,sp,92
  1003e6:	0000                	unimp
  1003e8:	08f4                	addi	a3,sp,92
  1003ea:	0000                	unimp
  1003ec:	08f4                	addi	a3,sp,92
  1003ee:	0000                	unimp
  1003f0:	08f4                	addi	a3,sp,92
  1003f2:	0000                	unimp
  1003f4:	08f4                	addi	a3,sp,92
  1003f6:	0000                	unimp
  1003f8:	08f4                	addi	a3,sp,92
  1003fa:	0000                	unimp
  1003fc:	08f4                	addi	a3,sp,92
  1003fe:	0000                	unimp
  100400:	0921                	addi	s2,s2,8
  100402:	0000                	unimp
  100404:	0921                	addi	s2,s2,8
  100406:	0000                	unimp
  100408:	0921                	addi	s2,s2,8
  10040a:	0000                	unimp
  10040c:	0921                	addi	s2,s2,8
  10040e:	0000                	unimp
  100410:	0921                	addi	s2,s2,8
  100412:	0000                	unimp
  100414:	0921                	addi	s2,s2,8
  100416:	0000                	unimp
  100418:	0921                	addi	s2,s2,8
  10041a:	0000                	unimp
  10041c:	0921                	addi	s2,s2,8
  10041e:	0000                	unimp
  100420:	0921                	addi	s2,s2,8
  100422:	0000                	unimp
  100424:	0921                	addi	s2,s2,8
  100426:	0000                	unimp
  100428:	0921                	addi	s2,s2,8
  10042a:	0000                	unimp
  10042c:	0921                	addi	s2,s2,8
  10042e:	0000                	unimp
  100430:	0921                	addi	s2,s2,8
  100432:	0000                	unimp
  100434:	0921                	addi	s2,s2,8
  100436:	0000                	unimp
  100438:	0921                	addi	s2,s2,8
  10043a:	0000                	unimp
  10043c:	0921                	addi	s2,s2,8
  10043e:	0000                	unimp
  100440:	094e                	slli	s2,s2,0x13
  100442:	0000                	unimp
  100444:	094e                	slli	s2,s2,0x13
  100446:	0000                	unimp
  100448:	094e                	slli	s2,s2,0x13
  10044a:	0000                	unimp
  10044c:	094e                	slli	s2,s2,0x13
  10044e:	0000                	unimp
  100450:	094e                	slli	s2,s2,0x13
  100452:	0000                	unimp
  100454:	094e                	slli	s2,s2,0x13
  100456:	0000                	unimp
  100458:	094e                	slli	s2,s2,0x13
  10045a:	0000                	unimp
  10045c:	094e                	slli	s2,s2,0x13
  10045e:	0000                	unimp
  100460:	094e                	slli	s2,s2,0x13
  100462:	0000                	unimp
  100464:	094e                	slli	s2,s2,0x13
  100466:	0000                	unimp
  100468:	094e                	slli	s2,s2,0x13
  10046a:	0000                	unimp
  10046c:	094e                	slli	s2,s2,0x13
  10046e:	0000                	unimp
  100470:	094e                	slli	s2,s2,0x13
  100472:	0000                	unimp
  100474:	094e                	slli	s2,s2,0x13
  100476:	0000                	unimp
  100478:	094e                	slli	s2,s2,0x13
  10047a:	0000                	unimp
  10047c:	094e                	slli	s2,s2,0x13
  10047e:	0000                	unimp
  100480:	0000097b          	0x97b
  100484:	0000097b          	0x97b
  100488:	0000097b          	0x97b
  10048c:	0000097b          	0x97b
  100490:	0000097b          	0x97b
  100494:	0000097b          	0x97b
  100498:	0000097b          	0x97b
  10049c:	0000097b          	0x97b
  1004a0:	0000097b          	0x97b
  1004a4:	0000097b          	0x97b
  1004a8:	0000097b          	0x97b
  1004ac:	0000097b          	0x97b
  1004b0:	0000097b          	0x97b
  1004b4:	0000097b          	0x97b
  1004b8:	0000097b          	0x97b
  1004bc:	0000097b          	0x97b
  1004c0:	09a8                	addi	a0,sp,216
  1004c2:	0000                	unimp
  1004c4:	09a8                	addi	a0,sp,216
  1004c6:	0000                	unimp
  1004c8:	09a8                	addi	a0,sp,216
  1004ca:	0000                	unimp
  1004cc:	09a8                	addi	a0,sp,216
  1004ce:	0000                	unimp
  1004d0:	09a8                	addi	a0,sp,216
  1004d2:	0000                	unimp
  1004d4:	09a8                	addi	a0,sp,216
  1004d6:	0000                	unimp
  1004d8:	09a8                	addi	a0,sp,216
  1004da:	0000                	unimp
  1004dc:	09a8                	addi	a0,sp,216
  1004de:	0000                	unimp
  1004e0:	09a8                	addi	a0,sp,216
  1004e2:	0000                	unimp
  1004e4:	09a8                	addi	a0,sp,216
  1004e6:	0000                	unimp
  1004e8:	09a8                	addi	a0,sp,216
  1004ea:	0000                	unimp
  1004ec:	09a8                	addi	a0,sp,216
  1004ee:	0000                	unimp
  1004f0:	09a8                	addi	a0,sp,216
  1004f2:	0000                	unimp
  1004f4:	09a8                	addi	a0,sp,216
  1004f6:	0000                	unimp
  1004f8:	09a8                	addi	a0,sp,216
  1004fa:	0000                	unimp
  1004fc:	09a8                	addi	a0,sp,216
  1004fe:	0000                	unimp
  100500:	09d5                	addi	s3,s3,21
  100502:	0000                	unimp
  100504:	09d5                	addi	s3,s3,21
  100506:	0000                	unimp
  100508:	09d5                	addi	s3,s3,21
  10050a:	0000                	unimp
  10050c:	09d5                	addi	s3,s3,21
  10050e:	0000                	unimp
  100510:	09d5                	addi	s3,s3,21
  100512:	0000                	unimp
  100514:	09d5                	addi	s3,s3,21
  100516:	0000                	unimp
  100518:	09d5                	addi	s3,s3,21
  10051a:	0000                	unimp
  10051c:	09d5                	addi	s3,s3,21
  10051e:	0000                	unimp
  100520:	09d5                	addi	s3,s3,21
  100522:	0000                	unimp
  100524:	09d5                	addi	s3,s3,21
  100526:	0000                	unimp
  100528:	09d5                	addi	s3,s3,21
  10052a:	0000                	unimp
  10052c:	09d5                	addi	s3,s3,21
  10052e:	0000                	unimp
  100530:	09d5                	addi	s3,s3,21
  100532:	0000                	unimp
  100534:	09d5                	addi	s3,s3,21
  100536:	0000                	unimp
  100538:	09d5                	addi	s3,s3,21
  10053a:	0000                	unimp
  10053c:	09d5                	addi	s3,s3,21
  10053e:	0000                	unimp
  100540:	0a02                	c.slli64	s4
  100542:	0000                	unimp
  100544:	0a02                	c.slli64	s4
  100546:	0000                	unimp
  100548:	0a02                	c.slli64	s4
  10054a:	0000                	unimp
  10054c:	0a02                	c.slli64	s4
  10054e:	0000                	unimp
  100550:	0a02                	c.slli64	s4
  100552:	0000                	unimp
  100554:	0a02                	c.slli64	s4
  100556:	0000                	unimp
  100558:	0a02                	c.slli64	s4
  10055a:	0000                	unimp
  10055c:	0a02                	c.slli64	s4
  10055e:	0000                	unimp
  100560:	0a02                	c.slli64	s4
  100562:	0000                	unimp
  100564:	0a02                	c.slli64	s4
  100566:	0000                	unimp
  100568:	0a02                	c.slli64	s4
  10056a:	0000                	unimp
  10056c:	0a02                	c.slli64	s4
  10056e:	0000                	unimp
  100570:	0a02                	c.slli64	s4
  100572:	0000                	unimp
  100574:	0a02                	c.slli64	s4
  100576:	0000                	unimp
  100578:	0a02                	c.slli64	s4
  10057a:	0000                	unimp
  10057c:	0a02                	c.slli64	s4
  10057e:	0000                	unimp
  100580:	00000a2f          	vamoaddei8.v	zero,(zero),v0,v20,v0.t
  100584:	00000a2f          	vamoaddei8.v	zero,(zero),v0,v20,v0.t
  100588:	00000a2f          	vamoaddei8.v	zero,(zero),v0,v20,v0.t
  10058c:	00000a2f          	vamoaddei8.v	zero,(zero),v0,v20,v0.t
  100590:	00000a2f          	vamoaddei8.v	zero,(zero),v0,v20,v0.t
  100594:	00000a2f          	vamoaddei8.v	zero,(zero),v0,v20,v0.t
  100598:	00000a2f          	vamoaddei8.v	zero,(zero),v0,v20,v0.t
  10059c:	00000a2f          	vamoaddei8.v	zero,(zero),v0,v20,v0.t
  1005a0:	00000a2f          	vamoaddei8.v	zero,(zero),v0,v20,v0.t
  1005a4:	00000a2f          	vamoaddei8.v	zero,(zero),v0,v20,v0.t
  1005a8:	00000a2f          	vamoaddei8.v	zero,(zero),v0,v20,v0.t
  1005ac:	00000a2f          	vamoaddei8.v	zero,(zero),v0,v20,v0.t
  1005b0:	00000a2f          	vamoaddei8.v	zero,(zero),v0,v20,v0.t
  1005b4:	00000a2f          	vamoaddei8.v	zero,(zero),v0,v20,v0.t
  1005b8:	00000a2f          	vamoaddei8.v	zero,(zero),v0,v20,v0.t
  1005bc:	00000a2f          	vamoaddei8.v	zero,(zero),v0,v20,v0.t
  1005c0:	0a5c                	addi	a5,sp,276
  1005c2:	0000                	unimp
  1005c4:	0a5c                	addi	a5,sp,276
  1005c6:	0000                	unimp
  1005c8:	0a5c                	addi	a5,sp,276
  1005ca:	0000                	unimp
  1005cc:	0a5c                	addi	a5,sp,276
  1005ce:	0000                	unimp
  1005d0:	0a5c                	addi	a5,sp,276
  1005d2:	0000                	unimp
  1005d4:	0a5c                	addi	a5,sp,276
  1005d6:	0000                	unimp
  1005d8:	0a5c                	addi	a5,sp,276
  1005da:	0000                	unimp
  1005dc:	0a5c                	addi	a5,sp,276
  1005de:	0000                	unimp
  1005e0:	0a5c                	addi	a5,sp,276
  1005e2:	0000                	unimp
  1005e4:	0a5c                	addi	a5,sp,276
  1005e6:	0000                	unimp
  1005e8:	0a5c                	addi	a5,sp,276
  1005ea:	0000                	unimp
  1005ec:	0a5c                	addi	a5,sp,276
  1005ee:	0000                	unimp
  1005f0:	0a5c                	addi	a5,sp,276
  1005f2:	0000                	unimp
  1005f4:	0a5c                	addi	a5,sp,276
  1005f6:	0000                	unimp
  1005f8:	0a5c                	addi	a5,sp,276
  1005fa:	0000                	unimp
  1005fc:	0a5c                	addi	a5,sp,276
  1005fe:	0000                	unimp
  100600:	0a89                	addi	s5,s5,2
  100602:	0000                	unimp
  100604:	0a89                	addi	s5,s5,2
  100606:	0000                	unimp
  100608:	0a89                	addi	s5,s5,2
  10060a:	0000                	unimp
  10060c:	0a89                	addi	s5,s5,2
  10060e:	0000                	unimp
  100610:	0a89                	addi	s5,s5,2
  100612:	0000                	unimp
  100614:	0a89                	addi	s5,s5,2
  100616:	0000                	unimp
  100618:	0a89                	addi	s5,s5,2
  10061a:	0000                	unimp
  10061c:	0a89                	addi	s5,s5,2
  10061e:	0000                	unimp
  100620:	0a89                	addi	s5,s5,2
  100622:	0000                	unimp
  100624:	0a89                	addi	s5,s5,2
  100626:	0000                	unimp
  100628:	0a89                	addi	s5,s5,2
  10062a:	0000                	unimp
  10062c:	0a89                	addi	s5,s5,2
  10062e:	0000                	unimp
  100630:	0a89                	addi	s5,s5,2
  100632:	0000                	unimp
  100634:	0a89                	addi	s5,s5,2
  100636:	0000                	unimp
  100638:	0a89                	addi	s5,s5,2
  10063a:	0000                	unimp
  10063c:	0a89                	addi	s5,s5,2
  10063e:	0000                	unimp
  100640:	0ab6                	slli	s5,s5,0xd
  100642:	0000                	unimp
  100644:	0ab6                	slli	s5,s5,0xd
  100646:	0000                	unimp
  100648:	0ab6                	slli	s5,s5,0xd
  10064a:	0000                	unimp
  10064c:	0ab6                	slli	s5,s5,0xd
  10064e:	0000                	unimp
  100650:	0ab6                	slli	s5,s5,0xd
  100652:	0000                	unimp
  100654:	0ab6                	slli	s5,s5,0xd
  100656:	0000                	unimp
  100658:	0ab6                	slli	s5,s5,0xd
  10065a:	0000                	unimp
  10065c:	0ab6                	slli	s5,s5,0xd
  10065e:	0000                	unimp
  100660:	0ab6                	slli	s5,s5,0xd
  100662:	0000                	unimp
  100664:	0ab6                	slli	s5,s5,0xd
  100666:	0000                	unimp
  100668:	0ab6                	slli	s5,s5,0xd
  10066a:	0000                	unimp
  10066c:	0ab6                	slli	s5,s5,0xd
  10066e:	0000                	unimp
  100670:	0ab6                	slli	s5,s5,0xd
  100672:	0000                	unimp
  100674:	0ab6                	slli	s5,s5,0xd
  100676:	0000                	unimp
  100678:	0ab6                	slli	s5,s5,0xd
  10067a:	0000                	unimp
  10067c:	0ab6                	slli	s5,s5,0xd
  10067e:	0000                	unimp
  100680:	00000ae3          	beqz	zero,100e94 <expected_output+0xc14>
  100684:	00000ae3          	beqz	zero,100e98 <expected_output+0xc18>
  100688:	00000ae3          	beqz	zero,100e9c <expected_output+0xc1c>
  10068c:	00000ae3          	beqz	zero,100ea0 <expected_output+0xc20>
  100690:	00000ae3          	beqz	zero,100ea4 <expected_output+0xc24>
  100694:	00000ae3          	beqz	zero,100ea8 <expected_output+0xc28>
  100698:	00000ae3          	beqz	zero,100eac <expected_output+0xc2c>
  10069c:	00000ae3          	beqz	zero,100eb0 <expected_output+0xc30>
  1006a0:	00000ae3          	beqz	zero,100eb4 <expected_output+0xc34>
  1006a4:	00000ae3          	beqz	zero,100eb8 <expected_output+0xc38>
  1006a8:	00000ae3          	beqz	zero,100ebc <expected_output+0xc3c>
  1006ac:	00000ae3          	beqz	zero,100ec0 <expected_output+0xc40>
  1006b0:	00000ae3          	beqz	zero,100ec4 <expected_output+0xc44>
  1006b4:	00000ae3          	beqz	zero,100ec8 <expected_output+0xc48>
  1006b8:	00000ae3          	beqz	zero,100ecc <expected_output+0xc4c>
  1006bc:	00000ae3          	beqz	zero,100ed0 <expected_output+0xc50>
  1006c0:	0b10                	addi	a2,sp,400
  1006c2:	0000                	unimp
  1006c4:	0b10                	addi	a2,sp,400
  1006c6:	0000                	unimp
  1006c8:	0b10                	addi	a2,sp,400
  1006ca:	0000                	unimp
  1006cc:	0b10                	addi	a2,sp,400
  1006ce:	0000                	unimp
  1006d0:	0b10                	addi	a2,sp,400
  1006d2:	0000                	unimp
  1006d4:	0b10                	addi	a2,sp,400
  1006d6:	0000                	unimp
  1006d8:	0b10                	addi	a2,sp,400
  1006da:	0000                	unimp
  1006dc:	0b10                	addi	a2,sp,400
  1006de:	0000                	unimp
  1006e0:	0b10                	addi	a2,sp,400
  1006e2:	0000                	unimp
  1006e4:	0b10                	addi	a2,sp,400
  1006e6:	0000                	unimp
  1006e8:	0b10                	addi	a2,sp,400
  1006ea:	0000                	unimp
  1006ec:	0b10                	addi	a2,sp,400
  1006ee:	0000                	unimp
  1006f0:	0b10                	addi	a2,sp,400
  1006f2:	0000                	unimp
  1006f4:	0b10                	addi	a2,sp,400
  1006f6:	0000                	unimp
  1006f8:	0b10                	addi	a2,sp,400
  1006fa:	0000                	unimp
  1006fc:	0b10                	addi	a2,sp,400
  1006fe:	0000                	unimp
  100700:	0b3d                	addi	s6,s6,15
  100702:	0000                	unimp
  100704:	0b3d                	addi	s6,s6,15
  100706:	0000                	unimp
  100708:	0b3d                	addi	s6,s6,15
  10070a:	0000                	unimp
  10070c:	0b3d                	addi	s6,s6,15
  10070e:	0000                	unimp
  100710:	0b3d                	addi	s6,s6,15
  100712:	0000                	unimp
  100714:	0b3d                	addi	s6,s6,15
  100716:	0000                	unimp
  100718:	0b3d                	addi	s6,s6,15
  10071a:	0000                	unimp
  10071c:	0b3d                	addi	s6,s6,15
  10071e:	0000                	unimp
  100720:	0b3d                	addi	s6,s6,15
  100722:	0000                	unimp
  100724:	0b3d                	addi	s6,s6,15
  100726:	0000                	unimp
  100728:	0b3d                	addi	s6,s6,15
  10072a:	0000                	unimp
  10072c:	0b3d                	addi	s6,s6,15
  10072e:	0000                	unimp
  100730:	0b3d                	addi	s6,s6,15
  100732:	0000                	unimp
  100734:	0b3d                	addi	s6,s6,15
  100736:	0000                	unimp
  100738:	0b3d                	addi	s6,s6,15
  10073a:	0000                	unimp
  10073c:	0b3d                	addi	s6,s6,15
  10073e:	0000                	unimp
  100740:	0b6a                	slli	s6,s6,0x1a
  100742:	0000                	unimp
  100744:	0b6a                	slli	s6,s6,0x1a
  100746:	0000                	unimp
  100748:	0b6a                	slli	s6,s6,0x1a
  10074a:	0000                	unimp
  10074c:	0b6a                	slli	s6,s6,0x1a
  10074e:	0000                	unimp
  100750:	0b6a                	slli	s6,s6,0x1a
  100752:	0000                	unimp
  100754:	0b6a                	slli	s6,s6,0x1a
  100756:	0000                	unimp
  100758:	0b6a                	slli	s6,s6,0x1a
  10075a:	0000                	unimp
  10075c:	0b6a                	slli	s6,s6,0x1a
  10075e:	0000                	unimp
  100760:	0b6a                	slli	s6,s6,0x1a
  100762:	0000                	unimp
  100764:	0b6a                	slli	s6,s6,0x1a
  100766:	0000                	unimp
  100768:	0b6a                	slli	s6,s6,0x1a
  10076a:	0000                	unimp
  10076c:	0b6a                	slli	s6,s6,0x1a
  10076e:	0000                	unimp
  100770:	0b6a                	slli	s6,s6,0x1a
  100772:	0000                	unimp
  100774:	0b6a                	slli	s6,s6,0x1a
  100776:	0000                	unimp
  100778:	0b6a                	slli	s6,s6,0x1a
  10077a:	0000                	unimp
  10077c:	0b6a                	slli	s6,s6,0x1a
  10077e:	0000                	unimp
  100780:	00000b97          	auipc	s7,0x0
  100784:	00000b97          	auipc	s7,0x0
  100788:	00000b97          	auipc	s7,0x0
  10078c:	00000b97          	auipc	s7,0x0
  100790:	00000b97          	auipc	s7,0x0
  100794:	00000b97          	auipc	s7,0x0
  100798:	00000b97          	auipc	s7,0x0
  10079c:	00000b97          	auipc	s7,0x0
  1007a0:	00000b97          	auipc	s7,0x0
  1007a4:	00000b97          	auipc	s7,0x0
  1007a8:	00000b97          	auipc	s7,0x0
  1007ac:	00000b97          	auipc	s7,0x0
  1007b0:	00000b97          	auipc	s7,0x0
  1007b4:	00000b97          	auipc	s7,0x0
  1007b8:	00000b97          	auipc	s7,0x0
  1007bc:	00000b97          	auipc	s7,0x0
  1007c0:	0bc4                	addi	s1,sp,468
  1007c2:	0000                	unimp
  1007c4:	0bc4                	addi	s1,sp,468
  1007c6:	0000                	unimp
  1007c8:	0bc4                	addi	s1,sp,468
  1007ca:	0000                	unimp
  1007cc:	0bc4                	addi	s1,sp,468
  1007ce:	0000                	unimp
  1007d0:	0bc4                	addi	s1,sp,468
  1007d2:	0000                	unimp
  1007d4:	0bc4                	addi	s1,sp,468
  1007d6:	0000                	unimp
  1007d8:	0bc4                	addi	s1,sp,468
  1007da:	0000                	unimp
  1007dc:	0bc4                	addi	s1,sp,468
  1007de:	0000                	unimp
  1007e0:	0bc4                	addi	s1,sp,468
  1007e2:	0000                	unimp
  1007e4:	0bc4                	addi	s1,sp,468
  1007e6:	0000                	unimp
  1007e8:	0bc4                	addi	s1,sp,468
  1007ea:	0000                	unimp
  1007ec:	0bc4                	addi	s1,sp,468
  1007ee:	0000                	unimp
  1007f0:	0bc4                	addi	s1,sp,468
  1007f2:	0000                	unimp
  1007f4:	0bc4                	addi	s1,sp,468
  1007f6:	0000                	unimp
  1007f8:	0bc4                	addi	s1,sp,468
  1007fa:	0000                	unimp
  1007fc:	0bc4                	addi	s1,sp,468
  1007fe:	0000                	unimp
  100800:	0bf1                	addi	s7,s7,28
  100802:	0000                	unimp
  100804:	0bf1                	addi	s7,s7,28
  100806:	0000                	unimp
  100808:	0bf1                	addi	s7,s7,28
  10080a:	0000                	unimp
  10080c:	0bf1                	addi	s7,s7,28
  10080e:	0000                	unimp
  100810:	0bf1                	addi	s7,s7,28
  100812:	0000                	unimp
  100814:	0bf1                	addi	s7,s7,28
  100816:	0000                	unimp
  100818:	0bf1                	addi	s7,s7,28
  10081a:	0000                	unimp
  10081c:	0bf1                	addi	s7,s7,28
  10081e:	0000                	unimp
  100820:	0bf1                	addi	s7,s7,28
  100822:	0000                	unimp
  100824:	0bf1                	addi	s7,s7,28
  100826:	0000                	unimp
  100828:	0bf1                	addi	s7,s7,28
  10082a:	0000                	unimp
  10082c:	0bf1                	addi	s7,s7,28
  10082e:	0000                	unimp
  100830:	0bf1                	addi	s7,s7,28
  100832:	0000                	unimp
  100834:	0bf1                	addi	s7,s7,28
  100836:	0000                	unimp
  100838:	0bf1                	addi	s7,s7,28
  10083a:	0000                	unimp
  10083c:	0bf1                	addi	s7,s7,28
  10083e:	0000                	unimp
  100840:	0c1e                	slli	s8,s8,0x7
  100842:	0000                	unimp
  100844:	0c1e                	slli	s8,s8,0x7
  100846:	0000                	unimp
  100848:	0c1e                	slli	s8,s8,0x7
  10084a:	0000                	unimp
  10084c:	0c1e                	slli	s8,s8,0x7
  10084e:	0000                	unimp
  100850:	0c1e                	slli	s8,s8,0x7
  100852:	0000                	unimp
  100854:	0c1e                	slli	s8,s8,0x7
  100856:	0000                	unimp
  100858:	0c1e                	slli	s8,s8,0x7
  10085a:	0000                	unimp
  10085c:	0c1e                	slli	s8,s8,0x7
  10085e:	0000                	unimp
  100860:	0c1e                	slli	s8,s8,0x7
  100862:	0000                	unimp
  100864:	0c1e                	slli	s8,s8,0x7
  100866:	0000                	unimp
  100868:	0c1e                	slli	s8,s8,0x7
  10086a:	0000                	unimp
  10086c:	0c1e                	slli	s8,s8,0x7
  10086e:	0000                	unimp
  100870:	0c1e                	slli	s8,s8,0x7
  100872:	0000                	unimp
  100874:	0c1e                	slli	s8,s8,0x7
  100876:	0000                	unimp
  100878:	0c1e                	slli	s8,s8,0x7
  10087a:	0000                	unimp
  10087c:	0c1e                	slli	s8,s8,0x7
  10087e:	0000                	unimp
  100880:	00000c4b          	fnmsub.s	fs8,ft0,ft0,ft0,rne
  100884:	00000c4b          	fnmsub.s	fs8,ft0,ft0,ft0,rne
  100888:	00000c4b          	fnmsub.s	fs8,ft0,ft0,ft0,rne
  10088c:	00000c4b          	fnmsub.s	fs8,ft0,ft0,ft0,rne
  100890:	00000c4b          	fnmsub.s	fs8,ft0,ft0,ft0,rne
  100894:	00000c4b          	fnmsub.s	fs8,ft0,ft0,ft0,rne
  100898:	00000c4b          	fnmsub.s	fs8,ft0,ft0,ft0,rne
  10089c:	00000c4b          	fnmsub.s	fs8,ft0,ft0,ft0,rne
  1008a0:	00000c4b          	fnmsub.s	fs8,ft0,ft0,ft0,rne
  1008a4:	00000c4b          	fnmsub.s	fs8,ft0,ft0,ft0,rne
  1008a8:	00000c4b          	fnmsub.s	fs8,ft0,ft0,ft0,rne
  1008ac:	00000c4b          	fnmsub.s	fs8,ft0,ft0,ft0,rne
  1008b0:	00000c4b          	fnmsub.s	fs8,ft0,ft0,ft0,rne
  1008b4:	00000c4b          	fnmsub.s	fs8,ft0,ft0,ft0,rne
  1008b8:	00000c4b          	fnmsub.s	fs8,ft0,ft0,ft0,rne
  1008bc:	00000c4b          	fnmsub.s	fs8,ft0,ft0,ft0,rne
  1008c0:	0c78                	addi	a4,sp,540
  1008c2:	0000                	unimp
  1008c4:	0c78                	addi	a4,sp,540
  1008c6:	0000                	unimp
  1008c8:	0c78                	addi	a4,sp,540
  1008ca:	0000                	unimp
  1008cc:	0c78                	addi	a4,sp,540
  1008ce:	0000                	unimp
  1008d0:	0c78                	addi	a4,sp,540
  1008d2:	0000                	unimp
  1008d4:	0c78                	addi	a4,sp,540
  1008d6:	0000                	unimp
  1008d8:	0c78                	addi	a4,sp,540
  1008da:	0000                	unimp
  1008dc:	0c78                	addi	a4,sp,540
  1008de:	0000                	unimp
  1008e0:	0c78                	addi	a4,sp,540
  1008e2:	0000                	unimp
  1008e4:	0c78                	addi	a4,sp,540
  1008e6:	0000                	unimp
  1008e8:	0c78                	addi	a4,sp,540
  1008ea:	0000                	unimp
  1008ec:	0c78                	addi	a4,sp,540
  1008ee:	0000                	unimp
  1008f0:	0c78                	addi	a4,sp,540
  1008f2:	0000                	unimp
  1008f4:	0c78                	addi	a4,sp,540
  1008f6:	0000                	unimp
  1008f8:	0c78                	addi	a4,sp,540
  1008fa:	0000                	unimp
  1008fc:	0c78                	addi	a4,sp,540
  1008fe:	0000                	unimp
  100900:	0ca5                	addi	s9,s9,9
  100902:	0000                	unimp
  100904:	0ca5                	addi	s9,s9,9
  100906:	0000                	unimp
  100908:	0ca5                	addi	s9,s9,9
  10090a:	0000                	unimp
  10090c:	0ca5                	addi	s9,s9,9
  10090e:	0000                	unimp
  100910:	0ca5                	addi	s9,s9,9
  100912:	0000                	unimp
  100914:	0ca5                	addi	s9,s9,9
  100916:	0000                	unimp
  100918:	0ca5                	addi	s9,s9,9
  10091a:	0000                	unimp
  10091c:	0ca5                	addi	s9,s9,9
  10091e:	0000                	unimp
  100920:	0ca5                	addi	s9,s9,9
  100922:	0000                	unimp
  100924:	0ca5                	addi	s9,s9,9
  100926:	0000                	unimp
  100928:	0ca5                	addi	s9,s9,9
  10092a:	0000                	unimp
  10092c:	0ca5                	addi	s9,s9,9
  10092e:	0000                	unimp
  100930:	0ca5                	addi	s9,s9,9
  100932:	0000                	unimp
  100934:	0ca5                	addi	s9,s9,9
  100936:	0000                	unimp
  100938:	0ca5                	addi	s9,s9,9
  10093a:	0000                	unimp
  10093c:	0ca5                	addi	s9,s9,9
  10093e:	0000                	unimp
  100940:	0cd2                	slli	s9,s9,0x14
  100942:	0000                	unimp
  100944:	0cd2                	slli	s9,s9,0x14
  100946:	0000                	unimp
  100948:	0cd2                	slli	s9,s9,0x14
  10094a:	0000                	unimp
  10094c:	0cd2                	slli	s9,s9,0x14
  10094e:	0000                	unimp
  100950:	0cd2                	slli	s9,s9,0x14
  100952:	0000                	unimp
  100954:	0cd2                	slli	s9,s9,0x14
  100956:	0000                	unimp
  100958:	0cd2                	slli	s9,s9,0x14
  10095a:	0000                	unimp
  10095c:	0cd2                	slli	s9,s9,0x14
  10095e:	0000                	unimp
  100960:	0cd2                	slli	s9,s9,0x14
  100962:	0000                	unimp
  100964:	0cd2                	slli	s9,s9,0x14
  100966:	0000                	unimp
  100968:	0cd2                	slli	s9,s9,0x14
  10096a:	0000                	unimp
  10096c:	0cd2                	slli	s9,s9,0x14
  10096e:	0000                	unimp
  100970:	0cd2                	slli	s9,s9,0x14
  100972:	0000                	unimp
  100974:	0cd2                	slli	s9,s9,0x14
  100976:	0000                	unimp
  100978:	0cd2                	slli	s9,s9,0x14
  10097a:	0000                	unimp
  10097c:	0cd2                	slli	s9,s9,0x14
  10097e:	0000                	unimp
  100980:	0cff                	0xcff
  100982:	0000                	unimp
  100984:	0cff                	0xcff
  100986:	0000                	unimp
  100988:	0cff                	0xcff
  10098a:	0000                	unimp
  10098c:	0cff                	0xcff
  10098e:	0000                	unimp
  100990:	0cff                	0xcff
  100992:	0000                	unimp
  100994:	0cff                	0xcff
  100996:	0000                	unimp
  100998:	0cff                	0xcff
  10099a:	0000                	unimp
  10099c:	0cff                	0xcff
  10099e:	0000                	unimp
  1009a0:	0cff                	0xcff
  1009a2:	0000                	unimp
  1009a4:	0cff                	0xcff
  1009a6:	0000                	unimp
  1009a8:	0cff                	0xcff
  1009aa:	0000                	unimp
  1009ac:	0cff                	0xcff
  1009ae:	0000                	unimp
  1009b0:	0cff                	0xcff
  1009b2:	0000                	unimp
  1009b4:	0cff                	0xcff
  1009b6:	0000                	unimp
  1009b8:	0cff                	0xcff
  1009ba:	0000                	unimp
  1009bc:	0cff                	0xcff
  1009be:	0000                	unimp
  1009c0:	0d2c                	addi	a1,sp,664
  1009c2:	0000                	unimp
  1009c4:	0d2c                	addi	a1,sp,664
  1009c6:	0000                	unimp
  1009c8:	0d2c                	addi	a1,sp,664
  1009ca:	0000                	unimp
  1009cc:	0d2c                	addi	a1,sp,664
  1009ce:	0000                	unimp
  1009d0:	0d2c                	addi	a1,sp,664
  1009d2:	0000                	unimp
  1009d4:	0d2c                	addi	a1,sp,664
  1009d6:	0000                	unimp
  1009d8:	0d2c                	addi	a1,sp,664
  1009da:	0000                	unimp
  1009dc:	0d2c                	addi	a1,sp,664
  1009de:	0000                	unimp
  1009e0:	0d2c                	addi	a1,sp,664
  1009e2:	0000                	unimp
  1009e4:	0d2c                	addi	a1,sp,664
  1009e6:	0000                	unimp
  1009e8:	0d2c                	addi	a1,sp,664
  1009ea:	0000                	unimp
  1009ec:	0d2c                	addi	a1,sp,664
  1009ee:	0000                	unimp
  1009f0:	0d2c                	addi	a1,sp,664
  1009f2:	0000                	unimp
  1009f4:	0d2c                	addi	a1,sp,664
  1009f6:	0000                	unimp
  1009f8:	0d2c                	addi	a1,sp,664
  1009fa:	0000                	unimp
  1009fc:	0d2c                	addi	a1,sp,664
  1009fe:	0000                	unimp
  100a00:	00000db3          	add	s11,zero,zero
  100a04:	00000db3          	add	s11,zero,zero
  100a08:	00000db3          	add	s11,zero,zero
  100a0c:	00000db3          	add	s11,zero,zero
  100a10:	00000db3          	add	s11,zero,zero
  100a14:	00000db3          	add	s11,zero,zero
  100a18:	00000db3          	add	s11,zero,zero
  100a1c:	00000db3          	add	s11,zero,zero
  100a20:	00000db3          	add	s11,zero,zero
  100a24:	00000db3          	add	s11,zero,zero
  100a28:	00000db3          	add	s11,zero,zero
  100a2c:	00000db3          	add	s11,zero,zero
  100a30:	00000db3          	add	s11,zero,zero
  100a34:	00000db3          	add	s11,zero,zero
  100a38:	00000db3          	add	s11,zero,zero
  100a3c:	00000db3          	add	s11,zero,zero
  100a40:	0de0                	addi	s0,sp,732
  100a42:	0000                	unimp
  100a44:	0de0                	addi	s0,sp,732
  100a46:	0000                	unimp
  100a48:	0de0                	addi	s0,sp,732
  100a4a:	0000                	unimp
  100a4c:	0de0                	addi	s0,sp,732
  100a4e:	0000                	unimp
  100a50:	0de0                	addi	s0,sp,732
  100a52:	0000                	unimp
  100a54:	0de0                	addi	s0,sp,732
  100a56:	0000                	unimp
  100a58:	0de0                	addi	s0,sp,732
  100a5a:	0000                	unimp
  100a5c:	0de0                	addi	s0,sp,732
  100a5e:	0000                	unimp
  100a60:	0de0                	addi	s0,sp,732
  100a62:	0000                	unimp
  100a64:	0de0                	addi	s0,sp,732
  100a66:	0000                	unimp
  100a68:	0de0                	addi	s0,sp,732
  100a6a:	0000                	unimp
  100a6c:	0de0                	addi	s0,sp,732
  100a6e:	0000                	unimp
  100a70:	0de0                	addi	s0,sp,732
  100a72:	0000                	unimp
  100a74:	0de0                	addi	s0,sp,732
  100a76:	0000                	unimp
  100a78:	0de0                	addi	s0,sp,732
  100a7a:	0000                	unimp
  100a7c:	0de0                	addi	s0,sp,732
  100a7e:	0000                	unimp
  100a80:	0e0d                	addi	t3,t3,3
  100a82:	0000                	unimp
  100a84:	0e0d                	addi	t3,t3,3
  100a86:	0000                	unimp
  100a88:	0e0d                	addi	t3,t3,3
  100a8a:	0000                	unimp
  100a8c:	0e0d                	addi	t3,t3,3
  100a8e:	0000                	unimp
  100a90:	0e0d                	addi	t3,t3,3
  100a92:	0000                	unimp
  100a94:	0e0d                	addi	t3,t3,3
  100a96:	0000                	unimp
  100a98:	0e0d                	addi	t3,t3,3
  100a9a:	0000                	unimp
  100a9c:	0e0d                	addi	t3,t3,3
  100a9e:	0000                	unimp
  100aa0:	0e0d                	addi	t3,t3,3
  100aa2:	0000                	unimp
  100aa4:	0e0d                	addi	t3,t3,3
  100aa6:	0000                	unimp
  100aa8:	0e0d                	addi	t3,t3,3
  100aaa:	0000                	unimp
  100aac:	0e0d                	addi	t3,t3,3
  100aae:	0000                	unimp
  100ab0:	0e0d                	addi	t3,t3,3
  100ab2:	0000                	unimp
  100ab4:	0e0d                	addi	t3,t3,3
  100ab6:	0000                	unimp
  100ab8:	0e0d                	addi	t3,t3,3
  100aba:	0000                	unimp
  100abc:	0e0d                	addi	t3,t3,3
  100abe:	0000                	unimp
  100ac0:	0e3a                	slli	t3,t3,0xe
  100ac2:	0000                	unimp
  100ac4:	0e3a                	slli	t3,t3,0xe
  100ac6:	0000                	unimp
  100ac8:	0e3a                	slli	t3,t3,0xe
  100aca:	0000                	unimp
  100acc:	0e3a                	slli	t3,t3,0xe
  100ace:	0000                	unimp
  100ad0:	0e3a                	slli	t3,t3,0xe
  100ad2:	0000                	unimp
  100ad4:	0e3a                	slli	t3,t3,0xe
  100ad6:	0000                	unimp
  100ad8:	0e3a                	slli	t3,t3,0xe
  100ada:	0000                	unimp
  100adc:	0e3a                	slli	t3,t3,0xe
  100ade:	0000                	unimp
  100ae0:	0e3a                	slli	t3,t3,0xe
  100ae2:	0000                	unimp
  100ae4:	0e3a                	slli	t3,t3,0xe
  100ae6:	0000                	unimp
  100ae8:	0e3a                	slli	t3,t3,0xe
  100aea:	0000                	unimp
  100aec:	0e3a                	slli	t3,t3,0xe
  100aee:	0000                	unimp
  100af0:	0e3a                	slli	t3,t3,0xe
  100af2:	0000                	unimp
  100af4:	0e3a                	slli	t3,t3,0xe
  100af6:	0000                	unimp
  100af8:	0e3a                	slli	t3,t3,0xe
  100afa:	0000                	unimp
  100afc:	0e3a                	slli	t3,t3,0xe
  100afe:	0000                	unimp
  100b00:	00000e67          	jalr	t3,zero # 0 <boot>
  100b04:	00000e67          	jalr	t3,zero # 0 <boot>
  100b08:	00000e67          	jalr	t3,zero # 0 <boot>
  100b0c:	00000e67          	jalr	t3,zero # 0 <boot>
  100b10:	00000e67          	jalr	t3,zero # 0 <boot>
  100b14:	00000e67          	jalr	t3,zero # 0 <boot>
  100b18:	00000e67          	jalr	t3,zero # 0 <boot>
  100b1c:	00000e67          	jalr	t3,zero # 0 <boot>
  100b20:	00000e67          	jalr	t3,zero # 0 <boot>
  100b24:	00000e67          	jalr	t3,zero # 0 <boot>
  100b28:	00000e67          	jalr	t3,zero # 0 <boot>
  100b2c:	00000e67          	jalr	t3,zero # 0 <boot>
  100b30:	00000e67          	jalr	t3,zero # 0 <boot>
  100b34:	00000e67          	jalr	t3,zero # 0 <boot>
  100b38:	00000e67          	jalr	t3,zero # 0 <boot>
  100b3c:	00000e67          	jalr	t3,zero # 0 <boot>
  100b40:	0e94                	addi	a3,sp,848
  100b42:	0000                	unimp
  100b44:	0e94                	addi	a3,sp,848
  100b46:	0000                	unimp
  100b48:	0e94                	addi	a3,sp,848
  100b4a:	0000                	unimp
  100b4c:	0e94                	addi	a3,sp,848
  100b4e:	0000                	unimp
  100b50:	0e94                	addi	a3,sp,848
  100b52:	0000                	unimp
  100b54:	0e94                	addi	a3,sp,848
  100b56:	0000                	unimp
  100b58:	0e94                	addi	a3,sp,848
  100b5a:	0000                	unimp
  100b5c:	0e94                	addi	a3,sp,848
  100b5e:	0000                	unimp
  100b60:	0e94                	addi	a3,sp,848
  100b62:	0000                	unimp
  100b64:	0e94                	addi	a3,sp,848
  100b66:	0000                	unimp
  100b68:	0e94                	addi	a3,sp,848
  100b6a:	0000                	unimp
  100b6c:	0e94                	addi	a3,sp,848
  100b6e:	0000                	unimp
  100b70:	0e94                	addi	a3,sp,848
  100b72:	0000                	unimp
  100b74:	0e94                	addi	a3,sp,848
  100b76:	0000                	unimp
  100b78:	0e94                	addi	a3,sp,848
  100b7a:	0000                	unimp
  100b7c:	0e94                	addi	a3,sp,848
  100b7e:	0000                	unimp
  100b80:	0ec1                	addi	t4,t4,16
  100b82:	0000                	unimp
  100b84:	0ec1                	addi	t4,t4,16
  100b86:	0000                	unimp
  100b88:	0ec1                	addi	t4,t4,16
  100b8a:	0000                	unimp
  100b8c:	0ec1                	addi	t4,t4,16
  100b8e:	0000                	unimp
  100b90:	0ec1                	addi	t4,t4,16
  100b92:	0000                	unimp
  100b94:	0ec1                	addi	t4,t4,16
  100b96:	0000                	unimp
  100b98:	0ec1                	addi	t4,t4,16
  100b9a:	0000                	unimp
  100b9c:	0ec1                	addi	t4,t4,16
  100b9e:	0000                	unimp
  100ba0:	0ec1                	addi	t4,t4,16
  100ba2:	0000                	unimp
  100ba4:	0ec1                	addi	t4,t4,16
  100ba6:	0000                	unimp
  100ba8:	0ec1                	addi	t4,t4,16
  100baa:	0000                	unimp
  100bac:	0ec1                	addi	t4,t4,16
  100bae:	0000                	unimp
  100bb0:	0ec1                	addi	t4,t4,16
  100bb2:	0000                	unimp
  100bb4:	0ec1                	addi	t4,t4,16
  100bb6:	0000                	unimp
  100bb8:	0ec1                	addi	t4,t4,16
  100bba:	0000                	unimp
  100bbc:	0ec1                	addi	t4,t4,16
  100bbe:	0000                	unimp
  100bc0:	0eee                	slli	t4,t4,0x1b
  100bc2:	0000                	unimp
  100bc4:	0eee                	slli	t4,t4,0x1b
  100bc6:	0000                	unimp
  100bc8:	0eee                	slli	t4,t4,0x1b
  100bca:	0000                	unimp
  100bcc:	0eee                	slli	t4,t4,0x1b
  100bce:	0000                	unimp
  100bd0:	0eee                	slli	t4,t4,0x1b
  100bd2:	0000                	unimp
  100bd4:	0eee                	slli	t4,t4,0x1b
  100bd6:	0000                	unimp
  100bd8:	0eee                	slli	t4,t4,0x1b
  100bda:	0000                	unimp
  100bdc:	0eee                	slli	t4,t4,0x1b
  100bde:	0000                	unimp
  100be0:	0eee                	slli	t4,t4,0x1b
  100be2:	0000                	unimp
  100be4:	0eee                	slli	t4,t4,0x1b
  100be6:	0000                	unimp
  100be8:	0eee                	slli	t4,t4,0x1b
  100bea:	0000                	unimp
  100bec:	0eee                	slli	t4,t4,0x1b
  100bee:	0000                	unimp
  100bf0:	0eee                	slli	t4,t4,0x1b
  100bf2:	0000                	unimp
  100bf4:	0eee                	slli	t4,t4,0x1b
  100bf6:	0000                	unimp
  100bf8:	0eee                	slli	t4,t4,0x1b
  100bfa:	0000                	unimp
  100bfc:	0eee                	slli	t4,t4,0x1b
  100bfe:	0000                	unimp
  100c00:	00000f1b          	0xf1b
  100c04:	00000f1b          	0xf1b
  100c08:	00000f1b          	0xf1b
  100c0c:	00000f1b          	0xf1b
  100c10:	00000f1b          	0xf1b
  100c14:	00000f1b          	0xf1b
  100c18:	00000f1b          	0xf1b
  100c1c:	00000f1b          	0xf1b
  100c20:	00000f1b          	0xf1b
  100c24:	00000f1b          	0xf1b
  100c28:	00000f1b          	0xf1b
  100c2c:	00000f1b          	0xf1b
  100c30:	00000f1b          	0xf1b
  100c34:	00000f1b          	0xf1b
  100c38:	00000f1b          	0xf1b
  100c3c:	00000f1b          	0xf1b
  100c40:	0f48                	addi	a0,sp,916
  100c42:	0000                	unimp
  100c44:	0f48                	addi	a0,sp,916
  100c46:	0000                	unimp
  100c48:	0f48                	addi	a0,sp,916
  100c4a:	0000                	unimp
  100c4c:	0f48                	addi	a0,sp,916
  100c4e:	0000                	unimp
  100c50:	0f48                	addi	a0,sp,916
  100c52:	0000                	unimp
  100c54:	0f48                	addi	a0,sp,916
  100c56:	0000                	unimp
  100c58:	0f48                	addi	a0,sp,916
  100c5a:	0000                	unimp
  100c5c:	0f48                	addi	a0,sp,916
  100c5e:	0000                	unimp
  100c60:	0f48                	addi	a0,sp,916
  100c62:	0000                	unimp
  100c64:	0f48                	addi	a0,sp,916
  100c66:	0000                	unimp
  100c68:	0f48                	addi	a0,sp,916
  100c6a:	0000                	unimp
  100c6c:	0f48                	addi	a0,sp,916
  100c6e:	0000                	unimp
  100c70:	0f48                	addi	a0,sp,916
  100c72:	0000                	unimp
  100c74:	0f48                	addi	a0,sp,916
  100c76:	0000                	unimp
  100c78:	0f48                	addi	a0,sp,916
  100c7a:	0000                	unimp
  100c7c:	0f48                	addi	a0,sp,916
  100c7e:	0000                	unimp
  100c80:	0f75                	addi	t5,t5,29
  100c82:	0000                	unimp
  100c84:	0f75                	addi	t5,t5,29
  100c86:	0000                	unimp
  100c88:	0f75                	addi	t5,t5,29
  100c8a:	0000                	unimp
  100c8c:	0f75                	addi	t5,t5,29
  100c8e:	0000                	unimp
  100c90:	0f75                	addi	t5,t5,29
  100c92:	0000                	unimp
  100c94:	0f75                	addi	t5,t5,29
  100c96:	0000                	unimp
  100c98:	0f75                	addi	t5,t5,29
  100c9a:	0000                	unimp
  100c9c:	0f75                	addi	t5,t5,29
  100c9e:	0000                	unimp
  100ca0:	0f75                	addi	t5,t5,29
  100ca2:	0000                	unimp
  100ca4:	0f75                	addi	t5,t5,29
  100ca6:	0000                	unimp
  100ca8:	0f75                	addi	t5,t5,29
  100caa:	0000                	unimp
  100cac:	0f75                	addi	t5,t5,29
  100cae:	0000                	unimp
  100cb0:	0f75                	addi	t5,t5,29
  100cb2:	0000                	unimp
  100cb4:	0f75                	addi	t5,t5,29
  100cb6:	0000                	unimp
  100cb8:	0f75                	addi	t5,t5,29
  100cba:	0000                	unimp
  100cbc:	0f75                	addi	t5,t5,29
  100cbe:	0000                	unimp
  100cc0:	0fa2                	slli	t6,t6,0x8
  100cc2:	0000                	unimp
  100cc4:	0fa2                	slli	t6,t6,0x8
  100cc6:	0000                	unimp
  100cc8:	0fa2                	slli	t6,t6,0x8
  100cca:	0000                	unimp
  100ccc:	0fa2                	slli	t6,t6,0x8
  100cce:	0000                	unimp
  100cd0:	0fa2                	slli	t6,t6,0x8
  100cd2:	0000                	unimp
  100cd4:	0fa2                	slli	t6,t6,0x8
  100cd6:	0000                	unimp
  100cd8:	0fa2                	slli	t6,t6,0x8
  100cda:	0000                	unimp
  100cdc:	0fa2                	slli	t6,t6,0x8
  100cde:	0000                	unimp
  100ce0:	0fa2                	slli	t6,t6,0x8
  100ce2:	0000                	unimp
  100ce4:	0fa2                	slli	t6,t6,0x8
  100ce6:	0000                	unimp
  100ce8:	0fa2                	slli	t6,t6,0x8
  100cea:	0000                	unimp
  100cec:	0fa2                	slli	t6,t6,0x8
  100cee:	0000                	unimp
  100cf0:	0fa2                	slli	t6,t6,0x8
  100cf2:	0000                	unimp
  100cf4:	0fa2                	slli	t6,t6,0x8
  100cf6:	0000                	unimp
  100cf8:	0fa2                	slli	t6,t6,0x8
  100cfa:	0000                	unimp
  100cfc:	0fa2                	slli	t6,t6,0x8
  100cfe:	0000                	unimp
  100d00:	00000fcf          	fnmadd.s	ft11,ft0,ft0,ft0,rne
  100d04:	00000fcf          	fnmadd.s	ft11,ft0,ft0,ft0,rne
  100d08:	00000fcf          	fnmadd.s	ft11,ft0,ft0,ft0,rne
  100d0c:	00000fcf          	fnmadd.s	ft11,ft0,ft0,ft0,rne
  100d10:	00000fcf          	fnmadd.s	ft11,ft0,ft0,ft0,rne
  100d14:	00000fcf          	fnmadd.s	ft11,ft0,ft0,ft0,rne
  100d18:	00000fcf          	fnmadd.s	ft11,ft0,ft0,ft0,rne
  100d1c:	00000fcf          	fnmadd.s	ft11,ft0,ft0,ft0,rne
  100d20:	00000fcf          	fnmadd.s	ft11,ft0,ft0,ft0,rne
  100d24:	00000fcf          	fnmadd.s	ft11,ft0,ft0,ft0,rne
  100d28:	00000fcf          	fnmadd.s	ft11,ft0,ft0,ft0,rne
  100d2c:	00000fcf          	fnmadd.s	ft11,ft0,ft0,ft0,rne
  100d30:	00000fcf          	fnmadd.s	ft11,ft0,ft0,ft0,rne
  100d34:	00000fcf          	fnmadd.s	ft11,ft0,ft0,ft0,rne
  100d38:	00000fcf          	fnmadd.s	ft11,ft0,ft0,ft0,rne
  100d3c:	00000fcf          	fnmadd.s	ft11,ft0,ft0,ft0,rne
  100d40:	0ffc                	addi	a5,sp,988
  100d42:	0000                	unimp
  100d44:	0ffc                	addi	a5,sp,988
  100d46:	0000                	unimp
  100d48:	0ffc                	addi	a5,sp,988
  100d4a:	0000                	unimp
  100d4c:	0ffc                	addi	a5,sp,988
  100d4e:	0000                	unimp
  100d50:	0ffc                	addi	a5,sp,988
  100d52:	0000                	unimp
  100d54:	0ffc                	addi	a5,sp,988
  100d56:	0000                	unimp
  100d58:	0ffc                	addi	a5,sp,988
  100d5a:	0000                	unimp
  100d5c:	0ffc                	addi	a5,sp,988
  100d5e:	0000                	unimp
  100d60:	0ffc                	addi	a5,sp,988
  100d62:	0000                	unimp
  100d64:	0ffc                	addi	a5,sp,988
  100d66:	0000                	unimp
  100d68:	0ffc                	addi	a5,sp,988
  100d6a:	0000                	unimp
  100d6c:	0ffc                	addi	a5,sp,988
  100d6e:	0000                	unimp
  100d70:	0ffc                	addi	a5,sp,988
  100d72:	0000                	unimp
  100d74:	0ffc                	addi	a5,sp,988
  100d76:	0000                	unimp
  100d78:	0ffc                	addi	a5,sp,988
  100d7a:	0000                	unimp
  100d7c:	0ffc                	addi	a5,sp,988
  100d7e:	0000                	unimp
  100d80:	1029                	c.nop	-22
  100d82:	0000                	unimp
  100d84:	1029                	c.nop	-22
  100d86:	0000                	unimp
  100d88:	1029                	c.nop	-22
  100d8a:	0000                	unimp
  100d8c:	1029                	c.nop	-22
  100d8e:	0000                	unimp
  100d90:	1029                	c.nop	-22
  100d92:	0000                	unimp
  100d94:	1029                	c.nop	-22
  100d96:	0000                	unimp
  100d98:	1029                	c.nop	-22
  100d9a:	0000                	unimp
  100d9c:	1029                	c.nop	-22
  100d9e:	0000                	unimp
  100da0:	1029                	c.nop	-22
  100da2:	0000                	unimp
  100da4:	1029                	c.nop	-22
  100da6:	0000                	unimp
  100da8:	1029                	c.nop	-22
  100daa:	0000                	unimp
  100dac:	1029                	c.nop	-22
  100dae:	0000                	unimp
  100db0:	1029                	c.nop	-22
  100db2:	0000                	unimp
  100db4:	1029                	c.nop	-22
  100db6:	0000                	unimp
  100db8:	1029                	c.nop	-22
  100dba:	0000                	unimp
  100dbc:	1029                	c.nop	-22
  100dbe:	0000                	unimp
  100dc0:	1056                	c.slli	zero,0x35
  100dc2:	0000                	unimp
  100dc4:	1056                	c.slli	zero,0x35
  100dc6:	0000                	unimp
  100dc8:	1056                	c.slli	zero,0x35
  100dca:	0000                	unimp
  100dcc:	1056                	c.slli	zero,0x35
  100dce:	0000                	unimp
  100dd0:	1056                	c.slli	zero,0x35
  100dd2:	0000                	unimp
  100dd4:	1056                	c.slli	zero,0x35
  100dd6:	0000                	unimp
  100dd8:	1056                	c.slli	zero,0x35
  100dda:	0000                	unimp
  100ddc:	1056                	c.slli	zero,0x35
  100dde:	0000                	unimp
  100de0:	1056                	c.slli	zero,0x35
  100de2:	0000                	unimp
  100de4:	1056                	c.slli	zero,0x35
  100de6:	0000                	unimp
  100de8:	1056                	c.slli	zero,0x35
  100dea:	0000                	unimp
  100dec:	1056                	c.slli	zero,0x35
  100dee:	0000                	unimp
  100df0:	1056                	c.slli	zero,0x35
  100df2:	0000                	unimp
  100df4:	1056                	c.slli	zero,0x35
  100df6:	0000                	unimp
  100df8:	1056                	c.slli	zero,0x35
  100dfa:	0000                	unimp
  100dfc:	1056                	c.slli	zero,0x35
  100dfe:	0000                	unimp
  100e00:	00001083          	lh	ra,0(zero) # 0 <boot>
  100e04:	00001083          	lh	ra,0(zero) # 0 <boot>
  100e08:	00001083          	lh	ra,0(zero) # 0 <boot>
  100e0c:	00001083          	lh	ra,0(zero) # 0 <boot>
  100e10:	00001083          	lh	ra,0(zero) # 0 <boot>
  100e14:	00001083          	lh	ra,0(zero) # 0 <boot>
  100e18:	00001083          	lh	ra,0(zero) # 0 <boot>
  100e1c:	00001083          	lh	ra,0(zero) # 0 <boot>
  100e20:	00001083          	lh	ra,0(zero) # 0 <boot>
  100e24:	00001083          	lh	ra,0(zero) # 0 <boot>
  100e28:	00001083          	lh	ra,0(zero) # 0 <boot>
  100e2c:	00001083          	lh	ra,0(zero) # 0 <boot>
  100e30:	00001083          	lh	ra,0(zero) # 0 <boot>
  100e34:	00001083          	lh	ra,0(zero) # 0 <boot>
  100e38:	00001083          	lh	ra,0(zero) # 0 <boot>
  100e3c:	00001083          	lh	ra,0(zero) # 0 <boot>
  100e40:	10b0                	addi	a2,sp,104
  100e42:	0000                	unimp
  100e44:	10b0                	addi	a2,sp,104
  100e46:	0000                	unimp
  100e48:	10b0                	addi	a2,sp,104
  100e4a:	0000                	unimp
  100e4c:	10b0                	addi	a2,sp,104
  100e4e:	0000                	unimp
  100e50:	10b0                	addi	a2,sp,104
  100e52:	0000                	unimp
  100e54:	10b0                	addi	a2,sp,104
  100e56:	0000                	unimp
  100e58:	10b0                	addi	a2,sp,104
  100e5a:	0000                	unimp
  100e5c:	10b0                	addi	a2,sp,104
  100e5e:	0000                	unimp
  100e60:	10b0                	addi	a2,sp,104
  100e62:	0000                	unimp
  100e64:	10b0                	addi	a2,sp,104
  100e66:	0000                	unimp
  100e68:	10b0                	addi	a2,sp,104
  100e6a:	0000                	unimp
  100e6c:	10b0                	addi	a2,sp,104
  100e6e:	0000                	unimp
  100e70:	10b0                	addi	a2,sp,104
  100e72:	0000                	unimp
  100e74:	10b0                	addi	a2,sp,104
  100e76:	0000                	unimp
  100e78:	10b0                	addi	a2,sp,104
  100e7a:	0000                	unimp
  100e7c:	10b0                	addi	a2,sp,104
  100e7e:	0000                	unimp
  100e80:	10dd                	addi	ra,ra,-9
  100e82:	0000                	unimp
  100e84:	10dd                	addi	ra,ra,-9
  100e86:	0000                	unimp
  100e88:	10dd                	addi	ra,ra,-9
  100e8a:	0000                	unimp
  100e8c:	10dd                	addi	ra,ra,-9
  100e8e:	0000                	unimp
  100e90:	10dd                	addi	ra,ra,-9
  100e92:	0000                	unimp
  100e94:	10dd                	addi	ra,ra,-9
  100e96:	0000                	unimp
  100e98:	10dd                	addi	ra,ra,-9
  100e9a:	0000                	unimp
  100e9c:	10dd                	addi	ra,ra,-9
  100e9e:	0000                	unimp
  100ea0:	10dd                	addi	ra,ra,-9
  100ea2:	0000                	unimp
  100ea4:	10dd                	addi	ra,ra,-9
  100ea6:	0000                	unimp
  100ea8:	10dd                	addi	ra,ra,-9
  100eaa:	0000                	unimp
  100eac:	10dd                	addi	ra,ra,-9
  100eae:	0000                	unimp
  100eb0:	10dd                	addi	ra,ra,-9
  100eb2:	0000                	unimp
  100eb4:	10dd                	addi	ra,ra,-9
  100eb6:	0000                	unimp
  100eb8:	10dd                	addi	ra,ra,-9
  100eba:	0000                	unimp
  100ebc:	10dd                	addi	ra,ra,-9
  100ebe:	0000                	unimp
  100ec0:	110a                	slli	sp,sp,0x22
  100ec2:	0000                	unimp
  100ec4:	110a                	slli	sp,sp,0x22
  100ec6:	0000                	unimp
  100ec8:	110a                	slli	sp,sp,0x22
  100eca:	0000                	unimp
  100ecc:	110a                	slli	sp,sp,0x22
  100ece:	0000                	unimp
  100ed0:	110a                	slli	sp,sp,0x22
  100ed2:	0000                	unimp
  100ed4:	110a                	slli	sp,sp,0x22
  100ed6:	0000                	unimp
  100ed8:	110a                	slli	sp,sp,0x22
  100eda:	0000                	unimp
  100edc:	110a                	slli	sp,sp,0x22
  100ede:	0000                	unimp
  100ee0:	110a                	slli	sp,sp,0x22
  100ee2:	0000                	unimp
  100ee4:	110a                	slli	sp,sp,0x22
  100ee6:	0000                	unimp
  100ee8:	110a                	slli	sp,sp,0x22
  100eea:	0000                	unimp
  100eec:	110a                	slli	sp,sp,0x22
  100eee:	0000                	unimp
  100ef0:	110a                	slli	sp,sp,0x22
  100ef2:	0000                	unimp
  100ef4:	110a                	slli	sp,sp,0x22
  100ef6:	0000                	unimp
  100ef8:	110a                	slli	sp,sp,0x22
  100efa:	0000                	unimp
  100efc:	110a                	slli	sp,sp,0x22
  100efe:	0000                	unimp
  100f00:	00001137          	lui	sp,0x1
  100f04:	00001137          	lui	sp,0x1
  100f08:	00001137          	lui	sp,0x1
  100f0c:	00001137          	lui	sp,0x1
  100f10:	00001137          	lui	sp,0x1
  100f14:	00001137          	lui	sp,0x1
  100f18:	00001137          	lui	sp,0x1
  100f1c:	00001137          	lui	sp,0x1
  100f20:	00001137          	lui	sp,0x1
  100f24:	00001137          	lui	sp,0x1
  100f28:	00001137          	lui	sp,0x1
  100f2c:	00001137          	lui	sp,0x1
  100f30:	00001137          	lui	sp,0x1
  100f34:	00001137          	lui	sp,0x1
  100f38:	00001137          	lui	sp,0x1
  100f3c:	00001137          	lui	sp,0x1
  100f40:	1164                	addi	s1,sp,172
  100f42:	0000                	unimp
  100f44:	1164                	addi	s1,sp,172
  100f46:	0000                	unimp
  100f48:	1164                	addi	s1,sp,172
  100f4a:	0000                	unimp
  100f4c:	1164                	addi	s1,sp,172
  100f4e:	0000                	unimp
  100f50:	1164                	addi	s1,sp,172
  100f52:	0000                	unimp
  100f54:	1164                	addi	s1,sp,172
  100f56:	0000                	unimp
  100f58:	1164                	addi	s1,sp,172
  100f5a:	0000                	unimp
  100f5c:	1164                	addi	s1,sp,172
  100f5e:	0000                	unimp
  100f60:	1164                	addi	s1,sp,172
  100f62:	0000                	unimp
  100f64:	1164                	addi	s1,sp,172
  100f66:	0000                	unimp
  100f68:	1164                	addi	s1,sp,172
  100f6a:	0000                	unimp
  100f6c:	1164                	addi	s1,sp,172
  100f6e:	0000                	unimp
  100f70:	1164                	addi	s1,sp,172
  100f72:	0000                	unimp
  100f74:	1164                	addi	s1,sp,172
  100f76:	0000                	unimp
  100f78:	1164                	addi	s1,sp,172
  100f7a:	0000                	unimp
  100f7c:	1164                	addi	s1,sp,172
  100f7e:	0000                	unimp
  100f80:	1191                	addi	gp,gp,-28
  100f82:	0000                	unimp
  100f84:	1191                	addi	gp,gp,-28
  100f86:	0000                	unimp
  100f88:	1191                	addi	gp,gp,-28
  100f8a:	0000                	unimp
  100f8c:	1191                	addi	gp,gp,-28
  100f8e:	0000                	unimp
  100f90:	1191                	addi	gp,gp,-28
  100f92:	0000                	unimp
  100f94:	1191                	addi	gp,gp,-28
  100f96:	0000                	unimp
  100f98:	1191                	addi	gp,gp,-28
  100f9a:	0000                	unimp
  100f9c:	1191                	addi	gp,gp,-28
  100f9e:	0000                	unimp
  100fa0:	1191                	addi	gp,gp,-28
  100fa2:	0000                	unimp
  100fa4:	1191                	addi	gp,gp,-28
  100fa6:	0000                	unimp
  100fa8:	1191                	addi	gp,gp,-28
  100faa:	0000                	unimp
  100fac:	1191                	addi	gp,gp,-28
  100fae:	0000                	unimp
  100fb0:	1191                	addi	gp,gp,-28
  100fb2:	0000                	unimp
  100fb4:	1191                	addi	gp,gp,-28
  100fb6:	0000                	unimp
  100fb8:	1191                	addi	gp,gp,-28
  100fba:	0000                	unimp
  100fbc:	1191                	addi	gp,gp,-28
  100fbe:	0000                	unimp
  100fc0:	11be                	slli	gp,gp,0x2f
  100fc2:	0000                	unimp
  100fc4:	11be                	slli	gp,gp,0x2f
  100fc6:	0000                	unimp
  100fc8:	11be                	slli	gp,gp,0x2f
  100fca:	0000                	unimp
  100fcc:	11be                	slli	gp,gp,0x2f
  100fce:	0000                	unimp
  100fd0:	11be                	slli	gp,gp,0x2f
  100fd2:	0000                	unimp
  100fd4:	11be                	slli	gp,gp,0x2f
  100fd6:	0000                	unimp
  100fd8:	11be                	slli	gp,gp,0x2f
  100fda:	0000                	unimp
  100fdc:	11be                	slli	gp,gp,0x2f
  100fde:	0000                	unimp
  100fe0:	11be                	slli	gp,gp,0x2f
  100fe2:	0000                	unimp
  100fe4:	11be                	slli	gp,gp,0x2f
  100fe6:	0000                	unimp
  100fe8:	11be                	slli	gp,gp,0x2f
  100fea:	0000                	unimp
  100fec:	11be                	slli	gp,gp,0x2f
  100fee:	0000                	unimp
  100ff0:	11be                	slli	gp,gp,0x2f
  100ff2:	0000                	unimp
  100ff4:	11be                	slli	gp,gp,0x2f
  100ff6:	0000                	unimp
  100ff8:	11be                	slli	gp,gp,0x2f
  100ffa:	0000                	unimp
  100ffc:	11be                	slli	gp,gp,0x2f
  100ffe:	0000                	unimp
  101000:	000011eb          	0x11eb
  101004:	000011eb          	0x11eb
  101008:	000011eb          	0x11eb
  10100c:	000011eb          	0x11eb
  101010:	000011eb          	0x11eb
  101014:	000011eb          	0x11eb
  101018:	000011eb          	0x11eb
  10101c:	000011eb          	0x11eb
  101020:	000011eb          	0x11eb
  101024:	000011eb          	0x11eb
  101028:	000011eb          	0x11eb
  10102c:	000011eb          	0x11eb
  101030:	000011eb          	0x11eb
  101034:	000011eb          	0x11eb
  101038:	000011eb          	0x11eb
  10103c:	000011eb          	0x11eb
  101040:	1218                	addi	a4,sp,288
  101042:	0000                	unimp
  101044:	1218                	addi	a4,sp,288
  101046:	0000                	unimp
  101048:	1218                	addi	a4,sp,288
  10104a:	0000                	unimp
  10104c:	1218                	addi	a4,sp,288
  10104e:	0000                	unimp
  101050:	1218                	addi	a4,sp,288
  101052:	0000                	unimp
  101054:	1218                	addi	a4,sp,288
  101056:	0000                	unimp
  101058:	1218                	addi	a4,sp,288
  10105a:	0000                	unimp
  10105c:	1218                	addi	a4,sp,288
  10105e:	0000                	unimp
  101060:	1218                	addi	a4,sp,288
  101062:	0000                	unimp
  101064:	1218                	addi	a4,sp,288
  101066:	0000                	unimp
  101068:	1218                	addi	a4,sp,288
  10106a:	0000                	unimp
  10106c:	1218                	addi	a4,sp,288
  10106e:	0000                	unimp
  101070:	1218                	addi	a4,sp,288
  101072:	0000                	unimp
  101074:	1218                	addi	a4,sp,288
  101076:	0000                	unimp
  101078:	1218                	addi	a4,sp,288
  10107a:	0000                	unimp
  10107c:	1218                	addi	a4,sp,288
  10107e:	0000                	unimp
  101080:	1245                	addi	tp,tp,-15
  101082:	0000                	unimp
  101084:	1245                	addi	tp,tp,-15
  101086:	0000                	unimp
  101088:	1245                	addi	tp,tp,-15
  10108a:	0000                	unimp
  10108c:	1245                	addi	tp,tp,-15
  10108e:	0000                	unimp
  101090:	1245                	addi	tp,tp,-15
  101092:	0000                	unimp
  101094:	1245                	addi	tp,tp,-15
  101096:	0000                	unimp
  101098:	1245                	addi	tp,tp,-15
  10109a:	0000                	unimp
  10109c:	1245                	addi	tp,tp,-15
  10109e:	0000                	unimp
  1010a0:	1245                	addi	tp,tp,-15
  1010a2:	0000                	unimp
  1010a4:	1245                	addi	tp,tp,-15
  1010a6:	0000                	unimp
  1010a8:	1245                	addi	tp,tp,-15
  1010aa:	0000                	unimp
  1010ac:	1245                	addi	tp,tp,-15
  1010ae:	0000                	unimp
  1010b0:	1245                	addi	tp,tp,-15
  1010b2:	0000                	unimp
  1010b4:	1245                	addi	tp,tp,-15
  1010b6:	0000                	unimp
  1010b8:	1245                	addi	tp,tp,-15
  1010ba:	0000                	unimp
  1010bc:	1245                	addi	tp,tp,-15
  1010be:	0000                	unimp
  1010c0:	1272                	slli	tp,tp,0x3c
  1010c2:	0000                	unimp
  1010c4:	1272                	slli	tp,tp,0x3c
  1010c6:	0000                	unimp
  1010c8:	1272                	slli	tp,tp,0x3c
  1010ca:	0000                	unimp
  1010cc:	1272                	slli	tp,tp,0x3c
  1010ce:	0000                	unimp
  1010d0:	1272                	slli	tp,tp,0x3c
  1010d2:	0000                	unimp
  1010d4:	1272                	slli	tp,tp,0x3c
  1010d6:	0000                	unimp
  1010d8:	1272                	slli	tp,tp,0x3c
  1010da:	0000                	unimp
  1010dc:	1272                	slli	tp,tp,0x3c
  1010de:	0000                	unimp
  1010e0:	1272                	slli	tp,tp,0x3c
  1010e2:	0000                	unimp
  1010e4:	1272                	slli	tp,tp,0x3c
  1010e6:	0000                	unimp
  1010e8:	1272                	slli	tp,tp,0x3c
  1010ea:	0000                	unimp
  1010ec:	1272                	slli	tp,tp,0x3c
  1010ee:	0000                	unimp
  1010f0:	1272                	slli	tp,tp,0x3c
  1010f2:	0000                	unimp
  1010f4:	1272                	slli	tp,tp,0x3c
  1010f6:	0000                	unimp
  1010f8:	1272                	slli	tp,tp,0x3c
  1010fa:	0000                	unimp
  1010fc:	1272                	slli	tp,tp,0x3c
  1010fe:	0000                	unimp
  101100:	129f 0000 129f      	0x129f0000129f
  101106:	0000                	unimp
  101108:	129f 0000 129f      	0x129f0000129f
  10110e:	0000                	unimp
  101110:	129f 0000 129f      	0x129f0000129f
  101116:	0000                	unimp
  101118:	129f 0000 129f      	0x129f0000129f
  10111e:	0000                	unimp
  101120:	129f 0000 129f      	0x129f0000129f
  101126:	0000                	unimp
  101128:	129f 0000 129f      	0x129f0000129f
  10112e:	0000                	unimp
  101130:	129f 0000 129f      	0x129f0000129f
  101136:	0000                	unimp
  101138:	129f 0000 129f      	0x129f0000129f
  10113e:	0000                	unimp
  101140:	12cc                	addi	a1,sp,356
  101142:	0000                	unimp
  101144:	12cc                	addi	a1,sp,356
  101146:	0000                	unimp
  101148:	12cc                	addi	a1,sp,356
  10114a:	0000                	unimp
  10114c:	12cc                	addi	a1,sp,356
  10114e:	0000                	unimp
  101150:	12cc                	addi	a1,sp,356
  101152:	0000                	unimp
  101154:	12cc                	addi	a1,sp,356
  101156:	0000                	unimp
  101158:	12cc                	addi	a1,sp,356
  10115a:	0000                	unimp
  10115c:	12cc                	addi	a1,sp,356
  10115e:	0000                	unimp
  101160:	12cc                	addi	a1,sp,356
  101162:	0000                	unimp
  101164:	12cc                	addi	a1,sp,356
  101166:	0000                	unimp
  101168:	12cc                	addi	a1,sp,356
  10116a:	0000                	unimp
  10116c:	12cc                	addi	a1,sp,356
  10116e:	0000                	unimp
  101170:	12cc                	addi	a1,sp,356
  101172:	0000                	unimp
  101174:	12cc                	addi	a1,sp,356
  101176:	0000                	unimp
  101178:	12cc                	addi	a1,sp,356
  10117a:	0000                	unimp
  10117c:	12cc                	addi	a1,sp,356
  10117e:	0000                	unimp
  101180:	00001353          	fadd.s	ft6,ft0,ft0,rtz
  101184:	00001353          	fadd.s	ft6,ft0,ft0,rtz
  101188:	00001353          	fadd.s	ft6,ft0,ft0,rtz
  10118c:	00001353          	fadd.s	ft6,ft0,ft0,rtz
  101190:	00001353          	fadd.s	ft6,ft0,ft0,rtz
  101194:	00001353          	fadd.s	ft6,ft0,ft0,rtz
  101198:	00001353          	fadd.s	ft6,ft0,ft0,rtz
  10119c:	00001353          	fadd.s	ft6,ft0,ft0,rtz
  1011a0:	00001353          	fadd.s	ft6,ft0,ft0,rtz
  1011a4:	00001353          	fadd.s	ft6,ft0,ft0,rtz
  1011a8:	00001353          	fadd.s	ft6,ft0,ft0,rtz
  1011ac:	00001353          	fadd.s	ft6,ft0,ft0,rtz
  1011b0:	00001353          	fadd.s	ft6,ft0,ft0,rtz
  1011b4:	00001353          	fadd.s	ft6,ft0,ft0,rtz
  1011b8:	00001353          	fadd.s	ft6,ft0,ft0,rtz
  1011bc:	00001353          	fadd.s	ft6,ft0,ft0,rtz
  1011c0:	1380                	addi	s0,sp,480
  1011c2:	0000                	unimp
  1011c4:	1380                	addi	s0,sp,480
  1011c6:	0000                	unimp
  1011c8:	1380                	addi	s0,sp,480
  1011ca:	0000                	unimp
  1011cc:	1380                	addi	s0,sp,480
  1011ce:	0000                	unimp
  1011d0:	1380                	addi	s0,sp,480
  1011d2:	0000                	unimp
  1011d4:	1380                	addi	s0,sp,480
  1011d6:	0000                	unimp
  1011d8:	1380                	addi	s0,sp,480
  1011da:	0000                	unimp
  1011dc:	1380                	addi	s0,sp,480
  1011de:	0000                	unimp
  1011e0:	1380                	addi	s0,sp,480
  1011e2:	0000                	unimp
  1011e4:	1380                	addi	s0,sp,480
  1011e6:	0000                	unimp
  1011e8:	1380                	addi	s0,sp,480
  1011ea:	0000                	unimp
  1011ec:	1380                	addi	s0,sp,480
  1011ee:	0000                	unimp
  1011f0:	1380                	addi	s0,sp,480
  1011f2:	0000                	unimp
  1011f4:	1380                	addi	s0,sp,480
  1011f6:	0000                	unimp
  1011f8:	1380                	addi	s0,sp,480
  1011fa:	0000                	unimp
  1011fc:	1380                	addi	s0,sp,480
  1011fe:	0000                	unimp
  101200:	13ad                	addi	t2,t2,-21
  101202:	0000                	unimp
  101204:	13ad                	addi	t2,t2,-21
  101206:	0000                	unimp
  101208:	13ad                	addi	t2,t2,-21
  10120a:	0000                	unimp
  10120c:	13ad                	addi	t2,t2,-21
  10120e:	0000                	unimp
  101210:	13ad                	addi	t2,t2,-21
  101212:	0000                	unimp
  101214:	13ad                	addi	t2,t2,-21
  101216:	0000                	unimp
  101218:	13ad                	addi	t2,t2,-21
  10121a:	0000                	unimp
  10121c:	13ad                	addi	t2,t2,-21
  10121e:	0000                	unimp
  101220:	13ad                	addi	t2,t2,-21
  101222:	0000                	unimp
  101224:	13ad                	addi	t2,t2,-21
  101226:	0000                	unimp
  101228:	13ad                	addi	t2,t2,-21
  10122a:	0000                	unimp
  10122c:	13ad                	addi	t2,t2,-21
  10122e:	0000                	unimp
  101230:	13ad                	addi	t2,t2,-21
  101232:	0000                	unimp
  101234:	13ad                	addi	t2,t2,-21
  101236:	0000                	unimp
  101238:	13ad                	addi	t2,t2,-21
  10123a:	0000                	unimp
  10123c:	13ad                	addi	t2,t2,-21
  10123e:	0000                	unimp
  101240:	13da                	slli	t2,t2,0x36
  101242:	0000                	unimp
  101244:	13da                	slli	t2,t2,0x36
  101246:	0000                	unimp
  101248:	13da                	slli	t2,t2,0x36
  10124a:	0000                	unimp
  10124c:	13da                	slli	t2,t2,0x36
  10124e:	0000                	unimp
  101250:	13da                	slli	t2,t2,0x36
  101252:	0000                	unimp
  101254:	13da                	slli	t2,t2,0x36
  101256:	0000                	unimp
  101258:	13da                	slli	t2,t2,0x36
  10125a:	0000                	unimp
  10125c:	13da                	slli	t2,t2,0x36
  10125e:	0000                	unimp
  101260:	13da                	slli	t2,t2,0x36
  101262:	0000                	unimp
  101264:	13da                	slli	t2,t2,0x36
  101266:	0000                	unimp
  101268:	13da                	slli	t2,t2,0x36
  10126a:	0000                	unimp
  10126c:	13da                	slli	t2,t2,0x36
  10126e:	0000                	unimp
  101270:	13da                	slli	t2,t2,0x36
  101272:	0000                	unimp
  101274:	13da                	slli	t2,t2,0x36
  101276:	0000                	unimp
  101278:	13da                	slli	t2,t2,0x36
  10127a:	0000                	unimp
  10127c:	13da                	slli	t2,t2,0x36
  10127e:	0000                	unimp
  101280:	00001407          	flh	fs0,0(zero) # 0 <boot>
  101284:	00001407          	flh	fs0,0(zero) # 0 <boot>
  101288:	00001407          	flh	fs0,0(zero) # 0 <boot>
  10128c:	00001407          	flh	fs0,0(zero) # 0 <boot>
  101290:	00001407          	flh	fs0,0(zero) # 0 <boot>
  101294:	00001407          	flh	fs0,0(zero) # 0 <boot>
  101298:	00001407          	flh	fs0,0(zero) # 0 <boot>
  10129c:	00001407          	flh	fs0,0(zero) # 0 <boot>
  1012a0:	00001407          	flh	fs0,0(zero) # 0 <boot>
  1012a4:	00001407          	flh	fs0,0(zero) # 0 <boot>
  1012a8:	00001407          	flh	fs0,0(zero) # 0 <boot>
  1012ac:	00001407          	flh	fs0,0(zero) # 0 <boot>
  1012b0:	00001407          	flh	fs0,0(zero) # 0 <boot>
  1012b4:	00001407          	flh	fs0,0(zero) # 0 <boot>
  1012b8:	00001407          	flh	fs0,0(zero) # 0 <boot>
  1012bc:	00001407          	flh	fs0,0(zero) # 0 <boot>
  1012c0:	1434                	addi	a3,sp,552
  1012c2:	0000                	unimp
  1012c4:	1434                	addi	a3,sp,552
  1012c6:	0000                	unimp
  1012c8:	1434                	addi	a3,sp,552
  1012ca:	0000                	unimp
  1012cc:	1434                	addi	a3,sp,552
  1012ce:	0000                	unimp
  1012d0:	1434                	addi	a3,sp,552
  1012d2:	0000                	unimp
  1012d4:	1434                	addi	a3,sp,552
  1012d6:	0000                	unimp
  1012d8:	1434                	addi	a3,sp,552
  1012da:	0000                	unimp
  1012dc:	1434                	addi	a3,sp,552
  1012de:	0000                	unimp
  1012e0:	1434                	addi	a3,sp,552
  1012e2:	0000                	unimp
  1012e4:	1434                	addi	a3,sp,552
  1012e6:	0000                	unimp
  1012e8:	1434                	addi	a3,sp,552
  1012ea:	0000                	unimp
  1012ec:	1434                	addi	a3,sp,552
  1012ee:	0000                	unimp
  1012f0:	1434                	addi	a3,sp,552
  1012f2:	0000                	unimp
  1012f4:	1434                	addi	a3,sp,552
  1012f6:	0000                	unimp
  1012f8:	1434                	addi	a3,sp,552
  1012fa:	0000                	unimp
  1012fc:	1434                	addi	a3,sp,552
  1012fe:	0000                	unimp
  101300:	1461                	addi	s0,s0,-8
  101302:	0000                	unimp
  101304:	1461                	addi	s0,s0,-8
  101306:	0000                	unimp
  101308:	1461                	addi	s0,s0,-8
  10130a:	0000                	unimp
  10130c:	1461                	addi	s0,s0,-8
  10130e:	0000                	unimp
  101310:	1461                	addi	s0,s0,-8
  101312:	0000                	unimp
  101314:	1461                	addi	s0,s0,-8
  101316:	0000                	unimp
  101318:	1461                	addi	s0,s0,-8
  10131a:	0000                	unimp
  10131c:	1461                	addi	s0,s0,-8
  10131e:	0000                	unimp
  101320:	1461                	addi	s0,s0,-8
  101322:	0000                	unimp
  101324:	1461                	addi	s0,s0,-8
  101326:	0000                	unimp
  101328:	1461                	addi	s0,s0,-8
  10132a:	0000                	unimp
  10132c:	1461                	addi	s0,s0,-8
  10132e:	0000                	unimp
  101330:	1461                	addi	s0,s0,-8
  101332:	0000                	unimp
  101334:	1461                	addi	s0,s0,-8
  101336:	0000                	unimp
  101338:	1461                	addi	s0,s0,-8
  10133a:	0000                	unimp
  10133c:	1461                	addi	s0,s0,-8
  10133e:	0000                	unimp
  101340:	148e                	slli	s1,s1,0x23
  101342:	0000                	unimp
  101344:	148e                	slli	s1,s1,0x23
  101346:	0000                	unimp
  101348:	148e                	slli	s1,s1,0x23
  10134a:	0000                	unimp
  10134c:	148e                	slli	s1,s1,0x23
  10134e:	0000                	unimp
  101350:	148e                	slli	s1,s1,0x23
  101352:	0000                	unimp
  101354:	148e                	slli	s1,s1,0x23
  101356:	0000                	unimp
  101358:	148e                	slli	s1,s1,0x23
  10135a:	0000                	unimp
  10135c:	148e                	slli	s1,s1,0x23
  10135e:	0000                	unimp
  101360:	148e                	slli	s1,s1,0x23
  101362:	0000                	unimp
  101364:	148e                	slli	s1,s1,0x23
  101366:	0000                	unimp
  101368:	148e                	slli	s1,s1,0x23
  10136a:	0000                	unimp
  10136c:	148e                	slli	s1,s1,0x23
  10136e:	0000                	unimp
  101370:	148e                	slli	s1,s1,0x23
  101372:	0000                	unimp
  101374:	148e                	slli	s1,s1,0x23
  101376:	0000                	unimp
  101378:	148e                	slli	s1,s1,0x23
  10137a:	0000                	unimp
  10137c:	148e                	slli	s1,s1,0x23
  10137e:	0000                	unimp
  101380:	000014bb          	0x14bb
  101384:	000014bb          	0x14bb
  101388:	000014bb          	0x14bb
  10138c:	000014bb          	0x14bb
  101390:	000014bb          	0x14bb
  101394:	000014bb          	0x14bb
  101398:	000014bb          	0x14bb
  10139c:	000014bb          	0x14bb
  1013a0:	000014bb          	0x14bb
  1013a4:	000014bb          	0x14bb
  1013a8:	000014bb          	0x14bb
  1013ac:	000014bb          	0x14bb
  1013b0:	000014bb          	0x14bb
  1013b4:	000014bb          	0x14bb
  1013b8:	000014bb          	0x14bb
  1013bc:	000014bb          	0x14bb
  1013c0:	14e8                	addi	a0,sp,620
  1013c2:	0000                	unimp
  1013c4:	14e8                	addi	a0,sp,620
  1013c6:	0000                	unimp
  1013c8:	14e8                	addi	a0,sp,620
  1013ca:	0000                	unimp
  1013cc:	14e8                	addi	a0,sp,620
  1013ce:	0000                	unimp
  1013d0:	14e8                	addi	a0,sp,620
  1013d2:	0000                	unimp
  1013d4:	14e8                	addi	a0,sp,620
  1013d6:	0000                	unimp
  1013d8:	14e8                	addi	a0,sp,620
  1013da:	0000                	unimp
  1013dc:	14e8                	addi	a0,sp,620
  1013de:	0000                	unimp
  1013e0:	14e8                	addi	a0,sp,620
  1013e2:	0000                	unimp
  1013e4:	14e8                	addi	a0,sp,620
  1013e6:	0000                	unimp
  1013e8:	14e8                	addi	a0,sp,620
  1013ea:	0000                	unimp
  1013ec:	14e8                	addi	a0,sp,620
  1013ee:	0000                	unimp
  1013f0:	14e8                	addi	a0,sp,620
  1013f2:	0000                	unimp
  1013f4:	14e8                	addi	a0,sp,620
  1013f6:	0000                	unimp
  1013f8:	14e8                	addi	a0,sp,620
  1013fa:	0000                	unimp
  1013fc:	14e8                	addi	a0,sp,620
  1013fe:	0000                	unimp
  101400:	1515                	addi	a0,a0,-27
  101402:	0000                	unimp
  101404:	1515                	addi	a0,a0,-27
  101406:	0000                	unimp
  101408:	1515                	addi	a0,a0,-27
  10140a:	0000                	unimp
  10140c:	1515                	addi	a0,a0,-27
  10140e:	0000                	unimp
  101410:	1515                	addi	a0,a0,-27
  101412:	0000                	unimp
  101414:	1515                	addi	a0,a0,-27
  101416:	0000                	unimp
  101418:	1515                	addi	a0,a0,-27
  10141a:	0000                	unimp
  10141c:	1515                	addi	a0,a0,-27
  10141e:	0000                	unimp
  101420:	1515                	addi	a0,a0,-27
  101422:	0000                	unimp
  101424:	1515                	addi	a0,a0,-27
  101426:	0000                	unimp
  101428:	1515                	addi	a0,a0,-27
  10142a:	0000                	unimp
  10142c:	1515                	addi	a0,a0,-27
  10142e:	0000                	unimp
  101430:	1515                	addi	a0,a0,-27
  101432:	0000                	unimp
  101434:	1515                	addi	a0,a0,-27
  101436:	0000                	unimp
  101438:	1515                	addi	a0,a0,-27
  10143a:	0000                	unimp
  10143c:	1515                	addi	a0,a0,-27
  10143e:	0000                	unimp
  101440:	1542                	slli	a0,a0,0x30
  101442:	0000                	unimp
  101444:	1542                	slli	a0,a0,0x30
  101446:	0000                	unimp
  101448:	1542                	slli	a0,a0,0x30
  10144a:	0000                	unimp
  10144c:	1542                	slli	a0,a0,0x30
  10144e:	0000                	unimp
  101450:	1542                	slli	a0,a0,0x30
  101452:	0000                	unimp
  101454:	1542                	slli	a0,a0,0x30
  101456:	0000                	unimp
  101458:	1542                	slli	a0,a0,0x30
  10145a:	0000                	unimp
  10145c:	1542                	slli	a0,a0,0x30
  10145e:	0000                	unimp
  101460:	1542                	slli	a0,a0,0x30
  101462:	0000                	unimp
  101464:	1542                	slli	a0,a0,0x30
  101466:	0000                	unimp
  101468:	1542                	slli	a0,a0,0x30
  10146a:	0000                	unimp
  10146c:	1542                	slli	a0,a0,0x30
  10146e:	0000                	unimp
  101470:	1542                	slli	a0,a0,0x30
  101472:	0000                	unimp
  101474:	1542                	slli	a0,a0,0x30
  101476:	0000                	unimp
  101478:	1542                	slli	a0,a0,0x30
  10147a:	0000                	unimp
  10147c:	1542                	slli	a0,a0,0x30
  10147e:	0000                	unimp
  101480:	0000156f          	jal	a0,102480 <expected_output+0x2200>
  101484:	0000156f          	jal	a0,102484 <expected_output+0x2204>
  101488:	0000156f          	jal	a0,102488 <expected_output+0x2208>
  10148c:	0000156f          	jal	a0,10248c <expected_output+0x220c>
  101490:	0000156f          	jal	a0,102490 <expected_output+0x2210>
  101494:	0000156f          	jal	a0,102494 <expected_output+0x2214>
  101498:	0000156f          	jal	a0,102498 <expected_output+0x2218>
  10149c:	0000156f          	jal	a0,10249c <expected_output+0x221c>
  1014a0:	0000156f          	jal	a0,1024a0 <expected_output+0x2220>
  1014a4:	0000156f          	jal	a0,1024a4 <expected_output+0x2224>
  1014a8:	0000156f          	jal	a0,1024a8 <expected_output+0x2228>
  1014ac:	0000156f          	jal	a0,1024ac <expected_output+0x222c>
  1014b0:	0000156f          	jal	a0,1024b0 <expected_output+0x2230>
  1014b4:	0000156f          	jal	a0,1024b4 <expected_output+0x2234>
  1014b8:	0000156f          	jal	a0,1024b8 <expected_output+0x2238>
  1014bc:	0000156f          	jal	a0,1024bc <expected_output+0x223c>
  1014c0:	159c                	addi	a5,sp,736
  1014c2:	0000                	unimp
  1014c4:	159c                	addi	a5,sp,736
  1014c6:	0000                	unimp
  1014c8:	159c                	addi	a5,sp,736
  1014ca:	0000                	unimp
  1014cc:	159c                	addi	a5,sp,736
  1014ce:	0000                	unimp
  1014d0:	159c                	addi	a5,sp,736
  1014d2:	0000                	unimp
  1014d4:	159c                	addi	a5,sp,736
  1014d6:	0000                	unimp
  1014d8:	159c                	addi	a5,sp,736
  1014da:	0000                	unimp
  1014dc:	159c                	addi	a5,sp,736
  1014de:	0000                	unimp
  1014e0:	159c                	addi	a5,sp,736
  1014e2:	0000                	unimp
  1014e4:	159c                	addi	a5,sp,736
  1014e6:	0000                	unimp
  1014e8:	159c                	addi	a5,sp,736
  1014ea:	0000                	unimp
  1014ec:	159c                	addi	a5,sp,736
  1014ee:	0000                	unimp
  1014f0:	159c                	addi	a5,sp,736
  1014f2:	0000                	unimp
  1014f4:	159c                	addi	a5,sp,736
  1014f6:	0000                	unimp
  1014f8:	159c                	addi	a5,sp,736
  1014fa:	0000                	unimp
  1014fc:	159c                	addi	a5,sp,736
  1014fe:	0000                	unimp
  101500:	15c9                	addi	a1,a1,-14
  101502:	0000                	unimp
  101504:	15c9                	addi	a1,a1,-14
  101506:	0000                	unimp
  101508:	15c9                	addi	a1,a1,-14
  10150a:	0000                	unimp
  10150c:	15c9                	addi	a1,a1,-14
  10150e:	0000                	unimp
  101510:	15c9                	addi	a1,a1,-14
  101512:	0000                	unimp
  101514:	15c9                	addi	a1,a1,-14
  101516:	0000                	unimp
  101518:	15c9                	addi	a1,a1,-14
  10151a:	0000                	unimp
  10151c:	15c9                	addi	a1,a1,-14
  10151e:	0000                	unimp
  101520:	15c9                	addi	a1,a1,-14
  101522:	0000                	unimp
  101524:	15c9                	addi	a1,a1,-14
  101526:	0000                	unimp
  101528:	15c9                	addi	a1,a1,-14
  10152a:	0000                	unimp
  10152c:	15c9                	addi	a1,a1,-14
  10152e:	0000                	unimp
  101530:	15c9                	addi	a1,a1,-14
  101532:	0000                	unimp
  101534:	15c9                	addi	a1,a1,-14
  101536:	0000                	unimp
  101538:	15c9                	addi	a1,a1,-14
  10153a:	0000                	unimp
  10153c:	15c9                	addi	a1,a1,-14
  10153e:	0000                	unimp
  101540:	15f6                	slli	a1,a1,0x3d
  101542:	0000                	unimp
  101544:	15f6                	slli	a1,a1,0x3d
  101546:	0000                	unimp
  101548:	15f6                	slli	a1,a1,0x3d
  10154a:	0000                	unimp
  10154c:	15f6                	slli	a1,a1,0x3d
  10154e:	0000                	unimp
  101550:	15f6                	slli	a1,a1,0x3d
  101552:	0000                	unimp
  101554:	15f6                	slli	a1,a1,0x3d
  101556:	0000                	unimp
  101558:	15f6                	slli	a1,a1,0x3d
  10155a:	0000                	unimp
  10155c:	15f6                	slli	a1,a1,0x3d
  10155e:	0000                	unimp
  101560:	15f6                	slli	a1,a1,0x3d
  101562:	0000                	unimp
  101564:	15f6                	slli	a1,a1,0x3d
  101566:	0000                	unimp
  101568:	15f6                	slli	a1,a1,0x3d
  10156a:	0000                	unimp
  10156c:	15f6                	slli	a1,a1,0x3d
  10156e:	0000                	unimp
  101570:	15f6                	slli	a1,a1,0x3d
  101572:	0000                	unimp
  101574:	15f6                	slli	a1,a1,0x3d
  101576:	0000                	unimp
  101578:	15f6                	slli	a1,a1,0x3d
  10157a:	0000                	unimp
  10157c:	15f6                	slli	a1,a1,0x3d
  10157e:	0000                	unimp
  101580:	00001623          	sh	zero,12(zero) # c <boot+0xc>
  101584:	00001623          	sh	zero,12(zero) # c <boot+0xc>
  101588:	00001623          	sh	zero,12(zero) # c <boot+0xc>
  10158c:	00001623          	sh	zero,12(zero) # c <boot+0xc>
  101590:	00001623          	sh	zero,12(zero) # c <boot+0xc>
  101594:	00001623          	sh	zero,12(zero) # c <boot+0xc>
  101598:	00001623          	sh	zero,12(zero) # c <boot+0xc>
  10159c:	00001623          	sh	zero,12(zero) # c <boot+0xc>
  1015a0:	00001623          	sh	zero,12(zero) # c <boot+0xc>
  1015a4:	00001623          	sh	zero,12(zero) # c <boot+0xc>
  1015a8:	00001623          	sh	zero,12(zero) # c <boot+0xc>
  1015ac:	00001623          	sh	zero,12(zero) # c <boot+0xc>
  1015b0:	00001623          	sh	zero,12(zero) # c <boot+0xc>
  1015b4:	00001623          	sh	zero,12(zero) # c <boot+0xc>
  1015b8:	00001623          	sh	zero,12(zero) # c <boot+0xc>
  1015bc:	00001623          	sh	zero,12(zero) # c <boot+0xc>
  1015c0:	1650                	addi	a2,sp,804
  1015c2:	0000                	unimp
  1015c4:	1650                	addi	a2,sp,804
  1015c6:	0000                	unimp
  1015c8:	1650                	addi	a2,sp,804
  1015ca:	0000                	unimp
  1015cc:	1650                	addi	a2,sp,804
  1015ce:	0000                	unimp
  1015d0:	1650                	addi	a2,sp,804
  1015d2:	0000                	unimp
  1015d4:	1650                	addi	a2,sp,804
  1015d6:	0000                	unimp
  1015d8:	1650                	addi	a2,sp,804
  1015da:	0000                	unimp
  1015dc:	1650                	addi	a2,sp,804
  1015de:	0000                	unimp
  1015e0:	1650                	addi	a2,sp,804
  1015e2:	0000                	unimp
  1015e4:	1650                	addi	a2,sp,804
  1015e6:	0000                	unimp
  1015e8:	1650                	addi	a2,sp,804
  1015ea:	0000                	unimp
  1015ec:	1650                	addi	a2,sp,804
  1015ee:	0000                	unimp
  1015f0:	1650                	addi	a2,sp,804
  1015f2:	0000                	unimp
  1015f4:	1650                	addi	a2,sp,804
  1015f6:	0000                	unimp
  1015f8:	1650                	addi	a2,sp,804
  1015fa:	0000                	unimp
  1015fc:	1650                	addi	a2,sp,804
  1015fe:	0000                	unimp
  101600:	167d                	addi	a2,a2,-1
  101602:	0000                	unimp
  101604:	167d                	addi	a2,a2,-1
  101606:	0000                	unimp
  101608:	167d                	addi	a2,a2,-1
  10160a:	0000                	unimp
  10160c:	167d                	addi	a2,a2,-1
  10160e:	0000                	unimp
  101610:	167d                	addi	a2,a2,-1
  101612:	0000                	unimp
  101614:	167d                	addi	a2,a2,-1
  101616:	0000                	unimp
  101618:	167d                	addi	a2,a2,-1
  10161a:	0000                	unimp
  10161c:	167d                	addi	a2,a2,-1
  10161e:	0000                	unimp
  101620:	167d                	addi	a2,a2,-1
  101622:	0000                	unimp
  101624:	167d                	addi	a2,a2,-1
  101626:	0000                	unimp
  101628:	167d                	addi	a2,a2,-1
  10162a:	0000                	unimp
  10162c:	167d                	addi	a2,a2,-1
  10162e:	0000                	unimp
  101630:	167d                	addi	a2,a2,-1
  101632:	0000                	unimp
  101634:	167d                	addi	a2,a2,-1
  101636:	0000                	unimp
  101638:	167d                	addi	a2,a2,-1
  10163a:	0000                	unimp
  10163c:	167d                	addi	a2,a2,-1
  10163e:	0000                	unimp
  101640:	16aa                	slli	a3,a3,0x2a
  101642:	0000                	unimp
  101644:	16aa                	slli	a3,a3,0x2a
  101646:	0000                	unimp
  101648:	16aa                	slli	a3,a3,0x2a
  10164a:	0000                	unimp
  10164c:	16aa                	slli	a3,a3,0x2a
  10164e:	0000                	unimp
  101650:	16aa                	slli	a3,a3,0x2a
  101652:	0000                	unimp
  101654:	16aa                	slli	a3,a3,0x2a
  101656:	0000                	unimp
  101658:	16aa                	slli	a3,a3,0x2a
  10165a:	0000                	unimp
  10165c:	16aa                	slli	a3,a3,0x2a
  10165e:	0000                	unimp
  101660:	16aa                	slli	a3,a3,0x2a
  101662:	0000                	unimp
  101664:	16aa                	slli	a3,a3,0x2a
  101666:	0000                	unimp
  101668:	16aa                	slli	a3,a3,0x2a
  10166a:	0000                	unimp
  10166c:	16aa                	slli	a3,a3,0x2a
  10166e:	0000                	unimp
  101670:	16aa                	slli	a3,a3,0x2a
  101672:	0000                	unimp
  101674:	16aa                	slli	a3,a3,0x2a
  101676:	0000                	unimp
  101678:	16aa                	slli	a3,a3,0x2a
  10167a:	0000                	unimp
  10167c:	16aa                	slli	a3,a3,0x2a
  10167e:	0000                	unimp
  101680:	000016d7          	vfadd.vv	v13,v0,v0,v0.t
  101684:	000016d7          	vfadd.vv	v13,v0,v0,v0.t
  101688:	000016d7          	vfadd.vv	v13,v0,v0,v0.t
  10168c:	000016d7          	vfadd.vv	v13,v0,v0,v0.t
  101690:	000016d7          	vfadd.vv	v13,v0,v0,v0.t
  101694:	000016d7          	vfadd.vv	v13,v0,v0,v0.t
  101698:	000016d7          	vfadd.vv	v13,v0,v0,v0.t
  10169c:	000016d7          	vfadd.vv	v13,v0,v0,v0.t
  1016a0:	000016d7          	vfadd.vv	v13,v0,v0,v0.t
  1016a4:	000016d7          	vfadd.vv	v13,v0,v0,v0.t
  1016a8:	000016d7          	vfadd.vv	v13,v0,v0,v0.t
  1016ac:	000016d7          	vfadd.vv	v13,v0,v0,v0.t
  1016b0:	000016d7          	vfadd.vv	v13,v0,v0,v0.t
  1016b4:	000016d7          	vfadd.vv	v13,v0,v0,v0.t
  1016b8:	000016d7          	vfadd.vv	v13,v0,v0,v0.t
  1016bc:	000016d7          	vfadd.vv	v13,v0,v0,v0.t
  1016c0:	1704                	addi	s1,sp,928
  1016c2:	0000                	unimp
  1016c4:	1704                	addi	s1,sp,928
  1016c6:	0000                	unimp
  1016c8:	1704                	addi	s1,sp,928
  1016ca:	0000                	unimp
  1016cc:	1704                	addi	s1,sp,928
  1016ce:	0000                	unimp
  1016d0:	1704                	addi	s1,sp,928
  1016d2:	0000                	unimp
  1016d4:	1704                	addi	s1,sp,928
  1016d6:	0000                	unimp
  1016d8:	1704                	addi	s1,sp,928
  1016da:	0000                	unimp
  1016dc:	1704                	addi	s1,sp,928
  1016de:	0000                	unimp
  1016e0:	1704                	addi	s1,sp,928
  1016e2:	0000                	unimp
  1016e4:	1704                	addi	s1,sp,928
  1016e6:	0000                	unimp
  1016e8:	1704                	addi	s1,sp,928
  1016ea:	0000                	unimp
  1016ec:	1704                	addi	s1,sp,928
  1016ee:	0000                	unimp
  1016f0:	1704                	addi	s1,sp,928
  1016f2:	0000                	unimp
  1016f4:	1704                	addi	s1,sp,928
  1016f6:	0000                	unimp
  1016f8:	1704                	addi	s1,sp,928
  1016fa:	0000                	unimp
  1016fc:	1704                	addi	s1,sp,928
  1016fe:	0000                	unimp
  101700:	1731                	addi	a4,a4,-20
  101702:	0000                	unimp
  101704:	1731                	addi	a4,a4,-20
  101706:	0000                	unimp
  101708:	1731                	addi	a4,a4,-20
  10170a:	0000                	unimp
  10170c:	1731                	addi	a4,a4,-20
  10170e:	0000                	unimp
  101710:	1731                	addi	a4,a4,-20
  101712:	0000                	unimp
  101714:	1731                	addi	a4,a4,-20
  101716:	0000                	unimp
  101718:	1731                	addi	a4,a4,-20
  10171a:	0000                	unimp
  10171c:	1731                	addi	a4,a4,-20
  10171e:	0000                	unimp
  101720:	1731                	addi	a4,a4,-20
  101722:	0000                	unimp
  101724:	1731                	addi	a4,a4,-20
  101726:	0000                	unimp
  101728:	1731                	addi	a4,a4,-20
  10172a:	0000                	unimp
  10172c:	1731                	addi	a4,a4,-20
  10172e:	0000                	unimp
  101730:	1731                	addi	a4,a4,-20
  101732:	0000                	unimp
  101734:	1731                	addi	a4,a4,-20
  101736:	0000                	unimp
  101738:	1731                	addi	a4,a4,-20
  10173a:	0000                	unimp
  10173c:	1731                	addi	a4,a4,-20
  10173e:	0000                	unimp
  101740:	175e                	slli	a4,a4,0x37
  101742:	0000                	unimp
  101744:	175e                	slli	a4,a4,0x37
  101746:	0000                	unimp
  101748:	175e                	slli	a4,a4,0x37
  10174a:	0000                	unimp
  10174c:	175e                	slli	a4,a4,0x37
  10174e:	0000                	unimp
  101750:	175e                	slli	a4,a4,0x37
  101752:	0000                	unimp
  101754:	175e                	slli	a4,a4,0x37
  101756:	0000                	unimp
  101758:	175e                	slli	a4,a4,0x37
  10175a:	0000                	unimp
  10175c:	175e                	slli	a4,a4,0x37
  10175e:	0000                	unimp
  101760:	175e                	slli	a4,a4,0x37
  101762:	0000                	unimp
  101764:	175e                	slli	a4,a4,0x37
  101766:	0000                	unimp
  101768:	175e                	slli	a4,a4,0x37
  10176a:	0000                	unimp
  10176c:	175e                	slli	a4,a4,0x37
  10176e:	0000                	unimp
  101770:	175e                	slli	a4,a4,0x37
  101772:	0000                	unimp
  101774:	175e                	slli	a4,a4,0x37
  101776:	0000                	unimp
  101778:	175e                	slli	a4,a4,0x37
  10177a:	0000                	unimp
  10177c:	175e                	slli	a4,a4,0x37
  10177e:	0000                	unimp
  101780:	0000178b          	0x178b
  101784:	0000178b          	0x178b
  101788:	0000178b          	0x178b
  10178c:	0000178b          	0x178b
  101790:	0000178b          	0x178b
  101794:	0000178b          	0x178b
  101798:	0000178b          	0x178b
  10179c:	0000178b          	0x178b
  1017a0:	0000178b          	0x178b
  1017a4:	0000178b          	0x178b
  1017a8:	0000178b          	0x178b
  1017ac:	0000178b          	0x178b
  1017b0:	0000178b          	0x178b
  1017b4:	0000178b          	0x178b
  1017b8:	0000178b          	0x178b
  1017bc:	0000178b          	0x178b
  1017c0:	17b8                	addi	a4,sp,1000
  1017c2:	0000                	unimp
  1017c4:	17b8                	addi	a4,sp,1000
  1017c6:	0000                	unimp
  1017c8:	17b8                	addi	a4,sp,1000
  1017ca:	0000                	unimp
  1017cc:	17b8                	addi	a4,sp,1000
  1017ce:	0000                	unimp
  1017d0:	17b8                	addi	a4,sp,1000
  1017d2:	0000                	unimp
  1017d4:	17b8                	addi	a4,sp,1000
  1017d6:	0000                	unimp
  1017d8:	17b8                	addi	a4,sp,1000
  1017da:	0000                	unimp
  1017dc:	17b8                	addi	a4,sp,1000
  1017de:	0000                	unimp
  1017e0:	17b8                	addi	a4,sp,1000
  1017e2:	0000                	unimp
  1017e4:	17b8                	addi	a4,sp,1000
  1017e6:	0000                	unimp
  1017e8:	17b8                	addi	a4,sp,1000
  1017ea:	0000                	unimp
  1017ec:	17b8                	addi	a4,sp,1000
  1017ee:	0000                	unimp
  1017f0:	17b8                	addi	a4,sp,1000
  1017f2:	0000                	unimp
  1017f4:	17b8                	addi	a4,sp,1000
  1017f6:	0000                	unimp
  1017f8:	17b8                	addi	a4,sp,1000
  1017fa:	0000                	unimp
  1017fc:	17b8                	addi	a4,sp,1000
  1017fe:	0000                	unimp
  101800:	17e5                	addi	a5,a5,-7
  101802:	0000                	unimp
  101804:	17e5                	addi	a5,a5,-7
  101806:	0000                	unimp
  101808:	17e5                	addi	a5,a5,-7
  10180a:	0000                	unimp
  10180c:	17e5                	addi	a5,a5,-7
  10180e:	0000                	unimp
  101810:	17e5                	addi	a5,a5,-7
  101812:	0000                	unimp
  101814:	17e5                	addi	a5,a5,-7
  101816:	0000                	unimp
  101818:	17e5                	addi	a5,a5,-7
  10181a:	0000                	unimp
  10181c:	17e5                	addi	a5,a5,-7
  10181e:	0000                	unimp
  101820:	17e5                	addi	a5,a5,-7
  101822:	0000                	unimp
  101824:	17e5                	addi	a5,a5,-7
  101826:	0000                	unimp
  101828:	17e5                	addi	a5,a5,-7
  10182a:	0000                	unimp
  10182c:	17e5                	addi	a5,a5,-7
  10182e:	0000                	unimp
  101830:	17e5                	addi	a5,a5,-7
  101832:	0000                	unimp
  101834:	17e5                	addi	a5,a5,-7
  101836:	0000                	unimp
  101838:	17e5                	addi	a5,a5,-7
  10183a:	0000                	unimp
  10183c:	17e5                	addi	a5,a5,-7
  10183e:	0000                	unimp
  101840:	1812                	slli	a6,a6,0x24
  101842:	0000                	unimp
  101844:	1812                	slli	a6,a6,0x24
  101846:	0000                	unimp
  101848:	1812                	slli	a6,a6,0x24
  10184a:	0000                	unimp
  10184c:	1812                	slli	a6,a6,0x24
  10184e:	0000                	unimp
  101850:	1812                	slli	a6,a6,0x24
  101852:	0000                	unimp
  101854:	1812                	slli	a6,a6,0x24
  101856:	0000                	unimp
  101858:	1812                	slli	a6,a6,0x24
  10185a:	0000                	unimp
  10185c:	1812                	slli	a6,a6,0x24
  10185e:	0000                	unimp
  101860:	1812                	slli	a6,a6,0x24
  101862:	0000                	unimp
  101864:	1812                	slli	a6,a6,0x24
  101866:	0000                	unimp
  101868:	1812                	slli	a6,a6,0x24
  10186a:	0000                	unimp
  10186c:	1812                	slli	a6,a6,0x24
  10186e:	0000                	unimp
  101870:	1812                	slli	a6,a6,0x24
  101872:	0000                	unimp
  101874:	1812                	slli	a6,a6,0x24
  101876:	0000                	unimp
  101878:	1812                	slli	a6,a6,0x24
  10187a:	0000                	unimp
  10187c:	1812                	slli	a6,a6,0x24
  10187e:	0000                	unimp
  101880:	0000183f 0000183f 	0x183f0000183f
  101888:	0000183f 0000183f 	0x183f0000183f
  101890:	0000183f 0000183f 	0x183f0000183f
  101898:	0000183f 0000183f 	0x183f0000183f
  1018a0:	0000183f 0000183f 	0x183f0000183f
  1018a8:	0000183f 0000183f 	0x183f0000183f
  1018b0:	0000183f 0000183f 	0x183f0000183f
  1018b8:	0000183f 0000183f 	0x183f0000183f
  1018c0:	186c                	addi	a1,sp,60
  1018c2:	0000                	unimp
  1018c4:	186c                	addi	a1,sp,60
  1018c6:	0000                	unimp
  1018c8:	186c                	addi	a1,sp,60
  1018ca:	0000                	unimp
  1018cc:	186c                	addi	a1,sp,60
  1018ce:	0000                	unimp
  1018d0:	186c                	addi	a1,sp,60
  1018d2:	0000                	unimp
  1018d4:	186c                	addi	a1,sp,60
  1018d6:	0000                	unimp
  1018d8:	186c                	addi	a1,sp,60
  1018da:	0000                	unimp
  1018dc:	186c                	addi	a1,sp,60
  1018de:	0000                	unimp
  1018e0:	186c                	addi	a1,sp,60
  1018e2:	0000                	unimp
  1018e4:	186c                	addi	a1,sp,60
  1018e6:	0000                	unimp
  1018e8:	186c                	addi	a1,sp,60
  1018ea:	0000                	unimp
  1018ec:	186c                	addi	a1,sp,60
  1018ee:	0000                	unimp
  1018f0:	186c                	addi	a1,sp,60
  1018f2:	0000                	unimp
  1018f4:	186c                	addi	a1,sp,60
  1018f6:	0000                	unimp
  1018f8:	186c                	addi	a1,sp,60
  1018fa:	0000                	unimp
  1018fc:	186c                	addi	a1,sp,60
  1018fe:	0000                	unimp
  101900:	000018f3          	csrrw	a7,ustatus,zero
  101904:	000018f3          	csrrw	a7,ustatus,zero
  101908:	000018f3          	csrrw	a7,ustatus,zero
  10190c:	000018f3          	csrrw	a7,ustatus,zero
  101910:	000018f3          	csrrw	a7,ustatus,zero
  101914:	000018f3          	csrrw	a7,ustatus,zero
  101918:	000018f3          	csrrw	a7,ustatus,zero
  10191c:	000018f3          	csrrw	a7,ustatus,zero
  101920:	000018f3          	csrrw	a7,ustatus,zero
  101924:	000018f3          	csrrw	a7,ustatus,zero
  101928:	000018f3          	csrrw	a7,ustatus,zero
  10192c:	000018f3          	csrrw	a7,ustatus,zero
  101930:	000018f3          	csrrw	a7,ustatus,zero
  101934:	000018f3          	csrrw	a7,ustatus,zero
  101938:	000018f3          	csrrw	a7,ustatus,zero
  10193c:	000018f3          	csrrw	a7,ustatus,zero
  101940:	1920                	addi	s0,sp,184
  101942:	0000                	unimp
  101944:	1920                	addi	s0,sp,184
  101946:	0000                	unimp
  101948:	1920                	addi	s0,sp,184
  10194a:	0000                	unimp
  10194c:	1920                	addi	s0,sp,184
  10194e:	0000                	unimp
  101950:	1920                	addi	s0,sp,184
  101952:	0000                	unimp
  101954:	1920                	addi	s0,sp,184
  101956:	0000                	unimp
  101958:	1920                	addi	s0,sp,184
  10195a:	0000                	unimp
  10195c:	1920                	addi	s0,sp,184
  10195e:	0000                	unimp
  101960:	1920                	addi	s0,sp,184
  101962:	0000                	unimp
  101964:	1920                	addi	s0,sp,184
  101966:	0000                	unimp
  101968:	1920                	addi	s0,sp,184
  10196a:	0000                	unimp
  10196c:	1920                	addi	s0,sp,184
  10196e:	0000                	unimp
  101970:	1920                	addi	s0,sp,184
  101972:	0000                	unimp
  101974:	1920                	addi	s0,sp,184
  101976:	0000                	unimp
  101978:	1920                	addi	s0,sp,184
  10197a:	0000                	unimp
  10197c:	1920                	addi	s0,sp,184
  10197e:	0000                	unimp
  101980:	194d                	addi	s2,s2,-13
  101982:	0000                	unimp
  101984:	194d                	addi	s2,s2,-13
  101986:	0000                	unimp
  101988:	194d                	addi	s2,s2,-13
  10198a:	0000                	unimp
  10198c:	194d                	addi	s2,s2,-13
  10198e:	0000                	unimp
  101990:	194d                	addi	s2,s2,-13
  101992:	0000                	unimp
  101994:	194d                	addi	s2,s2,-13
  101996:	0000                	unimp
  101998:	194d                	addi	s2,s2,-13
  10199a:	0000                	unimp
  10199c:	194d                	addi	s2,s2,-13
  10199e:	0000                	unimp
  1019a0:	194d                	addi	s2,s2,-13
  1019a2:	0000                	unimp
  1019a4:	194d                	addi	s2,s2,-13
  1019a6:	0000                	unimp
  1019a8:	194d                	addi	s2,s2,-13
  1019aa:	0000                	unimp
  1019ac:	194d                	addi	s2,s2,-13
  1019ae:	0000                	unimp
  1019b0:	194d                	addi	s2,s2,-13
  1019b2:	0000                	unimp
  1019b4:	194d                	addi	s2,s2,-13
  1019b6:	0000                	unimp
  1019b8:	194d                	addi	s2,s2,-13
  1019ba:	0000                	unimp
  1019bc:	194d                	addi	s2,s2,-13
  1019be:	0000                	unimp
  1019c0:	197a                	slli	s2,s2,0x3e
  1019c2:	0000                	unimp
  1019c4:	197a                	slli	s2,s2,0x3e
  1019c6:	0000                	unimp
  1019c8:	197a                	slli	s2,s2,0x3e
  1019ca:	0000                	unimp
  1019cc:	197a                	slli	s2,s2,0x3e
  1019ce:	0000                	unimp
  1019d0:	197a                	slli	s2,s2,0x3e
  1019d2:	0000                	unimp
  1019d4:	197a                	slli	s2,s2,0x3e
  1019d6:	0000                	unimp
  1019d8:	197a                	slli	s2,s2,0x3e
  1019da:	0000                	unimp
  1019dc:	197a                	slli	s2,s2,0x3e
  1019de:	0000                	unimp
  1019e0:	197a                	slli	s2,s2,0x3e
  1019e2:	0000                	unimp
  1019e4:	197a                	slli	s2,s2,0x3e
  1019e6:	0000                	unimp
  1019e8:	197a                	slli	s2,s2,0x3e
  1019ea:	0000                	unimp
  1019ec:	197a                	slli	s2,s2,0x3e
  1019ee:	0000                	unimp
  1019f0:	197a                	slli	s2,s2,0x3e
  1019f2:	0000                	unimp
  1019f4:	197a                	slli	s2,s2,0x3e
  1019f6:	0000                	unimp
  1019f8:	197a                	slli	s2,s2,0x3e
  1019fa:	0000                	unimp
  1019fc:	197a                	slli	s2,s2,0x3e
  1019fe:	0000                	unimp
  101a00:	000019a7          	fsh	ft0,19(zero) # 13 <boot+0x13>
  101a04:	000019a7          	fsh	ft0,19(zero) # 13 <boot+0x13>
  101a08:	000019a7          	fsh	ft0,19(zero) # 13 <boot+0x13>
  101a0c:	000019a7          	fsh	ft0,19(zero) # 13 <boot+0x13>
  101a10:	000019a7          	fsh	ft0,19(zero) # 13 <boot+0x13>
  101a14:	000019a7          	fsh	ft0,19(zero) # 13 <boot+0x13>
  101a18:	000019a7          	fsh	ft0,19(zero) # 13 <boot+0x13>
  101a1c:	000019a7          	fsh	ft0,19(zero) # 13 <boot+0x13>
  101a20:	000019a7          	fsh	ft0,19(zero) # 13 <boot+0x13>
  101a24:	000019a7          	fsh	ft0,19(zero) # 13 <boot+0x13>
  101a28:	000019a7          	fsh	ft0,19(zero) # 13 <boot+0x13>
  101a2c:	000019a7          	fsh	ft0,19(zero) # 13 <boot+0x13>
  101a30:	000019a7          	fsh	ft0,19(zero) # 13 <boot+0x13>
  101a34:	000019a7          	fsh	ft0,19(zero) # 13 <boot+0x13>
  101a38:	000019a7          	fsh	ft0,19(zero) # 13 <boot+0x13>
  101a3c:	000019a7          	fsh	ft0,19(zero) # 13 <boot+0x13>
  101a40:	19d4                	addi	a3,sp,244
  101a42:	0000                	unimp
  101a44:	19d4                	addi	a3,sp,244
  101a46:	0000                	unimp
  101a48:	19d4                	addi	a3,sp,244
  101a4a:	0000                	unimp
  101a4c:	19d4                	addi	a3,sp,244
  101a4e:	0000                	unimp
  101a50:	19d4                	addi	a3,sp,244
  101a52:	0000                	unimp
  101a54:	19d4                	addi	a3,sp,244
  101a56:	0000                	unimp
  101a58:	19d4                	addi	a3,sp,244
  101a5a:	0000                	unimp
  101a5c:	19d4                	addi	a3,sp,244
  101a5e:	0000                	unimp
  101a60:	19d4                	addi	a3,sp,244
  101a62:	0000                	unimp
  101a64:	19d4                	addi	a3,sp,244
  101a66:	0000                	unimp
  101a68:	19d4                	addi	a3,sp,244
  101a6a:	0000                	unimp
  101a6c:	19d4                	addi	a3,sp,244
  101a6e:	0000                	unimp
  101a70:	19d4                	addi	a3,sp,244
  101a72:	0000                	unimp
  101a74:	19d4                	addi	a3,sp,244
  101a76:	0000                	unimp
  101a78:	19d4                	addi	a3,sp,244
  101a7a:	0000                	unimp
  101a7c:	19d4                	addi	a3,sp,244
  101a7e:	0000                	unimp
  101a80:	1a01                	addi	s4,s4,-32
  101a82:	0000                	unimp
  101a84:	1a01                	addi	s4,s4,-32
  101a86:	0000                	unimp
  101a88:	1a01                	addi	s4,s4,-32
  101a8a:	0000                	unimp
  101a8c:	1a01                	addi	s4,s4,-32
  101a8e:	0000                	unimp
  101a90:	1a01                	addi	s4,s4,-32
  101a92:	0000                	unimp
  101a94:	1a01                	addi	s4,s4,-32
  101a96:	0000                	unimp
  101a98:	1a01                	addi	s4,s4,-32
  101a9a:	0000                	unimp
  101a9c:	1a01                	addi	s4,s4,-32
  101a9e:	0000                	unimp
  101aa0:	1a01                	addi	s4,s4,-32
  101aa2:	0000                	unimp
  101aa4:	1a01                	addi	s4,s4,-32
  101aa6:	0000                	unimp
  101aa8:	1a01                	addi	s4,s4,-32
  101aaa:	0000                	unimp
  101aac:	1a01                	addi	s4,s4,-32
  101aae:	0000                	unimp
  101ab0:	1a01                	addi	s4,s4,-32
  101ab2:	0000                	unimp
  101ab4:	1a01                	addi	s4,s4,-32
  101ab6:	0000                	unimp
  101ab8:	1a01                	addi	s4,s4,-32
  101aba:	0000                	unimp
  101abc:	1a01                	addi	s4,s4,-32
  101abe:	0000                	unimp
  101ac0:	1a2e                	slli	s4,s4,0x2b
  101ac2:	0000                	unimp
  101ac4:	1a2e                	slli	s4,s4,0x2b
  101ac6:	0000                	unimp
  101ac8:	1a2e                	slli	s4,s4,0x2b
  101aca:	0000                	unimp
  101acc:	1a2e                	slli	s4,s4,0x2b
  101ace:	0000                	unimp
  101ad0:	1a2e                	slli	s4,s4,0x2b
  101ad2:	0000                	unimp
  101ad4:	1a2e                	slli	s4,s4,0x2b
  101ad6:	0000                	unimp
  101ad8:	1a2e                	slli	s4,s4,0x2b
  101ada:	0000                	unimp
  101adc:	1a2e                	slli	s4,s4,0x2b
  101ade:	0000                	unimp
  101ae0:	1a2e                	slli	s4,s4,0x2b
  101ae2:	0000                	unimp
  101ae4:	1a2e                	slli	s4,s4,0x2b
  101ae6:	0000                	unimp
  101ae8:	1a2e                	slli	s4,s4,0x2b
  101aea:	0000                	unimp
  101aec:	1a2e                	slli	s4,s4,0x2b
  101aee:	0000                	unimp
  101af0:	1a2e                	slli	s4,s4,0x2b
  101af2:	0000                	unimp
  101af4:	1a2e                	slli	s4,s4,0x2b
  101af6:	0000                	unimp
  101af8:	1a2e                	slli	s4,s4,0x2b
  101afa:	0000                	unimp
  101afc:	1a2e                	slli	s4,s4,0x2b
  101afe:	0000                	unimp
  101b00:	00001a5b          	0x1a5b
  101b04:	00001a5b          	0x1a5b
  101b08:	00001a5b          	0x1a5b
  101b0c:	00001a5b          	0x1a5b
  101b10:	00001a5b          	0x1a5b
  101b14:	00001a5b          	0x1a5b
  101b18:	00001a5b          	0x1a5b
  101b1c:	00001a5b          	0x1a5b
  101b20:	00001a5b          	0x1a5b
  101b24:	00001a5b          	0x1a5b
  101b28:	00001a5b          	0x1a5b
  101b2c:	00001a5b          	0x1a5b
  101b30:	00001a5b          	0x1a5b
  101b34:	00001a5b          	0x1a5b
  101b38:	00001a5b          	0x1a5b
  101b3c:	00001a5b          	0x1a5b
  101b40:	1a88                	addi	a0,sp,368
  101b42:	0000                	unimp
  101b44:	1a88                	addi	a0,sp,368
  101b46:	0000                	unimp
  101b48:	1a88                	addi	a0,sp,368
  101b4a:	0000                	unimp
  101b4c:	1a88                	addi	a0,sp,368
  101b4e:	0000                	unimp
  101b50:	1a88                	addi	a0,sp,368
  101b52:	0000                	unimp
  101b54:	1a88                	addi	a0,sp,368
  101b56:	0000                	unimp
  101b58:	1a88                	addi	a0,sp,368
  101b5a:	0000                	unimp
  101b5c:	1a88                	addi	a0,sp,368
  101b5e:	0000                	unimp
  101b60:	1a88                	addi	a0,sp,368
  101b62:	0000                	unimp
  101b64:	1a88                	addi	a0,sp,368
  101b66:	0000                	unimp
  101b68:	1a88                	addi	a0,sp,368
  101b6a:	0000                	unimp
  101b6c:	1a88                	addi	a0,sp,368
  101b6e:	0000                	unimp
  101b70:	1a88                	addi	a0,sp,368
  101b72:	0000                	unimp
  101b74:	1a88                	addi	a0,sp,368
  101b76:	0000                	unimp
  101b78:	1a88                	addi	a0,sp,368
  101b7a:	0000                	unimp
  101b7c:	1a88                	addi	a0,sp,368
  101b7e:	0000                	unimp
  101b80:	1ab5                	addi	s5,s5,-19
  101b82:	0000                	unimp
  101b84:	1ab5                	addi	s5,s5,-19
  101b86:	0000                	unimp
  101b88:	1ab5                	addi	s5,s5,-19
  101b8a:	0000                	unimp
  101b8c:	1ab5                	addi	s5,s5,-19
  101b8e:	0000                	unimp
  101b90:	1ab5                	addi	s5,s5,-19
  101b92:	0000                	unimp
  101b94:	1ab5                	addi	s5,s5,-19
  101b96:	0000                	unimp
  101b98:	1ab5                	addi	s5,s5,-19
  101b9a:	0000                	unimp
  101b9c:	1ab5                	addi	s5,s5,-19
  101b9e:	0000                	unimp
  101ba0:	1ab5                	addi	s5,s5,-19
  101ba2:	0000                	unimp
  101ba4:	1ab5                	addi	s5,s5,-19
  101ba6:	0000                	unimp
  101ba8:	1ab5                	addi	s5,s5,-19
  101baa:	0000                	unimp
  101bac:	1ab5                	addi	s5,s5,-19
  101bae:	0000                	unimp
  101bb0:	1ab5                	addi	s5,s5,-19
  101bb2:	0000                	unimp
  101bb4:	1ab5                	addi	s5,s5,-19
  101bb6:	0000                	unimp
  101bb8:	1ab5                	addi	s5,s5,-19
  101bba:	0000                	unimp
  101bbc:	1ab5                	addi	s5,s5,-19
  101bbe:	0000                	unimp
  101bc0:	1ae2                	slli	s5,s5,0x38
  101bc2:	0000                	unimp
  101bc4:	1ae2                	slli	s5,s5,0x38
  101bc6:	0000                	unimp
  101bc8:	1ae2                	slli	s5,s5,0x38
  101bca:	0000                	unimp
  101bcc:	1ae2                	slli	s5,s5,0x38
  101bce:	0000                	unimp
  101bd0:	1ae2                	slli	s5,s5,0x38
  101bd2:	0000                	unimp
  101bd4:	1ae2                	slli	s5,s5,0x38
  101bd6:	0000                	unimp
  101bd8:	1ae2                	slli	s5,s5,0x38
  101bda:	0000                	unimp
  101bdc:	1ae2                	slli	s5,s5,0x38
  101bde:	0000                	unimp
  101be0:	1ae2                	slli	s5,s5,0x38
  101be2:	0000                	unimp
  101be4:	1ae2                	slli	s5,s5,0x38
  101be6:	0000                	unimp
  101be8:	1ae2                	slli	s5,s5,0x38
  101bea:	0000                	unimp
  101bec:	1ae2                	slli	s5,s5,0x38
  101bee:	0000                	unimp
  101bf0:	1ae2                	slli	s5,s5,0x38
  101bf2:	0000                	unimp
  101bf4:	1ae2                	slli	s5,s5,0x38
  101bf6:	0000                	unimp
  101bf8:	1ae2                	slli	s5,s5,0x38
  101bfa:	0000                	unimp
  101bfc:	1ae2                	slli	s5,s5,0x38
  101bfe:	0000                	unimp
  101c00:	00001b0f          	0x1b0f
  101c04:	00001b0f          	0x1b0f
  101c08:	00001b0f          	0x1b0f
  101c0c:	00001b0f          	0x1b0f
  101c10:	00001b0f          	0x1b0f
  101c14:	00001b0f          	0x1b0f
  101c18:	00001b0f          	0x1b0f
  101c1c:	00001b0f          	0x1b0f
  101c20:	00001b0f          	0x1b0f
  101c24:	00001b0f          	0x1b0f
  101c28:	00001b0f          	0x1b0f
  101c2c:	00001b0f          	0x1b0f
  101c30:	00001b0f          	0x1b0f
  101c34:	00001b0f          	0x1b0f
  101c38:	00001b0f          	0x1b0f
  101c3c:	00001b0f          	0x1b0f
  101c40:	1b3c                	addi	a5,sp,440
  101c42:	0000                	unimp
  101c44:	1b3c                	addi	a5,sp,440
  101c46:	0000                	unimp
  101c48:	1b3c                	addi	a5,sp,440
  101c4a:	0000                	unimp
  101c4c:	1b3c                	addi	a5,sp,440
  101c4e:	0000                	unimp
  101c50:	1b3c                	addi	a5,sp,440
  101c52:	0000                	unimp
  101c54:	1b3c                	addi	a5,sp,440
  101c56:	0000                	unimp
  101c58:	1b3c                	addi	a5,sp,440
  101c5a:	0000                	unimp
  101c5c:	1b3c                	addi	a5,sp,440
  101c5e:	0000                	unimp
  101c60:	1b3c                	addi	a5,sp,440
  101c62:	0000                	unimp
  101c64:	1b3c                	addi	a5,sp,440
  101c66:	0000                	unimp
  101c68:	1b3c                	addi	a5,sp,440
  101c6a:	0000                	unimp
  101c6c:	1b3c                	addi	a5,sp,440
  101c6e:	0000                	unimp
  101c70:	1b3c                	addi	a5,sp,440
  101c72:	0000                	unimp
  101c74:	1b3c                	addi	a5,sp,440
  101c76:	0000                	unimp
  101c78:	1b3c                	addi	a5,sp,440
  101c7a:	0000                	unimp
  101c7c:	1b3c                	addi	a5,sp,440
  101c7e:	0000                	unimp
  101c80:	1b69                	addi	s6,s6,-6
  101c82:	0000                	unimp
  101c84:	1b69                	addi	s6,s6,-6
  101c86:	0000                	unimp
  101c88:	1b69                	addi	s6,s6,-6
  101c8a:	0000                	unimp
  101c8c:	1b69                	addi	s6,s6,-6
  101c8e:	0000                	unimp
  101c90:	1b69                	addi	s6,s6,-6
  101c92:	0000                	unimp
  101c94:	1b69                	addi	s6,s6,-6
  101c96:	0000                	unimp
  101c98:	1b69                	addi	s6,s6,-6
  101c9a:	0000                	unimp
  101c9c:	1b69                	addi	s6,s6,-6
  101c9e:	0000                	unimp
  101ca0:	1b69                	addi	s6,s6,-6
  101ca2:	0000                	unimp
  101ca4:	1b69                	addi	s6,s6,-6
  101ca6:	0000                	unimp
  101ca8:	1b69                	addi	s6,s6,-6
  101caa:	0000                	unimp
  101cac:	1b69                	addi	s6,s6,-6
  101cae:	0000                	unimp
  101cb0:	1b69                	addi	s6,s6,-6
  101cb2:	0000                	unimp
  101cb4:	1b69                	addi	s6,s6,-6
  101cb6:	0000                	unimp
  101cb8:	1b69                	addi	s6,s6,-6
  101cba:	0000                	unimp
  101cbc:	1b69                	addi	s6,s6,-6
  101cbe:	0000                	unimp
  101cc0:	1b96                	slli	s7,s7,0x25
  101cc2:	0000                	unimp
  101cc4:	1b96                	slli	s7,s7,0x25
  101cc6:	0000                	unimp
  101cc8:	1b96                	slli	s7,s7,0x25
  101cca:	0000                	unimp
  101ccc:	1b96                	slli	s7,s7,0x25
  101cce:	0000                	unimp
  101cd0:	1b96                	slli	s7,s7,0x25
  101cd2:	0000                	unimp
  101cd4:	1b96                	slli	s7,s7,0x25
  101cd6:	0000                	unimp
  101cd8:	1b96                	slli	s7,s7,0x25
  101cda:	0000                	unimp
  101cdc:	1b96                	slli	s7,s7,0x25
  101cde:	0000                	unimp
  101ce0:	1b96                	slli	s7,s7,0x25
  101ce2:	0000                	unimp
  101ce4:	1b96                	slli	s7,s7,0x25
  101ce6:	0000                	unimp
  101ce8:	1b96                	slli	s7,s7,0x25
  101cea:	0000                	unimp
  101cec:	1b96                	slli	s7,s7,0x25
  101cee:	0000                	unimp
  101cf0:	1b96                	slli	s7,s7,0x25
  101cf2:	0000                	unimp
  101cf4:	1b96                	slli	s7,s7,0x25
  101cf6:	0000                	unimp
  101cf8:	1b96                	slli	s7,s7,0x25
  101cfa:	0000                	unimp
  101cfc:	1b96                	slli	s7,s7,0x25
  101cfe:	0000                	unimp
  101d00:	00001bc3          	fmadd.s	fs7,ft0,ft0,ft0,rtz
  101d04:	00001bc3          	fmadd.s	fs7,ft0,ft0,ft0,rtz
  101d08:	00001bc3          	fmadd.s	fs7,ft0,ft0,ft0,rtz
  101d0c:	00001bc3          	fmadd.s	fs7,ft0,ft0,ft0,rtz
  101d10:	00001bc3          	fmadd.s	fs7,ft0,ft0,ft0,rtz
  101d14:	00001bc3          	fmadd.s	fs7,ft0,ft0,ft0,rtz
  101d18:	00001bc3          	fmadd.s	fs7,ft0,ft0,ft0,rtz
  101d1c:	00001bc3          	fmadd.s	fs7,ft0,ft0,ft0,rtz
  101d20:	00001bc3          	fmadd.s	fs7,ft0,ft0,ft0,rtz
  101d24:	00001bc3          	fmadd.s	fs7,ft0,ft0,ft0,rtz
  101d28:	00001bc3          	fmadd.s	fs7,ft0,ft0,ft0,rtz
  101d2c:	00001bc3          	fmadd.s	fs7,ft0,ft0,ft0,rtz
  101d30:	00001bc3          	fmadd.s	fs7,ft0,ft0,ft0,rtz
  101d34:	00001bc3          	fmadd.s	fs7,ft0,ft0,ft0,rtz
  101d38:	00001bc3          	fmadd.s	fs7,ft0,ft0,ft0,rtz
  101d3c:	00001bc3          	fmadd.s	fs7,ft0,ft0,ft0,rtz
  101d40:	1bf0                	addi	a2,sp,508
  101d42:	0000                	unimp
  101d44:	1bf0                	addi	a2,sp,508
  101d46:	0000                	unimp
  101d48:	1bf0                	addi	a2,sp,508
  101d4a:	0000                	unimp
  101d4c:	1bf0                	addi	a2,sp,508
  101d4e:	0000                	unimp
  101d50:	1bf0                	addi	a2,sp,508
  101d52:	0000                	unimp
  101d54:	1bf0                	addi	a2,sp,508
  101d56:	0000                	unimp
  101d58:	1bf0                	addi	a2,sp,508
  101d5a:	0000                	unimp
  101d5c:	1bf0                	addi	a2,sp,508
  101d5e:	0000                	unimp
  101d60:	1bf0                	addi	a2,sp,508
  101d62:	0000                	unimp
  101d64:	1bf0                	addi	a2,sp,508
  101d66:	0000                	unimp
  101d68:	1bf0                	addi	a2,sp,508
  101d6a:	0000                	unimp
  101d6c:	1bf0                	addi	a2,sp,508
  101d6e:	0000                	unimp
  101d70:	1bf0                	addi	a2,sp,508
  101d72:	0000                	unimp
  101d74:	1bf0                	addi	a2,sp,508
  101d76:	0000                	unimp
  101d78:	1bf0                	addi	a2,sp,508
  101d7a:	0000                	unimp
  101d7c:	1bf0                	addi	a2,sp,508
  101d7e:	0000                	unimp
  101d80:	1c1d                	addi	s8,s8,-25
  101d82:	0000                	unimp
  101d84:	1c1d                	addi	s8,s8,-25
  101d86:	0000                	unimp
  101d88:	1c1d                	addi	s8,s8,-25
  101d8a:	0000                	unimp
  101d8c:	1c1d                	addi	s8,s8,-25
  101d8e:	0000                	unimp
  101d90:	1c1d                	addi	s8,s8,-25
  101d92:	0000                	unimp
  101d94:	1c1d                	addi	s8,s8,-25
  101d96:	0000                	unimp
  101d98:	1c1d                	addi	s8,s8,-25
  101d9a:	0000                	unimp
  101d9c:	1c1d                	addi	s8,s8,-25
  101d9e:	0000                	unimp
  101da0:	1c1d                	addi	s8,s8,-25
  101da2:	0000                	unimp
  101da4:	1c1d                	addi	s8,s8,-25
  101da6:	0000                	unimp
  101da8:	1c1d                	addi	s8,s8,-25
  101daa:	0000                	unimp
  101dac:	1c1d                	addi	s8,s8,-25
  101dae:	0000                	unimp
  101db0:	1c1d                	addi	s8,s8,-25
  101db2:	0000                	unimp
  101db4:	1c1d                	addi	s8,s8,-25
  101db6:	0000                	unimp
  101db8:	1c1d                	addi	s8,s8,-25
  101dba:	0000                	unimp
  101dbc:	1c1d                	addi	s8,s8,-25
  101dbe:	0000                	unimp
  101dc0:	1c4a                	slli	s8,s8,0x32
  101dc2:	0000                	unimp
  101dc4:	1c4a                	slli	s8,s8,0x32
  101dc6:	0000                	unimp
  101dc8:	1c4a                	slli	s8,s8,0x32
  101dca:	0000                	unimp
  101dcc:	1c4a                	slli	s8,s8,0x32
  101dce:	0000                	unimp
  101dd0:	1c4a                	slli	s8,s8,0x32
  101dd2:	0000                	unimp
  101dd4:	1c4a                	slli	s8,s8,0x32
  101dd6:	0000                	unimp
  101dd8:	1c4a                	slli	s8,s8,0x32
  101dda:	0000                	unimp
  101ddc:	1c4a                	slli	s8,s8,0x32
  101dde:	0000                	unimp
  101de0:	1c4a                	slli	s8,s8,0x32
  101de2:	0000                	unimp
  101de4:	1c4a                	slli	s8,s8,0x32
  101de6:	0000                	unimp
  101de8:	1c4a                	slli	s8,s8,0x32
  101dea:	0000                	unimp
  101dec:	1c4a                	slli	s8,s8,0x32
  101dee:	0000                	unimp
  101df0:	1c4a                	slli	s8,s8,0x32
  101df2:	0000                	unimp
  101df4:	1c4a                	slli	s8,s8,0x32
  101df6:	0000                	unimp
  101df8:	1c4a                	slli	s8,s8,0x32
  101dfa:	0000                	unimp
  101dfc:	1c4a                	slli	s8,s8,0x32
  101dfe:	0000                	unimp
  101e00:	00001c77          	0x1c77
  101e04:	00001c77          	0x1c77
  101e08:	00001c77          	0x1c77
  101e0c:	00001c77          	0x1c77
  101e10:	00001c77          	0x1c77
  101e14:	00001c77          	0x1c77
  101e18:	00001c77          	0x1c77
  101e1c:	00001c77          	0x1c77
  101e20:	00001c77          	0x1c77
  101e24:	00001c77          	0x1c77
  101e28:	00001c77          	0x1c77
  101e2c:	00001c77          	0x1c77
  101e30:	00001c77          	0x1c77
  101e34:	00001c77          	0x1c77
  101e38:	00001c77          	0x1c77
  101e3c:	00001c77          	0x1c77
  101e40:	1ca4                	addi	s1,sp,632
  101e42:	0000                	unimp
  101e44:	1ca4                	addi	s1,sp,632
  101e46:	0000                	unimp
  101e48:	1ca4                	addi	s1,sp,632
  101e4a:	0000                	unimp
  101e4c:	1ca4                	addi	s1,sp,632
  101e4e:	0000                	unimp
  101e50:	1ca4                	addi	s1,sp,632
  101e52:	0000                	unimp
  101e54:	1ca4                	addi	s1,sp,632
  101e56:	0000                	unimp
  101e58:	1ca4                	addi	s1,sp,632
  101e5a:	0000                	unimp
  101e5c:	1ca4                	addi	s1,sp,632
  101e5e:	0000                	unimp
  101e60:	1ca4                	addi	s1,sp,632
  101e62:	0000                	unimp
  101e64:	1ca4                	addi	s1,sp,632
  101e66:	0000                	unimp
  101e68:	1ca4                	addi	s1,sp,632
  101e6a:	0000                	unimp
  101e6c:	1ca4                	addi	s1,sp,632
  101e6e:	0000                	unimp
  101e70:	1ca4                	addi	s1,sp,632
  101e72:	0000                	unimp
  101e74:	1ca4                	addi	s1,sp,632
  101e76:	0000                	unimp
  101e78:	1ca4                	addi	s1,sp,632
  101e7a:	0000                	unimp
  101e7c:	1ca4                	addi	s1,sp,632
  101e7e:	0000                	unimp
  101e80:	1cd1                	addi	s9,s9,-12
  101e82:	0000                	unimp
  101e84:	1cd1                	addi	s9,s9,-12
  101e86:	0000                	unimp
  101e88:	1cd1                	addi	s9,s9,-12
  101e8a:	0000                	unimp
  101e8c:	1cd1                	addi	s9,s9,-12
  101e8e:	0000                	unimp
  101e90:	1cd1                	addi	s9,s9,-12
  101e92:	0000                	unimp
  101e94:	1cd1                	addi	s9,s9,-12
  101e96:	0000                	unimp
  101e98:	1cd1                	addi	s9,s9,-12
  101e9a:	0000                	unimp
  101e9c:	1cd1                	addi	s9,s9,-12
  101e9e:	0000                	unimp
  101ea0:	1cd1                	addi	s9,s9,-12
  101ea2:	0000                	unimp
  101ea4:	1cd1                	addi	s9,s9,-12
  101ea6:	0000                	unimp
  101ea8:	1cd1                	addi	s9,s9,-12
  101eaa:	0000                	unimp
  101eac:	1cd1                	addi	s9,s9,-12
  101eae:	0000                	unimp
  101eb0:	1cd1                	addi	s9,s9,-12
  101eb2:	0000                	unimp
  101eb4:	1cd1                	addi	s9,s9,-12
  101eb6:	0000                	unimp
  101eb8:	1cd1                	addi	s9,s9,-12
  101eba:	0000                	unimp
  101ebc:	1cd1                	addi	s9,s9,-12
  101ebe:	0000                	unimp
  101ec0:	1cfe                	slli	s9,s9,0x3f
  101ec2:	0000                	unimp
  101ec4:	1cfe                	slli	s9,s9,0x3f
  101ec6:	0000                	unimp
  101ec8:	1cfe                	slli	s9,s9,0x3f
  101eca:	0000                	unimp
  101ecc:	1cfe                	slli	s9,s9,0x3f
  101ece:	0000                	unimp
  101ed0:	1cfe                	slli	s9,s9,0x3f
  101ed2:	0000                	unimp
  101ed4:	1cfe                	slli	s9,s9,0x3f
  101ed6:	0000                	unimp
  101ed8:	1cfe                	slli	s9,s9,0x3f
  101eda:	0000                	unimp
  101edc:	1cfe                	slli	s9,s9,0x3f
  101ede:	0000                	unimp
  101ee0:	1cfe                	slli	s9,s9,0x3f
  101ee2:	0000                	unimp
  101ee4:	1cfe                	slli	s9,s9,0x3f
  101ee6:	0000                	unimp
  101ee8:	1cfe                	slli	s9,s9,0x3f
  101eea:	0000                	unimp
  101eec:	1cfe                	slli	s9,s9,0x3f
  101eee:	0000                	unimp
  101ef0:	1cfe                	slli	s9,s9,0x3f
  101ef2:	0000                	unimp
  101ef4:	1cfe                	slli	s9,s9,0x3f
  101ef6:	0000                	unimp
  101ef8:	1cfe                	slli	s9,s9,0x3f
  101efa:	0000                	unimp
  101efc:	1cfe                	slli	s9,s9,0x3f
  101efe:	0000                	unimp
  101f00:	00001d2b          	0x1d2b
  101f04:	00001d2b          	0x1d2b
  101f08:	00001d2b          	0x1d2b
  101f0c:	00001d2b          	0x1d2b
  101f10:	00001d2b          	0x1d2b
  101f14:	00001d2b          	0x1d2b
  101f18:	00001d2b          	0x1d2b
  101f1c:	00001d2b          	0x1d2b
  101f20:	00001d2b          	0x1d2b
  101f24:	00001d2b          	0x1d2b
  101f28:	00001d2b          	0x1d2b
  101f2c:	00001d2b          	0x1d2b
  101f30:	00001d2b          	0x1d2b
  101f34:	00001d2b          	0x1d2b
  101f38:	00001d2b          	0x1d2b
  101f3c:	00001d2b          	0x1d2b
  101f40:	1d58                	addi	a4,sp,692
  101f42:	0000                	unimp
  101f44:	1d58                	addi	a4,sp,692
  101f46:	0000                	unimp
  101f48:	1d58                	addi	a4,sp,692
  101f4a:	0000                	unimp
  101f4c:	1d58                	addi	a4,sp,692
  101f4e:	0000                	unimp
  101f50:	1d58                	addi	a4,sp,692
  101f52:	0000                	unimp
  101f54:	1d58                	addi	a4,sp,692
  101f56:	0000                	unimp
  101f58:	1d58                	addi	a4,sp,692
  101f5a:	0000                	unimp
  101f5c:	1d58                	addi	a4,sp,692
  101f5e:	0000                	unimp
  101f60:	1d58                	addi	a4,sp,692
  101f62:	0000                	unimp
  101f64:	1d58                	addi	a4,sp,692
  101f66:	0000                	unimp
  101f68:	1d58                	addi	a4,sp,692
  101f6a:	0000                	unimp
  101f6c:	1d58                	addi	a4,sp,692
  101f6e:	0000                	unimp
  101f70:	1d58                	addi	a4,sp,692
  101f72:	0000                	unimp
  101f74:	1d58                	addi	a4,sp,692
  101f76:	0000                	unimp
  101f78:	1d58                	addi	a4,sp,692
  101f7a:	0000                	unimp
  101f7c:	1d58                	addi	a4,sp,692
  101f7e:	0000                	unimp
  101f80:	1d85                	addi	s11,s11,-31
  101f82:	0000                	unimp
  101f84:	1d85                	addi	s11,s11,-31
  101f86:	0000                	unimp
  101f88:	1d85                	addi	s11,s11,-31
  101f8a:	0000                	unimp
  101f8c:	1d85                	addi	s11,s11,-31
  101f8e:	0000                	unimp
  101f90:	1d85                	addi	s11,s11,-31
  101f92:	0000                	unimp
  101f94:	1d85                	addi	s11,s11,-31
  101f96:	0000                	unimp
  101f98:	1d85                	addi	s11,s11,-31
  101f9a:	0000                	unimp
  101f9c:	1d85                	addi	s11,s11,-31
  101f9e:	0000                	unimp
  101fa0:	1d85                	addi	s11,s11,-31
  101fa2:	0000                	unimp
  101fa4:	1d85                	addi	s11,s11,-31
  101fa6:	0000                	unimp
  101fa8:	1d85                	addi	s11,s11,-31
  101faa:	0000                	unimp
  101fac:	1d85                	addi	s11,s11,-31
  101fae:	0000                	unimp
  101fb0:	1d85                	addi	s11,s11,-31
  101fb2:	0000                	unimp
  101fb4:	1d85                	addi	s11,s11,-31
  101fb6:	0000                	unimp
  101fb8:	1d85                	addi	s11,s11,-31
  101fba:	0000                	unimp
  101fbc:	1d85                	addi	s11,s11,-31
  101fbe:	0000                	unimp
  101fc0:	1db2                	slli	s11,s11,0x2c
  101fc2:	0000                	unimp
  101fc4:	1db2                	slli	s11,s11,0x2c
  101fc6:	0000                	unimp
  101fc8:	1db2                	slli	s11,s11,0x2c
  101fca:	0000                	unimp
  101fcc:	1db2                	slli	s11,s11,0x2c
  101fce:	0000                	unimp
  101fd0:	1db2                	slli	s11,s11,0x2c
  101fd2:	0000                	unimp
  101fd4:	1db2                	slli	s11,s11,0x2c
  101fd6:	0000                	unimp
  101fd8:	1db2                	slli	s11,s11,0x2c
  101fda:	0000                	unimp
  101fdc:	1db2                	slli	s11,s11,0x2c
  101fde:	0000                	unimp
  101fe0:	1db2                	slli	s11,s11,0x2c
  101fe2:	0000                	unimp
  101fe4:	1db2                	slli	s11,s11,0x2c
  101fe6:	0000                	unimp
  101fe8:	1db2                	slli	s11,s11,0x2c
  101fea:	0000                	unimp
  101fec:	1db2                	slli	s11,s11,0x2c
  101fee:	0000                	unimp
  101ff0:	1db2                	slli	s11,s11,0x2c
  101ff2:	0000                	unimp
  101ff4:	1db2                	slli	s11,s11,0x2c
  101ff6:	0000                	unimp
  101ff8:	1db2                	slli	s11,s11,0x2c
  101ffa:	0000                	unimp
  101ffc:	1db2                	slli	s11,s11,0x2c
  101ffe:	0000                	unimp
  102000:	1ddf 0000 1ddf      	0x1ddf00001ddf
  102006:	0000                	unimp
  102008:	1ddf 0000 1ddf      	0x1ddf00001ddf
  10200e:	0000                	unimp
  102010:	1ddf 0000 1ddf      	0x1ddf00001ddf
  102016:	0000                	unimp
  102018:	1ddf 0000 1ddf      	0x1ddf00001ddf
  10201e:	0000                	unimp
  102020:	1ddf 0000 1ddf      	0x1ddf00001ddf
  102026:	0000                	unimp
  102028:	1ddf 0000 1ddf      	0x1ddf00001ddf
  10202e:	0000                	unimp
  102030:	1ddf 0000 1ddf      	0x1ddf00001ddf
  102036:	0000                	unimp
  102038:	1ddf 0000 1ddf      	0x1ddf00001ddf
  10203e:	0000                	unimp
  102040:	1e0c                	addi	a1,sp,816
  102042:	0000                	unimp
  102044:	1e0c                	addi	a1,sp,816
  102046:	0000                	unimp
  102048:	1e0c                	addi	a1,sp,816
  10204a:	0000                	unimp
  10204c:	1e0c                	addi	a1,sp,816
  10204e:	0000                	unimp
  102050:	1e0c                	addi	a1,sp,816
  102052:	0000                	unimp
  102054:	1e0c                	addi	a1,sp,816
  102056:	0000                	unimp
  102058:	1e0c                	addi	a1,sp,816
  10205a:	0000                	unimp
  10205c:	1e0c                	addi	a1,sp,816
  10205e:	0000                	unimp
  102060:	1e0c                	addi	a1,sp,816
  102062:	0000                	unimp
  102064:	1e0c                	addi	a1,sp,816
  102066:	0000                	unimp
  102068:	1e0c                	addi	a1,sp,816
  10206a:	0000                	unimp
  10206c:	1e0c                	addi	a1,sp,816
  10206e:	0000                	unimp
  102070:	1e0c                	addi	a1,sp,816
  102072:	0000                	unimp
  102074:	1e0c                	addi	a1,sp,816
  102076:	0000                	unimp
  102078:	1e0c                	addi	a1,sp,816
  10207a:	0000                	unimp
  10207c:	1e0c                	addi	a1,sp,816
  10207e:	0000                	unimp
  102080:	00001e93          	slli	t4,zero,0x0
  102084:	00001e93          	slli	t4,zero,0x0
  102088:	00001e93          	slli	t4,zero,0x0
  10208c:	00001e93          	slli	t4,zero,0x0
  102090:	00001e93          	slli	t4,zero,0x0
  102094:	00001e93          	slli	t4,zero,0x0
  102098:	00001e93          	slli	t4,zero,0x0
  10209c:	00001e93          	slli	t4,zero,0x0
  1020a0:	00001e93          	slli	t4,zero,0x0
  1020a4:	00001e93          	slli	t4,zero,0x0
  1020a8:	00001e93          	slli	t4,zero,0x0
  1020ac:	00001e93          	slli	t4,zero,0x0
  1020b0:	00001e93          	slli	t4,zero,0x0
  1020b4:	00001e93          	slli	t4,zero,0x0
  1020b8:	00001e93          	slli	t4,zero,0x0
  1020bc:	00001e93          	slli	t4,zero,0x0
  1020c0:	1ec0                	addi	s0,sp,884
  1020c2:	0000                	unimp
  1020c4:	1ec0                	addi	s0,sp,884
  1020c6:	0000                	unimp
  1020c8:	1ec0                	addi	s0,sp,884
  1020ca:	0000                	unimp
  1020cc:	1ec0                	addi	s0,sp,884
  1020ce:	0000                	unimp
  1020d0:	1ec0                	addi	s0,sp,884
  1020d2:	0000                	unimp
  1020d4:	1ec0                	addi	s0,sp,884
  1020d6:	0000                	unimp
  1020d8:	1ec0                	addi	s0,sp,884
  1020da:	0000                	unimp
  1020dc:	1ec0                	addi	s0,sp,884
  1020de:	0000                	unimp
  1020e0:	1ec0                	addi	s0,sp,884
  1020e2:	0000                	unimp
  1020e4:	1ec0                	addi	s0,sp,884
  1020e6:	0000                	unimp
  1020e8:	1ec0                	addi	s0,sp,884
  1020ea:	0000                	unimp
  1020ec:	1ec0                	addi	s0,sp,884
  1020ee:	0000                	unimp
  1020f0:	1ec0                	addi	s0,sp,884
  1020f2:	0000                	unimp
  1020f4:	1ec0                	addi	s0,sp,884
  1020f6:	0000                	unimp
  1020f8:	1ec0                	addi	s0,sp,884
  1020fa:	0000                	unimp
  1020fc:	1ec0                	addi	s0,sp,884
  1020fe:	0000                	unimp
  102100:	1eed                	addi	t4,t4,-5
  102102:	0000                	unimp
  102104:	1eed                	addi	t4,t4,-5
  102106:	0000                	unimp
  102108:	1eed                	addi	t4,t4,-5
  10210a:	0000                	unimp
  10210c:	1eed                	addi	t4,t4,-5
  10210e:	0000                	unimp
  102110:	1eed                	addi	t4,t4,-5
  102112:	0000                	unimp
  102114:	1eed                	addi	t4,t4,-5
  102116:	0000                	unimp
  102118:	1eed                	addi	t4,t4,-5
  10211a:	0000                	unimp
  10211c:	1eed                	addi	t4,t4,-5
  10211e:	0000                	unimp
  102120:	1eed                	addi	t4,t4,-5
  102122:	0000                	unimp
  102124:	1eed                	addi	t4,t4,-5
  102126:	0000                	unimp
  102128:	1eed                	addi	t4,t4,-5
  10212a:	0000                	unimp
  10212c:	1eed                	addi	t4,t4,-5
  10212e:	0000                	unimp
  102130:	1eed                	addi	t4,t4,-5
  102132:	0000                	unimp
  102134:	1eed                	addi	t4,t4,-5
  102136:	0000                	unimp
  102138:	1eed                	addi	t4,t4,-5
  10213a:	0000                	unimp
  10213c:	1eed                	addi	t4,t4,-5
  10213e:	0000                	unimp
  102140:	1f1a                	slli	t5,t5,0x26
  102142:	0000                	unimp
  102144:	1f1a                	slli	t5,t5,0x26
  102146:	0000                	unimp
  102148:	1f1a                	slli	t5,t5,0x26
  10214a:	0000                	unimp
  10214c:	1f1a                	slli	t5,t5,0x26
  10214e:	0000                	unimp
  102150:	1f1a                	slli	t5,t5,0x26
  102152:	0000                	unimp
  102154:	1f1a                	slli	t5,t5,0x26
  102156:	0000                	unimp
  102158:	1f1a                	slli	t5,t5,0x26
  10215a:	0000                	unimp
  10215c:	1f1a                	slli	t5,t5,0x26
  10215e:	0000                	unimp
  102160:	1f1a                	slli	t5,t5,0x26
  102162:	0000                	unimp
  102164:	1f1a                	slli	t5,t5,0x26
  102166:	0000                	unimp
  102168:	1f1a                	slli	t5,t5,0x26
  10216a:	0000                	unimp
  10216c:	1f1a                	slli	t5,t5,0x26
  10216e:	0000                	unimp
  102170:	1f1a                	slli	t5,t5,0x26
  102172:	0000                	unimp
  102174:	1f1a                	slli	t5,t5,0x26
  102176:	0000                	unimp
  102178:	1f1a                	slli	t5,t5,0x26
  10217a:	0000                	unimp
  10217c:	1f1a                	slli	t5,t5,0x26
  10217e:	0000                	unimp
  102180:	00001f47          	fmsub.s	ft10,ft0,ft0,ft0,rtz
  102184:	00001f47          	fmsub.s	ft10,ft0,ft0,ft0,rtz
  102188:	00001f47          	fmsub.s	ft10,ft0,ft0,ft0,rtz
  10218c:	00001f47          	fmsub.s	ft10,ft0,ft0,ft0,rtz
  102190:	00001f47          	fmsub.s	ft10,ft0,ft0,ft0,rtz
  102194:	00001f47          	fmsub.s	ft10,ft0,ft0,ft0,rtz
  102198:	00001f47          	fmsub.s	ft10,ft0,ft0,ft0,rtz
  10219c:	00001f47          	fmsub.s	ft10,ft0,ft0,ft0,rtz
  1021a0:	00001f47          	fmsub.s	ft10,ft0,ft0,ft0,rtz
  1021a4:	00001f47          	fmsub.s	ft10,ft0,ft0,ft0,rtz
  1021a8:	00001f47          	fmsub.s	ft10,ft0,ft0,ft0,rtz
  1021ac:	00001f47          	fmsub.s	ft10,ft0,ft0,ft0,rtz
  1021b0:	00001f47          	fmsub.s	ft10,ft0,ft0,ft0,rtz
  1021b4:	00001f47          	fmsub.s	ft10,ft0,ft0,ft0,rtz
  1021b8:	00001f47          	fmsub.s	ft10,ft0,ft0,ft0,rtz
  1021bc:	00001f47          	fmsub.s	ft10,ft0,ft0,ft0,rtz
  1021c0:	1f74                	addi	a3,sp,956
  1021c2:	0000                	unimp
  1021c4:	1f74                	addi	a3,sp,956
  1021c6:	0000                	unimp
  1021c8:	1f74                	addi	a3,sp,956
  1021ca:	0000                	unimp
  1021cc:	1f74                	addi	a3,sp,956
  1021ce:	0000                	unimp
  1021d0:	1f74                	addi	a3,sp,956
  1021d2:	0000                	unimp
  1021d4:	1f74                	addi	a3,sp,956
  1021d6:	0000                	unimp
  1021d8:	1f74                	addi	a3,sp,956
  1021da:	0000                	unimp
  1021dc:	1f74                	addi	a3,sp,956
  1021de:	0000                	unimp
  1021e0:	1f74                	addi	a3,sp,956
  1021e2:	0000                	unimp
  1021e4:	1f74                	addi	a3,sp,956
  1021e6:	0000                	unimp
  1021e8:	1f74                	addi	a3,sp,956
  1021ea:	0000                	unimp
  1021ec:	1f74                	addi	a3,sp,956
  1021ee:	0000                	unimp
  1021f0:	1f74                	addi	a3,sp,956
  1021f2:	0000                	unimp
  1021f4:	1f74                	addi	a3,sp,956
  1021f6:	0000                	unimp
  1021f8:	1f74                	addi	a3,sp,956
  1021fa:	0000                	unimp
  1021fc:	1f74                	addi	a3,sp,956
  1021fe:	0000                	unimp
  102200:	1fa1                	addi	t6,t6,-24
  102202:	0000                	unimp
  102204:	1fa1                	addi	t6,t6,-24
  102206:	0000                	unimp
  102208:	1fa1                	addi	t6,t6,-24
  10220a:	0000                	unimp
  10220c:	1fa1                	addi	t6,t6,-24
  10220e:	0000                	unimp
  102210:	1fa1                	addi	t6,t6,-24
  102212:	0000                	unimp
  102214:	1fa1                	addi	t6,t6,-24
  102216:	0000                	unimp
  102218:	1fa1                	addi	t6,t6,-24
  10221a:	0000                	unimp
  10221c:	1fa1                	addi	t6,t6,-24
  10221e:	0000                	unimp
  102220:	1fa1                	addi	t6,t6,-24
  102222:	0000                	unimp
  102224:	1fa1                	addi	t6,t6,-24
  102226:	0000                	unimp
  102228:	1fa1                	addi	t6,t6,-24
  10222a:	0000                	unimp
  10222c:	1fa1                	addi	t6,t6,-24
  10222e:	0000                	unimp
  102230:	1fa1                	addi	t6,t6,-24
  102232:	0000                	unimp
  102234:	1fa1                	addi	t6,t6,-24
  102236:	0000                	unimp
  102238:	1fa1                	addi	t6,t6,-24
  10223a:	0000                	unimp
  10223c:	1fa1                	addi	t6,t6,-24
  10223e:	0000                	unimp
  102240:	1fce                	slli	t6,t6,0x33
  102242:	0000                	unimp
  102244:	1fce                	slli	t6,t6,0x33
  102246:	0000                	unimp
  102248:	1fce                	slli	t6,t6,0x33
  10224a:	0000                	unimp
  10224c:	1fce                	slli	t6,t6,0x33
  10224e:	0000                	unimp
  102250:	1fce                	slli	t6,t6,0x33
  102252:	0000                	unimp
  102254:	1fce                	slli	t6,t6,0x33
  102256:	0000                	unimp
  102258:	1fce                	slli	t6,t6,0x33
  10225a:	0000                	unimp
  10225c:	1fce                	slli	t6,t6,0x33
  10225e:	0000                	unimp
  102260:	1fce                	slli	t6,t6,0x33
  102262:	0000                	unimp
  102264:	1fce                	slli	t6,t6,0x33
  102266:	0000                	unimp
  102268:	1fce                	slli	t6,t6,0x33
  10226a:	0000                	unimp
  10226c:	1fce                	slli	t6,t6,0x33
  10226e:	0000                	unimp
  102270:	1fce                	slli	t6,t6,0x33
  102272:	0000                	unimp
  102274:	1fce                	slli	t6,t6,0x33
  102276:	0000                	unimp
  102278:	1fce                	slli	t6,t6,0x33
  10227a:	0000                	unimp
  10227c:	1fce                	slli	t6,t6,0x33
  10227e:	0000                	unimp
  102280:	00001ffb          	0x1ffb
  102284:	00001ffb          	0x1ffb
  102288:	00001ffb          	0x1ffb
  10228c:	00001ffb          	0x1ffb
  102290:	00001ffb          	0x1ffb
  102294:	00001ffb          	0x1ffb
  102298:	00001ffb          	0x1ffb
  10229c:	00001ffb          	0x1ffb
  1022a0:	00001ffb          	0x1ffb
  1022a4:	00001ffb          	0x1ffb
  1022a8:	00001ffb          	0x1ffb
  1022ac:	00001ffb          	0x1ffb
  1022b0:	00001ffb          	0x1ffb
  1022b4:	00001ffb          	0x1ffb
  1022b8:	00001ffb          	0x1ffb
  1022bc:	00001ffb          	0x1ffb
  1022c0:	2028                	fld	fa0,64(s0)
  1022c2:	0000                	unimp
  1022c4:	2028                	fld	fa0,64(s0)
  1022c6:	0000                	unimp
  1022c8:	2028                	fld	fa0,64(s0)
  1022ca:	0000                	unimp
  1022cc:	2028                	fld	fa0,64(s0)
  1022ce:	0000                	unimp
  1022d0:	2028                	fld	fa0,64(s0)
  1022d2:	0000                	unimp
  1022d4:	2028                	fld	fa0,64(s0)
  1022d6:	0000                	unimp
  1022d8:	2028                	fld	fa0,64(s0)
  1022da:	0000                	unimp
  1022dc:	2028                	fld	fa0,64(s0)
  1022de:	0000                	unimp
  1022e0:	2028                	fld	fa0,64(s0)
  1022e2:	0000                	unimp
  1022e4:	2028                	fld	fa0,64(s0)
  1022e6:	0000                	unimp
  1022e8:	2028                	fld	fa0,64(s0)
  1022ea:	0000                	unimp
  1022ec:	2028                	fld	fa0,64(s0)
  1022ee:	0000                	unimp
  1022f0:	2028                	fld	fa0,64(s0)
  1022f2:	0000                	unimp
  1022f4:	2028                	fld	fa0,64(s0)
  1022f6:	0000                	unimp
  1022f8:	2028                	fld	fa0,64(s0)
  1022fa:	0000                	unimp
  1022fc:	2028                	fld	fa0,64(s0)
  1022fe:	0000                	unimp
  102300:	2055                	jal	1023a4 <expected_output+0x2124>
  102302:	0000                	unimp
  102304:	2055                	jal	1023a8 <expected_output+0x2128>
  102306:	0000                	unimp
  102308:	2055                	jal	1023ac <expected_output+0x212c>
  10230a:	0000                	unimp
  10230c:	2055                	jal	1023b0 <expected_output+0x2130>
  10230e:	0000                	unimp
  102310:	2055                	jal	1023b4 <expected_output+0x2134>
  102312:	0000                	unimp
  102314:	2055                	jal	1023b8 <expected_output+0x2138>
  102316:	0000                	unimp
  102318:	2055                	jal	1023bc <expected_output+0x213c>
  10231a:	0000                	unimp
  10231c:	2055                	jal	1023c0 <expected_output+0x2140>
  10231e:	0000                	unimp
  102320:	2055                	jal	1023c4 <expected_output+0x2144>
  102322:	0000                	unimp
  102324:	2055                	jal	1023c8 <expected_output+0x2148>
  102326:	0000                	unimp
  102328:	2055                	jal	1023cc <expected_output+0x214c>
  10232a:	0000                	unimp
  10232c:	2055                	jal	1023d0 <expected_output+0x2150>
  10232e:	0000                	unimp
  102330:	2055                	jal	1023d4 <expected_output+0x2154>
  102332:	0000                	unimp
  102334:	2055                	jal	1023d8 <expected_output+0x2158>
  102336:	0000                	unimp
  102338:	2055                	jal	1023dc <expected_output+0x215c>
  10233a:	0000                	unimp
  10233c:	2055                	jal	1023e0 <expected_output+0x2160>
  10233e:	0000                	unimp
  102340:	2082                	fld	ft1,0(sp)
  102342:	0000                	unimp
  102344:	2082                	fld	ft1,0(sp)
  102346:	0000                	unimp
  102348:	2082                	fld	ft1,0(sp)
  10234a:	0000                	unimp
  10234c:	2082                	fld	ft1,0(sp)
  10234e:	0000                	unimp
  102350:	2082                	fld	ft1,0(sp)
  102352:	0000                	unimp
  102354:	2082                	fld	ft1,0(sp)
  102356:	0000                	unimp
  102358:	2082                	fld	ft1,0(sp)
  10235a:	0000                	unimp
  10235c:	2082                	fld	ft1,0(sp)
  10235e:	0000                	unimp
  102360:	2082                	fld	ft1,0(sp)
  102362:	0000                	unimp
  102364:	2082                	fld	ft1,0(sp)
  102366:	0000                	unimp
  102368:	2082                	fld	ft1,0(sp)
  10236a:	0000                	unimp
  10236c:	2082                	fld	ft1,0(sp)
  10236e:	0000                	unimp
  102370:	2082                	fld	ft1,0(sp)
  102372:	0000                	unimp
  102374:	2082                	fld	ft1,0(sp)
  102376:	0000                	unimp
  102378:	2082                	fld	ft1,0(sp)
  10237a:	0000                	unimp
  10237c:	2082                	fld	ft1,0(sp)
  10237e:	0000                	unimp
  102380:	000020af          	amoadd.w	ra,zero,(zero)
  102384:	000020af          	amoadd.w	ra,zero,(zero)
  102388:	000020af          	amoadd.w	ra,zero,(zero)
  10238c:	000020af          	amoadd.w	ra,zero,(zero)
  102390:	000020af          	amoadd.w	ra,zero,(zero)
  102394:	000020af          	amoadd.w	ra,zero,(zero)
  102398:	000020af          	amoadd.w	ra,zero,(zero)
  10239c:	000020af          	amoadd.w	ra,zero,(zero)
  1023a0:	000020af          	amoadd.w	ra,zero,(zero)
  1023a4:	000020af          	amoadd.w	ra,zero,(zero)
  1023a8:	000020af          	amoadd.w	ra,zero,(zero)
  1023ac:	000020af          	amoadd.w	ra,zero,(zero)
  1023b0:	000020af          	amoadd.w	ra,zero,(zero)
  1023b4:	000020af          	amoadd.w	ra,zero,(zero)
  1023b8:	000020af          	amoadd.w	ra,zero,(zero)
  1023bc:	000020af          	amoadd.w	ra,zero,(zero)
  1023c0:	20dc                	fld	fa5,128(s1)
  1023c2:	0000                	unimp
  1023c4:	20dc                	fld	fa5,128(s1)
  1023c6:	0000                	unimp
  1023c8:	20dc                	fld	fa5,128(s1)
  1023ca:	0000                	unimp
  1023cc:	20dc                	fld	fa5,128(s1)
  1023ce:	0000                	unimp
  1023d0:	20dc                	fld	fa5,128(s1)
  1023d2:	0000                	unimp
  1023d4:	20dc                	fld	fa5,128(s1)
  1023d6:	0000                	unimp
  1023d8:	20dc                	fld	fa5,128(s1)
  1023da:	0000                	unimp
  1023dc:	20dc                	fld	fa5,128(s1)
  1023de:	0000                	unimp
  1023e0:	20dc                	fld	fa5,128(s1)
  1023e2:	0000                	unimp
  1023e4:	20dc                	fld	fa5,128(s1)
  1023e6:	0000                	unimp
  1023e8:	20dc                	fld	fa5,128(s1)
  1023ea:	0000                	unimp
  1023ec:	20dc                	fld	fa5,128(s1)
  1023ee:	0000                	unimp
  1023f0:	20dc                	fld	fa5,128(s1)
  1023f2:	0000                	unimp
  1023f4:	20dc                	fld	fa5,128(s1)
  1023f6:	0000                	unimp
  1023f8:	20dc                	fld	fa5,128(s1)
  1023fa:	0000                	unimp
  1023fc:	20dc                	fld	fa5,128(s1)
  1023fe:	0000                	unimp
  102400:	2109                	jal	102802 <expected_output+0x2582>
  102402:	0000                	unimp
  102404:	2109                	jal	102806 <expected_output+0x2586>
  102406:	0000                	unimp
  102408:	2109                	jal	10280a <expected_output+0x258a>
  10240a:	0000                	unimp
  10240c:	2109                	jal	10280e <expected_output+0x258e>
  10240e:	0000                	unimp
  102410:	2109                	jal	102812 <expected_output+0x2592>
  102412:	0000                	unimp
  102414:	2109                	jal	102816 <expected_output+0x2596>
  102416:	0000                	unimp
  102418:	2109                	jal	10281a <expected_output+0x259a>
  10241a:	0000                	unimp
  10241c:	2109                	jal	10281e <expected_output+0x259e>
  10241e:	0000                	unimp
  102420:	2109                	jal	102822 <expected_output+0x25a2>
  102422:	0000                	unimp
  102424:	2109                	jal	102826 <expected_output+0x25a6>
  102426:	0000                	unimp
  102428:	2109                	jal	10282a <expected_output+0x25aa>
  10242a:	0000                	unimp
  10242c:	2109                	jal	10282e <expected_output+0x25ae>
  10242e:	0000                	unimp
  102430:	2109                	jal	102832 <expected_output+0x25b2>
  102432:	0000                	unimp
  102434:	2109                	jal	102836 <expected_output+0x25b6>
  102436:	0000                	unimp
  102438:	2109                	jal	10283a <expected_output+0x25ba>
  10243a:	0000                	unimp
  10243c:	2109                	jal	10283e <expected_output+0x25be>
  10243e:	0000                	unimp
  102440:	2136                	fld	ft2,328(sp)
  102442:	0000                	unimp
  102444:	2136                	fld	ft2,328(sp)
  102446:	0000                	unimp
  102448:	2136                	fld	ft2,328(sp)
  10244a:	0000                	unimp
  10244c:	2136                	fld	ft2,328(sp)
  10244e:	0000                	unimp
  102450:	2136                	fld	ft2,328(sp)
  102452:	0000                	unimp
  102454:	2136                	fld	ft2,328(sp)
  102456:	0000                	unimp
  102458:	2136                	fld	ft2,328(sp)
  10245a:	0000                	unimp
  10245c:	2136                	fld	ft2,328(sp)
  10245e:	0000                	unimp
  102460:	2136                	fld	ft2,328(sp)
  102462:	0000                	unimp
  102464:	2136                	fld	ft2,328(sp)
  102466:	0000                	unimp
  102468:	2136                	fld	ft2,328(sp)
  10246a:	0000                	unimp
  10246c:	2136                	fld	ft2,328(sp)
  10246e:	0000                	unimp
  102470:	2136                	fld	ft2,328(sp)
  102472:	0000                	unimp
  102474:	2136                	fld	ft2,328(sp)
  102476:	0000                	unimp
  102478:	2136                	fld	ft2,328(sp)
  10247a:	0000                	unimp
  10247c:	2136                	fld	ft2,328(sp)
  10247e:	0000                	unimp
  102480:	00002163          	0x2163
  102484:	00002163          	0x2163
  102488:	00002163          	0x2163
  10248c:	00002163          	0x2163
  102490:	00002163          	0x2163
  102494:	00002163          	0x2163
  102498:	00002163          	0x2163
  10249c:	00002163          	0x2163
  1024a0:	00002163          	0x2163
  1024a4:	00002163          	0x2163
  1024a8:	00002163          	0x2163
  1024ac:	00002163          	0x2163
  1024b0:	00002163          	0x2163
  1024b4:	00002163          	0x2163
  1024b8:	00002163          	0x2163
  1024bc:	00002163          	0x2163
  1024c0:	2190                	fld	fa2,0(a1)
  1024c2:	0000                	unimp
  1024c4:	2190                	fld	fa2,0(a1)
  1024c6:	0000                	unimp
  1024c8:	2190                	fld	fa2,0(a1)
  1024ca:	0000                	unimp
  1024cc:	2190                	fld	fa2,0(a1)
  1024ce:	0000                	unimp
  1024d0:	2190                	fld	fa2,0(a1)
  1024d2:	0000                	unimp
  1024d4:	2190                	fld	fa2,0(a1)
  1024d6:	0000                	unimp
  1024d8:	2190                	fld	fa2,0(a1)
  1024da:	0000                	unimp
  1024dc:	2190                	fld	fa2,0(a1)
  1024de:	0000                	unimp
  1024e0:	2190                	fld	fa2,0(a1)
  1024e2:	0000                	unimp
  1024e4:	2190                	fld	fa2,0(a1)
  1024e6:	0000                	unimp
  1024e8:	2190                	fld	fa2,0(a1)
  1024ea:	0000                	unimp
  1024ec:	2190                	fld	fa2,0(a1)
  1024ee:	0000                	unimp
  1024f0:	2190                	fld	fa2,0(a1)
  1024f2:	0000                	unimp
  1024f4:	2190                	fld	fa2,0(a1)
  1024f6:	0000                	unimp
  1024f8:	2190                	fld	fa2,0(a1)
  1024fa:	0000                	unimp
  1024fc:	2190                	fld	fa2,0(a1)
  1024fe:	0000                	unimp
  102500:	21bd                	jal	10296e <expected_output+0x26ee>
  102502:	0000                	unimp
  102504:	21bd                	jal	102972 <expected_output+0x26f2>
  102506:	0000                	unimp
  102508:	21bd                	jal	102976 <expected_output+0x26f6>
  10250a:	0000                	unimp
  10250c:	21bd                	jal	10297a <expected_output+0x26fa>
  10250e:	0000                	unimp
  102510:	21bd                	jal	10297e <expected_output+0x26fe>
  102512:	0000                	unimp
  102514:	21bd                	jal	102982 <expected_output+0x2702>
  102516:	0000                	unimp
  102518:	21bd                	jal	102986 <expected_output+0x2706>
  10251a:	0000                	unimp
  10251c:	21bd                	jal	10298a <expected_output+0x270a>
  10251e:	0000                	unimp
  102520:	21bd                	jal	10298e <expected_output+0x270e>
  102522:	0000                	unimp
  102524:	21bd                	jal	102992 <expected_output+0x2712>
  102526:	0000                	unimp
  102528:	21bd                	jal	102996 <expected_output+0x2716>
  10252a:	0000                	unimp
  10252c:	21bd                	jal	10299a <expected_output+0x271a>
  10252e:	0000                	unimp
  102530:	21bd                	jal	10299e <expected_output+0x271e>
  102532:	0000                	unimp
  102534:	21bd                	jal	1029a2 <expected_output+0x2722>
  102536:	0000                	unimp
  102538:	21bd                	jal	1029a6 <expected_output+0x2726>
  10253a:	0000                	unimp
  10253c:	21bd                	jal	1029aa <expected_output+0x272a>
  10253e:	0000                	unimp
  102540:	21ea                	fld	ft3,152(sp)
  102542:	0000                	unimp
  102544:	21ea                	fld	ft3,152(sp)
  102546:	0000                	unimp
  102548:	21ea                	fld	ft3,152(sp)
  10254a:	0000                	unimp
  10254c:	21ea                	fld	ft3,152(sp)
  10254e:	0000                	unimp
  102550:	21ea                	fld	ft3,152(sp)
  102552:	0000                	unimp
  102554:	21ea                	fld	ft3,152(sp)
  102556:	0000                	unimp
  102558:	21ea                	fld	ft3,152(sp)
  10255a:	0000                	unimp
  10255c:	21ea                	fld	ft3,152(sp)
  10255e:	0000                	unimp
  102560:	21ea                	fld	ft3,152(sp)
  102562:	0000                	unimp
  102564:	21ea                	fld	ft3,152(sp)
  102566:	0000                	unimp
  102568:	21ea                	fld	ft3,152(sp)
  10256a:	0000                	unimp
  10256c:	21ea                	fld	ft3,152(sp)
  10256e:	0000                	unimp
  102570:	21ea                	fld	ft3,152(sp)
  102572:	0000                	unimp
  102574:	21ea                	fld	ft3,152(sp)
  102576:	0000                	unimp
  102578:	21ea                	fld	ft3,152(sp)
  10257a:	0000                	unimp
  10257c:	21ea                	fld	ft3,152(sp)
  10257e:	0000                	unimp
  102580:	00002217          	auipc	tp,0x2
  102584:	00002217          	auipc	tp,0x2
  102588:	00002217          	auipc	tp,0x2
  10258c:	00002217          	auipc	tp,0x2
  102590:	00002217          	auipc	tp,0x2
  102594:	00002217          	auipc	tp,0x2
  102598:	00002217          	auipc	tp,0x2
  10259c:	00002217          	auipc	tp,0x2
  1025a0:	00002217          	auipc	tp,0x2
  1025a4:	00002217          	auipc	tp,0x2
  1025a8:	00002217          	auipc	tp,0x2
  1025ac:	00002217          	auipc	tp,0x2
  1025b0:	00002217          	auipc	tp,0x2
  1025b4:	00002217          	auipc	tp,0x2
  1025b8:	00002217          	auipc	tp,0x2
  1025bc:	00002217          	auipc	tp,0x2
  1025c0:	2244                	fld	fs1,128(a2)
  1025c2:	0000                	unimp
  1025c4:	2244                	fld	fs1,128(a2)
  1025c6:	0000                	unimp
  1025c8:	2244                	fld	fs1,128(a2)
  1025ca:	0000                	unimp
  1025cc:	2244                	fld	fs1,128(a2)
  1025ce:	0000                	unimp
  1025d0:	2244                	fld	fs1,128(a2)
  1025d2:	0000                	unimp
  1025d4:	2244                	fld	fs1,128(a2)
  1025d6:	0000                	unimp
  1025d8:	2244                	fld	fs1,128(a2)
  1025da:	0000                	unimp
  1025dc:	2244                	fld	fs1,128(a2)
  1025de:	0000                	unimp
  1025e0:	2244                	fld	fs1,128(a2)
  1025e2:	0000                	unimp
  1025e4:	2244                	fld	fs1,128(a2)
  1025e6:	0000                	unimp
  1025e8:	2244                	fld	fs1,128(a2)
  1025ea:	0000                	unimp
  1025ec:	2244                	fld	fs1,128(a2)
  1025ee:	0000                	unimp
  1025f0:	2244                	fld	fs1,128(a2)
  1025f2:	0000                	unimp
  1025f4:	2244                	fld	fs1,128(a2)
  1025f6:	0000                	unimp
  1025f8:	2244                	fld	fs1,128(a2)
  1025fa:	0000                	unimp
  1025fc:	2244                	fld	fs1,128(a2)
  1025fe:	0000                	unimp
  102600:	2271                	jal	10278c <expected_output+0x250c>
  102602:	0000                	unimp
  102604:	2271                	jal	102790 <expected_output+0x2510>
  102606:	0000                	unimp
  102608:	2271                	jal	102794 <expected_output+0x2514>
  10260a:	0000                	unimp
  10260c:	2271                	jal	102798 <expected_output+0x2518>
  10260e:	0000                	unimp
  102610:	2271                	jal	10279c <expected_output+0x251c>
  102612:	0000                	unimp
  102614:	2271                	jal	1027a0 <expected_output+0x2520>
  102616:	0000                	unimp
  102618:	2271                	jal	1027a4 <expected_output+0x2524>
  10261a:	0000                	unimp
  10261c:	2271                	jal	1027a8 <expected_output+0x2528>
  10261e:	0000                	unimp
  102620:	2271                	jal	1027ac <expected_output+0x252c>
  102622:	0000                	unimp
  102624:	2271                	jal	1027b0 <expected_output+0x2530>
  102626:	0000                	unimp
  102628:	2271                	jal	1027b4 <expected_output+0x2534>
  10262a:	0000                	unimp
  10262c:	2271                	jal	1027b8 <expected_output+0x2538>
  10262e:	0000                	unimp
  102630:	2271                	jal	1027bc <expected_output+0x253c>
  102632:	0000                	unimp
  102634:	2271                	jal	1027c0 <expected_output+0x2540>
  102636:	0000                	unimp
  102638:	2271                	jal	1027c4 <expected_output+0x2544>
  10263a:	0000                	unimp
  10263c:	2271                	jal	1027c8 <expected_output+0x2548>
  10263e:	0000                	unimp
  102640:	229e                	fld	ft5,448(sp)
  102642:	0000                	unimp
  102644:	229e                	fld	ft5,448(sp)
  102646:	0000                	unimp
  102648:	229e                	fld	ft5,448(sp)
  10264a:	0000                	unimp
  10264c:	229e                	fld	ft5,448(sp)
  10264e:	0000                	unimp
  102650:	229e                	fld	ft5,448(sp)
  102652:	0000                	unimp
  102654:	229e                	fld	ft5,448(sp)
  102656:	0000                	unimp
  102658:	229e                	fld	ft5,448(sp)
  10265a:	0000                	unimp
  10265c:	229e                	fld	ft5,448(sp)
  10265e:	0000                	unimp
  102660:	229e                	fld	ft5,448(sp)
  102662:	0000                	unimp
  102664:	229e                	fld	ft5,448(sp)
  102666:	0000                	unimp
  102668:	229e                	fld	ft5,448(sp)
  10266a:	0000                	unimp
  10266c:	229e                	fld	ft5,448(sp)
  10266e:	0000                	unimp
  102670:	229e                	fld	ft5,448(sp)
  102672:	0000                	unimp
  102674:	229e                	fld	ft5,448(sp)
  102676:	0000                	unimp
  102678:	229e                	fld	ft5,448(sp)
  10267a:	0000                	unimp
  10267c:	229e                	fld	ft5,448(sp)
  10267e:	0000                	unimp
  102680:	000022cb          	fnmsub.s	ft5,ft0,ft0,ft0,rdn
  102684:	000022cb          	fnmsub.s	ft5,ft0,ft0,ft0,rdn
  102688:	000022cb          	fnmsub.s	ft5,ft0,ft0,ft0,rdn
  10268c:	000022cb          	fnmsub.s	ft5,ft0,ft0,ft0,rdn
  102690:	000022cb          	fnmsub.s	ft5,ft0,ft0,ft0,rdn
  102694:	000022cb          	fnmsub.s	ft5,ft0,ft0,ft0,rdn
  102698:	000022cb          	fnmsub.s	ft5,ft0,ft0,ft0,rdn
  10269c:	000022cb          	fnmsub.s	ft5,ft0,ft0,ft0,rdn
  1026a0:	000022cb          	fnmsub.s	ft5,ft0,ft0,ft0,rdn
  1026a4:	000022cb          	fnmsub.s	ft5,ft0,ft0,ft0,rdn
  1026a8:	000022cb          	fnmsub.s	ft5,ft0,ft0,ft0,rdn
  1026ac:	000022cb          	fnmsub.s	ft5,ft0,ft0,ft0,rdn
  1026b0:	000022cb          	fnmsub.s	ft5,ft0,ft0,ft0,rdn
  1026b4:	000022cb          	fnmsub.s	ft5,ft0,ft0,ft0,rdn
  1026b8:	000022cb          	fnmsub.s	ft5,ft0,ft0,ft0,rdn
  1026bc:	000022cb          	fnmsub.s	ft5,ft0,ft0,ft0,rdn
  1026c0:	22f8                	fld	fa4,192(a3)
  1026c2:	0000                	unimp
  1026c4:	22f8                	fld	fa4,192(a3)
  1026c6:	0000                	unimp
  1026c8:	22f8                	fld	fa4,192(a3)
  1026ca:	0000                	unimp
  1026cc:	22f8                	fld	fa4,192(a3)
  1026ce:	0000                	unimp
  1026d0:	22f8                	fld	fa4,192(a3)
  1026d2:	0000                	unimp
  1026d4:	22f8                	fld	fa4,192(a3)
  1026d6:	0000                	unimp
  1026d8:	22f8                	fld	fa4,192(a3)
  1026da:	0000                	unimp
  1026dc:	22f8                	fld	fa4,192(a3)
  1026de:	0000                	unimp
  1026e0:	22f8                	fld	fa4,192(a3)
  1026e2:	0000                	unimp
  1026e4:	22f8                	fld	fa4,192(a3)
  1026e6:	0000                	unimp
  1026e8:	22f8                	fld	fa4,192(a3)
  1026ea:	0000                	unimp
  1026ec:	22f8                	fld	fa4,192(a3)
  1026ee:	0000                	unimp
  1026f0:	22f8                	fld	fa4,192(a3)
  1026f2:	0000                	unimp
  1026f4:	22f8                	fld	fa4,192(a3)
  1026f6:	0000                	unimp
  1026f8:	22f8                	fld	fa4,192(a3)
  1026fa:	0000                	unimp
  1026fc:	22f8                	fld	fa4,192(a3)
  1026fe:	0000                	unimp
  102700:	2325                	jal	102c28 <expected_output+0x29a8>
  102702:	0000                	unimp
  102704:	2325                	jal	102c2c <expected_output+0x29ac>
  102706:	0000                	unimp
  102708:	2325                	jal	102c30 <expected_output+0x29b0>
  10270a:	0000                	unimp
  10270c:	2325                	jal	102c34 <expected_output+0x29b4>
  10270e:	0000                	unimp
  102710:	2325                	jal	102c38 <expected_output+0x29b8>
  102712:	0000                	unimp
  102714:	2325                	jal	102c3c <expected_output+0x29bc>
  102716:	0000                	unimp
  102718:	2325                	jal	102c40 <expected_output+0x29c0>
  10271a:	0000                	unimp
  10271c:	2325                	jal	102c44 <expected_output+0x29c4>
  10271e:	0000                	unimp
  102720:	2325                	jal	102c48 <expected_output+0x29c8>
  102722:	0000                	unimp
  102724:	2325                	jal	102c4c <expected_output+0x29cc>
  102726:	0000                	unimp
  102728:	2325                	jal	102c50 <expected_output+0x29d0>
  10272a:	0000                	unimp
  10272c:	2325                	jal	102c54 <expected_output+0x29d4>
  10272e:	0000                	unimp
  102730:	2325                	jal	102c58 <expected_output+0x29d8>
  102732:	0000                	unimp
  102734:	2325                	jal	102c5c <expected_output+0x29dc>
  102736:	0000                	unimp
  102738:	2325                	jal	102c60 <expected_output+0x29e0>
  10273a:	0000                	unimp
  10273c:	2325                	jal	102c64 <expected_output+0x29e4>
  10273e:	0000                	unimp
  102740:	2352                	fld	ft6,272(sp)
  102742:	0000                	unimp
  102744:	2352                	fld	ft6,272(sp)
  102746:	0000                	unimp
  102748:	2352                	fld	ft6,272(sp)
  10274a:	0000                	unimp
  10274c:	2352                	fld	ft6,272(sp)
  10274e:	0000                	unimp
  102750:	2352                	fld	ft6,272(sp)
  102752:	0000                	unimp
  102754:	2352                	fld	ft6,272(sp)
  102756:	0000                	unimp
  102758:	2352                	fld	ft6,272(sp)
  10275a:	0000                	unimp
  10275c:	2352                	fld	ft6,272(sp)
  10275e:	0000                	unimp
  102760:	2352                	fld	ft6,272(sp)
  102762:	0000                	unimp
  102764:	2352                	fld	ft6,272(sp)
  102766:	0000                	unimp
  102768:	2352                	fld	ft6,272(sp)
  10276a:	0000                	unimp
  10276c:	2352                	fld	ft6,272(sp)
  10276e:	0000                	unimp
  102770:	2352                	fld	ft6,272(sp)
  102772:	0000                	unimp
  102774:	2352                	fld	ft6,272(sp)
  102776:	0000                	unimp
  102778:	2352                	fld	ft6,272(sp)
  10277a:	0000                	unimp
  10277c:	2352                	fld	ft6,272(sp)
  10277e:	0000                	unimp
  102780:	237f                	0x237f
  102782:	0000                	unimp
  102784:	237f                	0x237f
  102786:	0000                	unimp
  102788:	237f                	0x237f
  10278a:	0000                	unimp
  10278c:	237f                	0x237f
  10278e:	0000                	unimp
  102790:	237f                	0x237f
  102792:	0000                	unimp
  102794:	237f                	0x237f
  102796:	0000                	unimp
  102798:	237f                	0x237f
  10279a:	0000                	unimp
  10279c:	237f                	0x237f
  10279e:	0000                	unimp
  1027a0:	237f                	0x237f
  1027a2:	0000                	unimp
  1027a4:	237f                	0x237f
  1027a6:	0000                	unimp
  1027a8:	237f                	0x237f
  1027aa:	0000                	unimp
  1027ac:	237f                	0x237f
  1027ae:	0000                	unimp
  1027b0:	237f                	0x237f
  1027b2:	0000                	unimp
  1027b4:	237f                	0x237f
  1027b6:	0000                	unimp
  1027b8:	237f                	0x237f
  1027ba:	0000                	unimp
  1027bc:	237f                	0x237f
  1027be:	0000                	unimp
  1027c0:	23ac                	fld	fa1,64(a5)
  1027c2:	0000                	unimp
  1027c4:	23ac                	fld	fa1,64(a5)
  1027c6:	0000                	unimp
  1027c8:	23ac                	fld	fa1,64(a5)
  1027ca:	0000                	unimp
  1027cc:	23ac                	fld	fa1,64(a5)
  1027ce:	0000                	unimp
  1027d0:	23ac                	fld	fa1,64(a5)
  1027d2:	0000                	unimp
  1027d4:	23ac                	fld	fa1,64(a5)
  1027d6:	0000                	unimp
  1027d8:	23ac                	fld	fa1,64(a5)
  1027da:	0000                	unimp
  1027dc:	23ac                	fld	fa1,64(a5)
  1027de:	0000                	unimp
  1027e0:	23ac                	fld	fa1,64(a5)
  1027e2:	0000                	unimp
  1027e4:	23ac                	fld	fa1,64(a5)
  1027e6:	0000                	unimp
  1027e8:	23ac                	fld	fa1,64(a5)
  1027ea:	0000                	unimp
  1027ec:	23ac                	fld	fa1,64(a5)
  1027ee:	0000                	unimp
  1027f0:	23ac                	fld	fa1,64(a5)
  1027f2:	0000                	unimp
  1027f4:	23ac                	fld	fa1,64(a5)
  1027f6:	0000                	unimp
  1027f8:	23ac                	fld	fa1,64(a5)
  1027fa:	0000                	unimp
  1027fc:	23ac                	fld	fa1,64(a5)
  1027fe:	0000                	unimp
  102800:	00002433          	sltz	s0,zero
  102804:	00002433          	sltz	s0,zero
  102808:	00002433          	sltz	s0,zero
  10280c:	00002433          	sltz	s0,zero
  102810:	00002433          	sltz	s0,zero
  102814:	00002433          	sltz	s0,zero
  102818:	00002433          	sltz	s0,zero
  10281c:	00002433          	sltz	s0,zero
  102820:	00002433          	sltz	s0,zero
  102824:	00002433          	sltz	s0,zero
  102828:	00002433          	sltz	s0,zero
  10282c:	00002433          	sltz	s0,zero
  102830:	00002433          	sltz	s0,zero
  102834:	00002433          	sltz	s0,zero
  102838:	00002433          	sltz	s0,zero
  10283c:	00002433          	sltz	s0,zero
  102840:	2460                	fld	fs0,200(s0)
  102842:	0000                	unimp
  102844:	2460                	fld	fs0,200(s0)
  102846:	0000                	unimp
  102848:	2460                	fld	fs0,200(s0)
  10284a:	0000                	unimp
  10284c:	2460                	fld	fs0,200(s0)
  10284e:	0000                	unimp
  102850:	2460                	fld	fs0,200(s0)
  102852:	0000                	unimp
  102854:	2460                	fld	fs0,200(s0)
  102856:	0000                	unimp
  102858:	2460                	fld	fs0,200(s0)
  10285a:	0000                	unimp
  10285c:	2460                	fld	fs0,200(s0)
  10285e:	0000                	unimp
  102860:	2460                	fld	fs0,200(s0)
  102862:	0000                	unimp
  102864:	2460                	fld	fs0,200(s0)
  102866:	0000                	unimp
  102868:	2460                	fld	fs0,200(s0)
  10286a:	0000                	unimp
  10286c:	2460                	fld	fs0,200(s0)
  10286e:	0000                	unimp
  102870:	2460                	fld	fs0,200(s0)
  102872:	0000                	unimp
  102874:	2460                	fld	fs0,200(s0)
  102876:	0000                	unimp
  102878:	2460                	fld	fs0,200(s0)
  10287a:	0000                	unimp
  10287c:	2460                	fld	fs0,200(s0)
  10287e:	0000                	unimp
  102880:	248d                	jal	102ae2 <expected_output+0x2862>
  102882:	0000                	unimp
  102884:	248d                	jal	102ae6 <expected_output+0x2866>
  102886:	0000                	unimp
  102888:	248d                	jal	102aea <expected_output+0x286a>
  10288a:	0000                	unimp
  10288c:	248d                	jal	102aee <expected_output+0x286e>
  10288e:	0000                	unimp
  102890:	248d                	jal	102af2 <expected_output+0x2872>
  102892:	0000                	unimp
  102894:	248d                	jal	102af6 <expected_output+0x2876>
  102896:	0000                	unimp
  102898:	248d                	jal	102afa <expected_output+0x287a>
  10289a:	0000                	unimp
  10289c:	248d                	jal	102afe <expected_output+0x287e>
  10289e:	0000                	unimp
  1028a0:	248d                	jal	102b02 <expected_output+0x2882>
  1028a2:	0000                	unimp
  1028a4:	248d                	jal	102b06 <expected_output+0x2886>
  1028a6:	0000                	unimp
  1028a8:	248d                	jal	102b0a <expected_output+0x288a>
  1028aa:	0000                	unimp
  1028ac:	248d                	jal	102b0e <expected_output+0x288e>
  1028ae:	0000                	unimp
  1028b0:	248d                	jal	102b12 <expected_output+0x2892>
  1028b2:	0000                	unimp
  1028b4:	248d                	jal	102b16 <expected_output+0x2896>
  1028b6:	0000                	unimp
  1028b8:	248d                	jal	102b1a <expected_output+0x289a>
  1028ba:	0000                	unimp
  1028bc:	248d                	jal	102b1e <expected_output+0x289e>
  1028be:	0000                	unimp
  1028c0:	24ba                	fld	fs1,392(sp)
  1028c2:	0000                	unimp
  1028c4:	24ba                	fld	fs1,392(sp)
  1028c6:	0000                	unimp
  1028c8:	24ba                	fld	fs1,392(sp)
  1028ca:	0000                	unimp
  1028cc:	24ba                	fld	fs1,392(sp)
  1028ce:	0000                	unimp
  1028d0:	24ba                	fld	fs1,392(sp)
  1028d2:	0000                	unimp
  1028d4:	24ba                	fld	fs1,392(sp)
  1028d6:	0000                	unimp
  1028d8:	24ba                	fld	fs1,392(sp)
  1028da:	0000                	unimp
  1028dc:	24ba                	fld	fs1,392(sp)
  1028de:	0000                	unimp
  1028e0:	24ba                	fld	fs1,392(sp)
  1028e2:	0000                	unimp
  1028e4:	24ba                	fld	fs1,392(sp)
  1028e6:	0000                	unimp
  1028e8:	24ba                	fld	fs1,392(sp)
  1028ea:	0000                	unimp
  1028ec:	24ba                	fld	fs1,392(sp)
  1028ee:	0000                	unimp
  1028f0:	24ba                	fld	fs1,392(sp)
  1028f2:	0000                	unimp
  1028f4:	24ba                	fld	fs1,392(sp)
  1028f6:	0000                	unimp
  1028f8:	24ba                	fld	fs1,392(sp)
  1028fa:	0000                	unimp
  1028fc:	24ba                	fld	fs1,392(sp)
  1028fe:	0000                	unimp
  102900:	000024e7          	0x24e7
  102904:	000024e7          	0x24e7
  102908:	000024e7          	0x24e7
  10290c:	000024e7          	0x24e7
  102910:	000024e7          	0x24e7
  102914:	000024e7          	0x24e7
  102918:	000024e7          	0x24e7
  10291c:	000024e7          	0x24e7
  102920:	000024e7          	0x24e7
  102924:	000024e7          	0x24e7
  102928:	000024e7          	0x24e7
  10292c:	000024e7          	0x24e7
  102930:	000024e7          	0x24e7
  102934:	000024e7          	0x24e7
  102938:	000024e7          	0x24e7
  10293c:	000024e7          	0x24e7
  102940:	2514                	fld	fa3,8(a0)
  102942:	0000                	unimp
  102944:	2514                	fld	fa3,8(a0)
  102946:	0000                	unimp
  102948:	2514                	fld	fa3,8(a0)
  10294a:	0000                	unimp
  10294c:	2514                	fld	fa3,8(a0)
  10294e:	0000                	unimp
  102950:	2514                	fld	fa3,8(a0)
  102952:	0000                	unimp
  102954:	2514                	fld	fa3,8(a0)
  102956:	0000                	unimp
  102958:	2514                	fld	fa3,8(a0)
  10295a:	0000                	unimp
  10295c:	2514                	fld	fa3,8(a0)
  10295e:	0000                	unimp
  102960:	2514                	fld	fa3,8(a0)
  102962:	0000                	unimp
  102964:	2514                	fld	fa3,8(a0)
  102966:	0000                	unimp
  102968:	2514                	fld	fa3,8(a0)
  10296a:	0000                	unimp
  10296c:	2514                	fld	fa3,8(a0)
  10296e:	0000                	unimp
  102970:	2514                	fld	fa3,8(a0)
  102972:	0000                	unimp
  102974:	2514                	fld	fa3,8(a0)
  102976:	0000                	unimp
  102978:	2514                	fld	fa3,8(a0)
  10297a:	0000                	unimp
  10297c:	2514                	fld	fa3,8(a0)
  10297e:	0000                	unimp
  102980:	2541                	jal	103000 <expected_output+0x2d80>
  102982:	0000                	unimp
  102984:	2541                	jal	103004 <expected_output+0x2d84>
  102986:	0000                	unimp
  102988:	2541                	jal	103008 <expected_output+0x2d88>
  10298a:	0000                	unimp
  10298c:	2541                	jal	10300c <expected_output+0x2d8c>
  10298e:	0000                	unimp
  102990:	2541                	jal	103010 <expected_output+0x2d90>
  102992:	0000                	unimp
  102994:	2541                	jal	103014 <expected_output+0x2d94>
  102996:	0000                	unimp
  102998:	2541                	jal	103018 <expected_output+0x2d98>
  10299a:	0000                	unimp
  10299c:	2541                	jal	10301c <expected_output+0x2d9c>
  10299e:	0000                	unimp
  1029a0:	2541                	jal	103020 <expected_output+0x2da0>
  1029a2:	0000                	unimp
  1029a4:	2541                	jal	103024 <expected_output+0x2da4>
  1029a6:	0000                	unimp
  1029a8:	2541                	jal	103028 <expected_output+0x2da8>
  1029aa:	0000                	unimp
  1029ac:	2541                	jal	10302c <expected_output+0x2dac>
  1029ae:	0000                	unimp
  1029b0:	2541                	jal	103030 <expected_output+0x2db0>
  1029b2:	0000                	unimp
  1029b4:	2541                	jal	103034 <expected_output+0x2db4>
  1029b6:	0000                	unimp
  1029b8:	2541                	jal	103038 <expected_output+0x2db8>
  1029ba:	0000                	unimp
  1029bc:	2541                	jal	10303c <expected_output+0x2dbc>
  1029be:	0000                	unimp
  1029c0:	256e                	fld	fa0,216(sp)
  1029c2:	0000                	unimp
  1029c4:	256e                	fld	fa0,216(sp)
  1029c6:	0000                	unimp
