
riscv64_main:     file format elf64-littleriscv


Disassembly of section .text:

00000000000100b0 <register_fini>:
   100b0:	00000793          	li	a5,0
   100b4:	c791                	beqz	a5,100c0 <register_fini+0x10>
   100b6:	654d                	lui	a0,0x13
   100b8:	19450513          	addi	a0,a0,404 # 13194 <__libc_fini_array>
   100bc:	4920906f          	j	1954e <atexit>
   100c0:	8082                	ret

00000000000100c2 <_start>:
   100c2:	00010197          	auipc	gp,0x10
   100c6:	28618193          	addi	gp,gp,646 # 20348 <__global_pointer$>
   100ca:	77018513          	addi	a0,gp,1904 # 20ab8 <__malloc_max_total_mem>
   100ce:	00011617          	auipc	a2,0x11
   100d2:	a7a60613          	addi	a2,a2,-1414 # 20b48 <__BSS_END__>
   100d6:	8e09                	sub	a2,a2,a0
   100d8:	4581                	li	a1,0
   100da:	35d000ef          	jal	ra,10c36 <memset>
   100de:	00009517          	auipc	a0,0x9
   100e2:	47050513          	addi	a0,a0,1136 # 1954e <atexit>
   100e6:	c519                	beqz	a0,100f4 <_start+0x32>
   100e8:	00003517          	auipc	a0,0x3
   100ec:	0ac50513          	addi	a0,a0,172 # 13194 <__libc_fini_array>
   100f0:	45e090ef          	jal	ra,1954e <atexit>
   100f4:	4a4000ef          	jal	ra,10598 <__libc_init_array>
   100f8:	4502                	lw	a0,0(sp)
   100fa:	002c                	addi	a1,sp,8
   100fc:	4601                	li	a2,0
   100fe:	370000ef          	jal	ra,1046e <main>
   10102:	a9a5                	j	1057a <exit>

0000000000010104 <__do_global_dtors_aux>:
   10104:	7a01c703          	lbu	a4,1952(gp) # 20ae8 <completed.1>
   10108:	e715                	bnez	a4,10134 <__do_global_dtors_aux+0x30>
   1010a:	1141                	addi	sp,sp,-16
   1010c:	e022                	sd	s0,0(sp)
   1010e:	843e                	mv	s0,a5
   10110:	e406                	sd	ra,8(sp)
   10112:	00000793          	li	a5,0
   10116:	cb81                	beqz	a5,10126 <__do_global_dtors_aux+0x22>
   10118:	6579                	lui	a0,0x1e
   1011a:	00050513          	mv	a0,a0
   1011e:	00000097          	auipc	ra,0x0
   10122:	000000e7          	jalr	zero # 0 <register_fini-0x100b0>
   10126:	4785                	li	a5,1
   10128:	60a2                	ld	ra,8(sp)
   1012a:	7af18023          	sb	a5,1952(gp) # 20ae8 <completed.1>
   1012e:	6402                	ld	s0,0(sp)
   10130:	0141                	addi	sp,sp,16
   10132:	8082                	ret
   10134:	8082                	ret

0000000000010136 <frame_dummy>:
   10136:	00000793          	li	a5,0
   1013a:	cb91                	beqz	a5,1014e <frame_dummy+0x18>
   1013c:	6579                	lui	a0,0x1e
   1013e:	7a818593          	addi	a1,gp,1960 # 20af0 <object.0>
   10142:	00050513          	mv	a0,a0
   10146:	00000317          	auipc	t1,0x0
   1014a:	00000067          	jr	zero # 0 <register_fini-0x100b0>
   1014e:	8082                	ret

0000000000010150 <relu>:
   10150:	1101                	addi	sp,sp,-32
   10152:	ec22                	sd	s0,24(sp)
   10154:	1000                	addi	s0,sp,32
   10156:	fea42627          	fsw	fa0,-20(s0)
   1015a:	fec42787          	flw	fa5,-20(s0)
   1015e:	f0000753          	fmv.w.x	fa4,zero
   10162:	a0f717d3          	flt.s	a5,fa4,fa5
   10166:	c781                	beqz	a5,1016e <relu+0x1e>
   10168:	fec42787          	flw	fa5,-20(s0)
   1016c:	a019                	j	10172 <relu+0x22>
   1016e:	f00007d3          	fmv.w.x	fa5,zero
   10172:	20f78553          	fmv.s	fa0,fa5
   10176:	6462                	ld	s0,24(sp)
   10178:	6105                	addi	sp,sp,32
   1017a:	8082                	ret

000000000001017c <conv2d_1>:
   1017c:	7135                	addi	sp,sp,-160
   1017e:	ed06                	sd	ra,152(sp)
   10180:	e922                	sd	s0,144(sp)
   10182:	e526                	sd	s1,136(sp)
   10184:	1100                	addi	s0,sp,160
   10186:	f6a43c23          	sd	a0,-136(s0)
   1018a:	f6b43823          	sd	a1,-144(s0)
   1018e:	f6c43423          	sd	a2,-152(s0)
   10192:	47e1                	li	a5,24
   10194:	faf42c23          	sw	a5,-72(s0)
   10198:	47e1                	li	a5,24
   1019a:	faf42a23          	sw	a5,-76(s0)
   1019e:	02000793          	li	a5,32
   101a2:	faf42823          	sw	a5,-80(s0)
   101a6:	4795                	li	a5,5
   101a8:	faf42623          	sw	a5,-84(s0)
   101ac:	4795                	li	a5,5
   101ae:	faf42423          	sw	a5,-88(s0)
   101b2:	4785                	li	a5,1
   101b4:	faf42223          	sw	a5,-92(s0)
   101b8:	47e1                	li	a5,24
   101ba:	faf42023          	sw	a5,-96(s0)
   101be:	47e1                	li	a5,24
   101c0:	f8f42e23          	sw	a5,-100(s0)
   101c4:	02000793          	li	a5,32
   101c8:	f8f42c23          	sw	a5,-104(s0)
   101cc:	fa042783          	lw	a5,-96(s0)
   101d0:	078e                	slli	a5,a5,0x3
   101d2:	853e                	mv	a0,a5
   101d4:	42e000ef          	jal	ra,10602 <malloc>
   101d8:	87aa                	mv	a5,a0
   101da:	f8f43823          	sd	a5,-112(s0)
   101de:	fc042023          	sw	zero,-64(s0)
   101e2:	a89d                	j	10258 <conv2d_1+0xdc>
   101e4:	f9c42783          	lw	a5,-100(s0)
   101e8:	00379693          	slli	a3,a5,0x3
   101ec:	fc042783          	lw	a5,-64(s0)
   101f0:	078e                	slli	a5,a5,0x3
   101f2:	f9043703          	ld	a4,-112(s0)
   101f6:	00f704b3          	add	s1,a4,a5
   101fa:	8536                	mv	a0,a3
   101fc:	406000ef          	jal	ra,10602 <malloc>
   10200:	87aa                	mv	a5,a0
   10202:	e09c                	sd	a5,0(s1)
   10204:	fa042e23          	sw	zero,-68(s0)
   10208:	a81d                	j	1023e <conv2d_1+0xc2>
   1020a:	f9842783          	lw	a5,-104(s0)
   1020e:	00279693          	slli	a3,a5,0x2
   10212:	fc042783          	lw	a5,-64(s0)
   10216:	078e                	slli	a5,a5,0x3
   10218:	f9043703          	ld	a4,-112(s0)
   1021c:	97ba                	add	a5,a5,a4
   1021e:	6398                	ld	a4,0(a5)
   10220:	fbc42783          	lw	a5,-68(s0)
   10224:	078e                	slli	a5,a5,0x3
   10226:	00f704b3          	add	s1,a4,a5
   1022a:	8536                	mv	a0,a3
   1022c:	3d6000ef          	jal	ra,10602 <malloc>
   10230:	87aa                	mv	a5,a0
   10232:	e09c                	sd	a5,0(s1)
   10234:	fbc42783          	lw	a5,-68(s0)
   10238:	2785                	addiw	a5,a5,1
   1023a:	faf42e23          	sw	a5,-68(s0)
   1023e:	fbc42703          	lw	a4,-68(s0)
   10242:	f9c42783          	lw	a5,-100(s0)
   10246:	2701                	sext.w	a4,a4
   10248:	2781                	sext.w	a5,a5
   1024a:	fcf740e3          	blt	a4,a5,1020a <conv2d_1+0x8e>
   1024e:	fc042783          	lw	a5,-64(s0)
   10252:	2785                	addiw	a5,a5,1
   10254:	fcf42023          	sw	a5,-64(s0)
   10258:	fc042703          	lw	a4,-64(s0)
   1025c:	fa042783          	lw	a5,-96(s0)
   10260:	2701                	sext.w	a4,a4
   10262:	2781                	sext.w	a5,a5
   10264:	f8f740e3          	blt	a4,a5,101e4 <conv2d_1+0x68>
   10268:	fc042e23          	sw	zero,-36(s0)
   1026c:	a2cd                	j	1044e <conv2d_1+0x2d2>
   1026e:	fc042c23          	sw	zero,-40(s0)
   10272:	a2c9                	j	10434 <conv2d_1+0x2b8>
   10274:	fc042a23          	sw	zero,-44(s0)
   10278:	a24d                	j	1041a <conv2d_1+0x29e>
   1027a:	fc042223          	sw	zero,-60(s0)
   1027e:	fc042823          	sw	zero,-48(s0)
   10282:	aa09                	j	10394 <conv2d_1+0x218>
   10284:	fc042623          	sw	zero,-52(s0)
   10288:	a8cd                	j	1037a <conv2d_1+0x1fe>
   1028a:	fc042423          	sw	zero,-56(s0)
   1028e:	a8c9                	j	10360 <conv2d_1+0x1e4>
   10290:	fa842703          	lw	a4,-88(s0)
   10294:	fa442783          	lw	a5,-92(s0)
   10298:	02f707bb          	mulw	a5,a4,a5
   1029c:	2781                	sext.w	a5,a5
   1029e:	fb042703          	lw	a4,-80(s0)
   102a2:	02f707bb          	mulw	a5,a4,a5
   102a6:	2781                	sext.w	a5,a5
   102a8:	fd042703          	lw	a4,-48(s0)
   102ac:	02f707bb          	mulw	a5,a4,a5
   102b0:	0007871b          	sext.w	a4,a5
   102b4:	fa442683          	lw	a3,-92(s0)
   102b8:	fb042783          	lw	a5,-80(s0)
   102bc:	02f687bb          	mulw	a5,a3,a5
   102c0:	2781                	sext.w	a5,a5
   102c2:	fcc42683          	lw	a3,-52(s0)
   102c6:	02f687bb          	mulw	a5,a3,a5
   102ca:	2781                	sext.w	a5,a5
   102cc:	9fb9                	addw	a5,a5,a4
   102ce:	0007871b          	sext.w	a4,a5
   102d2:	fc842683          	lw	a3,-56(s0)
   102d6:	fb042783          	lw	a5,-80(s0)
   102da:	02f687bb          	mulw	a5,a3,a5
   102de:	2781                	sext.w	a5,a5
   102e0:	9fb9                	addw	a5,a5,a4
   102e2:	2781                	sext.w	a5,a5
   102e4:	fd442703          	lw	a4,-44(s0)
   102e8:	9fb9                	addw	a5,a5,a4
   102ea:	f8f42423          	sw	a5,-120(s0)
   102ee:	fdc42703          	lw	a4,-36(s0)
   102f2:	fd042783          	lw	a5,-48(s0)
   102f6:	9fb9                	addw	a5,a5,a4
   102f8:	2781                	sext.w	a5,a5
   102fa:	873e                	mv	a4,a5
   102fc:	87ba                	mv	a5,a4
   102fe:	0037979b          	slliw	a5,a5,0x3
   10302:	9f99                	subw	a5,a5,a4
   10304:	0027979b          	slliw	a5,a5,0x2
   10308:	0007871b          	sext.w	a4,a5
   1030c:	fd842683          	lw	a3,-40(s0)
   10310:	fcc42783          	lw	a5,-52(s0)
   10314:	9fb5                	addw	a5,a5,a3
   10316:	2781                	sext.w	a5,a5
   10318:	9fb9                	addw	a5,a5,a4
   1031a:	2781                	sext.w	a5,a5
   1031c:	fc842703          	lw	a4,-56(s0)
   10320:	9fb9                	addw	a5,a5,a4
   10322:	f8f42223          	sw	a5,-124(s0)
   10326:	f8842783          	lw	a5,-120(s0)
   1032a:	078a                	slli	a5,a5,0x2
   1032c:	f7043703          	ld	a4,-144(s0)
   10330:	97ba                	add	a5,a5,a4
   10332:	0007a707          	flw	fa4,0(a5)
   10336:	f8442783          	lw	a5,-124(s0)
   1033a:	078a                	slli	a5,a5,0x2
   1033c:	f7843703          	ld	a4,-136(s0)
   10340:	97ba                	add	a5,a5,a4
   10342:	0007a787          	flw	fa5,0(a5)
   10346:	10f777d3          	fmul.s	fa5,fa4,fa5
   1034a:	fc442707          	flw	fa4,-60(s0)
   1034e:	00f777d3          	fadd.s	fa5,fa4,fa5
   10352:	fcf42227          	fsw	fa5,-60(s0)
   10356:	fc842783          	lw	a5,-56(s0)
   1035a:	2785                	addiw	a5,a5,1
   1035c:	fcf42423          	sw	a5,-56(s0)
   10360:	fc842703          	lw	a4,-56(s0)
   10364:	fa442783          	lw	a5,-92(s0)
   10368:	2701                	sext.w	a4,a4
   1036a:	2781                	sext.w	a5,a5
   1036c:	f2f742e3          	blt	a4,a5,10290 <conv2d_1+0x114>
   10370:	fcc42783          	lw	a5,-52(s0)
   10374:	2785                	addiw	a5,a5,1
   10376:	fcf42623          	sw	a5,-52(s0)
   1037a:	fcc42703          	lw	a4,-52(s0)
   1037e:	fa842783          	lw	a5,-88(s0)
   10382:	2701                	sext.w	a4,a4
   10384:	2781                	sext.w	a5,a5
   10386:	f0f742e3          	blt	a4,a5,1028a <conv2d_1+0x10e>
   1038a:	fd042783          	lw	a5,-48(s0)
   1038e:	2785                	addiw	a5,a5,1
   10390:	fcf42823          	sw	a5,-48(s0)
   10394:	fcc42703          	lw	a4,-52(s0)
   10398:	fac42783          	lw	a5,-84(s0)
   1039c:	2701                	sext.w	a4,a4
   1039e:	2781                	sext.w	a5,a5
   103a0:	eef742e3          	blt	a4,a5,10284 <conv2d_1+0x108>
   103a4:	fb442703          	lw	a4,-76(s0)
   103a8:	fb042783          	lw	a5,-80(s0)
   103ac:	02f707bb          	mulw	a5,a4,a5
   103b0:	2781                	sext.w	a5,a5
   103b2:	fdc42703          	lw	a4,-36(s0)
   103b6:	02f707bb          	mulw	a5,a4,a5
   103ba:	0007871b          	sext.w	a4,a5
   103be:	fd842683          	lw	a3,-40(s0)
   103c2:	fb042783          	lw	a5,-80(s0)
   103c6:	02f687bb          	mulw	a5,a3,a5
   103ca:	2781                	sext.w	a5,a5
   103cc:	9fb9                	addw	a5,a5,a4
   103ce:	2781                	sext.w	a5,a5
   103d0:	fd442703          	lw	a4,-44(s0)
   103d4:	9fb9                	addw	a5,a5,a4
   103d6:	f8f42623          	sw	a5,-116(s0)
   103da:	fd442783          	lw	a5,-44(s0)
   103de:	078a                	slli	a5,a5,0x2
   103e0:	f6843703          	ld	a4,-152(s0)
   103e4:	97ba                	add	a5,a5,a4
   103e6:	0007a707          	flw	fa4,0(a5)
   103ea:	fc442787          	flw	fa5,-60(s0)
   103ee:	00f777d3          	fadd.s	fa5,fa4,fa5
   103f2:	f8c42783          	lw	a5,-116(s0)
   103f6:	078a                	slli	a5,a5,0x2
   103f8:	f9043703          	ld	a4,-112(s0)
   103fc:	00f704b3          	add	s1,a4,a5
   10400:	20f78553          	fmv.s	fa0,fa5
   10404:	d4dff0ef          	jal	ra,10150 <relu>
   10408:	20a507d3          	fmv.s	fa5,fa0
   1040c:	00f4a027          	fsw	fa5,0(s1)
   10410:	fd442783          	lw	a5,-44(s0)
   10414:	2785                	addiw	a5,a5,1
   10416:	fcf42a23          	sw	a5,-44(s0)
   1041a:	fd442703          	lw	a4,-44(s0)
   1041e:	fb042783          	lw	a5,-80(s0)
   10422:	2701                	sext.w	a4,a4
   10424:	2781                	sext.w	a5,a5
   10426:	e4f74ae3          	blt	a4,a5,1027a <conv2d_1+0xfe>
   1042a:	fd842783          	lw	a5,-40(s0)
   1042e:	2785                	addiw	a5,a5,1
   10430:	fcf42c23          	sw	a5,-40(s0)
   10434:	fd842703          	lw	a4,-40(s0)
   10438:	fb442783          	lw	a5,-76(s0)
   1043c:	2701                	sext.w	a4,a4
   1043e:	2781                	sext.w	a5,a5
   10440:	e2f74ae3          	blt	a4,a5,10274 <conv2d_1+0xf8>
   10444:	fdc42783          	lw	a5,-36(s0)
   10448:	2785                	addiw	a5,a5,1
   1044a:	fcf42e23          	sw	a5,-36(s0)
   1044e:	fdc42703          	lw	a4,-36(s0)
   10452:	fb842783          	lw	a5,-72(s0)
   10456:	2701                	sext.w	a4,a4
   10458:	2781                	sext.w	a5,a5
   1045a:	e0f74ae3          	blt	a4,a5,1026e <conv2d_1+0xf2>
   1045e:	f9043783          	ld	a5,-112(s0)
   10462:	853e                	mv	a0,a5
   10464:	60ea                	ld	ra,152(sp)
   10466:	644a                	ld	s0,144(sp)
   10468:	64aa                	ld	s1,136(sp)
   1046a:	610d                	addi	sp,sp,160
   1046c:	8082                	ret

000000000001046e <main>:
   1046e:	7179                	addi	sp,sp,-48
   10470:	f406                	sd	ra,40(sp)
   10472:	f022                	sd	s0,32(sp)
   10474:	1800                	addi	s0,sp,48
   10476:	fe042623          	sw	zero,-20(s0)
   1047a:	0001f7b7          	lui	a5,0x1f
   1047e:	c6078613          	addi	a2,a5,-928 # 1ec60 <bias>
   10482:	0001f7b7          	lui	a5,0x1f
   10486:	ce078593          	addi	a1,a5,-800 # 1ece0 <filter>
   1048a:	67f9                	lui	a5,0x1e
   1048c:	02078513          	addi	a0,a5,32 # 1e020 <img>
   10490:	cedff0ef          	jal	ra,1017c <conv2d_1>
   10494:	fca43c23          	sd	a0,-40(s0)
   10498:	fe042423          	sw	zero,-24(s0)
   1049c:	a87d                	j	1055a <main+0xec>
   1049e:	fe042223          	sw	zero,-28(s0)
   104a2:	a045                	j	10542 <main+0xd4>
   104a4:	07b00513          	li	a0,123
   104a8:	08f000ef          	jal	ra,10d36 <putchar>
   104ac:	fe042023          	sw	zero,-32(s0)
   104b0:	a885                	j	10520 <main+0xb2>
   104b2:	fe842703          	lw	a4,-24(s0)
   104b6:	87ba                	mv	a5,a4
   104b8:	0017979b          	slliw	a5,a5,0x1
   104bc:	9fb9                	addw	a5,a5,a4
   104be:	0037979b          	slliw	a5,a5,0x3
   104c2:	2781                	sext.w	a5,a5
   104c4:	fe442703          	lw	a4,-28(s0)
   104c8:	9fb9                	addw	a5,a5,a4
   104ca:	2781                	sext.w	a5,a5
   104cc:	0057979b          	slliw	a5,a5,0x5
   104d0:	2781                	sext.w	a5,a5
   104d2:	fe042703          	lw	a4,-32(s0)
   104d6:	9fb9                	addw	a5,a5,a4
   104d8:	fcf42a23          	sw	a5,-44(s0)
   104dc:	fec42783          	lw	a5,-20(s0)
   104e0:	2785                	addiw	a5,a5,1
   104e2:	fef42623          	sw	a5,-20(s0)
   104e6:	fd442783          	lw	a5,-44(s0)
   104ea:	078a                	slli	a5,a5,0x2
   104ec:	fd843703          	ld	a4,-40(s0)
   104f0:	97ba                	add	a5,a5,a4
   104f2:	0007a787          	flw	fa5,0(a5)
   104f6:	420787d3          	fcvt.d.s	fa5,fa5
   104fa:	fe042683          	lw	a3,-32(s0)
   104fe:	fe442603          	lw	a2,-28(s0)
   10502:	fe842783          	lw	a5,-24(s0)
   10506:	e2078753          	fmv.x.d	a4,fa5
   1050a:	85be                	mv	a1,a5
   1050c:	67f5                	lui	a5,0x1d
   1050e:	98078513          	addi	a0,a5,-1664 # 1c980 <__clzdi2+0x34>
   10512:	7f4000ef          	jal	ra,10d06 <printf>
   10516:	fe042783          	lw	a5,-32(s0)
   1051a:	2785                	addiw	a5,a5,1
   1051c:	fef42023          	sw	a5,-32(s0)
   10520:	fe042783          	lw	a5,-32(s0)
   10524:	0007871b          	sext.w	a4,a5
   10528:	47fd                	li	a5,31
   1052a:	f8e7d4e3          	bge	a5,a4,104b2 <main+0x44>
   1052e:	67f5                	lui	a5,0x1d
   10530:	9a078513          	addi	a0,a5,-1632 # 1c9a0 <__clzdi2+0x54>
   10534:	7d2000ef          	jal	ra,10d06 <printf>
   10538:	fe442783          	lw	a5,-28(s0)
   1053c:	2785                	addiw	a5,a5,1
   1053e:	fef42223          	sw	a5,-28(s0)
   10542:	fe442783          	lw	a5,-28(s0)
   10546:	0007871b          	sext.w	a4,a5
   1054a:	47dd                	li	a5,23
   1054c:	f4e7dce3          	bge	a5,a4,104a4 <main+0x36>
   10550:	fe842783          	lw	a5,-24(s0)
   10554:	2785                	addiw	a5,a5,1
   10556:	fef42423          	sw	a5,-24(s0)
   1055a:	fe842783          	lw	a5,-24(s0)
   1055e:	0007871b          	sext.w	a4,a5
   10562:	47dd                	li	a5,23
   10564:	f2e7dde3          	bge	a5,a4,1049e <main+0x30>
   10568:	4529                	li	a0,10
   1056a:	7cc000ef          	jal	ra,10d36 <putchar>
   1056e:	4781                	li	a5,0
   10570:	853e                	mv	a0,a5
   10572:	70a2                	ld	ra,40(sp)
   10574:	7402                	ld	s0,32(sp)
   10576:	6145                	addi	sp,sp,48
   10578:	8082                	ret

000000000001057a <exit>:
   1057a:	1141                	addi	sp,sp,-16
   1057c:	4581                	li	a1,0
   1057e:	e022                	sd	s0,0(sp)
   10580:	e406                	sd	ra,8(sp)
   10582:	842a                	mv	s0,a0
   10584:	6b8020ef          	jal	ra,12c3c <__call_exitprocs>
   10588:	7481b503          	ld	a0,1864(gp) # 20a90 <_global_impure_ptr>
   1058c:	6d3c                	ld	a5,88(a0)
   1058e:	c391                	beqz	a5,10592 <exit+0x18>
   10590:	9782                	jalr	a5
   10592:	8522                	mv	a0,s0
   10594:	5c70a0ef          	jal	ra,1b35a <_exit>

0000000000010598 <__libc_init_array>:
   10598:	1101                	addi	sp,sp,-32
   1059a:	e822                	sd	s0,16(sp)
   1059c:	e04a                	sd	s2,0(sp)
   1059e:	6479                	lui	s0,0x1e
   105a0:	6979                	lui	s2,0x1e
   105a2:	00440793          	addi	a5,s0,4 # 1e004 <__preinit_array_end>
   105a6:	00490913          	addi	s2,s2,4 # 1e004 <__preinit_array_end>
   105aa:	40f90933          	sub	s2,s2,a5
   105ae:	ec06                	sd	ra,24(sp)
   105b0:	e426                	sd	s1,8(sp)
   105b2:	40395913          	srai	s2,s2,0x3
   105b6:	00090b63          	beqz	s2,105cc <__libc_init_array+0x34>
   105ba:	00440413          	addi	s0,s0,4
   105be:	4481                	li	s1,0
   105c0:	601c                	ld	a5,0(s0)
   105c2:	0485                	addi	s1,s1,1
   105c4:	0421                	addi	s0,s0,8
   105c6:	9782                	jalr	a5
   105c8:	fe991ce3          	bne	s2,s1,105c0 <__libc_init_array+0x28>
   105cc:	6479                	lui	s0,0x1e
   105ce:	6979                	lui	s2,0x1e
   105d0:	00840793          	addi	a5,s0,8 # 1e008 <__init_array_start>
   105d4:	01890913          	addi	s2,s2,24 # 1e018 <__do_global_dtors_aux_fini_array_entry>
   105d8:	40f90933          	sub	s2,s2,a5
   105dc:	40395913          	srai	s2,s2,0x3
   105e0:	00090b63          	beqz	s2,105f6 <__libc_init_array+0x5e>
   105e4:	00840413          	addi	s0,s0,8
   105e8:	4481                	li	s1,0
   105ea:	601c                	ld	a5,0(s0)
   105ec:	0485                	addi	s1,s1,1
   105ee:	0421                	addi	s0,s0,8
   105f0:	9782                	jalr	a5
   105f2:	fe991ce3          	bne	s2,s1,105ea <__libc_init_array+0x52>
   105f6:	60e2                	ld	ra,24(sp)
   105f8:	6442                	ld	s0,16(sp)
   105fa:	64a2                	ld	s1,8(sp)
   105fc:	6902                	ld	s2,0(sp)
   105fe:	6105                	addi	sp,sp,32
   10600:	8082                	ret

0000000000010602 <malloc>:
   10602:	85aa                	mv	a1,a0
   10604:	7581b503          	ld	a0,1880(gp) # 20aa0 <_impure_ptr>
   10608:	a031                	j	10614 <_malloc_r>

000000000001060a <free>:
   1060a:	85aa                	mv	a1,a0
   1060c:	7581b503          	ld	a0,1880(gp) # 20aa0 <_impure_ptr>
   10610:	48f0206f          	j	1329e <_free_r>

0000000000010614 <_malloc_r>:
   10614:	711d                	addi	sp,sp,-96
   10616:	e4a6                	sd	s1,72(sp)
   10618:	e0ca                	sd	s2,64(sp)
   1061a:	ec86                	sd	ra,88(sp)
   1061c:	e8a2                	sd	s0,80(sp)
   1061e:	fc4e                	sd	s3,56(sp)
   10620:	f852                	sd	s4,48(sp)
   10622:	f456                	sd	s5,40(sp)
   10624:	f05a                	sd	s6,32(sp)
   10626:	ec5e                	sd	s7,24(sp)
   10628:	e862                	sd	s8,16(sp)
   1062a:	e466                	sd	s9,8(sp)
   1062c:	01758493          	addi	s1,a1,23
   10630:	02e00793          	li	a5,46
   10634:	892a                	mv	s2,a0
   10636:	0497e863          	bltu	a5,s1,10686 <_malloc_r+0x72>
   1063a:	02000793          	li	a5,32
   1063e:	1eb7e463          	bltu	a5,a1,10826 <_malloc_r+0x212>
   10642:	69e000ef          	jal	ra,10ce0 <__malloc_lock>
   10646:	02000493          	li	s1,32
   1064a:	05000793          	li	a5,80
   1064e:	4611                	li	a2,4
   10650:	000209b7          	lui	s3,0x20
   10654:	0a898993          	addi	s3,s3,168 # 200a8 <__malloc_av_>
   10658:	97ce                	add	a5,a5,s3
   1065a:	6780                	ld	s0,8(a5)
   1065c:	ff078713          	addi	a4,a5,-16
   10660:	1ee40463          	beq	s0,a4,10848 <_malloc_r+0x234>
   10664:	641c                	ld	a5,8(s0)
   10666:	6c14                	ld	a3,24(s0)
   10668:	6810                	ld	a2,16(s0)
   1066a:	9bf1                	andi	a5,a5,-4
   1066c:	97a2                	add	a5,a5,s0
   1066e:	6798                	ld	a4,8(a5)
   10670:	ee14                	sd	a3,24(a2)
   10672:	ea90                	sd	a2,16(a3)
   10674:	00176713          	ori	a4,a4,1
   10678:	854a                	mv	a0,s2
   1067a:	e798                	sd	a4,8(a5)
   1067c:	666000ef          	jal	ra,10ce2 <__malloc_unlock>
   10680:	01040513          	addi	a0,s0,16
   10684:	a26d                	j	1082e <_malloc_r+0x21a>
   10686:	800007b7          	lui	a5,0x80000
   1068a:	98c1                	andi	s1,s1,-16
   1068c:	fff7c793          	not	a5,a5
   10690:	1897eb63          	bltu	a5,s1,10826 <_malloc_r+0x212>
   10694:	18b4e963          	bltu	s1,a1,10826 <_malloc_r+0x212>
   10698:	648000ef          	jal	ra,10ce0 <__malloc_lock>
   1069c:	1f700793          	li	a5,503
   106a0:	3a97f363          	bgeu	a5,s1,10a46 <_malloc_r+0x432>
   106a4:	0094d793          	srli	a5,s1,0x9
   106a8:	26078f63          	beqz	a5,10926 <_malloc_r+0x312>
   106ac:	4711                	li	a4,4
   106ae:	30f76363          	bltu	a4,a5,109b4 <_malloc_r+0x3a0>
   106b2:	0064d793          	srli	a5,s1,0x6
   106b6:	0397861b          	addiw	a2,a5,57
   106ba:	0016169b          	slliw	a3,a2,0x1
   106be:	0387851b          	addiw	a0,a5,56
   106c2:	068e                	slli	a3,a3,0x3
   106c4:	000209b7          	lui	s3,0x20
   106c8:	0a898993          	addi	s3,s3,168 # 200a8 <__malloc_av_>
   106cc:	96ce                	add	a3,a3,s3
   106ce:	6680                	ld	s0,8(a3)
   106d0:	16c1                	addi	a3,a3,-16
   106d2:	16868f63          	beq	a3,s0,10850 <_malloc_r+0x23c>
   106d6:	45fd                	li	a1,31
   106d8:	a031                	j	106e4 <_malloc_r+0xd0>
   106da:	28075763          	bgez	a4,10968 <_malloc_r+0x354>
   106de:	6c00                	ld	s0,24(s0)
   106e0:	16868863          	beq	a3,s0,10850 <_malloc_r+0x23c>
   106e4:	641c                	ld	a5,8(s0)
   106e6:	9bf1                	andi	a5,a5,-4
   106e8:	40978733          	sub	a4,a5,s1
   106ec:	fee5d7e3          	bge	a1,a4,106da <_malloc_r+0xc6>
   106f0:	0209b403          	ld	s0,32(s3)
   106f4:	00020837          	lui	a6,0x20
   106f8:	0b880813          	addi	a6,a6,184 # 200b8 <__malloc_av_+0x10>
   106fc:	862a                	mv	a2,a0
   106fe:	17041163          	bne	s0,a6,10860 <_malloc_r+0x24c>
   10702:	0089b783          	ld	a5,8(s3)
   10706:	4026571b          	sraiw	a4,a2,0x2
   1070a:	4585                	li	a1,1
   1070c:	00e595b3          	sll	a1,a1,a4
   10710:	1ab7f863          	bgeu	a5,a1,108c0 <_malloc_r+0x2ac>
   10714:	0109b403          	ld	s0,16(s3)
   10718:	00843a03          	ld	s4,8(s0)
   1071c:	ffca7a93          	andi	s5,s4,-4
   10720:	009ae763          	bltu	s5,s1,1072e <_malloc_r+0x11a>
   10724:	409a87b3          	sub	a5,s5,s1
   10728:	477d                	li	a4,31
   1072a:	22f74063          	blt	a4,a5,1094a <_malloc_r+0x336>
   1072e:	7801ba03          	ld	s4,1920(gp) # 20ac8 <__malloc_top_pad>
   10732:	7601b703          	ld	a4,1888(gp) # 20aa8 <__malloc_sbrk_base>
   10736:	57fd                	li	a5,-1
   10738:	01540c33          	add	s8,s0,s5
   1073c:	9a26                	add	s4,s4,s1
   1073e:	3af70263          	beq	a4,a5,10ae2 <_malloc_r+0x4ce>
   10742:	6785                	lui	a5,0x1
   10744:	07fd                	addi	a5,a5,31
   10746:	9a3e                	add	s4,s4,a5
   10748:	77fd                	lui	a5,0xfffff
   1074a:	00fa7a33          	and	s4,s4,a5
   1074e:	85d2                	mv	a1,s4
   10750:	854a                	mv	a0,s2
   10752:	6bc000ef          	jal	ra,10e0e <_sbrk_r>
   10756:	57fd                	li	a5,-1
   10758:	8b2a                	mv	s6,a0
   1075a:	30f50b63          	beq	a0,a5,10a70 <_malloc_r+0x45c>
   1075e:	31856763          	bltu	a0,s8,10a6c <_malloc_r+0x458>
   10762:	7d818b93          	addi	s7,gp,2008 # 20b20 <__malloc_current_mallinfo>
   10766:	000ba703          	lw	a4,0(s7)
   1076a:	014707bb          	addw	a5,a4,s4
   1076e:	00fba023          	sw	a5,0(s7)
   10772:	86be                	mv	a3,a5
   10774:	40ac0063          	beq	s8,a0,10b74 <_malloc_r+0x560>
   10778:	7601b703          	ld	a4,1888(gp) # 20aa8 <__malloc_sbrk_base>
   1077c:	57fd                	li	a5,-1
   1077e:	40f70763          	beq	a4,a5,10b8c <_malloc_r+0x578>
   10782:	418b07b3          	sub	a5,s6,s8
   10786:	9fb5                	addw	a5,a5,a3
   10788:	00fba023          	sw	a5,0(s7)
   1078c:	00fb7c13          	andi	s8,s6,15
   10790:	360c0763          	beqz	s8,10afe <_malloc_r+0x4ea>
   10794:	6705                	lui	a4,0x1
   10796:	418b0b33          	sub	s6,s6,s8
   1079a:	01070793          	addi	a5,a4,16 # 1010 <register_fini-0xf0a0>
   1079e:	0b41                	addi	s6,s6,16
   107a0:	418787b3          	sub	a5,a5,s8
   107a4:	014b0cb3          	add	s9,s6,s4
   107a8:	41978a33          	sub	s4,a5,s9
   107ac:	177d                	addi	a4,a4,-1
   107ae:	00ea7a33          	and	s4,s4,a4
   107b2:	85d2                	mv	a1,s4
   107b4:	854a                	mv	a0,s2
   107b6:	658000ef          	jal	ra,10e0e <_sbrk_r>
   107ba:	57fd                	li	a5,-1
   107bc:	40f50d63          	beq	a0,a5,10bd6 <_malloc_r+0x5c2>
   107c0:	41650533          	sub	a0,a0,s6
   107c4:	000a071b          	sext.w	a4,s4
   107c8:	9a2a                	add	s4,s4,a0
   107ca:	000ba783          	lw	a5,0(s7)
   107ce:	0169b823          	sd	s6,16(s3)
   107d2:	001a6a13          	ori	s4,s4,1
   107d6:	9fb9                	addw	a5,a5,a4
   107d8:	00fba023          	sw	a5,0(s7)
   107dc:	014b3423          	sd	s4,8(s6)
   107e0:	3b340963          	beq	s0,s3,10b92 <_malloc_r+0x57e>
   107e4:	467d                	li	a2,31
   107e6:	3b567863          	bgeu	a2,s5,10b96 <_malloc_r+0x582>
   107ea:	6414                	ld	a3,8(s0)
   107ec:	fe8a8713          	addi	a4,s5,-24
   107f0:	9b41                	andi	a4,a4,-16
   107f2:	8a85                	andi	a3,a3,1
   107f4:	8ed9                	or	a3,a3,a4
   107f6:	e414                	sd	a3,8(s0)
   107f8:	45a5                	li	a1,9
   107fa:	00e406b3          	add	a3,s0,a4
   107fe:	e68c                	sd	a1,8(a3)
   10800:	ea8c                	sd	a1,16(a3)
   10802:	3ee66163          	bltu	a2,a4,10be4 <_malloc_r+0x5d0>
   10806:	008b3a03          	ld	s4,8(s6)
   1080a:	845a                	mv	s0,s6
   1080c:	7781b683          	ld	a3,1912(gp) # 20ac0 <__malloc_max_sbrked_mem>
   10810:	00f6f463          	bgeu	a3,a5,10818 <_malloc_r+0x204>
   10814:	76f1bc23          	sd	a5,1912(gp) # 20ac0 <__malloc_max_sbrked_mem>
   10818:	7701b683          	ld	a3,1904(gp) # 20ab8 <__malloc_max_total_mem>
   1081c:	24f6fe63          	bgeu	a3,a5,10a78 <_malloc_r+0x464>
   10820:	76f1b823          	sd	a5,1904(gp) # 20ab8 <__malloc_max_total_mem>
   10824:	ac91                	j	10a78 <_malloc_r+0x464>
   10826:	47b1                	li	a5,12
   10828:	00f92023          	sw	a5,0(s2)
   1082c:	4501                	li	a0,0
   1082e:	60e6                	ld	ra,88(sp)
   10830:	6446                	ld	s0,80(sp)
   10832:	64a6                	ld	s1,72(sp)
   10834:	6906                	ld	s2,64(sp)
   10836:	79e2                	ld	s3,56(sp)
   10838:	7a42                	ld	s4,48(sp)
   1083a:	7aa2                	ld	s5,40(sp)
   1083c:	7b02                	ld	s6,32(sp)
   1083e:	6be2                	ld	s7,24(sp)
   10840:	6c42                	ld	s8,16(sp)
   10842:	6ca2                	ld	s9,8(sp)
   10844:	6125                	addi	sp,sp,96
   10846:	8082                	ret
   10848:	6f80                	ld	s0,24(a5)
   1084a:	2609                	addiw	a2,a2,2
   1084c:	e0879ce3          	bne	a5,s0,10664 <_malloc_r+0x50>
   10850:	0209b403          	ld	s0,32(s3)
   10854:	00020837          	lui	a6,0x20
   10858:	0b880813          	addi	a6,a6,184 # 200b8 <__malloc_av_+0x10>
   1085c:	eb0403e3          	beq	s0,a6,10702 <_malloc_r+0xee>
   10860:	641c                	ld	a5,8(s0)
   10862:	46fd                	li	a3,31
   10864:	9bf1                	andi	a5,a5,-4
   10866:	40978733          	sub	a4,a5,s1
   1086a:	1ae6c763          	blt	a3,a4,10a18 <_malloc_r+0x404>
   1086e:	0309b423          	sd	a6,40(s3)
   10872:	0309b023          	sd	a6,32(s3)
   10876:	0a075f63          	bgez	a4,10934 <_malloc_r+0x320>
   1087a:	1ff00713          	li	a4,511
   1087e:	0ef76863          	bltu	a4,a5,1096e <_malloc_r+0x35a>
   10882:	838d                	srli	a5,a5,0x3
   10884:	0017871b          	addiw	a4,a5,1
   10888:	0017171b          	slliw	a4,a4,0x1
   1088c:	070e                	slli	a4,a4,0x3
   1088e:	0089b503          	ld	a0,8(s3)
   10892:	974e                	add	a4,a4,s3
   10894:	630c                	ld	a1,0(a4)
   10896:	4027d69b          	sraiw	a3,a5,0x2
   1089a:	4785                	li	a5,1
   1089c:	00d797b3          	sll	a5,a5,a3
   108a0:	8fc9                	or	a5,a5,a0
   108a2:	ff070693          	addi	a3,a4,-16
   108a6:	ec14                	sd	a3,24(s0)
   108a8:	e80c                	sd	a1,16(s0)
   108aa:	00f9b423          	sd	a5,8(s3)
   108ae:	e300                	sd	s0,0(a4)
   108b0:	ed80                	sd	s0,24(a1)
   108b2:	4026571b          	sraiw	a4,a2,0x2
   108b6:	4585                	li	a1,1
   108b8:	00e595b3          	sll	a1,a1,a4
   108bc:	e4b7ece3          	bltu	a5,a1,10714 <_malloc_r+0x100>
   108c0:	00f5f733          	and	a4,a1,a5
   108c4:	ef01                	bnez	a4,108dc <_malloc_r+0x2c8>
   108c6:	0586                	slli	a1,a1,0x1
   108c8:	9a71                	andi	a2,a2,-4
   108ca:	00f5f733          	and	a4,a1,a5
   108ce:	2611                	addiw	a2,a2,4
   108d0:	e711                	bnez	a4,108dc <_malloc_r+0x2c8>
   108d2:	0586                	slli	a1,a1,0x1
   108d4:	00f5f733          	and	a4,a1,a5
   108d8:	2611                	addiw	a2,a2,4
   108da:	df65                	beqz	a4,108d2 <_malloc_r+0x2be>
   108dc:	48fd                	li	a7,31
   108de:	0016031b          	addiw	t1,a2,1
   108e2:	0013131b          	slliw	t1,t1,0x1
   108e6:	030e                	slli	t1,t1,0x3
   108e8:	1341                	addi	t1,t1,-16
   108ea:	934e                	add	t1,t1,s3
   108ec:	851a                	mv	a0,t1
   108ee:	6d1c                	ld	a5,24(a0)
   108f0:	8e32                	mv	t3,a2
   108f2:	0ef50263          	beq	a0,a5,109d6 <_malloc_r+0x3c2>
   108f6:	6798                	ld	a4,8(a5)
   108f8:	843e                	mv	s0,a5
   108fa:	6f9c                	ld	a5,24(a5)
   108fc:	9b71                	andi	a4,a4,-4
   108fe:	409706b3          	sub	a3,a4,s1
   10902:	0ed8c163          	blt	a7,a3,109e4 <_malloc_r+0x3d0>
   10906:	fe06c6e3          	bltz	a3,108f2 <_malloc_r+0x2de>
   1090a:	9722                	add	a4,a4,s0
   1090c:	6714                	ld	a3,8(a4)
   1090e:	6810                	ld	a2,16(s0)
   10910:	854a                	mv	a0,s2
   10912:	0016e693          	ori	a3,a3,1
   10916:	e714                	sd	a3,8(a4)
   10918:	ee1c                	sd	a5,24(a2)
   1091a:	eb90                	sd	a2,16(a5)
   1091c:	3c6000ef          	jal	ra,10ce2 <__malloc_unlock>
   10920:	01040513          	addi	a0,s0,16
   10924:	b729                	j	1082e <_malloc_r+0x21a>
   10926:	40000693          	li	a3,1024
   1092a:	04000613          	li	a2,64
   1092e:	03f00513          	li	a0,63
   10932:	bb49                	j	106c4 <_malloc_r+0xb0>
   10934:	97a2                	add	a5,a5,s0
   10936:	6798                	ld	a4,8(a5)
   10938:	854a                	mv	a0,s2
   1093a:	00176713          	ori	a4,a4,1
   1093e:	e798                	sd	a4,8(a5)
   10940:	3a2000ef          	jal	ra,10ce2 <__malloc_unlock>
   10944:	01040513          	addi	a0,s0,16
   10948:	b5dd                	j	1082e <_malloc_r+0x21a>
   1094a:	0014e713          	ori	a4,s1,1
   1094e:	e418                	sd	a4,8(s0)
   10950:	94a2                	add	s1,s1,s0
   10952:	0099b823          	sd	s1,16(s3)
   10956:	0017e793          	ori	a5,a5,1
   1095a:	854a                	mv	a0,s2
   1095c:	e49c                	sd	a5,8(s1)
   1095e:	384000ef          	jal	ra,10ce2 <__malloc_unlock>
   10962:	01040513          	addi	a0,s0,16
   10966:	b5e1                	j	1082e <_malloc_r+0x21a>
   10968:	6c14                	ld	a3,24(s0)
   1096a:	6810                	ld	a2,16(s0)
   1096c:	b301                	j	1066c <_malloc_r+0x58>
   1096e:	0097d713          	srli	a4,a5,0x9
   10972:	4691                	li	a3,4
   10974:	0ee6f263          	bgeu	a3,a4,10a58 <_malloc_r+0x444>
   10978:	46d1                	li	a3,20
   1097a:	1ae6e863          	bltu	a3,a4,10b2a <_malloc_r+0x516>
   1097e:	05c7059b          	addiw	a1,a4,92
   10982:	0015959b          	slliw	a1,a1,0x1
   10986:	05b7069b          	addiw	a3,a4,91
   1098a:	058e                	slli	a1,a1,0x3
   1098c:	95ce                	add	a1,a1,s3
   1098e:	6198                	ld	a4,0(a1)
   10990:	15c1                	addi	a1,a1,-16
   10992:	14e58b63          	beq	a1,a4,10ae8 <_malloc_r+0x4d4>
   10996:	6714                	ld	a3,8(a4)
   10998:	9af1                	andi	a3,a3,-4
   1099a:	00d7f563          	bgeu	a5,a3,109a4 <_malloc_r+0x390>
   1099e:	6b18                	ld	a4,16(a4)
   109a0:	fee59be3          	bne	a1,a4,10996 <_malloc_r+0x382>
   109a4:	6f0c                	ld	a1,24(a4)
   109a6:	0089b783          	ld	a5,8(s3)
   109aa:	ec0c                	sd	a1,24(s0)
   109ac:	e818                	sd	a4,16(s0)
   109ae:	e980                	sd	s0,16(a1)
   109b0:	ef00                	sd	s0,24(a4)
   109b2:	b701                	j	108b2 <_malloc_r+0x29e>
   109b4:	4751                	li	a4,20
   109b6:	0cf77f63          	bgeu	a4,a5,10a94 <_malloc_r+0x480>
   109ba:	05400713          	li	a4,84
   109be:	18f76463          	bltu	a4,a5,10b46 <_malloc_r+0x532>
   109c2:	00c4d793          	srli	a5,s1,0xc
   109c6:	06f7861b          	addiw	a2,a5,111
   109ca:	0016169b          	slliw	a3,a2,0x1
   109ce:	06e7851b          	addiw	a0,a5,110
   109d2:	068e                	slli	a3,a3,0x3
   109d4:	b9c5                	j	106c4 <_malloc_r+0xb0>
   109d6:	2e05                	addiw	t3,t3,1
   109d8:	003e7793          	andi	a5,t3,3
   109dc:	0541                	addi	a0,a0,16
   109de:	cbe1                	beqz	a5,10aae <_malloc_r+0x49a>
   109e0:	6d1c                	ld	a5,24(a0)
   109e2:	bf01                	j	108f2 <_malloc_r+0x2de>
   109e4:	6810                	ld	a2,16(s0)
   109e6:	0014e593          	ori	a1,s1,1
   109ea:	e40c                	sd	a1,8(s0)
   109ec:	ee1c                	sd	a5,24(a2)
   109ee:	eb90                	sd	a2,16(a5)
   109f0:	94a2                	add	s1,s1,s0
   109f2:	0299b423          	sd	s1,40(s3)
   109f6:	0299b023          	sd	s1,32(s3)
   109fa:	0016e793          	ori	a5,a3,1
   109fe:	0104bc23          	sd	a6,24(s1)
   10a02:	0104b823          	sd	a6,16(s1)
   10a06:	e49c                	sd	a5,8(s1)
   10a08:	9722                	add	a4,a4,s0
   10a0a:	854a                	mv	a0,s2
   10a0c:	e314                	sd	a3,0(a4)
   10a0e:	2d4000ef          	jal	ra,10ce2 <__malloc_unlock>
   10a12:	01040513          	addi	a0,s0,16
   10a16:	bd21                	j	1082e <_malloc_r+0x21a>
   10a18:	0014e693          	ori	a3,s1,1
   10a1c:	e414                	sd	a3,8(s0)
   10a1e:	94a2                	add	s1,s1,s0
   10a20:	0299b423          	sd	s1,40(s3)
   10a24:	0299b023          	sd	s1,32(s3)
   10a28:	00176693          	ori	a3,a4,1
   10a2c:	0104bc23          	sd	a6,24(s1)
   10a30:	0104b823          	sd	a6,16(s1)
   10a34:	e494                	sd	a3,8(s1)
   10a36:	97a2                	add	a5,a5,s0
   10a38:	854a                	mv	a0,s2
   10a3a:	e398                	sd	a4,0(a5)
   10a3c:	2a6000ef          	jal	ra,10ce2 <__malloc_unlock>
   10a40:	01040513          	addi	a0,s0,16
   10a44:	b3ed                	j	1082e <_malloc_r+0x21a>
   10a46:	0034d613          	srli	a2,s1,0x3
   10a4a:	0016079b          	addiw	a5,a2,1
   10a4e:	0017979b          	slliw	a5,a5,0x1
   10a52:	2601                	sext.w	a2,a2
   10a54:	078e                	slli	a5,a5,0x3
   10a56:	beed                	j	10650 <_malloc_r+0x3c>
   10a58:	0067d713          	srli	a4,a5,0x6
   10a5c:	0397059b          	addiw	a1,a4,57
   10a60:	0015959b          	slliw	a1,a1,0x1
   10a64:	0387069b          	addiw	a3,a4,56
   10a68:	058e                	slli	a1,a1,0x3
   10a6a:	b70d                	j	1098c <_malloc_r+0x378>
   10a6c:	0f340b63          	beq	s0,s3,10b62 <_malloc_r+0x54e>
   10a70:	0109b403          	ld	s0,16(s3)
   10a74:	00843a03          	ld	s4,8(s0)
   10a78:	ffca7a13          	andi	s4,s4,-4
   10a7c:	409a07b3          	sub	a5,s4,s1
   10a80:	009a6563          	bltu	s4,s1,10a8a <_malloc_r+0x476>
   10a84:	477d                	li	a4,31
   10a86:	ecf742e3          	blt	a4,a5,1094a <_malloc_r+0x336>
   10a8a:	854a                	mv	a0,s2
   10a8c:	256000ef          	jal	ra,10ce2 <__malloc_unlock>
   10a90:	4501                	li	a0,0
   10a92:	bb71                	j	1082e <_malloc_r+0x21a>
   10a94:	05c7861b          	addiw	a2,a5,92
   10a98:	0016169b          	slliw	a3,a2,0x1
   10a9c:	05b7851b          	addiw	a0,a5,91
   10aa0:	068e                	slli	a3,a3,0x3
   10aa2:	b10d                	j	106c4 <_malloc_r+0xb0>
   10aa4:	01033783          	ld	a5,16(t1) # 10156 <relu+0x6>
   10aa8:	367d                	addiw	a2,a2,-1
   10aaa:	18679363          	bne	a5,t1,10c30 <_malloc_r+0x61c>
   10aae:	00367793          	andi	a5,a2,3
   10ab2:	1341                	addi	t1,t1,-16
   10ab4:	fbe5                	bnez	a5,10aa4 <_malloc_r+0x490>
   10ab6:	0089b703          	ld	a4,8(s3)
   10aba:	fff5c793          	not	a5,a1
   10abe:	8ff9                	and	a5,a5,a4
   10ac0:	00f9b423          	sd	a5,8(s3)
   10ac4:	0586                	slli	a1,a1,0x1
   10ac6:	c4b7e7e3          	bltu	a5,a1,10714 <_malloc_r+0x100>
   10aca:	c40585e3          	beqz	a1,10714 <_malloc_r+0x100>
   10ace:	00f5f733          	and	a4,a1,a5
   10ad2:	e711                	bnez	a4,10ade <_malloc_r+0x4ca>
   10ad4:	0586                	slli	a1,a1,0x1
   10ad6:	00f5f733          	and	a4,a1,a5
   10ada:	2e11                	addiw	t3,t3,4
   10adc:	df65                	beqz	a4,10ad4 <_malloc_r+0x4c0>
   10ade:	8672                	mv	a2,t3
   10ae0:	bbfd                	j	108de <_malloc_r+0x2ca>
   10ae2:	020a0a13          	addi	s4,s4,32
   10ae6:	b1a5                	j	1074e <_malloc_r+0x13a>
   10ae8:	0089b503          	ld	a0,8(s3)
   10aec:	4026d69b          	sraiw	a3,a3,0x2
   10af0:	4785                	li	a5,1
   10af2:	00d797b3          	sll	a5,a5,a3
   10af6:	8fc9                	or	a5,a5,a0
   10af8:	00f9b423          	sd	a5,8(s3)
   10afc:	b57d                	j	109aa <_malloc_r+0x396>
   10afe:	014b0c33          	add	s8,s6,s4
   10b02:	41800c33          	neg	s8,s8
   10b06:	1c52                	slli	s8,s8,0x34
   10b08:	034c5c13          	srli	s8,s8,0x34
   10b0c:	85e2                	mv	a1,s8
   10b0e:	854a                	mv	a0,s2
   10b10:	2fe000ef          	jal	ra,10e0e <_sbrk_r>
   10b14:	57fd                	li	a5,-1
   10b16:	4701                	li	a4,0
   10b18:	caf509e3          	beq	a0,a5,107ca <_malloc_r+0x1b6>
   10b1c:	41650533          	sub	a0,a0,s6
   10b20:	000c071b          	sext.w	a4,s8
   10b24:	01850a33          	add	s4,a0,s8
   10b28:	b14d                	j	107ca <_malloc_r+0x1b6>
   10b2a:	05400693          	li	a3,84
   10b2e:	06e6e863          	bltu	a3,a4,10b9e <_malloc_r+0x58a>
   10b32:	00c7d713          	srli	a4,a5,0xc
   10b36:	06f7059b          	addiw	a1,a4,111
   10b3a:	0015959b          	slliw	a1,a1,0x1
   10b3e:	06e7069b          	addiw	a3,a4,110
   10b42:	058e                	slli	a1,a1,0x3
   10b44:	b5a1                	j	1098c <_malloc_r+0x378>
   10b46:	15400713          	li	a4,340
   10b4a:	06f76863          	bltu	a4,a5,10bba <_malloc_r+0x5a6>
   10b4e:	00f4d793          	srli	a5,s1,0xf
   10b52:	0787861b          	addiw	a2,a5,120
   10b56:	0016169b          	slliw	a3,a2,0x1
   10b5a:	0777851b          	addiw	a0,a5,119
   10b5e:	068e                	slli	a3,a3,0x3
   10b60:	b695                	j	106c4 <_malloc_r+0xb0>
   10b62:	7d818b93          	addi	s7,gp,2008 # 20b20 <__malloc_current_mallinfo>
   10b66:	000ba783          	lw	a5,0(s7)
   10b6a:	014786bb          	addw	a3,a5,s4
   10b6e:	00dba023          	sw	a3,0(s7)
   10b72:	b119                	j	10778 <_malloc_r+0x164>
   10b74:	034c1713          	slli	a4,s8,0x34
   10b78:	c00710e3          	bnez	a4,10778 <_malloc_r+0x164>
   10b7c:	0109b403          	ld	s0,16(s3)
   10b80:	9a56                	add	s4,s4,s5
   10b82:	001a6a13          	ori	s4,s4,1
   10b86:	01443423          	sd	s4,8(s0)
   10b8a:	b149                	j	1080c <_malloc_r+0x1f8>
   10b8c:	7761b023          	sd	s6,1888(gp) # 20aa8 <__malloc_sbrk_base>
   10b90:	bef5                	j	1078c <_malloc_r+0x178>
   10b92:	845a                	mv	s0,s6
   10b94:	b9a5                	j	1080c <_malloc_r+0x1f8>
   10b96:	4785                	li	a5,1
   10b98:	00fb3423          	sd	a5,8(s6)
   10b9c:	b5fd                	j	10a8a <_malloc_r+0x476>
   10b9e:	15400693          	li	a3,340
   10ba2:	04e6ed63          	bltu	a3,a4,10bfc <_malloc_r+0x5e8>
   10ba6:	00f7d713          	srli	a4,a5,0xf
   10baa:	0787059b          	addiw	a1,a4,120
   10bae:	0015959b          	slliw	a1,a1,0x1
   10bb2:	0777069b          	addiw	a3,a4,119
   10bb6:	058e                	slli	a1,a1,0x3
   10bb8:	bbd1                	j	1098c <_malloc_r+0x378>
   10bba:	55400713          	li	a4,1364
   10bbe:	04f76d63          	bltu	a4,a5,10c18 <_malloc_r+0x604>
   10bc2:	0124d793          	srli	a5,s1,0x12
   10bc6:	07d7861b          	addiw	a2,a5,125
   10bca:	0016169b          	slliw	a3,a2,0x1
   10bce:	07c7851b          	addiw	a0,a5,124
   10bd2:	068e                	slli	a3,a3,0x3
   10bd4:	bcc5                	j	106c4 <_malloc_r+0xb0>
   10bd6:	1c41                	addi	s8,s8,-16
   10bd8:	018c8a33          	add	s4,s9,s8
   10bdc:	416a0a33          	sub	s4,s4,s6
   10be0:	4701                	li	a4,0
   10be2:	b6e5                	j	107ca <_malloc_r+0x1b6>
   10be4:	01040593          	addi	a1,s0,16
   10be8:	854a                	mv	a0,s2
   10bea:	6b4020ef          	jal	ra,1329e <_free_r>
   10bee:	0109b403          	ld	s0,16(s3)
   10bf2:	000ba783          	lw	a5,0(s7)
   10bf6:	00843a03          	ld	s4,8(s0)
   10bfa:	b909                	j	1080c <_malloc_r+0x1f8>
   10bfc:	55400693          	li	a3,1364
   10c00:	02e6e363          	bltu	a3,a4,10c26 <_malloc_r+0x612>
   10c04:	0127d713          	srli	a4,a5,0x12
   10c08:	07d7059b          	addiw	a1,a4,125
   10c0c:	0015959b          	slliw	a1,a1,0x1
   10c10:	07c7069b          	addiw	a3,a4,124
   10c14:	058e                	slli	a1,a1,0x3
   10c16:	bb9d                	j	1098c <_malloc_r+0x378>
   10c18:	7f000693          	li	a3,2032
   10c1c:	07f00613          	li	a2,127
   10c20:	07e00513          	li	a0,126
   10c24:	b445                	j	106c4 <_malloc_r+0xb0>
   10c26:	7f000593          	li	a1,2032
   10c2a:	07e00693          	li	a3,126
   10c2e:	bbb9                	j	1098c <_malloc_r+0x378>
   10c30:	0089b783          	ld	a5,8(s3)
   10c34:	bd41                	j	10ac4 <_malloc_r+0x4b0>

0000000000010c36 <memset>:
   10c36:	433d                	li	t1,15
   10c38:	872a                	mv	a4,a0
   10c3a:	02c37163          	bgeu	t1,a2,10c5c <memset+0x26>
   10c3e:	00f77793          	andi	a5,a4,15
   10c42:	e3c1                	bnez	a5,10cc2 <memset+0x8c>
   10c44:	e1bd                	bnez	a1,10caa <memset+0x74>
   10c46:	ff067693          	andi	a3,a2,-16
   10c4a:	8a3d                	andi	a2,a2,15
   10c4c:	96ba                	add	a3,a3,a4
   10c4e:	e30c                	sd	a1,0(a4)
   10c50:	e70c                	sd	a1,8(a4)
   10c52:	0741                	addi	a4,a4,16
   10c54:	fed76de3          	bltu	a4,a3,10c4e <memset+0x18>
   10c58:	e211                	bnez	a2,10c5c <memset+0x26>
   10c5a:	8082                	ret
   10c5c:	40c306b3          	sub	a3,t1,a2
   10c60:	068a                	slli	a3,a3,0x2
   10c62:	00000297          	auipc	t0,0x0
   10c66:	9696                	add	a3,a3,t0
   10c68:	00a68067          	jr	10(a3)
   10c6c:	00b70723          	sb	a1,14(a4)
   10c70:	00b706a3          	sb	a1,13(a4)
   10c74:	00b70623          	sb	a1,12(a4)
   10c78:	00b705a3          	sb	a1,11(a4)
   10c7c:	00b70523          	sb	a1,10(a4)
   10c80:	00b704a3          	sb	a1,9(a4)
   10c84:	00b70423          	sb	a1,8(a4)
   10c88:	00b703a3          	sb	a1,7(a4)
   10c8c:	00b70323          	sb	a1,6(a4)
   10c90:	00b702a3          	sb	a1,5(a4)
   10c94:	00b70223          	sb	a1,4(a4)
   10c98:	00b701a3          	sb	a1,3(a4)
   10c9c:	00b70123          	sb	a1,2(a4)
   10ca0:	00b700a3          	sb	a1,1(a4)
   10ca4:	00b70023          	sb	a1,0(a4)
   10ca8:	8082                	ret
   10caa:	0ff5f593          	andi	a1,a1,255
   10cae:	00859693          	slli	a3,a1,0x8
   10cb2:	8dd5                	or	a1,a1,a3
   10cb4:	01059693          	slli	a3,a1,0x10
   10cb8:	8dd5                	or	a1,a1,a3
   10cba:	02059693          	slli	a3,a1,0x20
   10cbe:	8dd5                	or	a1,a1,a3
   10cc0:	b759                	j	10c46 <memset+0x10>
   10cc2:	00279693          	slli	a3,a5,0x2
   10cc6:	00000297          	auipc	t0,0x0
   10cca:	9696                	add	a3,a3,t0
   10ccc:	8286                	mv	t0,ra
   10cce:	fa2680e7          	jalr	-94(a3)
   10cd2:	8096                	mv	ra,t0
   10cd4:	17c1                	addi	a5,a5,-16
   10cd6:	8f1d                	sub	a4,a4,a5
   10cd8:	963e                	add	a2,a2,a5
   10cda:	f8c371e3          	bgeu	t1,a2,10c5c <memset+0x26>
   10cde:	b79d                	j	10c44 <memset+0xe>

0000000000010ce0 <__malloc_lock>:
   10ce0:	8082                	ret

0000000000010ce2 <__malloc_unlock>:
   10ce2:	8082                	ret

0000000000010ce4 <_printf_r>:
   10ce4:	715d                	addi	sp,sp,-80
   10ce6:	f032                	sd	a2,32(sp)
   10ce8:	f436                	sd	a3,40(sp)
   10cea:	f83a                	sd	a4,48(sp)
   10cec:	fc3e                	sd	a5,56(sp)
   10cee:	e0c2                	sd	a6,64(sp)
   10cf0:	e4c6                	sd	a7,72(sp)
   10cf2:	862e                	mv	a2,a1
   10cf4:	690c                	ld	a1,16(a0)
   10cf6:	1014                	addi	a3,sp,32
   10cf8:	ec06                	sd	ra,24(sp)
   10cfa:	e436                	sd	a3,8(sp)
   10cfc:	148000ef          	jal	ra,10e44 <_vfprintf_r>
   10d00:	60e2                	ld	ra,24(sp)
   10d02:	6161                	addi	sp,sp,80
   10d04:	8082                	ret

0000000000010d06 <printf>:
   10d06:	7581b303          	ld	t1,1880(gp) # 20aa0 <_impure_ptr>
   10d0a:	711d                	addi	sp,sp,-96
   10d0c:	f832                	sd	a2,48(sp)
   10d0e:	fc36                	sd	a3,56(sp)
   10d10:	f42e                	sd	a1,40(sp)
   10d12:	e0ba                	sd	a4,64(sp)
   10d14:	e4be                	sd	a5,72(sp)
   10d16:	e8c2                	sd	a6,80(sp)
   10d18:	ecc6                	sd	a7,88(sp)
   10d1a:	01033583          	ld	a1,16(t1)
   10d1e:	1034                	addi	a3,sp,40
   10d20:	862a                	mv	a2,a0
   10d22:	851a                	mv	a0,t1
   10d24:	ec06                	sd	ra,24(sp)
   10d26:	e436                	sd	a3,8(sp)
   10d28:	11c000ef          	jal	ra,10e44 <_vfprintf_r>
   10d2c:	60e2                	ld	ra,24(sp)
   10d2e:	6125                	addi	sp,sp,96
   10d30:	8082                	ret

0000000000010d32 <_putchar_r>:
   10d32:	6910                	ld	a2,16(a0)
   10d34:	a039                	j	10d42 <_putc_r>

0000000000010d36 <putchar>:
   10d36:	7581b783          	ld	a5,1880(gp) # 20aa0 <_impure_ptr>
   10d3a:	85aa                	mv	a1,a0
   10d3c:	6b90                	ld	a2,16(a5)
   10d3e:	853e                	mv	a0,a5
   10d40:	a009                	j	10d42 <_putc_r>

0000000000010d42 <_putc_r>:
   10d42:	1101                	addi	sp,sp,-32
   10d44:	e84a                	sd	s2,16(sp)
   10d46:	ec06                	sd	ra,24(sp)
   10d48:	892a                	mv	s2,a0
   10d4a:	c119                	beqz	a0,10d50 <_putc_r+0xe>
   10d4c:	493c                	lw	a5,80(a0)
   10d4e:	cb9d                	beqz	a5,10d84 <_putc_r+0x42>
   10d50:	465c                	lw	a5,12(a2)
   10d52:	fff7871b          	addiw	a4,a5,-1
   10d56:	c658                	sw	a4,12(a2)
   10d58:	00075a63          	bgez	a4,10d6c <_putc_r+0x2a>
   10d5c:	561c                	lw	a5,40(a2)
   10d5e:	02f74a63          	blt	a4,a5,10d92 <_putc_r+0x50>
   10d62:	0ff5f793          	andi	a5,a1,255
   10d66:	4729                	li	a4,10
   10d68:	02e78563          	beq	a5,a4,10d92 <_putc_r+0x50>
   10d6c:	621c                	ld	a5,0(a2)
   10d6e:	0ff5f513          	andi	a0,a1,255
   10d72:	00178713          	addi	a4,a5,1 # fffffffffffff001 <__BSS_END__+0xfffffffffffde4b9>
   10d76:	e218                	sd	a4,0(a2)
   10d78:	00b78023          	sb	a1,0(a5)
   10d7c:	60e2                	ld	ra,24(sp)
   10d7e:	6942                	ld	s2,16(sp)
   10d80:	6105                	addi	sp,sp,32
   10d82:	8082                	ret
   10d84:	e432                	sd	a2,8(sp)
   10d86:	e02e                	sd	a1,0(sp)
   10d88:	3e4020ef          	jal	ra,1316c <__sinit>
   10d8c:	6622                	ld	a2,8(sp)
   10d8e:	6582                	ld	a1,0(sp)
   10d90:	b7c1                	j	10d50 <_putc_r+0xe>
   10d92:	60e2                	ld	ra,24(sp)
   10d94:	854a                	mv	a0,s2
   10d96:	6942                	ld	s2,16(sp)
   10d98:	6105                	addi	sp,sp,32
   10d9a:	4a70106f          	j	12a40 <__swbuf_r>

0000000000010d9e <putc>:
   10d9e:	1101                	addi	sp,sp,-32
   10da0:	e04a                	sd	s2,0(sp)
   10da2:	7581b903          	ld	s2,1880(gp) # 20aa0 <_impure_ptr>
   10da6:	e822                	sd	s0,16(sp)
   10da8:	e426                	sd	s1,8(sp)
   10daa:	ec06                	sd	ra,24(sp)
   10dac:	84aa                	mv	s1,a0
   10dae:	842e                	mv	s0,a1
   10db0:	00090563          	beqz	s2,10dba <putc+0x1c>
   10db4:	05092783          	lw	a5,80(s2)
   10db8:	cf8d                	beqz	a5,10df2 <putc+0x54>
   10dba:	445c                	lw	a5,12(s0)
   10dbc:	fff7871b          	addiw	a4,a5,-1
   10dc0:	c458                	sw	a4,12(s0)
   10dc2:	00075a63          	bgez	a4,10dd6 <putc+0x38>
   10dc6:	541c                	lw	a5,40(s0)
   10dc8:	02f74963          	blt	a4,a5,10dfa <putc+0x5c>
   10dcc:	0ff4f793          	andi	a5,s1,255
   10dd0:	4729                	li	a4,10
   10dd2:	02e78463          	beq	a5,a4,10dfa <putc+0x5c>
   10dd6:	601c                	ld	a5,0(s0)
   10dd8:	0ff4f513          	andi	a0,s1,255
   10ddc:	00178713          	addi	a4,a5,1
   10de0:	e018                	sd	a4,0(s0)
   10de2:	00978023          	sb	s1,0(a5)
   10de6:	60e2                	ld	ra,24(sp)
   10de8:	6442                	ld	s0,16(sp)
   10dea:	64a2                	ld	s1,8(sp)
   10dec:	6902                	ld	s2,0(sp)
   10dee:	6105                	addi	sp,sp,32
   10df0:	8082                	ret
   10df2:	854a                	mv	a0,s2
   10df4:	378020ef          	jal	ra,1316c <__sinit>
   10df8:	b7c9                	j	10dba <putc+0x1c>
   10dfa:	8622                	mv	a2,s0
   10dfc:	6442                	ld	s0,16(sp)
   10dfe:	60e2                	ld	ra,24(sp)
   10e00:	85a6                	mv	a1,s1
   10e02:	854a                	mv	a0,s2
   10e04:	64a2                	ld	s1,8(sp)
   10e06:	6902                	ld	s2,0(sp)
   10e08:	6105                	addi	sp,sp,32
   10e0a:	4370106f          	j	12a40 <__swbuf_r>

0000000000010e0e <_sbrk_r>:
   10e0e:	1101                	addi	sp,sp,-32
   10e10:	e822                	sd	s0,16(sp)
   10e12:	e426                	sd	s1,8(sp)
   10e14:	842a                	mv	s0,a0
   10e16:	852e                	mv	a0,a1
   10e18:	ec06                	sd	ra,24(sp)
   10e1a:	7801a823          	sw	zero,1936(gp) # 20ad8 <errno>
   10e1e:	6520a0ef          	jal	ra,1b470 <_sbrk>
   10e22:	57fd                	li	a5,-1
   10e24:	00f50763          	beq	a0,a5,10e32 <_sbrk_r+0x24>
   10e28:	60e2                	ld	ra,24(sp)
   10e2a:	6442                	ld	s0,16(sp)
   10e2c:	64a2                	ld	s1,8(sp)
   10e2e:	6105                	addi	sp,sp,32
   10e30:	8082                	ret
   10e32:	7901a783          	lw	a5,1936(gp) # 20ad8 <errno>
   10e36:	dbed                	beqz	a5,10e28 <_sbrk_r+0x1a>
   10e38:	60e2                	ld	ra,24(sp)
   10e3a:	c01c                	sw	a5,0(s0)
   10e3c:	6442                	ld	s0,16(sp)
   10e3e:	64a2                	ld	s1,8(sp)
   10e40:	6105                	addi	sp,sp,32
   10e42:	8082                	ret

0000000000010e44 <_vfprintf_r>:
   10e44:	d8010113          	addi	sp,sp,-640
   10e48:	26113c23          	sd	ra,632(sp)
   10e4c:	27213023          	sd	s2,608(sp)
   10e50:	25413823          	sd	s4,592(sp)
   10e54:	23913423          	sd	s9,552(sp)
   10e58:	892e                	mv	s2,a1
   10e5a:	8cb2                	mv	s9,a2
   10e5c:	e836                	sd	a3,16(sp)
   10e5e:	26813823          	sd	s0,624(sp)
   10e62:	26913423          	sd	s1,616(sp)
   10e66:	25313c23          	sd	s3,600(sp)
   10e6a:	25513423          	sd	s5,584(sp)
   10e6e:	25613023          	sd	s6,576(sp)
   10e72:	23713c23          	sd	s7,568(sp)
   10e76:	23813823          	sd	s8,560(sp)
   10e7a:	23a13023          	sd	s10,544(sp)
   10e7e:	21b13c23          	sd	s11,536(sp)
   10e82:	8a2a                	mv	s4,a0
   10e84:	069040ef          	jal	ra,156ec <_localeconv_r>
   10e88:	611c                	ld	a5,0(a0)
   10e8a:	853e                	mv	a0,a5
   10e8c:	f8be                	sd	a5,112(sp)
   10e8e:	47d050ef          	jal	ra,16b0a <strlen>
   10e92:	f4aa                	sd	a0,104(sp)
   10e94:	e202                	sd	zero,256(sp)
   10e96:	e602                	sd	zero,264(sp)
   10e98:	000a0663          	beqz	s4,10ea4 <_vfprintf_r+0x60>
   10e9c:	050a2783          	lw	a5,80(s4)
   10ea0:	72078963          	beqz	a5,115d2 <_vfprintf_r+0x78e>
   10ea4:	01091703          	lh	a4,16(s2)
   10ea8:	6689                	lui	a3,0x2
   10eaa:	03071793          	slli	a5,a4,0x30
   10eae:	93c1                	srli	a5,a5,0x30
   10eb0:	00d7f633          	and	a2,a5,a3
   10eb4:	e215                	bnez	a2,10ed8 <_vfprintf_r+0x94>
   10eb6:	0ac92603          	lw	a2,172(s2)
   10eba:	00d767b3          	or	a5,a4,a3
   10ebe:	0107979b          	slliw	a5,a5,0x10
   10ec2:	7779                	lui	a4,0xffffe
   10ec4:	4107d79b          	sraiw	a5,a5,0x10
   10ec8:	177d                	addi	a4,a4,-1
   10eca:	8f71                	and	a4,a4,a2
   10ecc:	00f91823          	sh	a5,16(s2)
   10ed0:	17c2                	slli	a5,a5,0x30
   10ed2:	0ae92623          	sw	a4,172(s2)
   10ed6:	93c1                	srli	a5,a5,0x30
   10ed8:	0087f713          	andi	a4,a5,8
   10edc:	26070a63          	beqz	a4,11150 <_vfprintf_r+0x30c>
   10ee0:	01893703          	ld	a4,24(s2)
   10ee4:	26070663          	beqz	a4,11150 <_vfprintf_r+0x30c>
   10ee8:	8be9                	andi	a5,a5,26
   10eea:	4729                	li	a4,10
   10eec:	26e78f63          	beq	a5,a4,1116a <_vfprintf_r+0x326>
   10ef0:	67f5                	lui	a5,0x1d
   10ef2:	bc87b783          	ld	a5,-1080(a5) # 1cbc8 <zeroes.0+0x40>
   10ef6:	19010b13          	addi	s6,sp,400
   10efa:	ea5a                	sd	s6,272(sp)
   10efc:	ed3e                	sd	a5,152(sp)
   10efe:	67f5                	lui	a5,0x1d
   10f00:	ba87b783          	ld	a5,-1112(a5) # 1cba8 <zeroes.0+0x20>
   10f04:	f202                	sd	zero,288(sp)
   10f06:	10012c23          	sw	zero,280(sp)
   10f0a:	e93e                	sd	a5,144(sp)
   10f0c:	67f5                	lui	a5,0x1d
   10f0e:	bb87b783          	ld	a5,-1096(a5) # 1cbb8 <zeroes.0+0x30>
   10f12:	f002                	sd	zero,32(sp)
   10f14:	f402                	sd	zero,40(sp)
   10f16:	f13e                	sd	a5,160(sp)
   10f18:	000cc783          	lbu	a5,0(s9)
   10f1c:	fc82                	sd	zero,120(sp)
   10f1e:	f082                	sd	zero,96(sp)
   10f20:	e102                	sd	zero,128(sp)
   10f22:	e502                	sd	zero,136(sp)
   10f24:	e402                	sd	zero,8(sp)
   10f26:	835a                	mv	t1,s6
   10f28:	1c078563          	beqz	a5,110f2 <_vfprintf_r+0x2ae>
   10f2c:	8466                	mv	s0,s9
   10f2e:	02500713          	li	a4,37
   10f32:	30e78363          	beq	a5,a4,11238 <_vfprintf_r+0x3f4>
   10f36:	00144783          	lbu	a5,1(s0)
   10f3a:	0405                	addi	s0,s0,1
   10f3c:	fbfd                	bnez	a5,10f32 <_vfprintf_r+0xee>
   10f3e:	419404bb          	subw	s1,s0,s9
   10f42:	1a048863          	beqz	s1,110f2 <_vfprintf_r+0x2ae>
   10f46:	7712                	ld	a4,288(sp)
   10f48:	11812783          	lw	a5,280(sp)
   10f4c:	01933023          	sd	s9,0(t1)
   10f50:	9726                	add	a4,a4,s1
   10f52:	2785                	addiw	a5,a5,1
   10f54:	00933423          	sd	s1,8(t1)
   10f58:	f23a                	sd	a4,288(sp)
   10f5a:	10f12c23          	sw	a5,280(sp)
   10f5e:	0007871b          	sext.w	a4,a5
   10f62:	479d                	li	a5,7
   10f64:	0341                	addi	t1,t1,16
   10f66:	2ee7c063          	blt	a5,a4,11246 <_vfprintf_r+0x402>
   10f6a:	6722                	ld	a4,8(sp)
   10f6c:	00044783          	lbu	a5,0(s0)
   10f70:	9f25                	addw	a4,a4,s1
   10f72:	e43a                	sd	a4,8(sp)
   10f74:	16078f63          	beqz	a5,110f2 <_vfprintf_r+0x2ae>
   10f78:	67f5                	lui	a5,0x1d
   10f7a:	00144e03          	lbu	t3,1(s0)
   10f7e:	0c010fa3          	sb	zero,223(sp)
   10f82:	0405                	addi	s0,s0,1
   10f84:	5c7d                	li	s8,-1
   10f86:	4a81                	li	s5,0
   10f88:	4481                	li	s1,0
   10f8a:	05a00993          	li	s3,90
   10f8e:	a0878b93          	addi	s7,a5,-1528 # 1ca08 <__clzdi2+0xbc>
   10f92:	4da5                	li	s11,9
   10f94:	0405                	addi	s0,s0,1
   10f96:	000e0d1b          	sext.w	s10,t3
   10f9a:	02a00613          	li	a2,42
   10f9e:	fe0d079b          	addiw	a5,s10,-32
   10fa2:	0007871b          	sext.w	a4,a5
   10fa6:	04e9e363          	bltu	s3,a4,10fec <_vfprintf_r+0x1a8>
   10faa:	02079713          	slli	a4,a5,0x20
   10fae:	01e75793          	srli	a5,a4,0x1e
   10fb2:	97de                	add	a5,a5,s7
   10fb4:	439c                	lw	a5,0(a5)
   10fb6:	8782                	jr	a5
   10fb8:	4a81                	li	s5,0
   10fba:	00044703          	lbu	a4,0(s0)
   10fbe:	002a979b          	slliw	a5,s5,0x2
   10fc2:	01578abb          	addw	s5,a5,s5
   10fc6:	fd0d0e1b          	addiw	t3,s10,-48
   10fca:	001a9a9b          	slliw	s5,s5,0x1
   10fce:	fd07079b          	addiw	a5,a4,-48
   10fd2:	0405                	addi	s0,s0,1
   10fd4:	015e0abb          	addw	s5,t3,s5
   10fd8:	00070d1b          	sext.w	s10,a4
   10fdc:	fcfdffe3          	bgeu	s11,a5,10fba <_vfprintf_r+0x176>
   10fe0:	fe0d079b          	addiw	a5,s10,-32
   10fe4:	0007871b          	sext.w	a4,a5
   10fe8:	fce9f1e3          	bgeu	s3,a4,10faa <_vfprintf_r+0x166>
   10fec:	100d0363          	beqz	s10,110f2 <_vfprintf_r+0x2ae>
   10ff0:	13a10423          	sb	s10,296(sp)
   10ff4:	0c010fa3          	sb	zero,223(sp)
   10ff8:	4985                	li	s3,1
   10ffa:	4b85                	li	s7,1
   10ffc:	12810c93          	addi	s9,sp,296
   11000:	ec02                	sd	zero,24(sp)
   11002:	4c01                	li	s8,0
   11004:	e482                	sd	zero,72(sp)
   11006:	ec82                	sd	zero,88(sp)
   11008:	e882                	sd	zero,80(sp)
   1100a:	0024f293          	andi	t0,s1,2
   1100e:	00028363          	beqz	t0,11014 <_vfprintf_r+0x1d0>
   11012:	2989                	addiw	s3,s3,2
   11014:	0844fd93          	andi	s11,s1,132
   11018:	7792                	ld	a5,288(sp)
   1101a:	000d9663          	bnez	s11,11026 <_vfprintf_r+0x1e2>
   1101e:	413a86bb          	subw	a3,s5,s3
   11022:	22d044e3          	bgtz	a3,11a4a <_vfprintf_r+0xc06>
   11026:	0df14703          	lbu	a4,223(sp)
   1102a:	c70d                	beqz	a4,11054 <_vfprintf_r+0x210>
   1102c:	11812703          	lw	a4,280(sp)
   11030:	0df10693          	addi	a3,sp,223
   11034:	00d33023          	sd	a3,0(t1)
   11038:	2705                	addiw	a4,a4,1
   1103a:	4685                	li	a3,1
   1103c:	0785                	addi	a5,a5,1
   1103e:	00d33423          	sd	a3,8(t1)
   11042:	10e12c23          	sw	a4,280(sp)
   11046:	0007069b          	sext.w	a3,a4
   1104a:	f23e                	sd	a5,288(sp)
   1104c:	471d                	li	a4,7
   1104e:	0341                	addi	t1,t1,16
   11050:	3ed74d63          	blt	a4,a3,1144a <_vfprintf_r+0x606>
   11054:	02028563          	beqz	t0,1107e <_vfprintf_r+0x23a>
   11058:	11812703          	lw	a4,280(sp)
   1105c:	1194                	addi	a3,sp,224
   1105e:	00d33023          	sd	a3,0(t1)
   11062:	2705                	addiw	a4,a4,1
   11064:	4689                	li	a3,2
   11066:	0789                	addi	a5,a5,2
   11068:	00d33423          	sd	a3,8(t1)
   1106c:	10e12c23          	sw	a4,280(sp)
   11070:	0007069b          	sext.w	a3,a4
   11074:	f23e                	sd	a5,288(sp)
   11076:	471d                	li	a4,7
   11078:	0341                	addi	t1,t1,16
   1107a:	26d742e3          	blt	a4,a3,11ade <_vfprintf_r+0xc9a>
   1107e:	08000713          	li	a4,128
   11082:	06ed8ae3          	beq	s11,a4,118f6 <_vfprintf_r+0xab2>
   11086:	417c0c3b          	subw	s8,s8,s7
   1108a:	0f804ee3          	bgtz	s8,11986 <_vfprintf_r+0xb42>
   1108e:	1004f713          	andi	a4,s1,256
   11092:	78071b63          	bnez	a4,11828 <_vfprintf_r+0x9e4>
   11096:	11812703          	lw	a4,280(sp)
   1109a:	97de                	add	a5,a5,s7
   1109c:	01933023          	sd	s9,0(t1)
   110a0:	0017069b          	addiw	a3,a4,1
   110a4:	8736                	mv	a4,a3
   110a6:	01733423          	sd	s7,8(t1)
   110aa:	10e12c23          	sw	a4,280(sp)
   110ae:	f23e                	sd	a5,288(sp)
   110b0:	471d                	li	a4,7
   110b2:	46d74863          	blt	a4,a3,11522 <_vfprintf_r+0x6de>
   110b6:	0341                	addi	t1,t1,16
   110b8:	8891                	andi	s1,s1,4
   110ba:	c489                	beqz	s1,110c4 <_vfprintf_r+0x280>
   110bc:	413a84bb          	subw	s1,s5,s3
   110c0:	229049e3          	bgtz	s1,11af2 <_vfprintf_r+0xcae>
   110c4:	8756                	mv	a4,s5
   110c6:	013ad363          	bge	s5,s3,110cc <_vfprintf_r+0x288>
   110ca:	874e                	mv	a4,s3
   110cc:	66a2                	ld	a3,8(sp)
   110ce:	9f35                	addw	a4,a4,a3
   110d0:	e43a                	sd	a4,8(sp)
   110d2:	12079be3          	bnez	a5,11a08 <_vfprintf_r+0xbc4>
   110d6:	67e2                	ld	a5,24(sp)
   110d8:	10012c23          	sw	zero,280(sp)
   110dc:	c789                	beqz	a5,110e6 <_vfprintf_r+0x2a2>
   110de:	65e2                	ld	a1,24(sp)
   110e0:	8552                	mv	a0,s4
   110e2:	1bc020ef          	jal	ra,1329e <_free_r>
   110e6:	835a                	mv	t1,s6
   110e8:	8ca2                	mv	s9,s0
   110ea:	000cc783          	lbu	a5,0(s9)
   110ee:	e2079fe3          	bnez	a5,10f2c <_vfprintf_r+0xe8>
   110f2:	7792                	ld	a5,288(sp)
   110f4:	c399                	beqz	a5,110fa <_vfprintf_r+0x2b6>
   110f6:	2620106f          	j	12358 <_vfprintf_r+0x1514>
   110fa:	01095783          	lhu	a5,16(s2)
   110fe:	0407f793          	andi	a5,a5,64
   11102:	c399                	beqz	a5,11108 <_vfprintf_r+0x2c4>
   11104:	5c00106f          	j	126c4 <_vfprintf_r+0x1880>
   11108:	27813083          	ld	ra,632(sp)
   1110c:	27013403          	ld	s0,624(sp)
   11110:	6522                	ld	a0,8(sp)
   11112:	26813483          	ld	s1,616(sp)
   11116:	26013903          	ld	s2,608(sp)
   1111a:	25813983          	ld	s3,600(sp)
   1111e:	25013a03          	ld	s4,592(sp)
   11122:	24813a83          	ld	s5,584(sp)
   11126:	24013b03          	ld	s6,576(sp)
   1112a:	23813b83          	ld	s7,568(sp)
   1112e:	23013c03          	ld	s8,560(sp)
   11132:	22813c83          	ld	s9,552(sp)
   11136:	22013d03          	ld	s10,544(sp)
   1113a:	21813d83          	ld	s11,536(sp)
   1113e:	28010113          	addi	sp,sp,640
   11142:	8082                	ret
   11144:	0104e493          	ori	s1,s1,16
   11148:	00044e03          	lbu	t3,0(s0)
   1114c:	2481                	sext.w	s1,s1
   1114e:	b599                	j	10f94 <_vfprintf_r+0x150>
   11150:	85ca                	mv	a1,s2
   11152:	8552                	mv	a0,s4
   11154:	1f1010ef          	jal	ra,12b44 <__swsetup_r>
   11158:	c119                	beqz	a0,1115e <_vfprintf_r+0x31a>
   1115a:	56a0106f          	j	126c4 <_vfprintf_r+0x1880>
   1115e:	01095783          	lhu	a5,16(s2)
   11162:	4729                	li	a4,10
   11164:	8be9                	andi	a5,a5,26
   11166:	d8e795e3          	bne	a5,a4,10ef0 <_vfprintf_r+0xac>
   1116a:	01291783          	lh	a5,18(s2)
   1116e:	d807c1e3          	bltz	a5,10ef0 <_vfprintf_r+0xac>
   11172:	66c2                	ld	a3,16(sp)
   11174:	8666                	mv	a2,s9
   11176:	85ca                	mv	a1,s2
   11178:	8552                	mv	a0,s4
   1117a:	033010ef          	jal	ra,129ac <__sbprintf>
   1117e:	e42a                	sd	a0,8(sp)
   11180:	b761                	j	11108 <_vfprintf_r+0x2c4>
   11182:	0104e493          	ori	s1,s1,16
   11186:	2481                	sext.w	s1,s1
   11188:	66c2                	ld	a3,16(sp)
   1118a:	0204f793          	andi	a5,s1,32
   1118e:	00868713          	addi	a4,a3,8 # 2008 <register_fini-0xe0a8>
   11192:	3c078163          	beqz	a5,11554 <_vfprintf_r+0x710>
   11196:	629c                	ld	a5,0(a3)
   11198:	89be                	mv	s3,a5
   1119a:	3c07cb63          	bltz	a5,11570 <_vfprintf_r+0x72c>
   1119e:	57fd                	li	a5,-1
   111a0:	3efc00e3          	beq	s8,a5,11d80 <_vfprintf_r+0xf3c>
   111a4:	f7f4f493          	andi	s1,s1,-129
   111a8:	e83a                	sd	a4,16(sp)
   111aa:	00048d9b          	sext.w	s11,s1
   111ae:	080991e3          	bnez	s3,11a30 <_vfprintf_r+0xbec>
   111b2:	080c12e3          	bnez	s8,11a36 <_vfprintf_r+0xbf2>
   111b6:	84ee                	mv	s1,s11
   111b8:	4c01                	li	s8,0
   111ba:	4b81                	li	s7,0
   111bc:	18c10c93          	addi	s9,sp,396
   111c0:	0df14783          	lbu	a5,223(sp)
   111c4:	000b899b          	sext.w	s3,s7
   111c8:	018bd463          	bge	s7,s8,111d0 <_vfprintf_r+0x38c>
   111cc:	000c099b          	sext.w	s3,s8
   111d0:	ec02                	sd	zero,24(sp)
   111d2:	e482                	sd	zero,72(sp)
   111d4:	ec82                	sd	zero,88(sp)
   111d6:	e882                	sd	zero,80(sp)
   111d8:	e20789e3          	beqz	a5,1100a <_vfprintf_r+0x1c6>
   111dc:	2985                	addiw	s3,s3,1
   111de:	b535                	j	1100a <_vfprintf_r+0x1c6>
   111e0:	0104e493          	ori	s1,s1,16
   111e4:	2481                	sext.w	s1,s1
   111e6:	66c2                	ld	a3,16(sp)
   111e8:	0204f793          	andi	a5,s1,32
   111ec:	00868713          	addi	a4,a3,8
   111f0:	34078363          	beqz	a5,11536 <_vfprintf_r+0x6f2>
   111f4:	0006b983          	ld	s3,0(a3)
   111f8:	bff4f493          	andi	s1,s1,-1025
   111fc:	00048d9b          	sext.w	s11,s1
   11200:	e83a                	sd	a4,16(sp)
   11202:	4781                	li	a5,0
   11204:	0c010fa3          	sb	zero,223(sp)
   11208:	577d                	li	a4,-1
   1120a:	36ec0f63          	beq	s8,a4,11588 <_vfprintf_r+0x744>
   1120e:	f7fdf493          	andi	s1,s11,-129
   11212:	2481                	sext.w	s1,s1
   11214:	00099ae3          	bnez	s3,11a28 <_vfprintf_r+0xbe4>
   11218:	5c0c1b63          	bnez	s8,117ee <_vfprintf_r+0x9aa>
   1121c:	ffd1                	bnez	a5,111b8 <_vfprintf_r+0x374>
   1121e:	001dfb93          	andi	s7,s11,1
   11222:	18c10c93          	addi	s9,sp,396
   11226:	f80b8de3          	beqz	s7,111c0 <_vfprintf_r+0x37c>
   1122a:	03000793          	li	a5,48
   1122e:	18f105a3          	sb	a5,395(sp)
   11232:	18b10c93          	addi	s9,sp,395
   11236:	b769                	j	111c0 <_vfprintf_r+0x37c>
   11238:	419404bb          	subw	s1,s0,s9
   1123c:	d00495e3          	bnez	s1,10f46 <_vfprintf_r+0x102>
   11240:	00044783          	lbu	a5,0(s0)
   11244:	bb05                	j	10f74 <_vfprintf_r+0x130>
   11246:	0a10                	addi	a2,sp,272
   11248:	85ca                	mv	a1,s2
   1124a:	8552                	mv	a0,s4
   1124c:	572070ef          	jal	ra,187be <__sprint_r>
   11250:	ea0515e3          	bnez	a0,110fa <_vfprintf_r+0x2b6>
   11254:	835a                	mv	t1,s6
   11256:	bb11                	j	10f6a <_vfprintf_r+0x126>
   11258:	0084f793          	andi	a5,s1,8
   1125c:	300797e3          	bnez	a5,11d6a <_vfprintf_r+0xf26>
   11260:	67c2                	ld	a5,16(sp)
   11262:	ec1a                	sd	t1,24(sp)
   11264:	2388                	fld	fa0,0(a5)
   11266:	07a1                	addi	a5,a5,8
   11268:	e83e                	sd	a5,16(sp)
   1126a:	3f40b0ef          	jal	ra,1c65e <__extenddftf2>
   1126e:	6362                	ld	t1,24(sp)
   11270:	e22a                	sd	a0,256(sp)
   11272:	e62e                	sd	a1,264(sp)
   11274:	0208                	addi	a0,sp,256
   11276:	ec1a                	sd	t1,24(sp)
   11278:	42c040ef          	jal	ra,156a4 <_ldcheck>
   1127c:	d5aa                	sw	a0,232(sp)
   1127e:	4789                	li	a5,2
   11280:	6362                	ld	t1,24(sp)
   11282:	58f50de3          	beq	a0,a5,1201c <_vfprintf_r+0x11d8>
   11286:	4785                	li	a5,1
   11288:	68f50de3          	beq	a0,a5,12122 <_vfprintf_r+0x12de>
   1128c:	06100793          	li	a5,97
   11290:	00fd1463          	bne	s10,a5,11298 <_vfprintf_r+0x454>
   11294:	54a0106f          	j	127de <_vfprintf_r+0x199a>
   11298:	04100793          	li	a5,65
   1129c:	00fd1463          	bne	s10,a5,112a4 <_vfprintf_r+0x460>
   112a0:	0ea0106f          	j	1238a <_vfprintf_r+0x1546>
   112a4:	fdfd7713          	andi	a4,s10,-33
   112a8:	57fd                	li	a5,-1
   112aa:	ecba                	sd	a4,88(sp)
   112ac:	00fc1463          	bne	s8,a5,112b4 <_vfprintf_r+0x470>
   112b0:	54a0106f          	j	127fa <_vfprintf_r+0x19b6>
   112b4:	04700793          	li	a5,71
   112b8:	00f71463          	bne	a4,a5,112c0 <_vfprintf_r+0x47c>
   112bc:	5300106f          	j	127ec <_vfprintf_r+0x19a8>
   112c0:	6bb2                	ld	s7,264(sp)
   112c2:	1004e793          	ori	a5,s1,256
   112c6:	fd26                	sd	s1,184(sp)
   112c8:	6d92                	ld	s11,256(sp)
   112ca:	2781                	sext.w	a5,a5
   112cc:	000bd463          	bgez	s7,112d4 <_vfprintf_r+0x490>
   112d0:	2920106f          	j	12562 <_vfprintf_r+0x171e>
   112d4:	e582                	sd	zero,200(sp)
   112d6:	84be                	mv	s1,a5
   112d8:	ec02                	sd	zero,24(sp)
   112da:	6766                	ld	a4,88(sp)
   112dc:	04600793          	li	a5,70
   112e0:	00f71463          	bne	a4,a5,112e8 <_vfprintf_r+0x4a4>
   112e4:	2d00106f          	j	125b4 <_vfprintf_r+0x1770>
   112e8:	04500793          	li	a5,69
   112ec:	f01a                	sd	t1,32(sp)
   112ee:	00f71463          	bne	a4,a5,112f6 <_vfprintf_r+0x4b2>
   112f2:	4560106f          	j	12748 <_vfprintf_r+0x1904>
   112f6:	11bc                	addi	a5,sp,232
   112f8:	8762                	mv	a4,s8
   112fa:	0f810893          	addi	a7,sp,248
   112fe:	0ec10813          	addi	a6,sp,236
   11302:	4689                	li	a3,2
   11304:	85ee                	mv	a1,s11
   11306:	865e                	mv	a2,s7
   11308:	8552                	mv	a0,s4
   1130a:	556030ef          	jal	ra,14860 <_ldtoa_r>
   1130e:	6766                	ld	a4,88(sp)
   11310:	04700793          	li	a5,71
   11314:	7302                	ld	t1,32(sp)
   11316:	8caa                	mv	s9,a0
   11318:	00f70463          	beq	a4,a5,11320 <_vfprintf_r+0x4dc>
   1131c:	67a0106f          	j	12996 <_vfprintf_r+0x1b52>
   11320:	77ea                	ld	a5,184(sp)
   11322:	8b85                	andi	a5,a5,1
   11324:	c399                	beqz	a5,1132a <_vfprintf_r+0x4e6>
   11326:	4640106f          	j	1278a <_vfprintf_r+0x1946>
   1132a:	76ee                	ld	a3,248(sp)
   1132c:	419687bb          	subw	a5,a3,s9
   11330:	f03e                	sd	a5,32(sp)
   11332:	572e                	lw	a4,232(sp)
   11334:	04700793          	li	a5,71
   11338:	e8ba                	sd	a4,80(sp)
   1133a:	6766                	ld	a4,88(sp)
   1133c:	00f71463          	bne	a4,a5,11344 <_vfprintf_r+0x500>
   11340:	1bc0106f          	j	124fc <_vfprintf_r+0x16b8>
   11344:	6766                	ld	a4,88(sp)
   11346:	04600793          	li	a5,70
   1134a:	00f71463          	bne	a4,a5,11352 <_vfprintf_r+0x50e>
   1134e:	35c0106f          	j	126aa <_vfprintf_r+0x1866>
   11352:	67c6                	ld	a5,80(sp)
   11354:	65e6                	ld	a1,88(sp)
   11356:	04100613          	li	a2,65
   1135a:	37fd                	addiw	a5,a5,-1
   1135c:	d5be                	sw	a5,232(sp)
   1135e:	0ffd7713          	andi	a4,s10,255
   11362:	4681                	li	a3,0
   11364:	00c59663          	bne	a1,a2,11370 <_vfprintf_r+0x52c>
   11368:	273d                	addiw	a4,a4,15
   1136a:	0ff77713          	andi	a4,a4,255
   1136e:	4685                	li	a3,1
   11370:	0ee10823          	sb	a4,240(sp)
   11374:	02b00713          	li	a4,43
   11378:	0007d763          	bgez	a5,11386 <_vfprintf_r+0x542>
   1137c:	6746                	ld	a4,80(sp)
   1137e:	4785                	li	a5,1
   11380:	9f99                	subw	a5,a5,a4
   11382:	02d00713          	li	a4,45
   11386:	0ee108a3          	sb	a4,241(sp)
   1138a:	4725                	li	a4,9
   1138c:	00f74463          	blt	a4,a5,11394 <_vfprintf_r+0x550>
   11390:	4780106f          	j	12808 <_vfprintf_r+0x19c4>
   11394:	0ff10513          	addi	a0,sp,255
   11398:	85aa                	mv	a1,a0
   1139a:	46a9                	li	a3,10
   1139c:	06300e93          	li	t4,99
   113a0:	02d7e73b          	remw	a4,a5,a3
   113a4:	862e                	mv	a2,a1
   113a6:	88be                	mv	a7,a5
   113a8:	15fd                	addi	a1,a1,-1
   113aa:	0307071b          	addiw	a4,a4,48
   113ae:	fee60fa3          	sb	a4,-1(a2)
   113b2:	02d7c7bb          	divw	a5,a5,a3
   113b6:	ff1ec5e3          	blt	t4,a7,113a0 <_vfprintf_r+0x55c>
   113ba:	0307879b          	addiw	a5,a5,48
   113be:	0ff7f693          	andi	a3,a5,255
   113c2:	fed58fa3          	sb	a3,-1(a1)
   113c6:	ffe60793          	addi	a5,a2,-2
   113ca:	00a7e463          	bltu	a5,a0,113d2 <_vfprintf_r+0x58e>
   113ce:	5b00106f          	j	1297e <_vfprintf_r+0x1b3a>
   113d2:	0f210713          	addi	a4,sp,242
   113d6:	a019                	j	113dc <_vfprintf_r+0x598>
   113d8:	0007c683          	lbu	a3,0(a5)
   113dc:	00d70023          	sb	a3,0(a4) # ffffffffffffe000 <__BSS_END__+0xfffffffffffdd4b8>
   113e0:	0785                	addi	a5,a5,1
   113e2:	0705                	addi	a4,a4,1
   113e4:	fea79ae3          	bne	a5,a0,113d8 <_vfprintf_r+0x594>
   113e8:	10110793          	addi	a5,sp,257
   113ec:	0f210713          	addi	a4,sp,242
   113f0:	8f91                	sub	a5,a5,a2
   113f2:	97ba                	add	a5,a5,a4
   113f4:	1998                	addi	a4,sp,240
   113f6:	9f99                	subw	a5,a5,a4
   113f8:	fcbe                	sd	a5,120(sp)
   113fa:	77e6                	ld	a5,120(sp)
   113fc:	7682                	ld	a3,32(sp)
   113fe:	4705                	li	a4,1
   11400:	00f68bbb          	addw	s7,a3,a5
   11404:	87de                	mv	a5,s7
   11406:	00d74463          	blt	a4,a3,1140e <_vfprintf_r+0x5ca>
   1140a:	50a0106f          	j	12914 <_vfprintf_r+0x1ad0>
   1140e:	7726                	ld	a4,104(sp)
   11410:	00e78bbb          	addw	s7,a5,a4
   11414:	77ea                	ld	a5,184(sp)
   11416:	fffbc993          	not	s3,s7
   1141a:	43f9d993          	srai	s3,s3,0x3f
   1141e:	bff7f493          	andi	s1,a5,-1025
   11422:	2481                	sext.w	s1,s1
   11424:	013bf9b3          	and	s3,s7,s3
   11428:	1004e493          	ori	s1,s1,256
   1142c:	2981                	sext.w	s3,s3
   1142e:	e482                	sd	zero,72(sp)
   11430:	ec82                	sd	zero,88(sp)
   11432:	e882                	sd	zero,80(sp)
   11434:	67ae                	ld	a5,200(sp)
   11436:	e399                	bnez	a5,1143c <_vfprintf_r+0x5f8>
   11438:	11a0106f          	j	12552 <_vfprintf_r+0x170e>
   1143c:	02d00793          	li	a5,45
   11440:	0cf10fa3          	sb	a5,223(sp)
   11444:	4c01                	li	s8,0
   11446:	2985                	addiw	s3,s3,1
   11448:	b6c9                	j	1100a <_vfprintf_r+0x1c6>
   1144a:	0a10                	addi	a2,sp,272
   1144c:	85ca                	mv	a1,s2
   1144e:	8552                	mv	a0,s4
   11450:	f816                	sd	t0,48(sp)
   11452:	36c070ef          	jal	ra,187be <__sprint_r>
   11456:	5c051063          	bnez	a0,11a16 <_vfprintf_r+0xbd2>
   1145a:	7792                	ld	a5,288(sp)
   1145c:	72c2                	ld	t0,48(sp)
   1145e:	835a                	mv	t1,s6
   11460:	bed5                	j	11054 <_vfprintf_r+0x210>
   11462:	11812603          	lw	a2,280(sp)
   11466:	00178c13          	addi	s8,a5,1
   1146a:	7782                	ld	a5,32(sp)
   1146c:	0016071b          	addiw	a4,a2,1
   11470:	4585                	li	a1,1
   11472:	01933023          	sd	s9,0(t1)
   11476:	86ba                	mv	a3,a4
   11478:	01030b93          	addi	s7,t1,16
   1147c:	02f5d0e3          	bge	a1,a5,11c9c <_vfprintf_r+0xe58>
   11480:	4605                	li	a2,1
   11482:	10d12c23          	sw	a3,280(sp)
   11486:	00c33423          	sd	a2,8(t1)
   1148a:	f262                	sd	s8,288(sp)
   1148c:	469d                	li	a3,7
   1148e:	2ae6cfe3          	blt	a3,a4,11f4c <_vfprintf_r+0x1108>
   11492:	77a6                	ld	a5,104(sp)
   11494:	0017069b          	addiw	a3,a4,1
   11498:	7746                	ld	a4,112(sp)
   1149a:	9c3e                	add	s8,s8,a5
   1149c:	00fbb423          	sd	a5,8(s7)
   114a0:	00ebb023          	sd	a4,0(s7)
   114a4:	10d12c23          	sw	a3,280(sp)
   114a8:	0006871b          	sext.w	a4,a3
   114ac:	f262                	sd	s8,288(sp)
   114ae:	469d                	li	a3,7
   114b0:	0bc1                	addi	s7,s7,16
   114b2:	2ae6cae3          	blt	a3,a4,11f66 <_vfprintf_r+0x1122>
   114b6:	6512                	ld	a0,256(sp)
   114b8:	65b2                	ld	a1,264(sp)
   114ba:	00170e1b          	addiw	t3,a4,1
   114be:	4601                	li	a2,0
   114c0:	4681                	li	a3,0
   114c2:	d872                	sw	t3,48(sp)
   114c4:	fc3a                	sd	a4,56(sp)
   114c6:	0a20a0ef          	jal	ra,1b568 <__eqtf2>
   114ca:	5e42                	lw	t3,48(sp)
   114cc:	7782                	ld	a5,32(sp)
   114ce:	010b8313          	addi	t1,s7,16
   114d2:	000e061b          	sext.w	a2,t3
   114d6:	fff78d1b          	addiw	s10,a5,-1
   114da:	7e050263          	beqz	a0,11cbe <_vfprintf_r+0xe7a>
   114de:	001c8813          	addi	a6,s9,1
   114e2:	9c6a                	add	s8,s8,s10
   114e4:	010bb023          	sd	a6,0(s7)
   114e8:	01abb423          	sd	s10,8(s7)
   114ec:	f262                	sd	s8,288(sp)
   114ee:	11c12c23          	sw	t3,280(sp)
   114f2:	469d                	li	a3,7
   114f4:	12c6cfe3          	blt	a3,a2,11e32 <_vfprintf_r+0xfee>
   114f8:	7762                	ld	a4,56(sp)
   114fa:	020b8693          	addi	a3,s7,32
   114fe:	8b9a                	mv	s7,t1
   11500:	0027061b          	addiw	a2,a4,2
   11504:	8336                	mv	t1,a3
   11506:	76e6                	ld	a3,120(sp)
   11508:	1998                	addi	a4,sp,240
   1150a:	00ebb023          	sd	a4,0(s7)
   1150e:	018687b3          	add	a5,a3,s8
   11512:	00dbb423          	sd	a3,8(s7)
   11516:	f23e                	sd	a5,288(sp)
   11518:	10c12c23          	sw	a2,280(sp)
   1151c:	471d                	li	a4,7
   1151e:	b8c75de3          	bge	a4,a2,110b8 <_vfprintf_r+0x274>
   11522:	0a10                	addi	a2,sp,272
   11524:	85ca                	mv	a1,s2
   11526:	8552                	mv	a0,s4
   11528:	296070ef          	jal	ra,187be <__sprint_r>
   1152c:	4e051563          	bnez	a0,11a16 <_vfprintf_r+0xbd2>
   11530:	7792                	ld	a5,288(sp)
   11532:	835a                	mv	t1,s6
   11534:	b651                	j	110b8 <_vfprintf_r+0x274>
   11536:	0104f793          	andi	a5,s1,16
   1153a:	020793e3          	bnez	a5,11d60 <_vfprintf_r+0xf1c>
   1153e:	66c2                	ld	a3,16(sp)
   11540:	0404f793          	andi	a5,s1,64
   11544:	0006a983          	lw	s3,0(a3)
   11548:	3c0785e3          	beqz	a5,12112 <_vfprintf_r+0x12ce>
   1154c:	19c2                	slli	s3,s3,0x30
   1154e:	0309d993          	srli	s3,s3,0x30
   11552:	b15d                	j	111f8 <_vfprintf_r+0x3b4>
   11554:	0104f793          	andi	a5,s1,16
   11558:	7e079f63          	bnez	a5,11d56 <_vfprintf_r+0xf12>
   1155c:	0404f793          	andi	a5,s1,64
   11560:	380788e3          	beqz	a5,120f0 <_vfprintf_r+0x12ac>
   11564:	67c2                	ld	a5,16(sp)
   11566:	00079983          	lh	s3,0(a5)
   1156a:	87ce                	mv	a5,s3
   1156c:	c207d9e3          	bgez	a5,1119e <_vfprintf_r+0x35a>
   11570:	02d00793          	li	a5,45
   11574:	0cf10fa3          	sb	a5,223(sp)
   11578:	e83a                	sd	a4,16(sp)
   1157a:	577d                	li	a4,-1
   1157c:	413009b3          	neg	s3,s3
   11580:	8da6                	mv	s11,s1
   11582:	4785                	li	a5,1
   11584:	c8ec15e3          	bne	s8,a4,1120e <_vfprintf_r+0x3ca>
   11588:	4705                	li	a4,1
   1158a:	4ae78363          	beq	a5,a4,11a30 <_vfprintf_r+0xbec>
   1158e:	4709                	li	a4,2
   11590:	26e78863          	beq	a5,a4,11800 <_vfprintf_r+0x9bc>
   11594:	18c10b93          	addi	s7,sp,396
   11598:	8cde                	mv	s9,s7
   1159a:	0079f793          	andi	a5,s3,7
   1159e:	03078793          	addi	a5,a5,48
   115a2:	fefc8fa3          	sb	a5,-1(s9)
   115a6:	0039d993          	srli	s3,s3,0x3
   115aa:	8766                	mv	a4,s9
   115ac:	1cfd                	addi	s9,s9,-1
   115ae:	fe0996e3          	bnez	s3,1159a <_vfprintf_r+0x756>
   115b2:	001df693          	andi	a3,s11,1
   115b6:	26068563          	beqz	a3,11820 <_vfprintf_r+0x9dc>
   115ba:	03000693          	li	a3,48
   115be:	26d78163          	beq	a5,a3,11820 <_vfprintf_r+0x9dc>
   115c2:	1779                	addi	a4,a4,-2
   115c4:	fedc8fa3          	sb	a3,-1(s9)
   115c8:	40eb8bbb          	subw	s7,s7,a4
   115cc:	84ee                	mv	s1,s11
   115ce:	8cba                	mv	s9,a4
   115d0:	bec5                	j	111c0 <_vfprintf_r+0x37c>
   115d2:	8552                	mv	a0,s4
   115d4:	399010ef          	jal	ra,1316c <__sinit>
   115d8:	b0f1                	j	10ea4 <_vfprintf_r+0x60>
   115da:	67c2                	ld	a5,16(sp)
   115dc:	0c010fa3          	sb	zero,223(sp)
   115e0:	0007bc83          	ld	s9,0(a5)
   115e4:	00878d93          	addi	s11,a5,8
   115e8:	0e0c89e3          	beqz	s9,11eda <_vfprintf_r+0x1096>
   115ec:	57fd                	li	a5,-1
   115ee:	2afc0ee3          	beq	s8,a5,120aa <_vfprintf_r+0x1266>
   115f2:	8662                	mv	a2,s8
   115f4:	4581                	li	a1,0
   115f6:	8566                	mv	a0,s9
   115f8:	e81a                	sd	t1,16(sp)
   115fa:	378040ef          	jal	ra,15972 <memchr>
   115fe:	ec2a                	sd	a0,24(sp)
   11600:	6342                	ld	t1,16(sp)
   11602:	e119                	bnez	a0,11608 <_vfprintf_r+0x7c4>
   11604:	0380106f          	j	1263c <_vfprintf_r+0x17f8>
   11608:	67e2                	ld	a5,24(sp)
   1160a:	e86e                	sd	s11,16(sp)
   1160c:	ec02                	sd	zero,24(sp)
   1160e:	41978bbb          	subw	s7,a5,s9
   11612:	0df14783          	lbu	a5,223(sp)
   11616:	fffbc993          	not	s3,s7
   1161a:	43f9d993          	srai	s3,s3,0x3f
   1161e:	e482                	sd	zero,72(sp)
   11620:	ec82                	sd	zero,88(sp)
   11622:	e882                	sd	zero,80(sp)
   11624:	0179f9b3          	and	s3,s3,s7
   11628:	4c01                	li	s8,0
   1162a:	ba0799e3          	bnez	a5,111dc <_vfprintf_r+0x398>
   1162e:	baf1                	j	1100a <_vfprintf_r+0x1c6>
   11630:	6742                	ld	a4,16(sp)
   11632:	0c010fa3          	sb	zero,223(sp)
   11636:	4985                	li	s3,1
   11638:	431c                	lw	a5,0(a4)
   1163a:	0721                	addi	a4,a4,8
   1163c:	e83a                	sd	a4,16(sp)
   1163e:	12f10423          	sb	a5,296(sp)
   11642:	4b85                	li	s7,1
   11644:	12810c93          	addi	s9,sp,296
   11648:	ba65                	j	11000 <_vfprintf_r+0x1bc>
   1164a:	0084e493          	ori	s1,s1,8
   1164e:	00044e03          	lbu	t3,0(s0)
   11652:	2481                	sext.w	s1,s1
   11654:	b281                	j	10f94 <_vfprintf_r+0x150>
   11656:	0104e493          	ori	s1,s1,16
   1165a:	00048d9b          	sext.w	s11,s1
   1165e:	66c2                	ld	a3,16(sp)
   11660:	020df793          	andi	a5,s11,32
   11664:	00868713          	addi	a4,a3,8
   11668:	6a078563          	beqz	a5,11d12 <_vfprintf_r+0xece>
   1166c:	0006b983          	ld	s3,0(a3)
   11670:	4785                	li	a5,1
   11672:	e83a                	sd	a4,16(sp)
   11674:	be41                	j	11204 <_vfprintf_r+0x3c0>
   11676:	0204e493          	ori	s1,s1,32
   1167a:	00044e03          	lbu	t3,0(s0)
   1167e:	2481                	sext.w	s1,s1
   11680:	ba11                	j	10f94 <_vfprintf_r+0x150>
   11682:	0804e493          	ori	s1,s1,128
   11686:	00044e03          	lbu	t3,0(s0)
   1168a:	2481                	sext.w	s1,s1
   1168c:	b221                	j	10f94 <_vfprintf_r+0x150>
   1168e:	00044d03          	lbu	s10,0(s0)
   11692:	00140713          	addi	a4,s0,1
   11696:	00cd1463          	bne	s10,a2,1169e <_vfprintf_r+0x85a>
   1169a:	2c40106f          	j	1295e <_vfprintf_r+0x1b1a>
   1169e:	fd0d079b          	addiw	a5,s10,-48
   116a2:	843a                	mv	s0,a4
   116a4:	4c01                	li	s8,0
   116a6:	8efdece3          	bltu	s11,a5,10f9e <_vfprintf_r+0x15a>
   116aa:	00044d03          	lbu	s10,0(s0)
   116ae:	002c169b          	slliw	a3,s8,0x2
   116b2:	018686bb          	addw	a3,a3,s8
   116b6:	0016969b          	slliw	a3,a3,0x1
   116ba:	00f68c3b          	addw	s8,a3,a5
   116be:	fd0d079b          	addiw	a5,s10,-48
   116c2:	0405                	addi	s0,s0,1
   116c4:	fefdf3e3          	bgeu	s11,a5,116aa <_vfprintf_r+0x866>
   116c8:	b8d9                	j	10f9e <_vfprintf_r+0x15a>
   116ca:	00044e03          	lbu	t3,0(s0)
   116ce:	0044e493          	ori	s1,s1,4
   116d2:	2481                	sext.w	s1,s1
   116d4:	b0c1                	j	10f94 <_vfprintf_r+0x150>
   116d6:	02b00793          	li	a5,43
   116da:	00044e03          	lbu	t3,0(s0)
   116de:	0cf10fa3          	sb	a5,223(sp)
   116e2:	b84d                	j	10f94 <_vfprintf_r+0x150>
   116e4:	67c2                	ld	a5,16(sp)
   116e6:	00044e03          	lbu	t3,0(s0)
   116ea:	0007aa83          	lw	s5,0(a5)
   116ee:	07a1                	addi	a5,a5,8
   116f0:	e83e                	sd	a5,16(sp)
   116f2:	8a0ad1e3          	bgez	s5,10f94 <_vfprintf_r+0x150>
   116f6:	41500abb          	negw	s5,s5
   116fa:	bfd1                	j	116ce <_vfprintf_r+0x88a>
   116fc:	8552                	mv	a0,s4
   116fe:	ec1a                	sd	t1,24(sp)
   11700:	7ed030ef          	jal	ra,156ec <_localeconv_r>
   11704:	651c                	ld	a5,8(a0)
   11706:	853e                	mv	a0,a5
   11708:	e53e                	sd	a5,136(sp)
   1170a:	400050ef          	jal	ra,16b0a <strlen>
   1170e:	87aa                	mv	a5,a0
   11710:	8552                	mv	a0,s4
   11712:	8d3e                	mv	s10,a5
   11714:	e13e                	sd	a5,128(sp)
   11716:	7d7030ef          	jal	ra,156ec <_localeconv_r>
   1171a:	691c                	ld	a5,16(a0)
   1171c:	6362                	ld	t1,24(sp)
   1171e:	00044e03          	lbu	t3,0(s0)
   11722:	f0be                	sd	a5,96(sp)
   11724:	860d08e3          	beqz	s10,10f94 <_vfprintf_r+0x150>
   11728:	860786e3          	beqz	a5,10f94 <_vfprintf_r+0x150>
   1172c:	0007c783          	lbu	a5,0(a5)
   11730:	860782e3          	beqz	a5,10f94 <_vfprintf_r+0x150>
   11734:	4004e493          	ori	s1,s1,1024
   11738:	2481                	sext.w	s1,s1
   1173a:	b8a9                	j	10f94 <_vfprintf_r+0x150>
   1173c:	0014e493          	ori	s1,s1,1
   11740:	00044e03          	lbu	t3,0(s0)
   11744:	2481                	sext.w	s1,s1
   11746:	b0b9                	j	10f94 <_vfprintf_r+0x150>
   11748:	0df14783          	lbu	a5,223(sp)
   1174c:	00044e03          	lbu	t3,0(s0)
   11750:	840792e3          	bnez	a5,10f94 <_vfprintf_r+0x150>
   11754:	02000793          	li	a5,32
   11758:	0cf10fa3          	sb	a5,223(sp)
   1175c:	839ff06f          	j	10f94 <_vfprintf_r+0x150>
   11760:	6742                	ld	a4,16(sp)
   11762:	77e1                	lui	a5,0xffff8
   11764:	8307c793          	xori	a5,a5,-2000
   11768:	0ef11023          	sh	a5,224(sp)
   1176c:	00870793          	addi	a5,a4,8
   11770:	e83e                	sd	a5,16(sp)
   11772:	67f5                	lui	a5,0x1d
   11774:	9e078793          	addi	a5,a5,-1568 # 1c9e0 <__clzdi2+0x94>
   11778:	0024e493          	ori	s1,s1,2
   1177c:	f43e                	sd	a5,40(sp)
   1177e:	00073983          	ld	s3,0(a4)
   11782:	00048d9b          	sext.w	s11,s1
   11786:	4789                	li	a5,2
   11788:	07800d13          	li	s10,120
   1178c:	bca5                	j	11204 <_vfprintf_r+0x3c0>
   1178e:	66c2                	ld	a3,16(sp)
   11790:	0204f793          	andi	a5,s1,32
   11794:	6298                	ld	a4,0(a3)
   11796:	06a1                	addi	a3,a3,8
   11798:	e836                	sd	a3,16(sp)
   1179a:	5a079263          	bnez	a5,11d3e <_vfprintf_r+0xefa>
   1179e:	0104f793          	andi	a5,s1,16
   117a2:	58079e63          	bnez	a5,11d3e <_vfprintf_r+0xefa>
   117a6:	0404f793          	andi	a5,s1,64
   117aa:	36079be3          	bnez	a5,12320 <_vfprintf_r+0x14dc>
   117ae:	2004f493          	andi	s1,s1,512
   117b2:	67a2                	ld	a5,8(sp)
   117b4:	e099                	bnez	s1,117ba <_vfprintf_r+0x976>
   117b6:	04a0106f          	j	12800 <_vfprintf_r+0x19bc>
   117ba:	00f70023          	sb	a5,0(a4)
   117be:	8ca2                	mv	s9,s0
   117c0:	b22d                	j	110ea <_vfprintf_r+0x2a6>
   117c2:	00044e03          	lbu	t3,0(s0)
   117c6:	06c00793          	li	a5,108
   117ca:	6efe0163          	beq	t3,a5,11eac <_vfprintf_r+0x1068>
   117ce:	0104e493          	ori	s1,s1,16
   117d2:	2481                	sext.w	s1,s1
   117d4:	fc0ff06f          	j	10f94 <_vfprintf_r+0x150>
   117d8:	00044e03          	lbu	t3,0(s0)
   117dc:	06800793          	li	a5,104
   117e0:	6afe0e63          	beq	t3,a5,11e9c <_vfprintf_r+0x1058>
   117e4:	0404e493          	ori	s1,s1,64
   117e8:	2481                	sext.w	s1,s1
   117ea:	faaff06f          	j	10f94 <_vfprintf_r+0x150>
   117ee:	4705                	li	a4,1
   117f0:	00e79463          	bne	a5,a4,117f8 <_vfprintf_r+0x9b4>
   117f4:	7910006f          	j	12784 <_vfprintf_r+0x1940>
   117f8:	4709                	li	a4,2
   117fa:	8da6                	mv	s11,s1
   117fc:	d8e79ce3          	bne	a5,a4,11594 <_vfprintf_r+0x750>
   11800:	18c10b93          	addi	s7,sp,396
   11804:	8cde                	mv	s9,s7
   11806:	7722                	ld	a4,40(sp)
   11808:	00f9f793          	andi	a5,s3,15
   1180c:	1cfd                	addi	s9,s9,-1
   1180e:	97ba                	add	a5,a5,a4
   11810:	0007c783          	lbu	a5,0(a5)
   11814:	0049d993          	srli	s3,s3,0x4
   11818:	00fc8023          	sb	a5,0(s9)
   1181c:	fe0995e3          	bnez	s3,11806 <_vfprintf_r+0x9c2>
   11820:	419b8bbb          	subw	s7,s7,s9
   11824:	84ee                	mv	s1,s11
   11826:	ba69                	j	111c0 <_vfprintf_r+0x37c>
   11828:	06500713          	li	a4,101
   1182c:	c3a75be3          	bge	a4,s10,11462 <_vfprintf_r+0x61e>
   11830:	6512                	ld	a0,256(sp)
   11832:	65b2                	ld	a1,264(sp)
   11834:	4601                	li	a2,0
   11836:	4681                	li	a3,0
   11838:	fc3e                	sd	a5,56(sp)
   1183a:	f81a                	sd	t1,48(sp)
   1183c:	52d090ef          	jal	ra,1b568 <__eqtf2>
   11840:	7342                	ld	t1,48(sp)
   11842:	77e2                	ld	a5,56(sp)
   11844:	32051863          	bnez	a0,11b74 <_vfprintf_r+0xd30>
   11848:	11812703          	lw	a4,280(sp)
   1184c:	66f5                	lui	a3,0x1d
   1184e:	a0068693          	addi	a3,a3,-1536 # 1ca00 <__clzdi2+0xb4>
   11852:	2705                	addiw	a4,a4,1
   11854:	00d33023          	sd	a3,0(t1)
   11858:	0785                	addi	a5,a5,1
   1185a:	4685                	li	a3,1
   1185c:	00d33423          	sd	a3,8(t1)
   11860:	10e12c23          	sw	a4,280(sp)
   11864:	0007069b          	sext.w	a3,a4
   11868:	f23e                	sd	a5,288(sp)
   1186a:	471d                	li	a4,7
   1186c:	0341                	addi	t1,t1,16
   1186e:	78d74463          	blt	a4,a3,11ff6 <_vfprintf_r+0x11b2>
   11872:	572e                	lw	a4,232(sp)
   11874:	7682                	ld	a3,32(sp)
   11876:	4ad75f63          	bge	a4,a3,11d34 <_vfprintf_r+0xef0>
   1187a:	7746                	ld	a4,112(sp)
   1187c:	76a6                	ld	a3,104(sp)
   1187e:	0341                	addi	t1,t1,16
   11880:	fee33823          	sd	a4,-16(t1)
   11884:	11812703          	lw	a4,280(sp)
   11888:	97b6                	add	a5,a5,a3
   1188a:	fed33c23          	sd	a3,-8(t1)
   1188e:	2705                	addiw	a4,a4,1
   11890:	0007069b          	sext.w	a3,a4
   11894:	10e12c23          	sw	a4,280(sp)
   11898:	f23e                	sd	a5,288(sp)
   1189a:	471d                	li	a4,7
   1189c:	62d74063          	blt	a4,a3,11ebc <_vfprintf_r+0x1078>
   118a0:	7702                	ld	a4,32(sp)
   118a2:	fff70b9b          	addiw	s7,a4,-1
   118a6:	817059e3          	blez	s7,110b8 <_vfprintf_r+0x274>
   118aa:	68f5                	lui	a7,0x1d
   118ac:	46c1                	li	a3,16
   118ae:	11812703          	lw	a4,280(sp)
   118b2:	b8888d93          	addi	s11,a7,-1144 # 1cb88 <zeroes.0>
   118b6:	4cc1                	li	s9,16
   118b8:	4c1d                	li	s8,7
   118ba:	0176c663          	blt	a3,s7,118c6 <_vfprintf_r+0xa82>
   118be:	a7b9                	j	1200c <_vfprintf_r+0x11c8>
   118c0:	3bc1                	addiw	s7,s7,-16
   118c2:	757cd563          	bge	s9,s7,1200c <_vfprintf_r+0x11c8>
   118c6:	2705                	addiw	a4,a4,1
   118c8:	07c1                	addi	a5,a5,16
   118ca:	01b33023          	sd	s11,0(t1)
   118ce:	01933423          	sd	s9,8(t1)
   118d2:	f23e                	sd	a5,288(sp)
   118d4:	10e12c23          	sw	a4,280(sp)
   118d8:	0341                	addi	t1,t1,16
   118da:	feec53e3          	bge	s8,a4,118c0 <_vfprintf_r+0xa7c>
   118de:	0a10                	addi	a2,sp,272
   118e0:	85ca                	mv	a1,s2
   118e2:	8552                	mv	a0,s4
   118e4:	6db060ef          	jal	ra,187be <__sprint_r>
   118e8:	12051763          	bnez	a0,11a16 <_vfprintf_r+0xbd2>
   118ec:	7792                	ld	a5,288(sp)
   118ee:	11812703          	lw	a4,280(sp)
   118f2:	835a                	mv	t1,s6
   118f4:	b7f1                	j	118c0 <_vfprintf_r+0xa7c>
   118f6:	413a86bb          	subw	a3,s5,s3
   118fa:	f8d05663          	blez	a3,11086 <_vfprintf_r+0x242>
   118fe:	68f5                	lui	a7,0x1d
   11900:	4641                	li	a2,16
   11902:	11812703          	lw	a4,280(sp)
   11906:	b8888d93          	addi	s11,a7,-1144 # 1cb88 <zeroes.0>
   1190a:	4f41                	li	t5,16
   1190c:	4f9d                	li	t6,7
   1190e:	00d64663          	blt	a2,a3,1191a <_vfprintf_r+0xad6>
   11912:	a089                	j	11954 <_vfprintf_r+0xb10>
   11914:	36c1                	addiw	a3,a3,-16
   11916:	02df5f63          	bge	t5,a3,11954 <_vfprintf_r+0xb10>
   1191a:	2705                	addiw	a4,a4,1
   1191c:	07c1                	addi	a5,a5,16
   1191e:	01b33023          	sd	s11,0(t1)
   11922:	01e33423          	sd	t5,8(t1)
   11926:	f23e                	sd	a5,288(sp)
   11928:	10e12c23          	sw	a4,280(sp)
   1192c:	0341                	addi	t1,t1,16
   1192e:	feefd3e3          	bge	t6,a4,11914 <_vfprintf_r+0xad0>
   11932:	0a10                	addi	a2,sp,272
   11934:	85ca                	mv	a1,s2
   11936:	8552                	mv	a0,s4
   11938:	f836                	sd	a3,48(sp)
   1193a:	685060ef          	jal	ra,187be <__sprint_r>
   1193e:	ed61                	bnez	a0,11a16 <_vfprintf_r+0xbd2>
   11940:	76c2                	ld	a3,48(sp)
   11942:	4f41                	li	t5,16
   11944:	7792                	ld	a5,288(sp)
   11946:	36c1                	addiw	a3,a3,-16
   11948:	11812703          	lw	a4,280(sp)
   1194c:	835a                	mv	t1,s6
   1194e:	4f9d                	li	t6,7
   11950:	fcdf45e3          	blt	t5,a3,1191a <_vfprintf_r+0xad6>
   11954:	2705                	addiw	a4,a4,1
   11956:	97b6                	add	a5,a5,a3
   11958:	00d33423          	sd	a3,8(t1)
   1195c:	01b33023          	sd	s11,0(t1)
   11960:	0007069b          	sext.w	a3,a4
   11964:	10e12c23          	sw	a4,280(sp)
   11968:	f23e                	sd	a5,288(sp)
   1196a:	471d                	li	a4,7
   1196c:	0341                	addi	t1,t1,16
   1196e:	f0d75c63          	bge	a4,a3,11086 <_vfprintf_r+0x242>
   11972:	0a10                	addi	a2,sp,272
   11974:	85ca                	mv	a1,s2
   11976:	8552                	mv	a0,s4
   11978:	647060ef          	jal	ra,187be <__sprint_r>
   1197c:	ed49                	bnez	a0,11a16 <_vfprintf_r+0xbd2>
   1197e:	7792                	ld	a5,288(sp)
   11980:	835a                	mv	t1,s6
   11982:	f04ff06f          	j	11086 <_vfprintf_r+0x242>
   11986:	68f5                	lui	a7,0x1d
   11988:	4641                	li	a2,16
   1198a:	11812703          	lw	a4,280(sp)
   1198e:	b8888d93          	addi	s11,a7,-1144 # 1cb88 <zeroes.0>
   11992:	4ec1                	li	t4,16
   11994:	4f1d                	li	t5,7
   11996:	01864663          	blt	a2,s8,119a2 <_vfprintf_r+0xb5e>
   1199a:	a83d                	j	119d8 <_vfprintf_r+0xb94>
   1199c:	3c41                	addiw	s8,s8,-16
   1199e:	038edd63          	bge	t4,s8,119d8 <_vfprintf_r+0xb94>
   119a2:	2705                	addiw	a4,a4,1
   119a4:	07c1                	addi	a5,a5,16
   119a6:	01b33023          	sd	s11,0(t1)
   119aa:	01d33423          	sd	t4,8(t1)
   119ae:	f23e                	sd	a5,288(sp)
   119b0:	10e12c23          	sw	a4,280(sp)
   119b4:	0341                	addi	t1,t1,16
   119b6:	feef53e3          	bge	t5,a4,1199c <_vfprintf_r+0xb58>
   119ba:	0a10                	addi	a2,sp,272
   119bc:	85ca                	mv	a1,s2
   119be:	8552                	mv	a0,s4
   119c0:	5ff060ef          	jal	ra,187be <__sprint_r>
   119c4:	e929                	bnez	a0,11a16 <_vfprintf_r+0xbd2>
   119c6:	4ec1                	li	t4,16
   119c8:	3c41                	addiw	s8,s8,-16
   119ca:	7792                	ld	a5,288(sp)
   119cc:	11812703          	lw	a4,280(sp)
   119d0:	835a                	mv	t1,s6
   119d2:	4f1d                	li	t5,7
   119d4:	fd8ec7e3          	blt	t4,s8,119a2 <_vfprintf_r+0xb5e>
   119d8:	0017069b          	addiw	a3,a4,1
   119dc:	97e2                	add	a5,a5,s8
   119de:	01b33023          	sd	s11,0(t1)
   119e2:	01833423          	sd	s8,8(t1)
   119e6:	f23e                	sd	a5,288(sp)
   119e8:	10d12c23          	sw	a3,280(sp)
   119ec:	471d                	li	a4,7
   119ee:	0341                	addi	t1,t1,16
   119f0:	e8d75f63          	bge	a4,a3,1108e <_vfprintf_r+0x24a>
   119f4:	0a10                	addi	a2,sp,272
   119f6:	85ca                	mv	a1,s2
   119f8:	8552                	mv	a0,s4
   119fa:	5c5060ef          	jal	ra,187be <__sprint_r>
   119fe:	ed01                	bnez	a0,11a16 <_vfprintf_r+0xbd2>
   11a00:	7792                	ld	a5,288(sp)
   11a02:	835a                	mv	t1,s6
   11a04:	e8aff06f          	j	1108e <_vfprintf_r+0x24a>
   11a08:	0a10                	addi	a2,sp,272
   11a0a:	85ca                	mv	a1,s2
   11a0c:	8552                	mv	a0,s4
   11a0e:	5b1060ef          	jal	ra,187be <__sprint_r>
   11a12:	ec050263          	beqz	a0,110d6 <_vfprintf_r+0x292>
   11a16:	67e2                	ld	a5,24(sp)
   11a18:	ee078163          	beqz	a5,110fa <_vfprintf_r+0x2b6>
   11a1c:	85be                	mv	a1,a5
   11a1e:	8552                	mv	a0,s4
   11a20:	07f010ef          	jal	ra,1329e <_free_r>
   11a24:	ed6ff06f          	j	110fa <_vfprintf_r+0x2b6>
   11a28:	4705                	li	a4,1
   11a2a:	8da6                	mv	s11,s1
   11a2c:	b6e791e3          	bne	a5,a4,1158e <_vfprintf_r+0x74a>
   11a30:	47a5                	li	a5,9
   11a32:	3537ec63          	bltu	a5,s3,11d8a <_vfprintf_r+0xf46>
   11a36:	0309899b          	addiw	s3,s3,48
   11a3a:	193105a3          	sb	s3,395(sp)
   11a3e:	84ee                	mv	s1,s11
   11a40:	4b85                	li	s7,1
   11a42:	18b10c93          	addi	s9,sp,395
   11a46:	f7aff06f          	j	111c0 <_vfprintf_r+0x37c>
   11a4a:	68f5                	lui	a7,0x1d
   11a4c:	4641                	li	a2,16
   11a4e:	11812703          	lw	a4,280(sp)
   11a52:	b7888893          	addi	a7,a7,-1160 # 1cb78 <blanks.1>
   11a56:	4f41                	li	t5,16
   11a58:	439d                	li	t2,7
   11a5a:	00d64663          	blt	a2,a3,11a66 <_vfprintf_r+0xc22>
   11a5e:	a0a9                	j	11aa8 <_vfprintf_r+0xc64>
   11a60:	36c1                	addiw	a3,a3,-16
   11a62:	04df5363          	bge	t5,a3,11aa8 <_vfprintf_r+0xc64>
   11a66:	2705                	addiw	a4,a4,1
   11a68:	07c1                	addi	a5,a5,16
   11a6a:	01133023          	sd	a7,0(t1)
   11a6e:	01e33423          	sd	t5,8(t1)
   11a72:	f23e                	sd	a5,288(sp)
   11a74:	10e12c23          	sw	a4,280(sp)
   11a78:	0341                	addi	t1,t1,16
   11a7a:	fee3d3e3          	bge	t2,a4,11a60 <_vfprintf_r+0xc1c>
   11a7e:	0a10                	addi	a2,sp,272
   11a80:	85ca                	mv	a1,s2
   11a82:	8552                	mv	a0,s4
   11a84:	e0c6                	sd	a7,64(sp)
   11a86:	fc36                	sd	a3,56(sp)
   11a88:	f816                	sd	t0,48(sp)
   11a8a:	535060ef          	jal	ra,187be <__sprint_r>
   11a8e:	f541                	bnez	a0,11a16 <_vfprintf_r+0xbd2>
   11a90:	76e2                	ld	a3,56(sp)
   11a92:	4f41                	li	t5,16
   11a94:	7792                	ld	a5,288(sp)
   11a96:	36c1                	addiw	a3,a3,-16
   11a98:	11812703          	lw	a4,280(sp)
   11a9c:	6886                	ld	a7,64(sp)
   11a9e:	72c2                	ld	t0,48(sp)
   11aa0:	835a                	mv	t1,s6
   11aa2:	439d                	li	t2,7
   11aa4:	fcdf41e3          	blt	t5,a3,11a66 <_vfprintf_r+0xc22>
   11aa8:	2705                	addiw	a4,a4,1
   11aaa:	97b6                	add	a5,a5,a3
   11aac:	00d33423          	sd	a3,8(t1)
   11ab0:	01133023          	sd	a7,0(t1)
   11ab4:	0007069b          	sext.w	a3,a4
   11ab8:	10e12c23          	sw	a4,280(sp)
   11abc:	f23e                	sd	a5,288(sp)
   11abe:	471d                	li	a4,7
   11ac0:	0341                	addi	t1,t1,16
   11ac2:	d6d75263          	bge	a4,a3,11026 <_vfprintf_r+0x1e2>
   11ac6:	0a10                	addi	a2,sp,272
   11ac8:	85ca                	mv	a1,s2
   11aca:	8552                	mv	a0,s4
   11acc:	f816                	sd	t0,48(sp)
   11ace:	4f1060ef          	jal	ra,187be <__sprint_r>
   11ad2:	f131                	bnez	a0,11a16 <_vfprintf_r+0xbd2>
   11ad4:	7792                	ld	a5,288(sp)
   11ad6:	72c2                	ld	t0,48(sp)
   11ad8:	835a                	mv	t1,s6
   11ada:	d4cff06f          	j	11026 <_vfprintf_r+0x1e2>
   11ade:	0a10                	addi	a2,sp,272
   11ae0:	85ca                	mv	a1,s2
   11ae2:	8552                	mv	a0,s4
   11ae4:	4db060ef          	jal	ra,187be <__sprint_r>
   11ae8:	f51d                	bnez	a0,11a16 <_vfprintf_r+0xbd2>
   11aea:	7792                	ld	a5,288(sp)
   11aec:	835a                	mv	t1,s6
   11aee:	d90ff06f          	j	1107e <_vfprintf_r+0x23a>
   11af2:	68f5                	lui	a7,0x1d
   11af4:	46c1                	li	a3,16
   11af6:	11812703          	lw	a4,280(sp)
   11afa:	b7888893          	addi	a7,a7,-1160 # 1cb78 <blanks.1>
   11afe:	4bc1                	li	s7,16
   11b00:	4c1d                	li	s8,7
   11b02:	0096c663          	blt	a3,s1,11b0e <_vfprintf_r+0xcca>
   11b06:	a081                	j	11b46 <_vfprintf_r+0xd02>
   11b08:	34c1                	addiw	s1,s1,-16
   11b0a:	029bde63          	bge	s7,s1,11b46 <_vfprintf_r+0xd02>
   11b0e:	2705                	addiw	a4,a4,1
   11b10:	07c1                	addi	a5,a5,16
   11b12:	01133023          	sd	a7,0(t1)
   11b16:	01733423          	sd	s7,8(t1)
   11b1a:	f23e                	sd	a5,288(sp)
   11b1c:	10e12c23          	sw	a4,280(sp)
   11b20:	0341                	addi	t1,t1,16
   11b22:	feec53e3          	bge	s8,a4,11b08 <_vfprintf_r+0xcc4>
   11b26:	0a10                	addi	a2,sp,272
   11b28:	85ca                	mv	a1,s2
   11b2a:	8552                	mv	a0,s4
   11b2c:	f846                	sd	a7,48(sp)
   11b2e:	491060ef          	jal	ra,187be <__sprint_r>
   11b32:	ee0512e3          	bnez	a0,11a16 <_vfprintf_r+0xbd2>
   11b36:	34c1                	addiw	s1,s1,-16
   11b38:	7792                	ld	a5,288(sp)
   11b3a:	11812703          	lw	a4,280(sp)
   11b3e:	78c2                	ld	a7,48(sp)
   11b40:	835a                	mv	t1,s6
   11b42:	fc9bc6e3          	blt	s7,s1,11b0e <_vfprintf_r+0xcca>
   11b46:	0017069b          	addiw	a3,a4,1
   11b4a:	97a6                	add	a5,a5,s1
   11b4c:	01133023          	sd	a7,0(t1)
   11b50:	00933423          	sd	s1,8(t1)
   11b54:	f23e                	sd	a5,288(sp)
   11b56:	10d12c23          	sw	a3,280(sp)
   11b5a:	471d                	li	a4,7
   11b5c:	d6d75463          	bge	a4,a3,110c4 <_vfprintf_r+0x280>
   11b60:	0a10                	addi	a2,sp,272
   11b62:	85ca                	mv	a1,s2
   11b64:	8552                	mv	a0,s4
   11b66:	459060ef          	jal	ra,187be <__sprint_r>
   11b6a:	ea0516e3          	bnez	a0,11a16 <_vfprintf_r+0xbd2>
   11b6e:	7792                	ld	a5,288(sp)
   11b70:	d54ff06f          	j	110c4 <_vfprintf_r+0x280>
   11b74:	562e                	lw	a2,232(sp)
   11b76:	40c05563          	blez	a2,11f80 <_vfprintf_r+0x113c>
   11b7a:	6746                	ld	a4,80(sp)
   11b7c:	7682                	ld	a3,32(sp)
   11b7e:	00070b9b          	sext.w	s7,a4
   11b82:	28e6c463          	blt	a3,a4,11e0a <_vfprintf_r+0xfc6>
   11b86:	03705263          	blez	s7,11baa <_vfprintf_r+0xd66>
   11b8a:	11812703          	lw	a4,280(sp)
   11b8e:	97de                	add	a5,a5,s7
   11b90:	01933023          	sd	s9,0(t1)
   11b94:	0017069b          	addiw	a3,a4,1
   11b98:	01733423          	sd	s7,8(t1)
   11b9c:	f23e                	sd	a5,288(sp)
   11b9e:	10d12c23          	sw	a3,280(sp)
   11ba2:	471d                	li	a4,7
   11ba4:	0341                	addi	t1,t1,16
   11ba6:	74d74463          	blt	a4,a3,122ee <_vfprintf_r+0x14aa>
   11baa:	fffbc713          	not	a4,s7
   11bae:	977d                	srai	a4,a4,0x3f
   11bb0:	00ebfbb3          	and	s7,s7,a4
   11bb4:	6746                	ld	a4,80(sp)
   11bb6:	41770bbb          	subw	s7,a4,s7
   11bba:	33704c63          	bgtz	s7,11ef2 <_vfprintf_r+0x10ae>
   11bbe:	66c6                	ld	a3,80(sp)
   11bc0:	4004f713          	andi	a4,s1,1024
   11bc4:	00dc8c33          	add	s8,s9,a3
   11bc8:	5a071263          	bnez	a4,1216c <_vfprintf_r+0x1328>
   11bcc:	572e                	lw	a4,232(sp)
   11bce:	7682                	ld	a3,32(sp)
   11bd0:	00d74663          	blt	a4,a3,11bdc <_vfprintf_r+0xd98>
   11bd4:	0014f693          	andi	a3,s1,1
   11bd8:	72068763          	beqz	a3,12306 <_vfprintf_r+0x14c2>
   11bdc:	76c6                	ld	a3,112(sp)
   11bde:	7626                	ld	a2,104(sp)
   11be0:	0341                	addi	t1,t1,16
   11be2:	fed33823          	sd	a3,-16(t1)
   11be6:	11812683          	lw	a3,280(sp)
   11bea:	97b2                	add	a5,a5,a2
   11bec:	fec33c23          	sd	a2,-8(t1)
   11bf0:	2685                	addiw	a3,a3,1
   11bf2:	0006861b          	sext.w	a2,a3
   11bf6:	10d12c23          	sw	a3,280(sp)
   11bfa:	f23e                	sd	a5,288(sp)
   11bfc:	469d                	li	a3,7
   11bfe:	18c6cfe3          	blt	a3,a2,1259c <_vfprintf_r+0x1758>
   11c02:	7682                	ld	a3,32(sp)
   11c04:	40e6863b          	subw	a2,a3,a4
   11c08:	96e6                	add	a3,a3,s9
   11c0a:	418686bb          	subw	a3,a3,s8
   11c0e:	8732                	mv	a4,a2
   11c10:	00c6d363          	bge	a3,a2,11c16 <_vfprintf_r+0xdd2>
   11c14:	8736                	mv	a4,a3
   11c16:	00070b9b          	sext.w	s7,a4
   11c1a:	03705263          	blez	s7,11c3e <_vfprintf_r+0xdfa>
   11c1e:	11812703          	lw	a4,280(sp)
   11c22:	97de                	add	a5,a5,s7
   11c24:	01833023          	sd	s8,0(t1)
   11c28:	0017069b          	addiw	a3,a4,1
   11c2c:	01733423          	sd	s7,8(t1)
   11c30:	f23e                	sd	a5,288(sp)
   11c32:	10d12c23          	sw	a3,280(sp)
   11c36:	471d                	li	a4,7
   11c38:	0341                	addi	t1,t1,16
   11c3a:	22d743e3          	blt	a4,a3,12660 <_vfprintf_r+0x181c>
   11c3e:	fffbc713          	not	a4,s7
   11c42:	977d                	srai	a4,a4,0x3f
   11c44:	00ebfbb3          	and	s7,s7,a4
   11c48:	41760bbb          	subw	s7,a2,s7
   11c4c:	c7705663          	blez	s7,110b8 <_vfprintf_r+0x274>
   11c50:	68f5                	lui	a7,0x1d
   11c52:	46c1                	li	a3,16
   11c54:	11812703          	lw	a4,280(sp)
   11c58:	b8888d93          	addi	s11,a7,-1144 # 1cb88 <zeroes.0>
   11c5c:	4cc1                	li	s9,16
   11c5e:	4c1d                	li	s8,7
   11c60:	0176c663          	blt	a3,s7,11c6c <_vfprintf_r+0xe28>
   11c64:	a665                	j	1200c <_vfprintf_r+0x11c8>
   11c66:	3bc1                	addiw	s7,s7,-16
   11c68:	3b7cd263          	bge	s9,s7,1200c <_vfprintf_r+0x11c8>
   11c6c:	2705                	addiw	a4,a4,1
   11c6e:	07c1                	addi	a5,a5,16
   11c70:	01b33023          	sd	s11,0(t1)
   11c74:	01933423          	sd	s9,8(t1)
   11c78:	f23e                	sd	a5,288(sp)
   11c7a:	10e12c23          	sw	a4,280(sp)
   11c7e:	0341                	addi	t1,t1,16
   11c80:	feec53e3          	bge	s8,a4,11c66 <_vfprintf_r+0xe22>
   11c84:	0a10                	addi	a2,sp,272
   11c86:	85ca                	mv	a1,s2
   11c88:	8552                	mv	a0,s4
   11c8a:	335060ef          	jal	ra,187be <__sprint_r>
   11c8e:	d80514e3          	bnez	a0,11a16 <_vfprintf_r+0xbd2>
   11c92:	7792                	ld	a5,288(sp)
   11c94:	11812703          	lw	a4,280(sp)
   11c98:	835a                	mv	t1,s6
   11c9a:	b7f1                	j	11c66 <_vfprintf_r+0xe22>
   11c9c:	0014f513          	andi	a0,s1,1
   11ca0:	fe051063          	bnez	a0,11480 <_vfprintf_r+0x63c>
   11ca4:	00b33423          	sd	a1,8(t1)
   11ca8:	f262                	sd	s8,288(sp)
   11caa:	10e12c23          	sw	a4,280(sp)
   11cae:	469d                	li	a3,7
   11cb0:	18e6c163          	blt	a3,a4,11e32 <_vfprintf_r+0xfee>
   11cb4:	2609                	addiw	a2,a2,2
   11cb6:	02030313          	addi	t1,t1,32
   11cba:	84dff06f          	j	11506 <_vfprintf_r+0x6c2>
   11cbe:	85a054e3          	blez	s10,11506 <_vfprintf_r+0x6c2>
   11cc2:	4741                	li	a4,16
   11cc4:	49a757e3          	bge	a4,s10,12952 <_vfprintf_r+0x1b0e>
   11cc8:	68f5                	lui	a7,0x1d
   11cca:	b8888d93          	addi	s11,a7,-1144 # 1cb88 <zeroes.0>
   11cce:	4841                	li	a6,16
   11cd0:	4c9d                	li	s9,7
   11cd2:	a031                	j	11cde <_vfprintf_r+0xe9a>
   11cd4:	3d41                	addiw	s10,s10,-16
   11cd6:	13a85f63          	bge	a6,s10,11e14 <_vfprintf_r+0xfd0>
   11cda:	00170e1b          	addiw	t3,a4,1
   11cde:	0c41                	addi	s8,s8,16
   11ce0:	01bbb023          	sd	s11,0(s7)
   11ce4:	010bb423          	sd	a6,8(s7)
   11ce8:	f262                	sd	s8,288(sp)
   11cea:	000e071b          	sext.w	a4,t3
   11cee:	11c12c23          	sw	t3,280(sp)
   11cf2:	0bc1                	addi	s7,s7,16
   11cf4:	feecd0e3          	bge	s9,a4,11cd4 <_vfprintf_r+0xe90>
   11cf8:	0a10                	addi	a2,sp,272
   11cfa:	85ca                	mv	a1,s2
   11cfc:	8552                	mv	a0,s4
   11cfe:	2c1060ef          	jal	ra,187be <__sprint_r>
   11d02:	d0051ae3          	bnez	a0,11a16 <_vfprintf_r+0xbd2>
   11d06:	7c12                	ld	s8,288(sp)
   11d08:	11812703          	lw	a4,280(sp)
   11d0c:	8bda                	mv	s7,s6
   11d0e:	4841                	li	a6,16
   11d10:	b7d1                	j	11cd4 <_vfprintf_r+0xe90>
   11d12:	010df793          	andi	a5,s11,16
   11d16:	eb8d                	bnez	a5,11d48 <_vfprintf_r+0xf04>
   11d18:	66c2                	ld	a3,16(sp)
   11d1a:	040df793          	andi	a5,s11,64
   11d1e:	0006a983          	lw	s3,0(a3)
   11d22:	3a078d63          	beqz	a5,120dc <_vfprintf_r+0x1298>
   11d26:	19c2                	slli	s3,s3,0x30
   11d28:	0309d993          	srli	s3,s3,0x30
   11d2c:	e83a                	sd	a4,16(sp)
   11d2e:	4785                	li	a5,1
   11d30:	cd4ff06f          	j	11204 <_vfprintf_r+0x3c0>
   11d34:	0014f713          	andi	a4,s1,1
   11d38:	b8070063          	beqz	a4,110b8 <_vfprintf_r+0x274>
   11d3c:	be3d                	j	1187a <_vfprintf_r+0xa36>
   11d3e:	67a2                	ld	a5,8(sp)
   11d40:	8ca2                	mv	s9,s0
   11d42:	e31c                	sd	a5,0(a4)
   11d44:	ba6ff06f          	j	110ea <_vfprintf_r+0x2a6>
   11d48:	67c2                	ld	a5,16(sp)
   11d4a:	e83a                	sd	a4,16(sp)
   11d4c:	0007b983          	ld	s3,0(a5)
   11d50:	4785                	li	a5,1
   11d52:	cb2ff06f          	j	11204 <_vfprintf_r+0x3c0>
   11d56:	67c2                	ld	a5,16(sp)
   11d58:	639c                	ld	a5,0(a5)
   11d5a:	89be                	mv	s3,a5
   11d5c:	c3eff06f          	j	1119a <_vfprintf_r+0x356>
   11d60:	67c2                	ld	a5,16(sp)
   11d62:	0007b983          	ld	s3,0(a5)
   11d66:	c92ff06f          	j	111f8 <_vfprintf_r+0x3b4>
   11d6a:	67c2                	ld	a5,16(sp)
   11d6c:	07bd                	addi	a5,a5,15
   11d6e:	9bc1                	andi	a5,a5,-16
   11d70:	6398                	ld	a4,0(a5)
   11d72:	6794                	ld	a3,8(a5)
   11d74:	07c1                	addi	a5,a5,16
   11d76:	e83e                	sd	a5,16(sp)
   11d78:	e23a                	sd	a4,256(sp)
   11d7a:	e636                	sd	a3,264(sp)
   11d7c:	cf8ff06f          	j	11274 <_vfprintf_r+0x430>
   11d80:	e83a                	sd	a4,16(sp)
   11d82:	47a5                	li	a5,9
   11d84:	8da6                	mv	s11,s1
   11d86:	cb37f8e3          	bgeu	a5,s3,11a36 <_vfprintf_r+0xbf2>
   11d8a:	18c10b93          	addi	s7,sp,396
   11d8e:	400df713          	andi	a4,s11,1024
   11d92:	f002                	sd	zero,32(sp)
   11d94:	865e                	mv	a2,s7
   11d96:	44a9                	li	s1,10
   11d98:	46a5                	li	a3,9
   11d9a:	0ff00893          	li	a7,255
   11d9e:	a039                	j	11dac <_vfprintf_r+0xf68>
   11da0:	0299d7b3          	divu	a5,s3,s1
   11da4:	a736fee3          	bgeu	a3,s3,11820 <_vfprintf_r+0x9dc>
   11da8:	89be                	mv	s3,a5
   11daa:	8666                	mv	a2,s9
   11dac:	7582                	ld	a1,32(sp)
   11dae:	fff60c93          	addi	s9,a2,-1
   11db2:	2585                	addiw	a1,a1,1
   11db4:	f02e                	sd	a1,32(sp)
   11db6:	0299f7b3          	remu	a5,s3,s1
   11dba:	0307879b          	addiw	a5,a5,48
   11dbe:	fef60fa3          	sb	a5,-1(a2)
   11dc2:	df79                	beqz	a4,11da0 <_vfprintf_r+0xf5c>
   11dc4:	7786                	ld	a5,96(sp)
   11dc6:	0007c783          	lbu	a5,0(a5)
   11dca:	fcf59be3          	bne	a1,a5,11da0 <_vfprintf_r+0xf5c>
   11dce:	fd1789e3          	beq	a5,a7,11da0 <_vfprintf_r+0xf5c>
   11dd2:	a536f7e3          	bgeu	a3,s3,11820 <_vfprintf_r+0x9dc>
   11dd6:	678a                	ld	a5,128(sp)
   11dd8:	65aa                	ld	a1,136(sp)
   11dda:	f81a                	sd	t1,48(sp)
   11ddc:	40fc8cb3          	sub	s9,s9,a5
   11de0:	863e                	mv	a2,a5
   11de2:	8566                	mv	a0,s9
   11de4:	ec3a                	sd	a4,24(sp)
   11de6:	5b5040ef          	jal	ra,16b9a <strncpy>
   11dea:	7706                	ld	a4,96(sp)
   11dec:	0299d7b3          	divu	a5,s3,s1
   11df0:	7342                	ld	t1,48(sp)
   11df2:	00174603          	lbu	a2,1(a4)
   11df6:	f002                	sd	zero,32(sp)
   11df8:	46a5                	li	a3,9
   11dfa:	00c03633          	snez	a2,a2
   11dfe:	9732                	add	a4,a4,a2
   11e00:	f0ba                	sd	a4,96(sp)
   11e02:	0ff00893          	li	a7,255
   11e06:	6762                	ld	a4,24(sp)
   11e08:	b745                	j	11da8 <_vfprintf_r+0xf64>
   11e0a:	00068b9b          	sext.w	s7,a3
   11e0e:	d7704ee3          	bgtz	s7,11b8a <_vfprintf_r+0xd46>
   11e12:	bb61                	j	11baa <_vfprintf_r+0xd66>
   11e14:	0017061b          	addiw	a2,a4,1
   11e18:	010b8713          	addi	a4,s7,16
   11e1c:	9c6a                	add	s8,s8,s10
   11e1e:	01bbb023          	sd	s11,0(s7)
   11e22:	01abb423          	sd	s10,8(s7)
   11e26:	f262                	sd	s8,288(sp)
   11e28:	10c12c23          	sw	a2,280(sp)
   11e2c:	469d                	li	a3,7
   11e2e:	48c6db63          	bge	a3,a2,122c4 <_vfprintf_r+0x1480>
   11e32:	0a10                	addi	a2,sp,272
   11e34:	85ca                	mv	a1,s2
   11e36:	8552                	mv	a0,s4
   11e38:	187060ef          	jal	ra,187be <__sprint_r>
   11e3c:	bc051de3          	bnez	a0,11a16 <_vfprintf_r+0xbd2>
   11e40:	11812603          	lw	a2,280(sp)
   11e44:	7c12                	ld	s8,288(sp)
   11e46:	1a010313          	addi	t1,sp,416
   11e4a:	2605                	addiw	a2,a2,1
   11e4c:	8bda                	mv	s7,s6
   11e4e:	eb8ff06f          	j	11506 <_vfprintf_r+0x6c2>
   11e52:	8da6                	mv	s11,s1
   11e54:	80bff06f          	j	1165e <_vfprintf_r+0x81a>
   11e58:	67f5                	lui	a5,0x1d
   11e5a:	9e078793          	addi	a5,a5,-1568 # 1c9e0 <__clzdi2+0x94>
   11e5e:	f43e                	sd	a5,40(sp)
   11e60:	66c2                	ld	a3,16(sp)
   11e62:	0204f793          	andi	a5,s1,32
   11e66:	00868713          	addi	a4,a3,8
   11e6a:	cbf1                	beqz	a5,11f3e <_vfprintf_r+0x10fa>
   11e6c:	0006b983          	ld	s3,0(a3)
   11e70:	0014f793          	andi	a5,s1,1
   11e74:	cf81                	beqz	a5,11e8c <_vfprintf_r+0x1048>
   11e76:	00098b63          	beqz	s3,11e8c <_vfprintf_r+0x1048>
   11e7a:	0024e493          	ori	s1,s1,2
   11e7e:	03000793          	li	a5,48
   11e82:	0ef10023          	sb	a5,224(sp)
   11e86:	0fa100a3          	sb	s10,225(sp)
   11e8a:	2481                	sext.w	s1,s1
   11e8c:	bff4f493          	andi	s1,s1,-1025
   11e90:	00048d9b          	sext.w	s11,s1
   11e94:	e83a                	sd	a4,16(sp)
   11e96:	4789                	li	a5,2
   11e98:	b6cff06f          	j	11204 <_vfprintf_r+0x3c0>
   11e9c:	2004e493          	ori	s1,s1,512
   11ea0:	00144e03          	lbu	t3,1(s0)
   11ea4:	2481                	sext.w	s1,s1
   11ea6:	0405                	addi	s0,s0,1
   11ea8:	8ecff06f          	j	10f94 <_vfprintf_r+0x150>
   11eac:	0204e493          	ori	s1,s1,32
   11eb0:	00144e03          	lbu	t3,1(s0)
   11eb4:	2481                	sext.w	s1,s1
   11eb6:	0405                	addi	s0,s0,1
   11eb8:	8dcff06f          	j	10f94 <_vfprintf_r+0x150>
   11ebc:	0a10                	addi	a2,sp,272
   11ebe:	85ca                	mv	a1,s2
   11ec0:	8552                	mv	a0,s4
   11ec2:	0fd060ef          	jal	ra,187be <__sprint_r>
   11ec6:	b40518e3          	bnez	a0,11a16 <_vfprintf_r+0xbd2>
   11eca:	7792                	ld	a5,288(sp)
   11ecc:	835a                	mv	t1,s6
   11ece:	bac9                	j	118a0 <_vfprintf_r+0xa5c>
   11ed0:	67f5                	lui	a5,0x1d
   11ed2:	9c878793          	addi	a5,a5,-1592 # 1c9c8 <__clzdi2+0x7c>
   11ed6:	f43e                	sd	a5,40(sp)
   11ed8:	b761                	j	11e60 <_vfprintf_r+0x101c>
   11eda:	4799                	li	a5,6
   11edc:	000c0b9b          	sext.w	s7,s8
   11ee0:	4387e163          	bltu	a5,s8,12302 <_vfprintf_r+0x14be>
   11ee4:	6875                	lui	a6,0x1d
   11ee6:	89de                	mv	s3,s7
   11ee8:	e86e                	sd	s11,16(sp)
   11eea:	9f880c93          	addi	s9,a6,-1544 # 1c9f8 <__clzdi2+0xac>
   11eee:	912ff06f          	j	11000 <_vfprintf_r+0x1bc>
   11ef2:	68f5                	lui	a7,0x1d
   11ef4:	46c1                	li	a3,16
   11ef6:	11812703          	lw	a4,280(sp)
   11efa:	b8888d93          	addi	s11,a7,-1144 # 1cb88 <zeroes.0>
   11efe:	4d41                	li	s10,16
   11f00:	4c1d                	li	s8,7
   11f02:	0176c663          	blt	a3,s7,11f0e <_vfprintf_r+0x10ca>
   11f06:	ac1d                	j	1213c <_vfprintf_r+0x12f8>
   11f08:	3bc1                	addiw	s7,s7,-16
   11f0a:	237d5963          	bge	s10,s7,1213c <_vfprintf_r+0x12f8>
   11f0e:	2705                	addiw	a4,a4,1
   11f10:	07c1                	addi	a5,a5,16
   11f12:	01b33023          	sd	s11,0(t1)
   11f16:	01a33423          	sd	s10,8(t1)
   11f1a:	f23e                	sd	a5,288(sp)
   11f1c:	10e12c23          	sw	a4,280(sp)
   11f20:	0341                	addi	t1,t1,16
   11f22:	feec53e3          	bge	s8,a4,11f08 <_vfprintf_r+0x10c4>
   11f26:	0a10                	addi	a2,sp,272
   11f28:	85ca                	mv	a1,s2
   11f2a:	8552                	mv	a0,s4
   11f2c:	093060ef          	jal	ra,187be <__sprint_r>
   11f30:	ae0513e3          	bnez	a0,11a16 <_vfprintf_r+0xbd2>
   11f34:	7792                	ld	a5,288(sp)
   11f36:	11812703          	lw	a4,280(sp)
   11f3a:	835a                	mv	t1,s6
   11f3c:	b7f1                	j	11f08 <_vfprintf_r+0x10c4>
   11f3e:	0104f793          	andi	a5,s1,16
   11f42:	cfd9                	beqz	a5,11fe0 <_vfprintf_r+0x119c>
   11f44:	67c2                	ld	a5,16(sp)
   11f46:	0007b983          	ld	s3,0(a5)
   11f4a:	b71d                	j	11e70 <_vfprintf_r+0x102c>
   11f4c:	0a10                	addi	a2,sp,272
   11f4e:	85ca                	mv	a1,s2
   11f50:	8552                	mv	a0,s4
   11f52:	06d060ef          	jal	ra,187be <__sprint_r>
   11f56:	ac0510e3          	bnez	a0,11a16 <_vfprintf_r+0xbd2>
   11f5a:	7c12                	ld	s8,288(sp)
   11f5c:	11812703          	lw	a4,280(sp)
   11f60:	8bda                	mv	s7,s6
   11f62:	d30ff06f          	j	11492 <_vfprintf_r+0x64e>
   11f66:	0a10                	addi	a2,sp,272
   11f68:	85ca                	mv	a1,s2
   11f6a:	8552                	mv	a0,s4
   11f6c:	053060ef          	jal	ra,187be <__sprint_r>
   11f70:	aa0513e3          	bnez	a0,11a16 <_vfprintf_r+0xbd2>
   11f74:	7c12                	ld	s8,288(sp)
   11f76:	11812703          	lw	a4,280(sp)
   11f7a:	8bda                	mv	s7,s6
   11f7c:	d3aff06f          	j	114b6 <_vfprintf_r+0x672>
   11f80:	11812703          	lw	a4,280(sp)
   11f84:	66f5                	lui	a3,0x1d
   11f86:	a0068693          	addi	a3,a3,-1536 # 1ca00 <__clzdi2+0xb4>
   11f8a:	2705                	addiw	a4,a4,1
   11f8c:	00d33023          	sd	a3,0(t1)
   11f90:	0785                	addi	a5,a5,1
   11f92:	4685                	li	a3,1
   11f94:	00d33423          	sd	a3,8(t1)
   11f98:	10e12c23          	sw	a4,280(sp)
   11f9c:	0007069b          	sext.w	a3,a4
   11fa0:	f23e                	sd	a5,288(sp)
   11fa2:	471d                	li	a4,7
   11fa4:	0341                	addi	t1,t1,16
   11fa6:	32d74563          	blt	a4,a3,122d0 <_vfprintf_r+0x148c>
   11faa:	ea4d                	bnez	a2,1205c <_vfprintf_r+0x1218>
   11fac:	7682                	ld	a3,32(sp)
   11fae:	0014f713          	andi	a4,s1,1
   11fb2:	8f55                	or	a4,a4,a3
   11fb4:	90070263          	beqz	a4,110b8 <_vfprintf_r+0x274>
   11fb8:	7746                	ld	a4,112(sp)
   11fba:	76a6                	ld	a3,104(sp)
   11fbc:	00e33023          	sd	a4,0(t1)
   11fc0:	11812703          	lw	a4,280(sp)
   11fc4:	97b6                	add	a5,a5,a3
   11fc6:	00d33423          	sd	a3,8(t1)
   11fca:	2705                	addiw	a4,a4,1
   11fcc:	0007069b          	sext.w	a3,a4
   11fd0:	10e12c23          	sw	a4,280(sp)
   11fd4:	f23e                	sd	a5,288(sp)
   11fd6:	471d                	li	a4,7
   11fd8:	38d74c63          	blt	a4,a3,12370 <_vfprintf_r+0x152c>
   11fdc:	0341                	addi	t1,t1,16
   11fde:	a065                	j	12086 <_vfprintf_r+0x1242>
   11fe0:	66c2                	ld	a3,16(sp)
   11fe2:	0404f793          	andi	a5,s1,64
   11fe6:	0006a983          	lw	s3,0(a3)
   11fea:	10078d63          	beqz	a5,12104 <_vfprintf_r+0x12c0>
   11fee:	19c2                	slli	s3,s3,0x30
   11ff0:	0309d993          	srli	s3,s3,0x30
   11ff4:	bdb5                	j	11e70 <_vfprintf_r+0x102c>
   11ff6:	0a10                	addi	a2,sp,272
   11ff8:	85ca                	mv	a1,s2
   11ffa:	8552                	mv	a0,s4
   11ffc:	7c2060ef          	jal	ra,187be <__sprint_r>
   12000:	a0051be3          	bnez	a0,11a16 <_vfprintf_r+0xbd2>
   12004:	7792                	ld	a5,288(sp)
   12006:	835a                	mv	t1,s6
   12008:	86bff06f          	j	11872 <_vfprintf_r+0xa2e>
   1200c:	0017069b          	addiw	a3,a4,1
   12010:	8736                	mv	a4,a3
   12012:	97de                	add	a5,a5,s7
   12014:	01b33023          	sd	s11,0(t1)
   12018:	88eff06f          	j	110a6 <_vfprintf_r+0x262>
   1201c:	6512                	ld	a0,256(sp)
   1201e:	65b2                	ld	a1,264(sp)
   12020:	4601                	li	a2,0
   12022:	4681                	li	a3,0
   12024:	67e090ef          	jal	ra,1b6a2 <__letf2>
   12028:	6362                	ld	t1,24(sp)
   1202a:	56054463          	bltz	a0,12592 <_vfprintf_r+0x174e>
   1202e:	0df14783          	lbu	a5,223(sp)
   12032:	04700713          	li	a4,71
   12036:	2ba75863          	bge	a4,s10,122e6 <_vfprintf_r+0x14a2>
   1203a:	6875                	lui	a6,0x1d
   1203c:	9b080c93          	addi	s9,a6,-1616 # 1c9b0 <__clzdi2+0x64>
   12040:	f7f4f493          	andi	s1,s1,-129
   12044:	ec02                	sd	zero,24(sp)
   12046:	e482                	sd	zero,72(sp)
   12048:	ec82                	sd	zero,88(sp)
   1204a:	e882                	sd	zero,80(sp)
   1204c:	2481                	sext.w	s1,s1
   1204e:	498d                	li	s3,3
   12050:	4b8d                	li	s7,3
   12052:	4c01                	li	s8,0
   12054:	98079463          	bnez	a5,111dc <_vfprintf_r+0x398>
   12058:	fb3fe06f          	j	1100a <_vfprintf_r+0x1c6>
   1205c:	7746                	ld	a4,112(sp)
   1205e:	76a6                	ld	a3,104(sp)
   12060:	0341                	addi	t1,t1,16
   12062:	fee33823          	sd	a4,-16(t1)
   12066:	11812703          	lw	a4,280(sp)
   1206a:	97b6                	add	a5,a5,a3
   1206c:	fed33c23          	sd	a3,-8(t1)
   12070:	2705                	addiw	a4,a4,1
   12072:	0007069b          	sext.w	a3,a4
   12076:	10e12c23          	sw	a4,280(sp)
   1207a:	f23e                	sd	a5,288(sp)
   1207c:	471d                	li	a4,7
   1207e:	2ed74963          	blt	a4,a3,12370 <_vfprintf_r+0x152c>
   12082:	64064563          	bltz	a2,126cc <_vfprintf_r+0x1888>
   12086:	7702                	ld	a4,32(sp)
   12088:	0016861b          	addiw	a2,a3,1
   1208c:	01933023          	sd	s9,0(t1)
   12090:	97ba                	add	a5,a5,a4
   12092:	00e33423          	sd	a4,8(t1)
   12096:	f23e                	sd	a5,288(sp)
   12098:	10c12c23          	sw	a2,280(sp)
   1209c:	471d                	li	a4,7
   1209e:	00c74463          	blt	a4,a2,120a6 <_vfprintf_r+0x1262>
   120a2:	814ff06f          	j	110b6 <_vfprintf_r+0x272>
   120a6:	c7cff06f          	j	11522 <_vfprintf_r+0x6de>
   120aa:	8566                	mv	a0,s9
   120ac:	f81a                	sd	t1,48(sp)
   120ae:	25d040ef          	jal	ra,16b0a <strlen>
   120b2:	00050b9b          	sext.w	s7,a0
   120b6:	0df14783          	lbu	a5,223(sp)
   120ba:	fffbc993          	not	s3,s7
   120be:	43f9d993          	srai	s3,s3,0x3f
   120c2:	e86e                	sd	s11,16(sp)
   120c4:	ec02                	sd	zero,24(sp)
   120c6:	e482                	sd	zero,72(sp)
   120c8:	ec82                	sd	zero,88(sp)
   120ca:	e882                	sd	zero,80(sp)
   120cc:	7342                	ld	t1,48(sp)
   120ce:	0179f9b3          	and	s3,s3,s7
   120d2:	4c01                	li	s8,0
   120d4:	90079463          	bnez	a5,111dc <_vfprintf_r+0x398>
   120d8:	f33fe06f          	j	1100a <_vfprintf_r+0x1c6>
   120dc:	200df793          	andi	a5,s11,512
   120e0:	26078163          	beqz	a5,12342 <_vfprintf_r+0x14fe>
   120e4:	0ff9f993          	andi	s3,s3,255
   120e8:	e83a                	sd	a4,16(sp)
   120ea:	4785                	li	a5,1
   120ec:	918ff06f          	j	11204 <_vfprintf_r+0x3c0>
   120f0:	2004f793          	andi	a5,s1,512
   120f4:	24078163          	beqz	a5,12336 <_vfprintf_r+0x14f2>
   120f8:	67c2                	ld	a5,16(sp)
   120fa:	00078983          	lb	s3,0(a5)
   120fe:	87ce                	mv	a5,s3
   12100:	89aff06f          	j	1119a <_vfprintf_r+0x356>
   12104:	2004f793          	andi	a5,s1,512
   12108:	24078463          	beqz	a5,12350 <_vfprintf_r+0x150c>
   1210c:	0ff9f993          	andi	s3,s3,255
   12110:	b385                	j	11e70 <_vfprintf_r+0x102c>
   12112:	2004f793          	andi	a5,s1,512
   12116:	20078b63          	beqz	a5,1232c <_vfprintf_r+0x14e8>
   1211a:	0ff9f993          	andi	s3,s3,255
   1211e:	8daff06f          	j	111f8 <_vfprintf_r+0x3b4>
   12122:	67b2                	ld	a5,264(sp)
   12124:	2407c163          	bltz	a5,12366 <_vfprintf_r+0x1522>
   12128:	0df14783          	lbu	a5,223(sp)
   1212c:	04700713          	li	a4,71
   12130:	53a75463          	bge	a4,s10,12658 <_vfprintf_r+0x1814>
   12134:	6875                	lui	a6,0x1d
   12136:	9c080c93          	addi	s9,a6,-1600 # 1c9c0 <__clzdi2+0x74>
   1213a:	b719                	j	12040 <_vfprintf_r+0x11fc>
   1213c:	0017069b          	addiw	a3,a4,1
   12140:	97de                	add	a5,a5,s7
   12142:	01b33023          	sd	s11,0(t1)
   12146:	01733423          	sd	s7,8(t1)
   1214a:	f23e                	sd	a5,288(sp)
   1214c:	10d12c23          	sw	a3,280(sp)
   12150:	471d                	li	a4,7
   12152:	0341                	addi	t1,t1,16
   12154:	a6d755e3          	bge	a4,a3,11bbe <_vfprintf_r+0xd7a>
   12158:	0a10                	addi	a2,sp,272
   1215a:	85ca                	mv	a1,s2
   1215c:	8552                	mv	a0,s4
   1215e:	660060ef          	jal	ra,187be <__sprint_r>
   12162:	8a051ae3          	bnez	a0,11a16 <_vfprintf_r+0xbd2>
   12166:	7792                	ld	a5,288(sp)
   12168:	835a                	mv	t1,s6
   1216a:	bc91                	j	11bbe <_vfprintf_r+0xd7a>
   1216c:	7702                	ld	a4,32(sp)
   1216e:	6ef5                	lui	t4,0x1d
   12170:	4b9d                	li	s7,7
   12172:	9766                	add	a4,a4,s9
   12174:	fc3a                	sd	a4,56(sp)
   12176:	6766                	ld	a4,88(sp)
   12178:	4dc1                	li	s11,16
   1217a:	b88e8d13          	addi	s10,t4,-1144 # 1cb88 <zeroes.0>
   1217e:	cb51                	beqz	a4,12212 <_vfprintf_r+0x13ce>
   12180:	6726                	ld	a4,72(sp)
   12182:	eb59                	bnez	a4,12218 <_vfprintf_r+0x13d4>
   12184:	7706                	ld	a4,96(sp)
   12186:	177d                	addi	a4,a4,-1
   12188:	f0ba                	sd	a4,96(sp)
   1218a:	6766                	ld	a4,88(sp)
   1218c:	377d                	addiw	a4,a4,-1
   1218e:	ecba                	sd	a4,88(sp)
   12190:	672a                	ld	a4,136(sp)
   12192:	668a                	ld	a3,128(sp)
   12194:	0341                	addi	t1,t1,16
   12196:	fee33823          	sd	a4,-16(t1)
   1219a:	11812703          	lw	a4,280(sp)
   1219e:	97b6                	add	a5,a5,a3
   121a0:	fed33c23          	sd	a3,-8(t1)
   121a4:	2705                	addiw	a4,a4,1
   121a6:	f23e                	sd	a5,288(sp)
   121a8:	0007069b          	sext.w	a3,a4
   121ac:	10e12c23          	sw	a4,280(sp)
   121b0:	0cdbcf63          	blt	s7,a3,1228e <_vfprintf_r+0x144a>
   121b4:	7706                	ld	a4,96(sp)
   121b6:	00074583          	lbu	a1,0(a4)
   121ba:	7762                	ld	a4,56(sp)
   121bc:	0005869b          	sext.w	a3,a1
   121c0:	4187063b          	subw	a2,a4,s8
   121c4:	0006871b          	sext.w	a4,a3
   121c8:	00d65463          	bge	a2,a3,121d0 <_vfprintf_r+0x138c>
   121cc:	0006071b          	sext.w	a4,a2
   121d0:	02e05663          	blez	a4,121fc <_vfprintf_r+0x13b8>
   121d4:	11812683          	lw	a3,280(sp)
   121d8:	97ba                	add	a5,a5,a4
   121da:	01833023          	sd	s8,0(t1)
   121de:	0016861b          	addiw	a2,a3,1
   121e2:	00e33423          	sd	a4,8(t1)
   121e6:	f23e                	sd	a5,288(sp)
   121e8:	10c12c23          	sw	a2,280(sp)
   121ec:	0acbcb63          	blt	s7,a2,122a2 <_vfprintf_r+0x145e>
   121f0:	7686                	ld	a3,96(sp)
   121f2:	0341                	addi	t1,t1,16
   121f4:	0006c583          	lbu	a1,0(a3)
   121f8:	0005869b          	sext.w	a3,a1
   121fc:	fff74613          	not	a2,a4
   12200:	967d                	srai	a2,a2,0x3f
   12202:	8f71                	and	a4,a4,a2
   12204:	40e6873b          	subw	a4,a3,a4
   12208:	00e04c63          	bgtz	a4,12220 <_vfprintf_r+0x13dc>
   1220c:	9c2e                	add	s8,s8,a1
   1220e:	6766                	ld	a4,88(sp)
   12210:	fb25                	bnez	a4,12180 <_vfprintf_r+0x133c>
   12212:	6726                	ld	a4,72(sp)
   12214:	2c070d63          	beqz	a4,124ee <_vfprintf_r+0x16aa>
   12218:	6726                	ld	a4,72(sp)
   1221a:	377d                	addiw	a4,a4,-1
   1221c:	e4ba                	sd	a4,72(sp)
   1221e:	bf8d                	j	12190 <_vfprintf_r+0x134c>
   12220:	11812683          	lw	a3,280(sp)
   12224:	00edc663          	blt	s11,a4,12230 <_vfprintf_r+0x13ec>
   12228:	a081                	j	12268 <_vfprintf_r+0x1424>
   1222a:	3741                	addiw	a4,a4,-16
   1222c:	02edde63          	bge	s11,a4,12268 <_vfprintf_r+0x1424>
   12230:	2685                	addiw	a3,a3,1
   12232:	07c1                	addi	a5,a5,16
   12234:	01a33023          	sd	s10,0(t1)
   12238:	01b33423          	sd	s11,8(t1)
   1223c:	f23e                	sd	a5,288(sp)
   1223e:	10d12c23          	sw	a3,280(sp)
   12242:	0341                	addi	t1,t1,16
   12244:	fedbd3e3          	bge	s7,a3,1222a <_vfprintf_r+0x13e6>
   12248:	0a10                	addi	a2,sp,272
   1224a:	85ca                	mv	a1,s2
   1224c:	8552                	mv	a0,s4
   1224e:	f83a                	sd	a4,48(sp)
   12250:	56e060ef          	jal	ra,187be <__sprint_r>
   12254:	fc051163          	bnez	a0,11a16 <_vfprintf_r+0xbd2>
   12258:	7742                	ld	a4,48(sp)
   1225a:	7792                	ld	a5,288(sp)
   1225c:	11812683          	lw	a3,280(sp)
   12260:	3741                	addiw	a4,a4,-16
   12262:	835a                	mv	t1,s6
   12264:	fcedc6e3          	blt	s11,a4,12230 <_vfprintf_r+0x13ec>
   12268:	2685                	addiw	a3,a3,1
   1226a:	97ba                	add	a5,a5,a4
   1226c:	00e33423          	sd	a4,8(t1)
   12270:	01a33023          	sd	s10,0(t1)
   12274:	f23e                	sd	a5,288(sp)
   12276:	0006871b          	sext.w	a4,a3
   1227a:	10d12c23          	sw	a3,280(sp)
   1227e:	2eebcc63          	blt	s7,a4,12576 <_vfprintf_r+0x1732>
   12282:	7706                	ld	a4,96(sp)
   12284:	0341                	addi	t1,t1,16
   12286:	00074583          	lbu	a1,0(a4)
   1228a:	9c2e                	add	s8,s8,a1
   1228c:	b749                	j	1220e <_vfprintf_r+0x13ca>
   1228e:	0a10                	addi	a2,sp,272
   12290:	85ca                	mv	a1,s2
   12292:	8552                	mv	a0,s4
   12294:	52a060ef          	jal	ra,187be <__sprint_r>
   12298:	f6051f63          	bnez	a0,11a16 <_vfprintf_r+0xbd2>
   1229c:	7792                	ld	a5,288(sp)
   1229e:	835a                	mv	t1,s6
   122a0:	bf11                	j	121b4 <_vfprintf_r+0x1370>
   122a2:	0a10                	addi	a2,sp,272
   122a4:	85ca                	mv	a1,s2
   122a6:	8552                	mv	a0,s4
   122a8:	f83a                	sd	a4,48(sp)
   122aa:	514060ef          	jal	ra,187be <__sprint_r>
   122ae:	f6051463          	bnez	a0,11a16 <_vfprintf_r+0xbd2>
   122b2:	7786                	ld	a5,96(sp)
   122b4:	7742                	ld	a4,48(sp)
   122b6:	835a                	mv	t1,s6
   122b8:	0007c583          	lbu	a1,0(a5)
   122bc:	7792                	ld	a5,288(sp)
   122be:	0005869b          	sext.w	a3,a1
   122c2:	bf2d                	j	121fc <_vfprintf_r+0x13b8>
   122c4:	2605                	addiw	a2,a2,1
   122c6:	01070313          	addi	t1,a4,16
   122ca:	8bba                	mv	s7,a4
   122cc:	a3aff06f          	j	11506 <_vfprintf_r+0x6c2>
   122d0:	0a10                	addi	a2,sp,272
   122d2:	85ca                	mv	a1,s2
   122d4:	8552                	mv	a0,s4
   122d6:	4e8060ef          	jal	ra,187be <__sprint_r>
   122da:	f2051e63          	bnez	a0,11a16 <_vfprintf_r+0xbd2>
   122de:	562e                	lw	a2,232(sp)
   122e0:	7792                	ld	a5,288(sp)
   122e2:	835a                	mv	t1,s6
   122e4:	b1d9                	j	11faa <_vfprintf_r+0x1166>
   122e6:	6875                	lui	a6,0x1d
   122e8:	9a880c93          	addi	s9,a6,-1624 # 1c9a8 <__clzdi2+0x5c>
   122ec:	bb91                	j	12040 <_vfprintf_r+0x11fc>
   122ee:	0a10                	addi	a2,sp,272
   122f0:	85ca                	mv	a1,s2
   122f2:	8552                	mv	a0,s4
   122f4:	4ca060ef          	jal	ra,187be <__sprint_r>
   122f8:	f0051f63          	bnez	a0,11a16 <_vfprintf_r+0xbd2>
   122fc:	7792                	ld	a5,288(sp)
   122fe:	835a                	mv	t1,s6
   12300:	b06d                	j	11baa <_vfprintf_r+0xd66>
   12302:	4b99                	li	s7,6
   12304:	b6c5                	j	11ee4 <_vfprintf_r+0x10a0>
   12306:	7682                	ld	a3,32(sp)
   12308:	00dc8833          	add	a6,s9,a3
   1230c:	40e6863b          	subw	a2,a3,a4
   12310:	41880f3b          	subw	t5,a6,s8
   12314:	8bb2                	mv	s7,a2
   12316:	92cf54e3          	bge	t5,a2,11c3e <_vfprintf_r+0xdfa>
   1231a:	000f0b9b          	sext.w	s7,t5
   1231e:	b205                	j	11c3e <_vfprintf_r+0xdfa>
   12320:	67a2                	ld	a5,8(sp)
   12322:	8ca2                	mv	s9,s0
   12324:	00f71023          	sh	a5,0(a4)
   12328:	dc3fe06f          	j	110ea <_vfprintf_r+0x2a6>
   1232c:	1982                	slli	s3,s3,0x20
   1232e:	0209d993          	srli	s3,s3,0x20
   12332:	ec7fe06f          	j	111f8 <_vfprintf_r+0x3b4>
   12336:	67c2                	ld	a5,16(sp)
   12338:	0007a983          	lw	s3,0(a5)
   1233c:	87ce                	mv	a5,s3
   1233e:	e5dfe06f          	j	1119a <_vfprintf_r+0x356>
   12342:	1982                	slli	s3,s3,0x20
   12344:	0209d993          	srli	s3,s3,0x20
   12348:	e83a                	sd	a4,16(sp)
   1234a:	4785                	li	a5,1
   1234c:	eb9fe06f          	j	11204 <_vfprintf_r+0x3c0>
   12350:	1982                	slli	s3,s3,0x20
   12352:	0209d993          	srli	s3,s3,0x20
   12356:	be29                	j	11e70 <_vfprintf_r+0x102c>
   12358:	0a10                	addi	a2,sp,272
   1235a:	85ca                	mv	a1,s2
   1235c:	8552                	mv	a0,s4
   1235e:	460060ef          	jal	ra,187be <__sprint_r>
   12362:	d99fe06f          	j	110fa <_vfprintf_r+0x2b6>
   12366:	02d00793          	li	a5,45
   1236a:	0cf10fa3          	sb	a5,223(sp)
   1236e:	bb7d                	j	1212c <_vfprintf_r+0x12e8>
   12370:	0a10                	addi	a2,sp,272
   12372:	85ca                	mv	a1,s2
   12374:	8552                	mv	a0,s4
   12376:	448060ef          	jal	ra,187be <__sprint_r>
   1237a:	e8051e63          	bnez	a0,11a16 <_vfprintf_r+0xbd2>
   1237e:	562e                	lw	a2,232(sp)
   12380:	7792                	ld	a5,288(sp)
   12382:	11812683          	lw	a3,280(sp)
   12386:	835a                	mv	t1,s6
   12388:	b9ed                	j	12082 <_vfprintf_r+0x123e>
   1238a:	03000793          	li	a5,48
   1238e:	0ef10023          	sb	a5,224(sp)
   12392:	05800713          	li	a4,88
   12396:	0024e793          	ori	a5,s1,2
   1239a:	2781                	sext.w	a5,a5
   1239c:	0ee100a3          	sb	a4,225(sp)
   123a0:	fd3e                	sd	a5,184(sp)
   123a2:	06300713          	li	a4,99
   123a6:	ec02                	sd	zero,24(sp)
   123a8:	12810c93          	addi	s9,sp,296
   123ac:	3d874063          	blt	a4,s8,1276c <_vfprintf_r+0x1928>
   123b0:	6bb2                	ld	s7,264(sp)
   123b2:	fdfd7793          	andi	a5,s10,-33
   123b6:	1024e493          	ori	s1,s1,258
   123ba:	ecbe                	sd	a5,88(sp)
   123bc:	e582                	sd	zero,200(sp)
   123be:	6d92                	ld	s11,256(sp)
   123c0:	2481                	sext.w	s1,s1
   123c2:	1a0bc263          	bltz	s7,12566 <_vfprintf_r+0x1722>
   123c6:	06100793          	li	a5,97
   123ca:	46fd0463          	beq	s10,a5,12832 <_vfprintf_r+0x19ee>
   123ce:	04100793          	li	a5,65
   123d2:	00fd0463          	beq	s10,a5,123da <_vfprintf_r+0x1596>
   123d6:	f05fe06f          	j	112da <_vfprintf_r+0x496>
   123da:	85de                	mv	a1,s7
   123dc:	856e                	mv	a0,s11
   123de:	fc1a                	sd	t1,56(sp)
   123e0:	3400a0ef          	jal	ra,1c720 <__trunctfdf2>
   123e4:	11a8                	addi	a0,sp,232
   123e6:	3bc040ef          	jal	ra,167a2 <frexp>
   123ea:	2740a0ef          	jal	ra,1c65e <__extenddftf2>
   123ee:	66ea                	ld	a3,152(sp)
   123f0:	4601                	li	a2,0
   123f2:	356090ef          	jal	ra,1b748 <__multf3>
   123f6:	4601                	li	a2,0
   123f8:	4681                	li	a3,0
   123fa:	f82a                	sd	a0,48(sp)
   123fc:	f02e                	sd	a1,32(sp)
   123fe:	16a090ef          	jal	ra,1b568 <__eqtf2>
   12402:	7f82                	ld	t6,32(sp)
   12404:	7f42                	ld	t5,48(sp)
   12406:	7362                	ld	t1,56(sp)
   12408:	e119                	bnez	a0,1240e <_vfprintf_r+0x15ca>
   1240a:	4785                	li	a5,1
   1240c:	d5be                	sw	a5,232(sp)
   1240e:	6bf5                	lui	s7,0x1d
   12410:	9c8b8793          	addi	a5,s7,-1592 # 1c9c8 <__clzdi2+0x7c>
   12414:	e4be                	sd	a5,72(sp)
   12416:	020c1793          	slli	a5,s8,0x20
   1241a:	9381                	srli	a5,a5,0x20
   1241c:	0785                	addi	a5,a5,1
   1241e:	97e6                	add	a5,a5,s9
   12420:	f53e                	sd	a5,168(sp)
   12422:	018c87bb          	addw	a5,s9,s8
   12426:	8de6                	mv	s11,s9
   12428:	c3be                	sw	a5,196(sp)
   1242a:	a819                	j	12440 <_vfprintf_r+0x15fc>
   1242c:	4601                	li	a2,0
   1242e:	4681                	li	a3,0
   12430:	e0aa                	sd	a0,64(sp)
   12432:	136090ef          	jal	ra,1b568 <__eqtf2>
   12436:	6886                	ld	a7,64(sp)
   12438:	7342                	ld	t1,48(sp)
   1243a:	8fde                	mv	t6,s7
   1243c:	8f46                	mv	t5,a7
   1243e:	cd31                	beqz	a0,1249a <_vfprintf_r+0x1656>
   12440:	66ca                	ld	a3,144(sp)
   12442:	4601                	li	a2,0
   12444:	857a                	mv	a0,t5
   12446:	85fe                	mv	a1,t6
   12448:	f81a                	sd	t1,48(sp)
   1244a:	2fe090ef          	jal	ra,1b748 <__multf3>
   1244e:	8bae                	mv	s7,a1
   12450:	f02a                	sd	a0,32(sp)
   12452:	1240a0ef          	jal	ra,1c576 <__fixtfsi>
   12456:	0005099b          	sext.w	s3,a0
   1245a:	854e                	mv	a0,s3
   1245c:	1aa0a0ef          	jal	ra,1c606 <__floatsitf>
   12460:	7782                	ld	a5,32(sp)
   12462:	86ae                	mv	a3,a1
   12464:	862a                	mv	a2,a0
   12466:	85de                	mv	a1,s7
   12468:	853e                	mv	a0,a5
   1246a:	0e1090ef          	jal	ra,1bd4a <__subtf3>
   1246e:	67a6                	ld	a5,72(sp)
   12470:	f96e                	sd	s11,176(sp)
   12472:	0d85                	addi	s11,s11,1
   12474:	97ce                	add	a5,a5,s3
   12476:	0007c683          	lbu	a3,0(a5)
   1247a:	479e                	lw	a5,196(sp)
   1247c:	fc2a                	sd	a0,56(sp)
   1247e:	fedd8fa3          	sb	a3,-1(s11)
   12482:	41b787bb          	subw	a5,a5,s11
   12486:	e8be                	sd	a5,80(sp)
   12488:	77aa                	ld	a5,168(sp)
   1248a:	f02e                	sd	a1,32(sp)
   1248c:	7342                	ld	t1,48(sp)
   1248e:	88aa                	mv	a7,a0
   12490:	8bae                	mv	s7,a1
   12492:	f9b79de3          	bne	a5,s11,1242c <_vfprintf_r+0x15e8>
   12496:	57fd                	li	a5,-1
   12498:	e8be                	sd	a5,80(sp)
   1249a:	768a                	ld	a3,160(sp)
   1249c:	4601                	li	a2,0
   1249e:	8546                	mv	a0,a7
   124a0:	85de                	mv	a1,s7
   124a2:	f01a                	sd	t1,32(sp)
   124a4:	f846                	sd	a7,48(sp)
   124a6:	156090ef          	jal	ra,1b5fc <__getf2>
   124aa:	7302                	ld	t1,32(sp)
   124ac:	2ea04263          	bgtz	a0,12790 <_vfprintf_r+0x194c>
   124b0:	78c2                	ld	a7,48(sp)
   124b2:	768a                	ld	a3,160(sp)
   124b4:	4601                	li	a2,0
   124b6:	8546                	mv	a0,a7
   124b8:	85de                	mv	a1,s7
   124ba:	0ae090ef          	jal	ra,1b568 <__eqtf2>
   124be:	7302                	ld	t1,32(sp)
   124c0:	e509                	bnez	a0,124ca <_vfprintf_r+0x1686>
   124c2:	0019f993          	andi	s3,s3,1
   124c6:	2c099563          	bnez	s3,12790 <_vfprintf_r+0x194c>
   124ca:	6746                	ld	a4,80(sp)
   124cc:	03000693          	li	a3,48
   124d0:	0017079b          	addiw	a5,a4,1
   124d4:	97ee                	add	a5,a5,s11
   124d6:	00074763          	bltz	a4,124e4 <_vfprintf_r+0x16a0>
   124da:	0d85                	addi	s11,s11,1
   124dc:	fedd8fa3          	sb	a3,-1(s11)
   124e0:	ffb79de3          	bne	a5,s11,124da <_vfprintf_r+0x1696>
   124e4:	419d87bb          	subw	a5,s11,s9
   124e8:	f03e                	sd	a5,32(sp)
   124ea:	e49fe06f          	j	11332 <_vfprintf_r+0x4ee>
   124ee:	7702                	ld	a4,32(sp)
   124f0:	9766                	add	a4,a4,s9
   124f2:	ed877d63          	bgeu	a4,s8,11bcc <_vfprintf_r+0xd88>
   124f6:	8c3a                	mv	s8,a4
   124f8:	ed4ff06f          	j	11bcc <_vfprintf_r+0xd88>
   124fc:	6746                	ld	a4,80(sp)
   124fe:	57f5                	li	a5,-3
   12500:	00f74463          	blt	a4,a5,12508 <_vfprintf_r+0x16c4>
   12504:	00ec5863          	bge	s8,a4,12514 <_vfprintf_r+0x16d0>
   12508:	3d79                	addiw	s10,s10,-2
   1250a:	fdfd7793          	andi	a5,s10,-33
   1250e:	ecbe                	sd	a5,88(sp)
   12510:	e43fe06f          	j	11352 <_vfprintf_r+0x50e>
   12514:	6746                	ld	a4,80(sp)
   12516:	7782                	ld	a5,32(sp)
   12518:	16f74363          	blt	a4,a5,1267e <_vfprintf_r+0x183a>
   1251c:	77ea                	ld	a5,184(sp)
   1251e:	8bba                	mv	s7,a4
   12520:	8b85                	andi	a5,a5,1
   12522:	c781                	beqz	a5,1252a <_vfprintf_r+0x16e6>
   12524:	77a6                	ld	a5,104(sp)
   12526:	00e78bbb          	addw	s7,a5,a4
   1252a:	77ea                	ld	a5,184(sp)
   1252c:	4007f793          	andi	a5,a5,1024
   12530:	c781                	beqz	a5,12538 <_vfprintf_r+0x16f4>
   12532:	67c6                	ld	a5,80(sp)
   12534:	32f04e63          	bgtz	a5,12870 <_vfprintf_r+0x1a2c>
   12538:	fffbc993          	not	s3,s7
   1253c:	43f9d993          	srai	s3,s3,0x3f
   12540:	013bf9b3          	and	s3,s7,s3
   12544:	2981                	sext.w	s3,s3
   12546:	06700d13          	li	s10,103
   1254a:	e482                	sd	zero,72(sp)
   1254c:	ec82                	sd	zero,88(sp)
   1254e:	ee7fe06f          	j	11434 <_vfprintf_r+0x5f0>
   12552:	0df14783          	lbu	a5,223(sp)
   12556:	4c01                	li	s8,0
   12558:	c399                	beqz	a5,1255e <_vfprintf_r+0x171a>
   1255a:	c83fe06f          	j	111dc <_vfprintf_r+0x398>
   1255e:	aadfe06f          	j	1100a <_vfprintf_r+0x1c6>
   12562:	ec02                	sd	zero,24(sp)
   12564:	84be                	mv	s1,a5
   12566:	57fd                	li	a5,-1
   12568:	17fe                	slli	a5,a5,0x3f
   1256a:	00fbcbb3          	xor	s7,s7,a5
   1256e:	02d00793          	li	a5,45
   12572:	e5be                	sd	a5,200(sp)
   12574:	bd89                	j	123c6 <_vfprintf_r+0x1582>
   12576:	0a10                	addi	a2,sp,272
   12578:	85ca                	mv	a1,s2
   1257a:	8552                	mv	a0,s4
   1257c:	242060ef          	jal	ra,187be <__sprint_r>
   12580:	c8051b63          	bnez	a0,11a16 <_vfprintf_r+0xbd2>
   12584:	7786                	ld	a5,96(sp)
   12586:	835a                	mv	t1,s6
   12588:	0007c583          	lbu	a1,0(a5)
   1258c:	7792                	ld	a5,288(sp)
   1258e:	9c2e                	add	s8,s8,a1
   12590:	b9bd                	j	1220e <_vfprintf_r+0x13ca>
   12592:	02d00793          	li	a5,45
   12596:	0cf10fa3          	sb	a5,223(sp)
   1259a:	bc61                	j	12032 <_vfprintf_r+0x11ee>
   1259c:	0a10                	addi	a2,sp,272
   1259e:	85ca                	mv	a1,s2
   125a0:	8552                	mv	a0,s4
   125a2:	21c060ef          	jal	ra,187be <__sprint_r>
   125a6:	c6051863          	bnez	a0,11a16 <_vfprintf_r+0xbd2>
   125aa:	572e                	lw	a4,232(sp)
   125ac:	7792                	ld	a5,288(sp)
   125ae:	835a                	mv	t1,s6
   125b0:	e52ff06f          	j	11c02 <_vfprintf_r+0xdbe>
   125b4:	11bc                	addi	a5,sp,232
   125b6:	8762                	mv	a4,s8
   125b8:	0f810893          	addi	a7,sp,248
   125bc:	0ec10813          	addi	a6,sp,236
   125c0:	468d                	li	a3,3
   125c2:	85ee                	mv	a1,s11
   125c4:	865e                	mv	a2,s7
   125c6:	8552                	mv	a0,s4
   125c8:	f01a                	sd	t1,32(sp)
   125ca:	296020ef          	jal	ra,14860 <_ldtoa_r>
   125ce:	00054703          	lbu	a4,0(a0) # 1e000 <__FRAME_END__>
   125d2:	03000793          	li	a5,48
   125d6:	7302                	ld	t1,32(sp)
   125d8:	8caa                	mv	s9,a0
   125da:	04f70363          	beq	a4,a5,12620 <_vfprintf_r+0x17dc>
   125de:	57ae                	lw	a5,232(sp)
   125e0:	97e2                	add	a5,a5,s8
   125e2:	00fc89b3          	add	s3,s9,a5
   125e6:	4681                	li	a3,0
   125e8:	4601                	li	a2,0
   125ea:	856e                	mv	a0,s11
   125ec:	85de                	mv	a1,s7
   125ee:	f01a                	sd	t1,32(sp)
   125f0:	779080ef          	jal	ra,1b568 <__eqtf2>
   125f4:	7302                	ld	t1,32(sp)
   125f6:	86ce                	mv	a3,s3
   125f8:	e119                	bnez	a0,125fe <_vfprintf_r+0x17ba>
   125fa:	d33fe06f          	j	1132c <_vfprintf_r+0x4e8>
   125fe:	76ee                	ld	a3,248(sp)
   12600:	0136e463          	bltu	a3,s3,12608 <_vfprintf_r+0x17c4>
   12604:	d29fe06f          	j	1132c <_vfprintf_r+0x4e8>
   12608:	03000713          	li	a4,48
   1260c:	00168793          	addi	a5,a3,1
   12610:	fdbe                	sd	a5,248(sp)
   12612:	00e68023          	sb	a4,0(a3)
   12616:	76ee                	ld	a3,248(sp)
   12618:	ff36eae3          	bltu	a3,s3,1260c <_vfprintf_r+0x17c8>
   1261c:	d11fe06f          	j	1132c <_vfprintf_r+0x4e8>
   12620:	4601                	li	a2,0
   12622:	4681                	li	a3,0
   12624:	856e                	mv	a0,s11
   12626:	85de                	mv	a1,s7
   12628:	f01a                	sd	t1,32(sp)
   1262a:	73f080ef          	jal	ra,1b568 <__eqtf2>
   1262e:	7302                	ld	t1,32(sp)
   12630:	d55d                	beqz	a0,125de <_vfprintf_r+0x179a>
   12632:	4705                	li	a4,1
   12634:	418707bb          	subw	a5,a4,s8
   12638:	d5be                	sw	a5,232(sp)
   1263a:	b75d                	j	125e0 <_vfprintf_r+0x179c>
   1263c:	0df14783          	lbu	a5,223(sp)
   12640:	e86e                	sd	s11,16(sp)
   12642:	e482                	sd	zero,72(sp)
   12644:	ec82                	sd	zero,88(sp)
   12646:	e882                	sd	zero,80(sp)
   12648:	89e2                	mv	s3,s8
   1264a:	8be2                	mv	s7,s8
   1264c:	4c01                	li	s8,0
   1264e:	c399                	beqz	a5,12654 <_vfprintf_r+0x1810>
   12650:	b8dfe06f          	j	111dc <_vfprintf_r+0x398>
   12654:	9b7fe06f          	j	1100a <_vfprintf_r+0x1c6>
   12658:	6875                	lui	a6,0x1d
   1265a:	9b880c93          	addi	s9,a6,-1608 # 1c9b8 <__clzdi2+0x6c>
   1265e:	b2cd                	j	12040 <_vfprintf_r+0x11fc>
   12660:	0a10                	addi	a2,sp,272
   12662:	85ca                	mv	a1,s2
   12664:	8552                	mv	a0,s4
   12666:	158060ef          	jal	ra,187be <__sprint_r>
   1266a:	ba051663          	bnez	a0,11a16 <_vfprintf_r+0xbd2>
   1266e:	562e                	lw	a2,232(sp)
   12670:	7702                	ld	a4,32(sp)
   12672:	7792                	ld	a5,288(sp)
   12674:	835a                	mv	t1,s6
   12676:	40c7063b          	subw	a2,a4,a2
   1267a:	dc4ff06f          	j	11c3e <_vfprintf_r+0xdfa>
   1267e:	7702                	ld	a4,32(sp)
   12680:	77a6                	ld	a5,104(sp)
   12682:	06700d13          	li	s10,103
   12686:	00e78bbb          	addw	s7,a5,a4
   1268a:	6746                	ld	a4,80(sp)
   1268c:	26e05663          	blez	a4,128f8 <_vfprintf_r+0x1ab4>
   12690:	77ea                	ld	a5,184(sp)
   12692:	4007f793          	andi	a5,a5,1024
   12696:	1c079f63          	bnez	a5,12874 <_vfprintf_r+0x1a30>
   1269a:	fffbc993          	not	s3,s7
   1269e:	43f9d993          	srai	s3,s3,0x3f
   126a2:	013bf9b3          	and	s3,s7,s3
   126a6:	2981                	sext.w	s3,s3
   126a8:	b54d                	j	1254a <_vfprintf_r+0x1706>
   126aa:	77ea                	ld	a5,184(sp)
   126ac:	6746                	ld	a4,80(sp)
   126ae:	8b85                	andi	a5,a5,1
   126b0:	00fc67b3          	or	a5,s8,a5
   126b4:	26e05763          	blez	a4,12922 <_vfprintf_r+0x1ade>
   126b8:	22079863          	bnez	a5,128e8 <_vfprintf_r+0x1aa4>
   126bc:	6bc6                	ld	s7,80(sp)
   126be:	06600d13          	li	s10,102
   126c2:	b7f9                	j	12690 <_vfprintf_r+0x184c>
   126c4:	57fd                	li	a5,-1
   126c6:	e43e                	sd	a5,8(sp)
   126c8:	a41fe06f          	j	11108 <_vfprintf_r+0x2c4>
   126cc:	68f5                	lui	a7,0x1d
   126ce:	5741                	li	a4,-16
   126d0:	40c00c3b          	negw	s8,a2
   126d4:	b8888d93          	addi	s11,a7,-1144 # 1cb88 <zeroes.0>
   126d8:	4bc1                	li	s7,16
   126da:	4d1d                	li	s10,7
   126dc:	00e64663          	blt	a2,a4,126e8 <_vfprintf_r+0x18a4>
   126e0:	a825                	j	12718 <_vfprintf_r+0x18d4>
   126e2:	3c41                	addiw	s8,s8,-16
   126e4:	038bda63          	bge	s7,s8,12718 <_vfprintf_r+0x18d4>
   126e8:	2685                	addiw	a3,a3,1
   126ea:	07c1                	addi	a5,a5,16
   126ec:	01b33023          	sd	s11,0(t1)
   126f0:	01733423          	sd	s7,8(t1)
   126f4:	f23e                	sd	a5,288(sp)
   126f6:	10d12c23          	sw	a3,280(sp)
   126fa:	0341                	addi	t1,t1,16
   126fc:	fedd53e3          	bge	s10,a3,126e2 <_vfprintf_r+0x189e>
   12700:	0a10                	addi	a2,sp,272
   12702:	85ca                	mv	a1,s2
   12704:	8552                	mv	a0,s4
   12706:	0b8060ef          	jal	ra,187be <__sprint_r>
   1270a:	b0051663          	bnez	a0,11a16 <_vfprintf_r+0xbd2>
   1270e:	7792                	ld	a5,288(sp)
   12710:	11812683          	lw	a3,280(sp)
   12714:	835a                	mv	t1,s6
   12716:	b7f1                	j	126e2 <_vfprintf_r+0x189e>
   12718:	2685                	addiw	a3,a3,1
   1271a:	97e2                	add	a5,a5,s8
   1271c:	01b33023          	sd	s11,0(t1)
   12720:	01833423          	sd	s8,8(t1)
   12724:	f23e                	sd	a5,288(sp)
   12726:	10d12c23          	sw	a3,280(sp)
   1272a:	471d                	li	a4,7
   1272c:	8ad758e3          	bge	a4,a3,11fdc <_vfprintf_r+0x1198>
   12730:	0a10                	addi	a2,sp,272
   12732:	85ca                	mv	a1,s2
   12734:	8552                	mv	a0,s4
   12736:	088060ef          	jal	ra,187be <__sprint_r>
   1273a:	ac051e63          	bnez	a0,11a16 <_vfprintf_r+0xbd2>
   1273e:	7792                	ld	a5,288(sp)
   12740:	11812683          	lw	a3,280(sp)
   12744:	835a                	mv	t1,s6
   12746:	b281                	j	12086 <_vfprintf_r+0x1242>
   12748:	001c099b          	addiw	s3,s8,1
   1274c:	874e                	mv	a4,s3
   1274e:	0f810893          	addi	a7,sp,248
   12752:	0ec10813          	addi	a6,sp,236
   12756:	11bc                	addi	a5,sp,232
   12758:	4689                	li	a3,2
   1275a:	85ee                	mv	a1,s11
   1275c:	865e                	mv	a2,s7
   1275e:	8552                	mv	a0,s4
   12760:	100020ef          	jal	ra,14860 <_ldtoa_r>
   12764:	8caa                	mv	s9,a0
   12766:	7302                	ld	t1,32(sp)
   12768:	99e6                	add	s3,s3,s9
   1276a:	bdb5                	j	125e6 <_vfprintf_r+0x17a2>
   1276c:	001c059b          	addiw	a1,s8,1
   12770:	8552                	mv	a0,s4
   12772:	ec1a                	sd	t1,24(sp)
   12774:	ea1fd0ef          	jal	ra,10614 <_malloc_r>
   12778:	6362                	ld	t1,24(sp)
   1277a:	8caa                	mv	s9,a0
   1277c:	20050563          	beqz	a0,12986 <_vfprintf_r+0x1b42>
   12780:	ec2a                	sd	a0,24(sp)
   12782:	b13d                	j	123b0 <_vfprintf_r+0x156c>
   12784:	8da6                	mv	s11,s1
   12786:	ab0ff06f          	j	11a36 <_vfprintf_r+0xbf2>
   1278a:	018c89b3          	add	s3,s9,s8
   1278e:	bda1                	j	125e6 <_vfprintf_r+0x17a2>
   12790:	77ca                	ld	a5,176(sp)
   12792:	fdbe                	sd	a5,248(sp)
   12794:	67a6                	ld	a5,72(sp)
   12796:	fffdc683          	lbu	a3,-1(s11)
   1279a:	00f7c603          	lbu	a2,15(a5)
   1279e:	87ee                	mv	a5,s11
   127a0:	00d61e63          	bne	a2,a3,127bc <_vfprintf_r+0x1978>
   127a4:	03000593          	li	a1,48
   127a8:	feb78fa3          	sb	a1,-1(a5)
   127ac:	77ee                	ld	a5,248(sp)
   127ae:	fff78693          	addi	a3,a5,-1
   127b2:	fdb6                	sd	a3,248(sp)
   127b4:	fff7c683          	lbu	a3,-1(a5)
   127b8:	fed608e3          	beq	a2,a3,127a8 <_vfprintf_r+0x1964>
   127bc:	0016861b          	addiw	a2,a3,1
   127c0:	03900593          	li	a1,57
   127c4:	0ff67613          	andi	a2,a2,255
   127c8:	00b68563          	beq	a3,a1,127d2 <_vfprintf_r+0x198e>
   127cc:	fec78fa3          	sb	a2,-1(a5)
   127d0:	bb11                	j	124e4 <_vfprintf_r+0x16a0>
   127d2:	6726                	ld	a4,72(sp)
   127d4:	00a74603          	lbu	a2,10(a4)
   127d8:	fec78fa3          	sb	a2,-1(a5)
   127dc:	b321                	j	124e4 <_vfprintf_r+0x16a0>
   127de:	03000793          	li	a5,48
   127e2:	0ef10023          	sb	a5,224(sp)
   127e6:	07800713          	li	a4,120
   127ea:	b675                	j	12396 <_vfprintf_r+0x1552>
   127ec:	000c0463          	beqz	s8,127f4 <_vfprintf_r+0x19b0>
   127f0:	ad1fe06f          	j	112c0 <_vfprintf_r+0x47c>
   127f4:	4c05                	li	s8,1
   127f6:	acbfe06f          	j	112c0 <_vfprintf_r+0x47c>
   127fa:	4c19                	li	s8,6
   127fc:	ac5fe06f          	j	112c0 <_vfprintf_r+0x47c>
   12800:	c31c                	sw	a5,0(a4)
   12802:	8ca2                	mv	s9,s0
   12804:	8e7fe06f          	j	110ea <_vfprintf_r+0x2a6>
   12808:	0f210713          	addi	a4,sp,242
   1280c:	e699                	bnez	a3,1281a <_vfprintf_r+0x19d6>
   1280e:	03000713          	li	a4,48
   12812:	0ee10923          	sb	a4,242(sp)
   12816:	0f310713          	addi	a4,sp,243
   1281a:	0c14                	addi	a3,sp,528
   1281c:	0307879b          	addiw	a5,a5,48
   12820:	40d706b3          	sub	a3,a4,a3
   12824:	00f70023          	sb	a5,0(a4)
   12828:	1216879b          	addiw	a5,a3,289
   1282c:	fcbe                	sd	a5,120(sp)
   1282e:	bcdfe06f          	j	113fa <_vfprintf_r+0x5b6>
   12832:	85de                	mv	a1,s7
   12834:	856e                	mv	a0,s11
   12836:	fc1a                	sd	t1,56(sp)
   12838:	6e9090ef          	jal	ra,1c720 <__trunctfdf2>
   1283c:	11a8                	addi	a0,sp,232
   1283e:	765030ef          	jal	ra,167a2 <frexp>
   12842:	61d090ef          	jal	ra,1c65e <__extenddftf2>
   12846:	66ea                	ld	a3,152(sp)
   12848:	4601                	li	a2,0
   1284a:	6ff080ef          	jal	ra,1b748 <__multf3>
   1284e:	4601                	li	a2,0
   12850:	4681                	li	a3,0
   12852:	f82a                	sd	a0,48(sp)
   12854:	f02e                	sd	a1,32(sp)
   12856:	513080ef          	jal	ra,1b568 <__eqtf2>
   1285a:	7f82                	ld	t6,32(sp)
   1285c:	7f42                	ld	t5,48(sp)
   1285e:	7362                	ld	t1,56(sp)
   12860:	e119                	bnez	a0,12866 <_vfprintf_r+0x1a22>
   12862:	4785                	li	a5,1
   12864:	d5be                	sw	a5,232(sp)
   12866:	6bf5                	lui	s7,0x1d
   12868:	9e0b8793          	addi	a5,s7,-1568 # 1c9e0 <__clzdi2+0x94>
   1286c:	e4be                	sd	a5,72(sp)
   1286e:	b665                	j	12416 <_vfprintf_r+0x15d2>
   12870:	06700d13          	li	s10,103
   12874:	7786                	ld	a5,96(sp)
   12876:	0ff00713          	li	a4,255
   1287a:	e482                	sd	zero,72(sp)
   1287c:	0007c783          	lbu	a5,0(a5)
   12880:	ec82                	sd	zero,88(sp)
   12882:	02e78863          	beq	a5,a4,128b2 <_vfprintf_r+0x1a6e>
   12886:	0ff00693          	li	a3,255
   1288a:	6646                	ld	a2,80(sp)
   1288c:	0007871b          	sext.w	a4,a5
   12890:	02c7d163          	bge	a5,a2,128b2 <_vfprintf_r+0x1a6e>
   12894:	7586                	ld	a1,96(sp)
   12896:	40e6073b          	subw	a4,a2,a4
   1289a:	e8ba                	sd	a4,80(sp)
   1289c:	0015c783          	lbu	a5,1(a1)
   128a0:	cf8d                	beqz	a5,128da <_vfprintf_r+0x1a96>
   128a2:	6766                	ld	a4,88(sp)
   128a4:	2705                	addiw	a4,a4,1
   128a6:	ecba                	sd	a4,88(sp)
   128a8:	00158713          	addi	a4,a1,1
   128ac:	f0ba                	sd	a4,96(sp)
   128ae:	fcd79ee3          	bne	a5,a3,1288a <_vfprintf_r+0x1a46>
   128b2:	6726                	ld	a4,72(sp)
   128b4:	67e6                	ld	a5,88(sp)
   128b6:	9fb9                	addw	a5,a5,a4
   128b8:	670a                	ld	a4,128(sp)
   128ba:	02e787bb          	mulw	a5,a5,a4
   128be:	017787bb          	addw	a5,a5,s7
   128c2:	00078b9b          	sext.w	s7,a5
   128c6:	fffbc993          	not	s3,s7
   128ca:	43f9d993          	srai	s3,s3,0x3f
   128ce:	0137f7b3          	and	a5,a5,s3
   128d2:	0007899b          	sext.w	s3,a5
   128d6:	b5ffe06f          	j	11434 <_vfprintf_r+0x5f0>
   128da:	6726                	ld	a4,72(sp)
   128dc:	7786                	ld	a5,96(sp)
   128de:	2705                	addiw	a4,a4,1
   128e0:	0007c783          	lbu	a5,0(a5)
   128e4:	e4ba                	sd	a4,72(sp)
   128e6:	b7e1                	j	128ae <_vfprintf_r+0x1a6a>
   128e8:	77a6                	ld	a5,104(sp)
   128ea:	06600d13          	li	s10,102
   128ee:	00e78bbb          	addw	s7,a5,a4
   128f2:	018b8bbb          	addw	s7,s7,s8
   128f6:	bb69                	j	12690 <_vfprintf_r+0x184c>
   128f8:	40eb87bb          	subw	a5,s7,a4
   128fc:	2785                	addiw	a5,a5,1
   128fe:	00078b9b          	sext.w	s7,a5
   12902:	fffbc993          	not	s3,s7
   12906:	43f9d993          	srai	s3,s3,0x3f
   1290a:	0137f7b3          	and	a5,a5,s3
   1290e:	0007899b          	sext.w	s3,a5
   12912:	b925                	j	1254a <_vfprintf_r+0x1706>
   12914:	776a                	ld	a4,184(sp)
   12916:	8b05                	andi	a4,a4,1
   12918:	e319                	bnez	a4,1291e <_vfprintf_r+0x1ada>
   1291a:	afbfe06f          	j	11414 <_vfprintf_r+0x5d0>
   1291e:	af1fe06f          	j	1140e <_vfprintf_r+0x5ca>
   12922:	e791                	bnez	a5,1292e <_vfprintf_r+0x1aea>
   12924:	4985                	li	s3,1
   12926:	06600d13          	li	s10,102
   1292a:	4b85                	li	s7,1
   1292c:	b939                	j	1254a <_vfprintf_r+0x1706>
   1292e:	77a6                	ld	a5,104(sp)
   12930:	06600d13          	li	s10,102
   12934:	0017869b          	addiw	a3,a5,1
   12938:	018686bb          	addw	a3,a3,s8
   1293c:	00068b9b          	sext.w	s7,a3
   12940:	fffbc993          	not	s3,s7
   12944:	43f9d993          	srai	s3,s3,0x3f
   12948:	0136f6b3          	and	a3,a3,s3
   1294c:	0006899b          	sext.w	s3,a3
   12950:	beed                	j	1254a <_vfprintf_r+0x1706>
   12952:	68f5                	lui	a7,0x1d
   12954:	871a                	mv	a4,t1
   12956:	b8888d93          	addi	s11,a7,-1144 # 1cb88 <zeroes.0>
   1295a:	cc2ff06f          	j	11e1c <_vfprintf_r+0xfd8>
   1295e:	66c2                	ld	a3,16(sp)
   12960:	429c                	lw	a5,0(a3)
   12962:	00868613          	addi	a2,a3,8
   12966:	86be                	mv	a3,a5
   12968:	0007d363          	bgez	a5,1296e <_vfprintf_r+0x1b2a>
   1296c:	56fd                	li	a3,-1
   1296e:	00144e03          	lbu	t3,1(s0)
   12972:	00068c1b          	sext.w	s8,a3
   12976:	e832                	sd	a2,16(sp)
   12978:	843a                	mv	s0,a4
   1297a:	e1afe06f          	j	10f94 <_vfprintf_r+0x150>
   1297e:	4789                	li	a5,2
   12980:	fcbe                	sd	a5,120(sp)
   12982:	a79fe06f          	j	113fa <_vfprintf_r+0x5b6>
   12986:	01095783          	lhu	a5,16(s2)
   1298a:	0407e793          	ori	a5,a5,64
   1298e:	00f91823          	sh	a5,16(s2)
   12992:	f68fe06f          	j	110fa <_vfprintf_r+0x2b6>
   12996:	89e2                	mv	s3,s8
   12998:	99e6                	add	s3,s3,s9
   1299a:	b1b1                	j	125e6 <_vfprintf_r+0x17a2>

000000000001299c <vfprintf>:
   1299c:	87aa                	mv	a5,a0
   1299e:	7581b503          	ld	a0,1880(gp) # 20aa0 <_impure_ptr>
   129a2:	86b2                	mv	a3,a2
   129a4:	862e                	mv	a2,a1
   129a6:	85be                	mv	a1,a5
   129a8:	c9cfe06f          	j	10e44 <_vfprintf_r>

00000000000129ac <__sbprintf>:
   129ac:	0105d783          	lhu	a5,16(a1)
   129b0:	0ac5ae03          	lw	t3,172(a1)
   129b4:	0125d303          	lhu	t1,18(a1)
   129b8:	0305b883          	ld	a7,48(a1)
   129bc:	0405b803          	ld	a6,64(a1)
   129c0:	b3010113          	addi	sp,sp,-1232
   129c4:	9bf5                	andi	a5,a5,-3
   129c6:	40000713          	li	a4,1024
   129ca:	4c813023          	sd	s0,1216(sp)
   129ce:	00f11823          	sh	a5,16(sp)
   129d2:	842e                	mv	s0,a1
   129d4:	191c                	addi	a5,sp,176
   129d6:	858a                	mv	a1,sp
   129d8:	4a913c23          	sd	s1,1208(sp)
   129dc:	4b213823          	sd	s2,1200(sp)
   129e0:	4c113423          	sd	ra,1224(sp)
   129e4:	892a                	mv	s2,a0
   129e6:	d772                	sw	t3,172(sp)
   129e8:	00611923          	sh	t1,18(sp)
   129ec:	f846                	sd	a7,48(sp)
   129ee:	e0c2                	sd	a6,64(sp)
   129f0:	e03e                	sd	a5,0(sp)
   129f2:	ec3e                	sd	a5,24(sp)
   129f4:	c63a                	sw	a4,12(sp)
   129f6:	d03a                	sw	a4,32(sp)
   129f8:	d402                	sw	zero,40(sp)
   129fa:	c4afe0ef          	jal	ra,10e44 <_vfprintf_r>
   129fe:	84aa                	mv	s1,a0
   12a00:	02055963          	bgez	a0,12a32 <__sbprintf+0x86>
   12a04:	01015783          	lhu	a5,16(sp)
   12a08:	0407f793          	andi	a5,a5,64
   12a0c:	c799                	beqz	a5,12a1a <__sbprintf+0x6e>
   12a0e:	01045783          	lhu	a5,16(s0)
   12a12:	0407e793          	ori	a5,a5,64
   12a16:	00f41823          	sh	a5,16(s0)
   12a1a:	4c813083          	ld	ra,1224(sp)
   12a1e:	4c013403          	ld	s0,1216(sp)
   12a22:	4b013903          	ld	s2,1200(sp)
   12a26:	8526                	mv	a0,s1
   12a28:	4b813483          	ld	s1,1208(sp)
   12a2c:	4d010113          	addi	sp,sp,1232
   12a30:	8082                	ret
   12a32:	858a                	mv	a1,sp
   12a34:	854a                	mv	a0,s2
   12a36:	45a000ef          	jal	ra,12e90 <_fflush_r>
   12a3a:	d569                	beqz	a0,12a04 <__sbprintf+0x58>
   12a3c:	54fd                	li	s1,-1
   12a3e:	b7d9                	j	12a04 <__sbprintf+0x58>

0000000000012a40 <__swbuf_r>:
   12a40:	7179                	addi	sp,sp,-48
   12a42:	f022                	sd	s0,32(sp)
   12a44:	ec26                	sd	s1,24(sp)
   12a46:	e84a                	sd	s2,16(sp)
   12a48:	f406                	sd	ra,40(sp)
   12a4a:	e44e                	sd	s3,8(sp)
   12a4c:	892a                	mv	s2,a0
   12a4e:	84ae                	mv	s1,a1
   12a50:	8432                	mv	s0,a2
   12a52:	c119                	beqz	a0,12a58 <__swbuf_r+0x18>
   12a54:	493c                	lw	a5,80(a0)
   12a56:	cff1                	beqz	a5,12b32 <__swbuf_r+0xf2>
   12a58:	01041703          	lh	a4,16(s0)
   12a5c:	5414                	lw	a3,40(s0)
   12a5e:	00877793          	andi	a5,a4,8
   12a62:	c454                	sw	a3,12(s0)
   12a64:	03071693          	slli	a3,a4,0x30
   12a68:	92c1                	srli	a3,a3,0x30
   12a6a:	cbb1                	beqz	a5,12abe <__swbuf_r+0x7e>
   12a6c:	6c1c                	ld	a5,24(s0)
   12a6e:	cba1                	beqz	a5,12abe <__swbuf_r+0x7e>
   12a70:	6609                	lui	a2,0x2
   12a72:	0ff4f993          	andi	s3,s1,255
   12a76:	8ef1                	and	a3,a3,a2
   12a78:	84ce                	mv	s1,s3
   12a7a:	c2bd                	beqz	a3,12ae0 <__swbuf_r+0xa0>
   12a7c:	6018                	ld	a4,0(s0)
   12a7e:	5014                	lw	a3,32(s0)
   12a80:	40f707bb          	subw	a5,a4,a5
   12a84:	06d7de63          	bge	a5,a3,12b00 <__swbuf_r+0xc0>
   12a88:	4454                	lw	a3,12(s0)
   12a8a:	00170613          	addi	a2,a4,1
   12a8e:	e010                	sd	a2,0(s0)
   12a90:	36fd                	addiw	a3,a3,-1
   12a92:	c454                	sw	a3,12(s0)
   12a94:	01370023          	sb	s3,0(a4)
   12a98:	5018                	lw	a4,32(s0)
   12a9a:	2785                	addiw	a5,a5,1
   12a9c:	08f70463          	beq	a4,a5,12b24 <__swbuf_r+0xe4>
   12aa0:	01045783          	lhu	a5,16(s0)
   12aa4:	8b85                	andi	a5,a5,1
   12aa6:	c781                	beqz	a5,12aae <__swbuf_r+0x6e>
   12aa8:	47a9                	li	a5,10
   12aaa:	06f48d63          	beq	s1,a5,12b24 <__swbuf_r+0xe4>
   12aae:	70a2                	ld	ra,40(sp)
   12ab0:	7402                	ld	s0,32(sp)
   12ab2:	6942                	ld	s2,16(sp)
   12ab4:	69a2                	ld	s3,8(sp)
   12ab6:	8526                	mv	a0,s1
   12ab8:	64e2                	ld	s1,24(sp)
   12aba:	6145                	addi	sp,sp,48
   12abc:	8082                	ret
   12abe:	85a2                	mv	a1,s0
   12ac0:	854a                	mv	a0,s2
   12ac2:	082000ef          	jal	ra,12b44 <__swsetup_r>
   12ac6:	e525                	bnez	a0,12b2e <__swbuf_r+0xee>
   12ac8:	01041703          	lh	a4,16(s0)
   12acc:	6609                	lui	a2,0x2
   12ace:	0ff4f993          	andi	s3,s1,255
   12ad2:	03071693          	slli	a3,a4,0x30
   12ad6:	92c1                	srli	a3,a3,0x30
   12ad8:	8ef1                	and	a3,a3,a2
   12ada:	6c1c                	ld	a5,24(s0)
   12adc:	84ce                	mv	s1,s3
   12ade:	fed9                	bnez	a3,12a7c <__swbuf_r+0x3c>
   12ae0:	0ac42683          	lw	a3,172(s0)
   12ae4:	8f51                	or	a4,a4,a2
   12ae6:	7679                	lui	a2,0xffffe
   12ae8:	167d                	addi	a2,a2,-1
   12aea:	8ef1                	and	a3,a3,a2
   12aec:	00e41823          	sh	a4,16(s0)
   12af0:	6018                	ld	a4,0(s0)
   12af2:	0ad42623          	sw	a3,172(s0)
   12af6:	5014                	lw	a3,32(s0)
   12af8:	40f707bb          	subw	a5,a4,a5
   12afc:	f8d7c6e3          	blt	a5,a3,12a88 <__swbuf_r+0x48>
   12b00:	85a2                	mv	a1,s0
   12b02:	854a                	mv	a0,s2
   12b04:	38c000ef          	jal	ra,12e90 <_fflush_r>
   12b08:	e11d                	bnez	a0,12b2e <__swbuf_r+0xee>
   12b0a:	6018                	ld	a4,0(s0)
   12b0c:	4454                	lw	a3,12(s0)
   12b0e:	4785                	li	a5,1
   12b10:	00170613          	addi	a2,a4,1
   12b14:	36fd                	addiw	a3,a3,-1
   12b16:	e010                	sd	a2,0(s0)
   12b18:	c454                	sw	a3,12(s0)
   12b1a:	01370023          	sb	s3,0(a4)
   12b1e:	5018                	lw	a4,32(s0)
   12b20:	f8f710e3          	bne	a4,a5,12aa0 <__swbuf_r+0x60>
   12b24:	85a2                	mv	a1,s0
   12b26:	854a                	mv	a0,s2
   12b28:	368000ef          	jal	ra,12e90 <_fflush_r>
   12b2c:	d149                	beqz	a0,12aae <__swbuf_r+0x6e>
   12b2e:	54fd                	li	s1,-1
   12b30:	bfbd                	j	12aae <__swbuf_r+0x6e>
   12b32:	63a000ef          	jal	ra,1316c <__sinit>
   12b36:	b70d                	j	12a58 <__swbuf_r+0x18>

0000000000012b38 <__swbuf>:
   12b38:	87aa                	mv	a5,a0
   12b3a:	7581b503          	ld	a0,1880(gp) # 20aa0 <_impure_ptr>
   12b3e:	862e                	mv	a2,a1
   12b40:	85be                	mv	a1,a5
   12b42:	bdfd                	j	12a40 <__swbuf_r>

0000000000012b44 <__swsetup_r>:
   12b44:	7581b783          	ld	a5,1880(gp) # 20aa0 <_impure_ptr>
   12b48:	1101                	addi	sp,sp,-32
   12b4a:	e822                	sd	s0,16(sp)
   12b4c:	e426                	sd	s1,8(sp)
   12b4e:	ec06                	sd	ra,24(sp)
   12b50:	84aa                	mv	s1,a0
   12b52:	842e                	mv	s0,a1
   12b54:	c399                	beqz	a5,12b5a <__swsetup_r+0x16>
   12b56:	4bb8                	lw	a4,80(a5)
   12b58:	cf21                	beqz	a4,12bb0 <__swsetup_r+0x6c>
   12b5a:	01041703          	lh	a4,16(s0)
   12b5e:	03071793          	slli	a5,a4,0x30
   12b62:	00877693          	andi	a3,a4,8
   12b66:	93c1                	srli	a5,a5,0x30
   12b68:	ceb9                	beqz	a3,12bc6 <__swsetup_r+0x82>
   12b6a:	6c14                	ld	a3,24(s0)
   12b6c:	cabd                	beqz	a3,12be2 <__swsetup_r+0x9e>
   12b6e:	0017f613          	andi	a2,a5,1
   12b72:	ce11                	beqz	a2,12b8e <__swsetup_r+0x4a>
   12b74:	5010                	lw	a2,32(s0)
   12b76:	00042623          	sw	zero,12(s0)
   12b7a:	4501                	li	a0,0
   12b7c:	40c0063b          	negw	a2,a2
   12b80:	d410                	sw	a2,40(s0)
   12b82:	ce91                	beqz	a3,12b9e <__swsetup_r+0x5a>
   12b84:	60e2                	ld	ra,24(sp)
   12b86:	6442                	ld	s0,16(sp)
   12b88:	64a2                	ld	s1,8(sp)
   12b8a:	6105                	addi	sp,sp,32
   12b8c:	8082                	ret
   12b8e:	0027f613          	andi	a2,a5,2
   12b92:	4581                	li	a1,0
   12b94:	e211                	bnez	a2,12b98 <__swsetup_r+0x54>
   12b96:	500c                	lw	a1,32(s0)
   12b98:	c44c                	sw	a1,12(s0)
   12b9a:	4501                	li	a0,0
   12b9c:	f6e5                	bnez	a3,12b84 <__swsetup_r+0x40>
   12b9e:	0807f793          	andi	a5,a5,128
   12ba2:	d3ed                	beqz	a5,12b84 <__swsetup_r+0x40>
   12ba4:	04076713          	ori	a4,a4,64
   12ba8:	00e41823          	sh	a4,16(s0)
   12bac:	557d                	li	a0,-1
   12bae:	bfd9                	j	12b84 <__swsetup_r+0x40>
   12bb0:	853e                	mv	a0,a5
   12bb2:	5ba000ef          	jal	ra,1316c <__sinit>
   12bb6:	01041703          	lh	a4,16(s0)
   12bba:	03071793          	slli	a5,a4,0x30
   12bbe:	00877693          	andi	a3,a4,8
   12bc2:	93c1                	srli	a5,a5,0x30
   12bc4:	f2dd                	bnez	a3,12b6a <__swsetup_r+0x26>
   12bc6:	0107f693          	andi	a3,a5,16
   12bca:	c2ad                	beqz	a3,12c2c <__swsetup_r+0xe8>
   12bcc:	8b91                	andi	a5,a5,4
   12bce:	eb9d                	bnez	a5,12c04 <__swsetup_r+0xc0>
   12bd0:	6c14                	ld	a3,24(s0)
   12bd2:	00876713          	ori	a4,a4,8
   12bd6:	03071793          	slli	a5,a4,0x30
   12bda:	00e41823          	sh	a4,16(s0)
   12bde:	93c1                	srli	a5,a5,0x30
   12be0:	f6d9                	bnez	a3,12b6e <__swsetup_r+0x2a>
   12be2:	2807f613          	andi	a2,a5,640
   12be6:	20000593          	li	a1,512
   12bea:	f8b602e3          	beq	a2,a1,12b6e <__swsetup_r+0x2a>
   12bee:	85a2                	mv	a1,s0
   12bf0:	8526                	mv	a0,s1
   12bf2:	3a5020ef          	jal	ra,15796 <__smakebuf_r>
   12bf6:	01041703          	lh	a4,16(s0)
   12bfa:	6c14                	ld	a3,24(s0)
   12bfc:	03071793          	slli	a5,a4,0x30
   12c00:	93c1                	srli	a5,a5,0x30
   12c02:	b7b5                	j	12b6e <__swsetup_r+0x2a>
   12c04:	6c2c                	ld	a1,88(s0)
   12c06:	cd81                	beqz	a1,12c1e <__swsetup_r+0xda>
   12c08:	07440793          	addi	a5,s0,116
   12c0c:	00f58763          	beq	a1,a5,12c1a <__swsetup_r+0xd6>
   12c10:	8526                	mv	a0,s1
   12c12:	68c000ef          	jal	ra,1329e <_free_r>
   12c16:	01041703          	lh	a4,16(s0)
   12c1a:	04043c23          	sd	zero,88(s0)
   12c1e:	6c14                	ld	a3,24(s0)
   12c20:	fdb77713          	andi	a4,a4,-37
   12c24:	00042423          	sw	zero,8(s0)
   12c28:	e014                	sd	a3,0(s0)
   12c2a:	b765                	j	12bd2 <__swsetup_r+0x8e>
   12c2c:	47a5                	li	a5,9
   12c2e:	c09c                	sw	a5,0(s1)
   12c30:	04076713          	ori	a4,a4,64
   12c34:	00e41823          	sh	a4,16(s0)
   12c38:	557d                	li	a0,-1
   12c3a:	b7a9                	j	12b84 <__swsetup_r+0x40>

0000000000012c3c <__call_exitprocs>:
   12c3c:	715d                	addi	sp,sp,-80
   12c3e:	f052                	sd	s4,32(sp)
   12c40:	7481ba03          	ld	s4,1864(gp) # 20a90 <_global_impure_ptr>
   12c44:	f84a                	sd	s2,48(sp)
   12c46:	e486                	sd	ra,72(sp)
   12c48:	1f8a3903          	ld	s2,504(s4)
   12c4c:	e0a2                	sd	s0,64(sp)
   12c4e:	fc26                	sd	s1,56(sp)
   12c50:	f44e                	sd	s3,40(sp)
   12c52:	ec56                	sd	s5,24(sp)
   12c54:	e85a                	sd	s6,16(sp)
   12c56:	e45e                	sd	s7,8(sp)
   12c58:	e062                	sd	s8,0(sp)
   12c5a:	02090863          	beqz	s2,12c8a <__call_exitprocs+0x4e>
   12c5e:	8b2a                	mv	s6,a0
   12c60:	8bae                	mv	s7,a1
   12c62:	4a85                	li	s5,1
   12c64:	59fd                	li	s3,-1
   12c66:	00892483          	lw	s1,8(s2)
   12c6a:	fff4841b          	addiw	s0,s1,-1
   12c6e:	00044e63          	bltz	s0,12c8a <__call_exitprocs+0x4e>
   12c72:	048e                	slli	s1,s1,0x3
   12c74:	94ca                	add	s1,s1,s2
   12c76:	020b8663          	beqz	s7,12ca2 <__call_exitprocs+0x66>
   12c7a:	2084b783          	ld	a5,520(s1)
   12c7e:	03778263          	beq	a5,s7,12ca2 <__call_exitprocs+0x66>
   12c82:	347d                	addiw	s0,s0,-1
   12c84:	14e1                	addi	s1,s1,-8
   12c86:	ff3418e3          	bne	s0,s3,12c76 <__call_exitprocs+0x3a>
   12c8a:	60a6                	ld	ra,72(sp)
   12c8c:	6406                	ld	s0,64(sp)
   12c8e:	74e2                	ld	s1,56(sp)
   12c90:	7942                	ld	s2,48(sp)
   12c92:	79a2                	ld	s3,40(sp)
   12c94:	7a02                	ld	s4,32(sp)
   12c96:	6ae2                	ld	s5,24(sp)
   12c98:	6b42                	ld	s6,16(sp)
   12c9a:	6ba2                	ld	s7,8(sp)
   12c9c:	6c02                	ld	s8,0(sp)
   12c9e:	6161                	addi	sp,sp,80
   12ca0:	8082                	ret
   12ca2:	00892783          	lw	a5,8(s2)
   12ca6:	6498                	ld	a4,8(s1)
   12ca8:	37fd                	addiw	a5,a5,-1
   12caa:	04878463          	beq	a5,s0,12cf2 <__call_exitprocs+0xb6>
   12cae:	0004b423          	sd	zero,8(s1)
   12cb2:	db61                	beqz	a4,12c82 <__call_exitprocs+0x46>
   12cb4:	31092783          	lw	a5,784(s2)
   12cb8:	008a96bb          	sllw	a3,s5,s0
   12cbc:	00892c03          	lw	s8,8(s2)
   12cc0:	8ff5                	and	a5,a5,a3
   12cc2:	2781                	sext.w	a5,a5
   12cc4:	ef89                	bnez	a5,12cde <__call_exitprocs+0xa2>
   12cc6:	9702                	jalr	a4
   12cc8:	00892703          	lw	a4,8(s2)
   12ccc:	1f8a3783          	ld	a5,504(s4)
   12cd0:	01871463          	bne	a4,s8,12cd8 <__call_exitprocs+0x9c>
   12cd4:	fb2787e3          	beq	a5,s2,12c82 <__call_exitprocs+0x46>
   12cd8:	dbcd                	beqz	a5,12c8a <__call_exitprocs+0x4e>
   12cda:	893e                	mv	s2,a5
   12cdc:	b769                	j	12c66 <__call_exitprocs+0x2a>
   12cde:	31492783          	lw	a5,788(s2)
   12ce2:	1084b583          	ld	a1,264(s1)
   12ce6:	8ff5                	and	a5,a5,a3
   12ce8:	2781                	sext.w	a5,a5
   12cea:	e799                	bnez	a5,12cf8 <__call_exitprocs+0xbc>
   12cec:	855a                	mv	a0,s6
   12cee:	9702                	jalr	a4
   12cf0:	bfe1                	j	12cc8 <__call_exitprocs+0x8c>
   12cf2:	00892423          	sw	s0,8(s2)
   12cf6:	bf75                	j	12cb2 <__call_exitprocs+0x76>
   12cf8:	852e                	mv	a0,a1
   12cfa:	9702                	jalr	a4
   12cfc:	b7f1                	j	12cc8 <__call_exitprocs+0x8c>

0000000000012cfe <__sflush_r>:
   12cfe:	01059783          	lh	a5,16(a1)
   12d02:	7179                	addi	sp,sp,-48
   12d04:	f022                	sd	s0,32(sp)
   12d06:	e44e                	sd	s3,8(sp)
   12d08:	f406                	sd	ra,40(sp)
   12d0a:	ec26                	sd	s1,24(sp)
   12d0c:	e84a                	sd	s2,16(sp)
   12d0e:	0087f693          	andi	a3,a5,8
   12d12:	842e                	mv	s0,a1
   12d14:	89aa                	mv	s3,a0
   12d16:	ead5                	bnez	a3,12dca <__sflush_r+0xcc>
   12d18:	6705                	lui	a4,0x1
   12d1a:	80070713          	addi	a4,a4,-2048 # 800 <register_fini-0xf8b0>
   12d1e:	4594                	lw	a3,8(a1)
   12d20:	8fd9                	or	a5,a5,a4
   12d22:	00f59823          	sh	a5,16(a1)
   12d26:	10d05063          	blez	a3,12e26 <__sflush_r+0x128>
   12d2a:	6438                	ld	a4,72(s0)
   12d2c:	c759                	beqz	a4,12dba <__sflush_r+0xbc>
   12d2e:	17c2                	slli	a5,a5,0x30
   12d30:	93c1                	srli	a5,a5,0x30
   12d32:	6685                	lui	a3,0x1
   12d34:	0009a483          	lw	s1,0(s3)
   12d38:	8efd                	and	a3,a3,a5
   12d3a:	0009a023          	sw	zero,0(s3)
   12d3e:	780c                	ld	a1,48(s0)
   12d40:	e6fd                	bnez	a3,12e2e <__sflush_r+0x130>
   12d42:	4601                	li	a2,0
   12d44:	4685                	li	a3,1
   12d46:	854e                	mv	a0,s3
   12d48:	9702                	jalr	a4
   12d4a:	57fd                	li	a5,-1
   12d4c:	862a                	mv	a2,a0
   12d4e:	10f50763          	beq	a0,a5,12e5c <__sflush_r+0x15e>
   12d52:	01045783          	lhu	a5,16(s0)
   12d56:	6438                	ld	a4,72(s0)
   12d58:	780c                	ld	a1,48(s0)
   12d5a:	8b91                	andi	a5,a5,4
   12d5c:	c799                	beqz	a5,12d6a <__sflush_r+0x6c>
   12d5e:	4414                	lw	a3,8(s0)
   12d60:	6c3c                	ld	a5,88(s0)
   12d62:	8e15                	sub	a2,a2,a3
   12d64:	c399                	beqz	a5,12d6a <__sflush_r+0x6c>
   12d66:	583c                	lw	a5,112(s0)
   12d68:	8e1d                	sub	a2,a2,a5
   12d6a:	4681                	li	a3,0
   12d6c:	854e                	mv	a0,s3
   12d6e:	9702                	jalr	a4
   12d70:	57fd                	li	a5,-1
   12d72:	0cf51063          	bne	a0,a5,12e32 <__sflush_r+0x134>
   12d76:	0009a703          	lw	a4,0(s3)
   12d7a:	01041783          	lh	a5,16(s0)
   12d7e:	cf6d                	beqz	a4,12e78 <__sflush_r+0x17a>
   12d80:	46f5                	li	a3,29
   12d82:	00d70563          	beq	a4,a3,12d8c <__sflush_r+0x8e>
   12d86:	46d9                	li	a3,22
   12d88:	0ed71e63          	bne	a4,a3,12e84 <__sflush_r+0x186>
   12d8c:	6c14                	ld	a3,24(s0)
   12d8e:	777d                	lui	a4,0xfffff
   12d90:	7ff70713          	addi	a4,a4,2047 # fffffffffffff7ff <__BSS_END__+0xfffffffffffdecb7>
   12d94:	8ff9                	and	a5,a5,a4
   12d96:	00f41823          	sh	a5,16(s0)
   12d9a:	00042423          	sw	zero,8(s0)
   12d9e:	e014                	sd	a3,0(s0)
   12da0:	6c2c                	ld	a1,88(s0)
   12da2:	0099a023          	sw	s1,0(s3)
   12da6:	c991                	beqz	a1,12dba <__sflush_r+0xbc>
   12da8:	07440793          	addi	a5,s0,116
   12dac:	00f58563          	beq	a1,a5,12db6 <__sflush_r+0xb8>
   12db0:	854e                	mv	a0,s3
   12db2:	4ec000ef          	jal	ra,1329e <_free_r>
   12db6:	04043c23          	sd	zero,88(s0)
   12dba:	4501                	li	a0,0
   12dbc:	70a2                	ld	ra,40(sp)
   12dbe:	7402                	ld	s0,32(sp)
   12dc0:	64e2                	ld	s1,24(sp)
   12dc2:	6942                	ld	s2,16(sp)
   12dc4:	69a2                	ld	s3,8(sp)
   12dc6:	6145                	addi	sp,sp,48
   12dc8:	8082                	ret
   12dca:	0185b903          	ld	s2,24(a1)
   12dce:	fe0906e3          	beqz	s2,12dba <__sflush_r+0xbc>
   12dd2:	6184                	ld	s1,0(a1)
   12dd4:	03079713          	slli	a4,a5,0x30
   12dd8:	9341                	srli	a4,a4,0x30
   12dda:	8b0d                	andi	a4,a4,3
   12ddc:	0125b023          	sd	s2,0(a1)
   12de0:	412484bb          	subw	s1,s1,s2
   12de4:	4781                	li	a5,0
   12de6:	e311                	bnez	a4,12dea <__sflush_r+0xec>
   12de8:	519c                	lw	a5,32(a1)
   12dea:	c45c                	sw	a5,12(s0)
   12dec:	00904663          	bgtz	s1,12df8 <__sflush_r+0xfa>
   12df0:	b7e9                	j	12dba <__sflush_r+0xbc>
   12df2:	992a                	add	s2,s2,a0
   12df4:	fc9053e3          	blez	s1,12dba <__sflush_r+0xbc>
   12df8:	603c                	ld	a5,64(s0)
   12dfa:	780c                	ld	a1,48(s0)
   12dfc:	86a6                	mv	a3,s1
   12dfe:	864a                	mv	a2,s2
   12e00:	854e                	mv	a0,s3
   12e02:	9782                	jalr	a5
   12e04:	9c89                	subw	s1,s1,a0
   12e06:	fea046e3          	bgtz	a0,12df2 <__sflush_r+0xf4>
   12e0a:	01045783          	lhu	a5,16(s0)
   12e0e:	70a2                	ld	ra,40(sp)
   12e10:	64e2                	ld	s1,24(sp)
   12e12:	0407e793          	ori	a5,a5,64
   12e16:	00f41823          	sh	a5,16(s0)
   12e1a:	7402                	ld	s0,32(sp)
   12e1c:	6942                	ld	s2,16(sp)
   12e1e:	69a2                	ld	s3,8(sp)
   12e20:	557d                	li	a0,-1
   12e22:	6145                	addi	sp,sp,48
   12e24:	8082                	ret
   12e26:	59b8                	lw	a4,112(a1)
   12e28:	f0e041e3          	bgtz	a4,12d2a <__sflush_r+0x2c>
   12e2c:	b779                	j	12dba <__sflush_r+0xbc>
   12e2e:	6850                	ld	a2,144(s0)
   12e30:	b72d                	j	12d5a <__sflush_r+0x5c>
   12e32:	01045783          	lhu	a5,16(s0)
   12e36:	777d                	lui	a4,0xfffff
   12e38:	7ff70713          	addi	a4,a4,2047 # fffffffffffff7ff <__BSS_END__+0xfffffffffffdecb7>
   12e3c:	8ff9                	and	a5,a5,a4
   12e3e:	6c14                	ld	a3,24(s0)
   12e40:	0107979b          	slliw	a5,a5,0x10
   12e44:	4107d79b          	sraiw	a5,a5,0x10
   12e48:	6705                	lui	a4,0x1
   12e4a:	00f41823          	sh	a5,16(s0)
   12e4e:	00042423          	sw	zero,8(s0)
   12e52:	e014                	sd	a3,0(s0)
   12e54:	8ff9                	and	a5,a5,a4
   12e56:	d7a9                	beqz	a5,12da0 <__sflush_r+0xa2>
   12e58:	e848                	sd	a0,144(s0)
   12e5a:	b799                	j	12da0 <__sflush_r+0xa2>
   12e5c:	0009a783          	lw	a5,0(s3)
   12e60:	ee0789e3          	beqz	a5,12d52 <__sflush_r+0x54>
   12e64:	4775                	li	a4,29
   12e66:	00e78563          	beq	a5,a4,12e70 <__sflush_r+0x172>
   12e6a:	4759                	li	a4,22
   12e6c:	f8e79fe3          	bne	a5,a4,12e0a <__sflush_r+0x10c>
   12e70:	0099a023          	sw	s1,0(s3)
   12e74:	4501                	li	a0,0
   12e76:	b799                	j	12dbc <__sflush_r+0xbe>
   12e78:	777d                	lui	a4,0xfffff
   12e7a:	7ff70713          	addi	a4,a4,2047 # fffffffffffff7ff <__BSS_END__+0xfffffffffffdecb7>
   12e7e:	6c14                	ld	a3,24(s0)
   12e80:	8ff9                	and	a5,a5,a4
   12e82:	b7d9                	j	12e48 <__sflush_r+0x14a>
   12e84:	0407e793          	ori	a5,a5,64
   12e88:	00f41823          	sh	a5,16(s0)
   12e8c:	557d                	li	a0,-1
   12e8e:	b73d                	j	12dbc <__sflush_r+0xbe>

0000000000012e90 <_fflush_r>:
   12e90:	1101                	addi	sp,sp,-32
   12e92:	e822                	sd	s0,16(sp)
   12e94:	ec06                	sd	ra,24(sp)
   12e96:	842a                	mv	s0,a0
   12e98:	c119                	beqz	a0,12e9e <_fflush_r+0xe>
   12e9a:	493c                	lw	a5,80(a0)
   12e9c:	cb89                	beqz	a5,12eae <_fflush_r+0x1e>
   12e9e:	01059783          	lh	a5,16(a1)
   12ea2:	ef89                	bnez	a5,12ebc <_fflush_r+0x2c>
   12ea4:	60e2                	ld	ra,24(sp)
   12ea6:	6442                	ld	s0,16(sp)
   12ea8:	4501                	li	a0,0
   12eaa:	6105                	addi	sp,sp,32
   12eac:	8082                	ret
   12eae:	e42e                	sd	a1,8(sp)
   12eb0:	2bc000ef          	jal	ra,1316c <__sinit>
   12eb4:	65a2                	ld	a1,8(sp)
   12eb6:	01059783          	lh	a5,16(a1)
   12eba:	d7ed                	beqz	a5,12ea4 <_fflush_r+0x14>
   12ebc:	8522                	mv	a0,s0
   12ebe:	6442                	ld	s0,16(sp)
   12ec0:	60e2                	ld	ra,24(sp)
   12ec2:	6105                	addi	sp,sp,32
   12ec4:	bd2d                	j	12cfe <__sflush_r>

0000000000012ec6 <fflush>:
   12ec6:	cd1d                	beqz	a0,12f04 <fflush+0x3e>
   12ec8:	1101                	addi	sp,sp,-32
   12eca:	e822                	sd	s0,16(sp)
   12ecc:	842a                	mv	s0,a0
   12ece:	7581b503          	ld	a0,1880(gp) # 20aa0 <_impure_ptr>
   12ed2:	ec06                	sd	ra,24(sp)
   12ed4:	c119                	beqz	a0,12eda <fflush+0x14>
   12ed6:	493c                	lw	a5,80(a0)
   12ed8:	cf91                	beqz	a5,12ef4 <fflush+0x2e>
   12eda:	01041783          	lh	a5,16(s0)
   12ede:	e791                	bnez	a5,12eea <fflush+0x24>
   12ee0:	60e2                	ld	ra,24(sp)
   12ee2:	6442                	ld	s0,16(sp)
   12ee4:	4501                	li	a0,0
   12ee6:	6105                	addi	sp,sp,32
   12ee8:	8082                	ret
   12eea:	85a2                	mv	a1,s0
   12eec:	6442                	ld	s0,16(sp)
   12eee:	60e2                	ld	ra,24(sp)
   12ef0:	6105                	addi	sp,sp,32
   12ef2:	b531                	j	12cfe <__sflush_r>
   12ef4:	e42a                	sd	a0,8(sp)
   12ef6:	276000ef          	jal	ra,1316c <__sinit>
   12efa:	01041783          	lh	a5,16(s0)
   12efe:	6522                	ld	a0,8(sp)
   12f00:	d3e5                	beqz	a5,12ee0 <fflush+0x1a>
   12f02:	b7e5                	j	12eea <fflush+0x24>
   12f04:	7481b503          	ld	a0,1864(gp) # 20a90 <_global_impure_ptr>
   12f08:	65cd                	lui	a1,0x13
   12f0a:	e9058593          	addi	a1,a1,-368 # 12e90 <_fflush_r>
   12f0e:	a595                	j	13572 <_fwalk_reent>

0000000000012f10 <__fp_lock>:
   12f10:	4501                	li	a0,0
   12f12:	8082                	ret

0000000000012f14 <_cleanup_r>:
   12f14:	65e5                	lui	a1,0x19
   12f16:	69658593          	addi	a1,a1,1686 # 19696 <_fclose_r>
   12f1a:	ada1                	j	13572 <_fwalk_reent>

0000000000012f1c <__fp_unlock>:
   12f1c:	4501                	li	a0,0
   12f1e:	8082                	ret

0000000000012f20 <__sinit.part.0>:
   12f20:	7139                	addi	sp,sp,-64
   12f22:	67cd                	lui	a5,0x13
   12f24:	fc06                	sd	ra,56(sp)
   12f26:	f822                	sd	s0,48(sp)
   12f28:	f426                	sd	s1,40(sp)
   12f2a:	f04a                	sd	s2,32(sp)
   12f2c:	ec4e                	sd	s3,24(sp)
   12f2e:	e852                	sd	s4,16(sp)
   12f30:	e456                	sd	s5,8(sp)
   12f32:	e05a                	sd	s6,0(sp)
   12f34:	6500                	ld	s0,8(a0)
   12f36:	f1478793          	addi	a5,a5,-236 # 12f14 <_cleanup_r>
   12f3a:	ed3c                	sd	a5,88(a0)
   12f3c:	53850713          	addi	a4,a0,1336
   12f40:	478d                	li	a5,3
   12f42:	52e53823          	sd	a4,1328(a0)
   12f46:	52f52423          	sw	a5,1320(a0)
   12f4a:	52053023          	sd	zero,1312(a0)
   12f4e:	4791                	li	a5,4
   12f50:	892a                	mv	s2,a0
   12f52:	c81c                	sw	a5,16(s0)
   12f54:	4621                	li	a2,8
   12f56:	4581                	li	a1,0
   12f58:	0a042623          	sw	zero,172(s0)
   12f5c:	00043023          	sd	zero,0(s0)
   12f60:	00043423          	sd	zero,8(s0)
   12f64:	00043c23          	sd	zero,24(s0)
   12f68:	02042023          	sw	zero,32(s0)
   12f6c:	02042423          	sw	zero,40(s0)
   12f70:	0a440513          	addi	a0,s0,164
   12f74:	cc3fd0ef          	jal	ra,10c36 <memset>
   12f78:	6b5d                	lui	s6,0x17
   12f7a:	01093483          	ld	s1,16(s2)
   12f7e:	6add                	lui	s5,0x17
   12f80:	6a5d                	lui	s4,0x17
   12f82:	69dd                	lui	s3,0x17
   12f84:	8aab0b13          	addi	s6,s6,-1878 # 168aa <__sread>
   12f88:	8e6a8a93          	addi	s5,s5,-1818 # 168e6 <__swrite>
   12f8c:	93aa0a13          	addi	s4,s4,-1734 # 1693a <__sseek>
   12f90:	97c98993          	addi	s3,s3,-1668 # 1697c <__sclose>
   12f94:	67c1                	lui	a5,0x10
   12f96:	03643c23          	sd	s6,56(s0)
   12f9a:	05543023          	sd	s5,64(s0)
   12f9e:	05443423          	sd	s4,72(s0)
   12fa2:	05343823          	sd	s3,80(s0)
   12fa6:	f800                	sd	s0,48(s0)
   12fa8:	07a5                	addi	a5,a5,9
   12faa:	c89c                	sw	a5,16(s1)
   12fac:	4621                	li	a2,8
   12fae:	4581                	li	a1,0
   12fb0:	0a04a623          	sw	zero,172(s1)
   12fb4:	0004b023          	sd	zero,0(s1)
   12fb8:	0004b423          	sd	zero,8(s1)
   12fbc:	0004bc23          	sd	zero,24(s1)
   12fc0:	0204a023          	sw	zero,32(s1)
   12fc4:	0204a423          	sw	zero,40(s1)
   12fc8:	0a448513          	addi	a0,s1,164
   12fcc:	c6bfd0ef          	jal	ra,10c36 <memset>
   12fd0:	01893403          	ld	s0,24(s2)
   12fd4:	000207b7          	lui	a5,0x20
   12fd8:	0364bc23          	sd	s6,56(s1)
   12fdc:	0554b023          	sd	s5,64(s1)
   12fe0:	0544b423          	sd	s4,72(s1)
   12fe4:	0534b823          	sd	s3,80(s1)
   12fe8:	f884                	sd	s1,48(s1)
   12fea:	07c9                	addi	a5,a5,18
   12fec:	c81c                	sw	a5,16(s0)
   12fee:	0a042623          	sw	zero,172(s0)
   12ff2:	00043023          	sd	zero,0(s0)
   12ff6:	00043423          	sd	zero,8(s0)
   12ffa:	00043c23          	sd	zero,24(s0)
   12ffe:	02042023          	sw	zero,32(s0)
   13002:	02042423          	sw	zero,40(s0)
   13006:	0a440513          	addi	a0,s0,164
   1300a:	4621                	li	a2,8
   1300c:	4581                	li	a1,0
   1300e:	c29fd0ef          	jal	ra,10c36 <memset>
   13012:	70e2                	ld	ra,56(sp)
   13014:	03643c23          	sd	s6,56(s0)
   13018:	05543023          	sd	s5,64(s0)
   1301c:	05443423          	sd	s4,72(s0)
   13020:	05343823          	sd	s3,80(s0)
   13024:	f800                	sd	s0,48(s0)
   13026:	7442                	ld	s0,48(sp)
   13028:	4785                	li	a5,1
   1302a:	04f92823          	sw	a5,80(s2)
   1302e:	74a2                	ld	s1,40(sp)
   13030:	7902                	ld	s2,32(sp)
   13032:	69e2                	ld	s3,24(sp)
   13034:	6a42                	ld	s4,16(sp)
   13036:	6aa2                	ld	s5,8(sp)
   13038:	6b02                	ld	s6,0(sp)
   1303a:	6121                	addi	sp,sp,64
   1303c:	8082                	ret

000000000001303e <__sfmoreglue>:
   1303e:	1101                	addi	sp,sp,-32
   13040:	e426                	sd	s1,8(sp)
   13042:	0b000613          	li	a2,176
   13046:	fff5849b          	addiw	s1,a1,-1
   1304a:	02c484b3          	mul	s1,s1,a2
   1304e:	e04a                	sd	s2,0(sp)
   13050:	892e                	mv	s2,a1
   13052:	e822                	sd	s0,16(sp)
   13054:	ec06                	sd	ra,24(sp)
   13056:	0c848593          	addi	a1,s1,200
   1305a:	dbafd0ef          	jal	ra,10614 <_malloc_r>
   1305e:	842a                	mv	s0,a0
   13060:	cd01                	beqz	a0,13078 <__sfmoreglue+0x3a>
   13062:	0561                	addi	a0,a0,24
   13064:	00043023          	sd	zero,0(s0)
   13068:	01242423          	sw	s2,8(s0)
   1306c:	e808                	sd	a0,16(s0)
   1306e:	0b048613          	addi	a2,s1,176
   13072:	4581                	li	a1,0
   13074:	bc3fd0ef          	jal	ra,10c36 <memset>
   13078:	60e2                	ld	ra,24(sp)
   1307a:	8522                	mv	a0,s0
   1307c:	6442                	ld	s0,16(sp)
   1307e:	64a2                	ld	s1,8(sp)
   13080:	6902                	ld	s2,0(sp)
   13082:	6105                	addi	sp,sp,32
   13084:	8082                	ret

0000000000013086 <__sfp>:
   13086:	7179                	addi	sp,sp,-48
   13088:	ec26                	sd	s1,24(sp)
   1308a:	7481b483          	ld	s1,1864(gp) # 20a90 <_global_impure_ptr>
   1308e:	e84a                	sd	s2,16(sp)
   13090:	f406                	sd	ra,40(sp)
   13092:	48bc                	lw	a5,80(s1)
   13094:	f022                	sd	s0,32(sp)
   13096:	e44e                	sd	s3,8(sp)
   13098:	e052                	sd	s4,0(sp)
   1309a:	892a                	mv	s2,a0
   1309c:	c3d9                	beqz	a5,13122 <__sfp+0x9c>
   1309e:	52048493          	addi	s1,s1,1312
   130a2:	0b000993          	li	s3,176
   130a6:	4a11                	li	s4,4
   130a8:	449c                	lw	a5,8(s1)
   130aa:	6880                	ld	s0,16(s1)
   130ac:	06f05763          	blez	a5,1311a <__sfp+0x94>
   130b0:	37fd                	addiw	a5,a5,-1
   130b2:	1782                	slli	a5,a5,0x20
   130b4:	9381                	srli	a5,a5,0x20
   130b6:	0785                	addi	a5,a5,1
   130b8:	033787b3          	mul	a5,a5,s3
   130bc:	97a2                	add	a5,a5,s0
   130be:	a029                	j	130c8 <__sfp+0x42>
   130c0:	0b040413          	addi	s0,s0,176
   130c4:	04f40b63          	beq	s0,a5,1311a <__sfp+0x94>
   130c8:	01041703          	lh	a4,16(s0)
   130cc:	fb75                	bnez	a4,130c0 <__sfp+0x3a>
   130ce:	77c1                	lui	a5,0xffff0
   130d0:	0785                	addi	a5,a5,1
   130d2:	0a042623          	sw	zero,172(s0)
   130d6:	00043023          	sd	zero,0(s0)
   130da:	00043423          	sd	zero,8(s0)
   130de:	c81c                	sw	a5,16(s0)
   130e0:	00043c23          	sd	zero,24(s0)
   130e4:	02042023          	sw	zero,32(s0)
   130e8:	02042423          	sw	zero,40(s0)
   130ec:	4621                	li	a2,8
   130ee:	4581                	li	a1,0
   130f0:	0a440513          	addi	a0,s0,164
   130f4:	b43fd0ef          	jal	ra,10c36 <memset>
   130f8:	04043c23          	sd	zero,88(s0)
   130fc:	06042023          	sw	zero,96(s0)
   13100:	06043c23          	sd	zero,120(s0)
   13104:	08042023          	sw	zero,128(s0)
   13108:	70a2                	ld	ra,40(sp)
   1310a:	8522                	mv	a0,s0
   1310c:	7402                	ld	s0,32(sp)
   1310e:	64e2                	ld	s1,24(sp)
   13110:	6942                	ld	s2,16(sp)
   13112:	69a2                	ld	s3,8(sp)
   13114:	6a02                	ld	s4,0(sp)
   13116:	6145                	addi	sp,sp,48
   13118:	8082                	ret
   1311a:	6080                	ld	s0,0(s1)
   1311c:	c419                	beqz	s0,1312a <__sfp+0xa4>
   1311e:	84a2                	mv	s1,s0
   13120:	b761                	j	130a8 <__sfp+0x22>
   13122:	8526                	mv	a0,s1
   13124:	dfdff0ef          	jal	ra,12f20 <__sinit.part.0>
   13128:	bf9d                	j	1309e <__sfp+0x18>
   1312a:	2d800593          	li	a1,728
   1312e:	854a                	mv	a0,s2
   13130:	ce4fd0ef          	jal	ra,10614 <_malloc_r>
   13134:	842a                	mv	s0,a0
   13136:	cd19                	beqz	a0,13154 <__sfp+0xce>
   13138:	0561                	addi	a0,a0,24
   1313a:	00043023          	sd	zero,0(s0)
   1313e:	01442423          	sw	s4,8(s0)
   13142:	e808                	sd	a0,16(s0)
   13144:	2c000613          	li	a2,704
   13148:	4581                	li	a1,0
   1314a:	aedfd0ef          	jal	ra,10c36 <memset>
   1314e:	e080                	sd	s0,0(s1)
   13150:	84a2                	mv	s1,s0
   13152:	bf99                	j	130a8 <__sfp+0x22>
   13154:	0004b023          	sd	zero,0(s1)
   13158:	47b1                	li	a5,12
   1315a:	00f92023          	sw	a5,0(s2)
   1315e:	b76d                	j	13108 <__sfp+0x82>

0000000000013160 <_cleanup>:
   13160:	7481b503          	ld	a0,1864(gp) # 20a90 <_global_impure_ptr>
   13164:	65e5                	lui	a1,0x19
   13166:	69658593          	addi	a1,a1,1686 # 19696 <_fclose_r>
   1316a:	a121                	j	13572 <_fwalk_reent>

000000000001316c <__sinit>:
   1316c:	493c                	lw	a5,80(a0)
   1316e:	c391                	beqz	a5,13172 <__sinit+0x6>
   13170:	8082                	ret
   13172:	b37d                	j	12f20 <__sinit.part.0>

0000000000013174 <__sfp_lock_acquire>:
   13174:	8082                	ret

0000000000013176 <__sfp_lock_release>:
   13176:	8082                	ret

0000000000013178 <__sinit_lock_acquire>:
   13178:	8082                	ret

000000000001317a <__sinit_lock_release>:
   1317a:	8082                	ret

000000000001317c <__fp_lock_all>:
   1317c:	7581b503          	ld	a0,1880(gp) # 20aa0 <_impure_ptr>
   13180:	65cd                	lui	a1,0x13
   13182:	f1058593          	addi	a1,a1,-240 # 12f10 <__fp_lock>
   13186:	a6ad                	j	134f0 <_fwalk>

0000000000013188 <__fp_unlock_all>:
   13188:	7581b503          	ld	a0,1880(gp) # 20aa0 <_impure_ptr>
   1318c:	65cd                	lui	a1,0x13
   1318e:	f1c58593          	addi	a1,a1,-228 # 12f1c <__fp_unlock>
   13192:	aeb9                	j	134f0 <_fwalk>

0000000000013194 <__libc_fini_array>:
   13194:	1101                	addi	sp,sp,-32
   13196:	e822                	sd	s0,16(sp)
   13198:	67f9                	lui	a5,0x1e
   1319a:	6479                	lui	s0,0x1e
   1319c:	01840413          	addi	s0,s0,24 # 1e018 <__do_global_dtors_aux_fini_array_entry>
   131a0:	02078793          	addi	a5,a5,32 # 1e020 <img>
   131a4:	8f81                	sub	a5,a5,s0
   131a6:	e426                	sd	s1,8(sp)
   131a8:	ec06                	sd	ra,24(sp)
   131aa:	4037d493          	srai	s1,a5,0x3
   131ae:	c881                	beqz	s1,131be <__libc_fini_array+0x2a>
   131b0:	17e1                	addi	a5,a5,-8
   131b2:	943e                	add	s0,s0,a5
   131b4:	601c                	ld	a5,0(s0)
   131b6:	14fd                	addi	s1,s1,-1
   131b8:	1461                	addi	s0,s0,-8
   131ba:	9782                	jalr	a5
   131bc:	fce5                	bnez	s1,131b4 <__libc_fini_array+0x20>
   131be:	60e2                	ld	ra,24(sp)
   131c0:	6442                	ld	s0,16(sp)
   131c2:	64a2                	ld	s1,8(sp)
   131c4:	6105                	addi	sp,sp,32
   131c6:	8082                	ret

00000000000131c8 <_malloc_trim_r>:
   131c8:	7179                	addi	sp,sp,-48
   131ca:	e44e                	sd	s3,8(sp)
   131cc:	000209b7          	lui	s3,0x20
   131d0:	f022                	sd	s0,32(sp)
   131d2:	ec26                	sd	s1,24(sp)
   131d4:	e84a                	sd	s2,16(sp)
   131d6:	e052                	sd	s4,0(sp)
   131d8:	f406                	sd	ra,40(sp)
   131da:	8a2e                	mv	s4,a1
   131dc:	892a                	mv	s2,a0
   131de:	0a898993          	addi	s3,s3,168 # 200a8 <__malloc_av_>
   131e2:	afffd0ef          	jal	ra,10ce0 <__malloc_lock>
   131e6:	0109b703          	ld	a4,16(s3)
   131ea:	6785                	lui	a5,0x1
   131ec:	fdf78413          	addi	s0,a5,-33 # fdf <register_fini-0xf0d1>
   131f0:	6704                	ld	s1,8(a4)
   131f2:	41440433          	sub	s0,s0,s4
   131f6:	98f1                	andi	s1,s1,-4
   131f8:	9426                	add	s0,s0,s1
   131fa:	8031                	srli	s0,s0,0xc
   131fc:	147d                	addi	s0,s0,-1
   131fe:	0432                	slli	s0,s0,0xc
   13200:	00f44b63          	blt	s0,a5,13216 <_malloc_trim_r+0x4e>
   13204:	4581                	li	a1,0
   13206:	854a                	mv	a0,s2
   13208:	c07fd0ef          	jal	ra,10e0e <_sbrk_r>
   1320c:	0109b783          	ld	a5,16(s3)
   13210:	97a6                	add	a5,a5,s1
   13212:	00f50e63          	beq	a0,a5,1322e <_malloc_trim_r+0x66>
   13216:	854a                	mv	a0,s2
   13218:	acbfd0ef          	jal	ra,10ce2 <__malloc_unlock>
   1321c:	70a2                	ld	ra,40(sp)
   1321e:	7402                	ld	s0,32(sp)
   13220:	64e2                	ld	s1,24(sp)
   13222:	6942                	ld	s2,16(sp)
   13224:	69a2                	ld	s3,8(sp)
   13226:	6a02                	ld	s4,0(sp)
   13228:	4501                	li	a0,0
   1322a:	6145                	addi	sp,sp,48
   1322c:	8082                	ret
   1322e:	408005b3          	neg	a1,s0
   13232:	854a                	mv	a0,s2
   13234:	bdbfd0ef          	jal	ra,10e0e <_sbrk_r>
   13238:	57fd                	li	a5,-1
   1323a:	02f50c63          	beq	a0,a5,13272 <_malloc_trim_r+0xaa>
   1323e:	000217b7          	lui	a5,0x21
   13242:	b2078793          	addi	a5,a5,-1248 # 20b20 <__malloc_current_mallinfo>
   13246:	4398                	lw	a4,0(a5)
   13248:	0109b683          	ld	a3,16(s3)
   1324c:	8c81                	sub	s1,s1,s0
   1324e:	0014e493          	ori	s1,s1,1
   13252:	4087043b          	subw	s0,a4,s0
   13256:	854a                	mv	a0,s2
   13258:	e684                	sd	s1,8(a3)
   1325a:	c380                	sw	s0,0(a5)
   1325c:	a87fd0ef          	jal	ra,10ce2 <__malloc_unlock>
   13260:	70a2                	ld	ra,40(sp)
   13262:	7402                	ld	s0,32(sp)
   13264:	64e2                	ld	s1,24(sp)
   13266:	6942                	ld	s2,16(sp)
   13268:	69a2                	ld	s3,8(sp)
   1326a:	6a02                	ld	s4,0(sp)
   1326c:	4505                	li	a0,1
   1326e:	6145                	addi	sp,sp,48
   13270:	8082                	ret
   13272:	4581                	li	a1,0
   13274:	854a                	mv	a0,s2
   13276:	b99fd0ef          	jal	ra,10e0e <_sbrk_r>
   1327a:	0109b703          	ld	a4,16(s3)
   1327e:	46fd                	li	a3,31
   13280:	40e507b3          	sub	a5,a0,a4
   13284:	f8f6d9e3          	bge	a3,a5,13216 <_malloc_trim_r+0x4e>
   13288:	7601b683          	ld	a3,1888(gp) # 20aa8 <__malloc_sbrk_base>
   1328c:	0017e793          	ori	a5,a5,1
   13290:	e71c                	sd	a5,8(a4)
   13292:	8d15                	sub	a0,a0,a3
   13294:	000216b7          	lui	a3,0x21
   13298:	b2a6a023          	sw	a0,-1248(a3) # 20b20 <__malloc_current_mallinfo>
   1329c:	bfad                	j	13216 <_malloc_trim_r+0x4e>

000000000001329e <_free_r>:
   1329e:	c9e5                	beqz	a1,1338e <_free_r+0xf0>
   132a0:	1101                	addi	sp,sp,-32
   132a2:	e822                	sd	s0,16(sp)
   132a4:	e426                	sd	s1,8(sp)
   132a6:	842e                	mv	s0,a1
   132a8:	84aa                	mv	s1,a0
   132aa:	ec06                	sd	ra,24(sp)
   132ac:	a35fd0ef          	jal	ra,10ce0 <__malloc_lock>
   132b0:	ff843503          	ld	a0,-8(s0)
   132b4:	ff040713          	addi	a4,s0,-16
   132b8:	000205b7          	lui	a1,0x20
   132bc:	ffe57793          	andi	a5,a0,-2
   132c0:	00f70633          	add	a2,a4,a5
   132c4:	0a858593          	addi	a1,a1,168 # 200a8 <__malloc_av_>
   132c8:	6614                	ld	a3,8(a2)
   132ca:	0105b803          	ld	a6,16(a1)
   132ce:	9af1                	andi	a3,a3,-4
   132d0:	14c80263          	beq	a6,a2,13414 <_free_r+0x176>
   132d4:	e614                	sd	a3,8(a2)
   132d6:	8905                	andi	a0,a0,1
   132d8:	00d60833          	add	a6,a2,a3
   132dc:	e149                	bnez	a0,1335e <_free_r+0xc0>
   132de:	ff043303          	ld	t1,-16(s0)
   132e2:	00883803          	ld	a6,8(a6)
   132e6:	00020537          	lui	a0,0x20
   132ea:	40670733          	sub	a4,a4,t1
   132ee:	01073883          	ld	a7,16(a4)
   132f2:	0b850513          	addi	a0,a0,184 # 200b8 <__malloc_av_+0x10>
   132f6:	979a                	add	a5,a5,t1
   132f8:	00187813          	andi	a6,a6,1
   132fc:	0ea88963          	beq	a7,a0,133ee <_free_r+0x150>
   13300:	01873303          	ld	t1,24(a4)
   13304:	0068bc23          	sd	t1,24(a7)
   13308:	01133823          	sd	a7,16(t1)
   1330c:	14080e63          	beqz	a6,13468 <_free_r+0x1ca>
   13310:	0017e693          	ori	a3,a5,1
   13314:	e714                	sd	a3,8(a4)
   13316:	e21c                	sd	a5,0(a2)
   13318:	1ff00693          	li	a3,511
   1331c:	08f6e363          	bltu	a3,a5,133a2 <_free_r+0x104>
   13320:	838d                	srli	a5,a5,0x3
   13322:	0017869b          	addiw	a3,a5,1
   13326:	0016969b          	slliw	a3,a3,0x1
   1332a:	068e                	slli	a3,a3,0x3
   1332c:	0085b803          	ld	a6,8(a1)
   13330:	96ae                	add	a3,a3,a1
   13332:	6288                	ld	a0,0(a3)
   13334:	4027d61b          	sraiw	a2,a5,0x2
   13338:	4785                	li	a5,1
   1333a:	00c797b3          	sll	a5,a5,a2
   1333e:	0107e7b3          	or	a5,a5,a6
   13342:	ff068613          	addi	a2,a3,-16
   13346:	ef10                	sd	a2,24(a4)
   13348:	eb08                	sd	a0,16(a4)
   1334a:	e59c                	sd	a5,8(a1)
   1334c:	e298                	sd	a4,0(a3)
   1334e:	ed18                	sd	a4,24(a0)
   13350:	6442                	ld	s0,16(sp)
   13352:	60e2                	ld	ra,24(sp)
   13354:	8526                	mv	a0,s1
   13356:	64a2                	ld	s1,8(sp)
   13358:	6105                	addi	sp,sp,32
   1335a:	989fd06f          	j	10ce2 <__malloc_unlock>
   1335e:	00883503          	ld	a0,8(a6)
   13362:	8905                	andi	a0,a0,1
   13364:	e515                	bnez	a0,13390 <_free_r+0xf2>
   13366:	00020537          	lui	a0,0x20
   1336a:	97b6                	add	a5,a5,a3
   1336c:	0b850513          	addi	a0,a0,184 # 200b8 <__malloc_av_+0x10>
   13370:	6a14                	ld	a3,16(a2)
   13372:	0017e893          	ori	a7,a5,1
   13376:	00f70833          	add	a6,a4,a5
   1337a:	10a68163          	beq	a3,a0,1347c <_free_r+0x1de>
   1337e:	6e10                	ld	a2,24(a2)
   13380:	ee90                	sd	a2,24(a3)
   13382:	ea14                	sd	a3,16(a2)
   13384:	01173423          	sd	a7,8(a4)
   13388:	00f83023          	sd	a5,0(a6)
   1338c:	b771                	j	13318 <_free_r+0x7a>
   1338e:	8082                	ret
   13390:	0017e693          	ori	a3,a5,1
   13394:	fed43c23          	sd	a3,-8(s0)
   13398:	e21c                	sd	a5,0(a2)
   1339a:	1ff00693          	li	a3,511
   1339e:	f8f6f1e3          	bgeu	a3,a5,13320 <_free_r+0x82>
   133a2:	0097d693          	srli	a3,a5,0x9
   133a6:	4611                	li	a2,4
   133a8:	08d66f63          	bltu	a2,a3,13446 <_free_r+0x1a8>
   133ac:	0067d693          	srli	a3,a5,0x6
   133b0:	0396851b          	addiw	a0,a3,57
   133b4:	0015151b          	slliw	a0,a0,0x1
   133b8:	0386861b          	addiw	a2,a3,56
   133bc:	050e                	slli	a0,a0,0x3
   133be:	952e                	add	a0,a0,a1
   133c0:	6114                	ld	a3,0(a0)
   133c2:	1541                	addi	a0,a0,-16
   133c4:	0cd50563          	beq	a0,a3,1348e <_free_r+0x1f0>
   133c8:	6690                	ld	a2,8(a3)
   133ca:	9a71                	andi	a2,a2,-4
   133cc:	00c7f563          	bgeu	a5,a2,133d6 <_free_r+0x138>
   133d0:	6a94                	ld	a3,16(a3)
   133d2:	fed51be3          	bne	a0,a3,133c8 <_free_r+0x12a>
   133d6:	6e88                	ld	a0,24(a3)
   133d8:	ef08                	sd	a0,24(a4)
   133da:	eb14                	sd	a3,16(a4)
   133dc:	6442                	ld	s0,16(sp)
   133de:	e918                	sd	a4,16(a0)
   133e0:	60e2                	ld	ra,24(sp)
   133e2:	8526                	mv	a0,s1
   133e4:	64a2                	ld	s1,8(sp)
   133e6:	ee98                	sd	a4,24(a3)
   133e8:	6105                	addi	sp,sp,32
   133ea:	8f9fd06f          	j	10ce2 <__malloc_unlock>
   133ee:	0e081c63          	bnez	a6,134e6 <_free_r+0x248>
   133f2:	6e0c                	ld	a1,24(a2)
   133f4:	6a10                	ld	a2,16(a2)
   133f6:	97b6                	add	a5,a5,a3
   133f8:	6442                	ld	s0,16(sp)
   133fa:	ee0c                	sd	a1,24(a2)
   133fc:	e990                	sd	a2,16(a1)
   133fe:	0017e693          	ori	a3,a5,1
   13402:	60e2                	ld	ra,24(sp)
   13404:	e714                	sd	a3,8(a4)
   13406:	8526                	mv	a0,s1
   13408:	973e                	add	a4,a4,a5
   1340a:	64a2                	ld	s1,8(sp)
   1340c:	e31c                	sd	a5,0(a4)
   1340e:	6105                	addi	sp,sp,32
   13410:	8d3fd06f          	j	10ce2 <__malloc_unlock>
   13414:	8905                	andi	a0,a0,1
   13416:	97b6                	add	a5,a5,a3
   13418:	e909                	bnez	a0,1342a <_free_r+0x18c>
   1341a:	ff043503          	ld	a0,-16(s0)
   1341e:	8f09                	sub	a4,a4,a0
   13420:	6f14                	ld	a3,24(a4)
   13422:	6b10                	ld	a2,16(a4)
   13424:	97aa                	add	a5,a5,a0
   13426:	ee14                	sd	a3,24(a2)
   13428:	ea90                	sd	a2,16(a3)
   1342a:	0017e613          	ori	a2,a5,1
   1342e:	7681b683          	ld	a3,1896(gp) # 20ab0 <__malloc_trim_threshold>
   13432:	e710                	sd	a2,8(a4)
   13434:	e998                	sd	a4,16(a1)
   13436:	f0d7ede3          	bltu	a5,a3,13350 <_free_r+0xb2>
   1343a:	7801b583          	ld	a1,1920(gp) # 20ac8 <__malloc_top_pad>
   1343e:	8526                	mv	a0,s1
   13440:	d89ff0ef          	jal	ra,131c8 <_malloc_trim_r>
   13444:	b731                	j	13350 <_free_r+0xb2>
   13446:	4651                	li	a2,20
   13448:	02d67263          	bgeu	a2,a3,1346c <_free_r+0x1ce>
   1344c:	05400613          	li	a2,84
   13450:	04d66a63          	bltu	a2,a3,134a4 <_free_r+0x206>
   13454:	00c7d693          	srli	a3,a5,0xc
   13458:	06f6851b          	addiw	a0,a3,111
   1345c:	0015151b          	slliw	a0,a0,0x1
   13460:	06e6861b          	addiw	a2,a3,110
   13464:	050e                	slli	a0,a0,0x3
   13466:	bfa1                	j	133be <_free_r+0x120>
   13468:	97b6                	add	a5,a5,a3
   1346a:	b719                	j	13370 <_free_r+0xd2>
   1346c:	05c6851b          	addiw	a0,a3,92
   13470:	0015151b          	slliw	a0,a0,0x1
   13474:	05b6861b          	addiw	a2,a3,91
   13478:	050e                	slli	a0,a0,0x3
   1347a:	b791                	j	133be <_free_r+0x120>
   1347c:	f598                	sd	a4,40(a1)
   1347e:	f198                	sd	a4,32(a1)
   13480:	ef08                	sd	a0,24(a4)
   13482:	eb08                	sd	a0,16(a4)
   13484:	01173423          	sd	a7,8(a4)
   13488:	00f83023          	sd	a5,0(a6)
   1348c:	b5d1                	j	13350 <_free_r+0xb2>
   1348e:	0085b803          	ld	a6,8(a1)
   13492:	4026561b          	sraiw	a2,a2,0x2
   13496:	4785                	li	a5,1
   13498:	00c79633          	sll	a2,a5,a2
   1349c:	01066633          	or	a2,a2,a6
   134a0:	e590                	sd	a2,8(a1)
   134a2:	bf1d                	j	133d8 <_free_r+0x13a>
   134a4:	15400613          	li	a2,340
   134a8:	00d66c63          	bltu	a2,a3,134c0 <_free_r+0x222>
   134ac:	00f7d693          	srli	a3,a5,0xf
   134b0:	0786851b          	addiw	a0,a3,120
   134b4:	0015151b          	slliw	a0,a0,0x1
   134b8:	0776861b          	addiw	a2,a3,119
   134bc:	050e                	slli	a0,a0,0x3
   134be:	b701                	j	133be <_free_r+0x120>
   134c0:	55400613          	li	a2,1364
   134c4:	00d66c63          	bltu	a2,a3,134dc <_free_r+0x23e>
   134c8:	0127d693          	srli	a3,a5,0x12
   134cc:	07d6851b          	addiw	a0,a3,125
   134d0:	0015151b          	slliw	a0,a0,0x1
   134d4:	07c6861b          	addiw	a2,a3,124
   134d8:	050e                	slli	a0,a0,0x3
   134da:	b5d5                	j	133be <_free_r+0x120>
   134dc:	7f000513          	li	a0,2032
   134e0:	07e00613          	li	a2,126
   134e4:	bde9                	j	133be <_free_r+0x120>
   134e6:	0017e693          	ori	a3,a5,1
   134ea:	e714                	sd	a3,8(a4)
   134ec:	e21c                	sd	a5,0(a2)
   134ee:	b58d                	j	13350 <_free_r+0xb2>

00000000000134f0 <_fwalk>:
   134f0:	715d                	addi	sp,sp,-80
   134f2:	f84a                	sd	s2,48(sp)
   134f4:	f44e                	sd	s3,40(sp)
   134f6:	f052                	sd	s4,32(sp)
   134f8:	ec56                	sd	s5,24(sp)
   134fa:	e85a                	sd	s6,16(sp)
   134fc:	e45e                	sd	s7,8(sp)
   134fe:	e486                	sd	ra,72(sp)
   13500:	e0a2                	sd	s0,64(sp)
   13502:	fc26                	sd	s1,56(sp)
   13504:	8a2e                	mv	s4,a1
   13506:	52050913          	addi	s2,a0,1312
   1350a:	4b01                	li	s6,0
   1350c:	0b000a93          	li	s5,176
   13510:	4b85                	li	s7,1
   13512:	59fd                	li	s3,-1
   13514:	00892783          	lw	a5,8(s2)
   13518:	01093403          	ld	s0,16(s2)
   1351c:	02f05b63          	blez	a5,13552 <_fwalk+0x62>
   13520:	fff7849b          	addiw	s1,a5,-1
   13524:	1482                	slli	s1,s1,0x20
   13526:	9081                	srli	s1,s1,0x20
   13528:	0485                	addi	s1,s1,1
   1352a:	035484b3          	mul	s1,s1,s5
   1352e:	94a2                	add	s1,s1,s0
   13530:	01045783          	lhu	a5,16(s0)
   13534:	00fbfb63          	bgeu	s7,a5,1354a <_fwalk+0x5a>
   13538:	01241783          	lh	a5,18(s0)
   1353c:	8522                	mv	a0,s0
   1353e:	01378663          	beq	a5,s3,1354a <_fwalk+0x5a>
   13542:	9a02                	jalr	s4
   13544:	01656b33          	or	s6,a0,s6
   13548:	2b01                	sext.w	s6,s6
   1354a:	0b040413          	addi	s0,s0,176
   1354e:	fe8491e3          	bne	s1,s0,13530 <_fwalk+0x40>
   13552:	00093903          	ld	s2,0(s2)
   13556:	fa091fe3          	bnez	s2,13514 <_fwalk+0x24>
   1355a:	60a6                	ld	ra,72(sp)
   1355c:	6406                	ld	s0,64(sp)
   1355e:	74e2                	ld	s1,56(sp)
   13560:	7942                	ld	s2,48(sp)
   13562:	79a2                	ld	s3,40(sp)
   13564:	7a02                	ld	s4,32(sp)
   13566:	6ae2                	ld	s5,24(sp)
   13568:	6ba2                	ld	s7,8(sp)
   1356a:	855a                	mv	a0,s6
   1356c:	6b42                	ld	s6,16(sp)
   1356e:	6161                	addi	sp,sp,80
   13570:	8082                	ret

0000000000013572 <_fwalk_reent>:
   13572:	715d                	addi	sp,sp,-80
   13574:	f84a                	sd	s2,48(sp)
   13576:	f44e                	sd	s3,40(sp)
   13578:	f052                	sd	s4,32(sp)
   1357a:	ec56                	sd	s5,24(sp)
   1357c:	e85a                	sd	s6,16(sp)
   1357e:	e45e                	sd	s7,8(sp)
   13580:	e062                	sd	s8,0(sp)
   13582:	e486                	sd	ra,72(sp)
   13584:	e0a2                	sd	s0,64(sp)
   13586:	fc26                	sd	s1,56(sp)
   13588:	8c2a                	mv	s8,a0
   1358a:	8a2e                	mv	s4,a1
   1358c:	52050913          	addi	s2,a0,1312
   13590:	4b01                	li	s6,0
   13592:	0b000a93          	li	s5,176
   13596:	4b85                	li	s7,1
   13598:	59fd                	li	s3,-1
   1359a:	00892783          	lw	a5,8(s2)
   1359e:	01093403          	ld	s0,16(s2)
   135a2:	02f05c63          	blez	a5,135da <_fwalk_reent+0x68>
   135a6:	fff7849b          	addiw	s1,a5,-1
   135aa:	1482                	slli	s1,s1,0x20
   135ac:	9081                	srli	s1,s1,0x20
   135ae:	0485                	addi	s1,s1,1
   135b0:	035484b3          	mul	s1,s1,s5
   135b4:	94a2                	add	s1,s1,s0
   135b6:	01045783          	lhu	a5,16(s0)
   135ba:	00fbfc63          	bgeu	s7,a5,135d2 <_fwalk_reent+0x60>
   135be:	01241783          	lh	a5,18(s0)
   135c2:	85a2                	mv	a1,s0
   135c4:	8562                	mv	a0,s8
   135c6:	01378663          	beq	a5,s3,135d2 <_fwalk_reent+0x60>
   135ca:	9a02                	jalr	s4
   135cc:	01656b33          	or	s6,a0,s6
   135d0:	2b01                	sext.w	s6,s6
   135d2:	0b040413          	addi	s0,s0,176
   135d6:	fe8490e3          	bne	s1,s0,135b6 <_fwalk_reent+0x44>
   135da:	00093903          	ld	s2,0(s2)
   135de:	fa091ee3          	bnez	s2,1359a <_fwalk_reent+0x28>
   135e2:	60a6                	ld	ra,72(sp)
   135e4:	6406                	ld	s0,64(sp)
   135e6:	74e2                	ld	s1,56(sp)
   135e8:	7942                	ld	s2,48(sp)
   135ea:	79a2                	ld	s3,40(sp)
   135ec:	7a02                	ld	s4,32(sp)
   135ee:	6ae2                	ld	s5,24(sp)
   135f0:	6ba2                	ld	s7,8(sp)
   135f2:	6c02                	ld	s8,0(sp)
   135f4:	855a                	mv	a0,s6
   135f6:	6b42                	ld	s6,16(sp)
   135f8:	6161                	addi	sp,sp,80
   135fa:	8082                	ret

00000000000135fc <eshdn1>:
   135fc:	00450693          	addi	a3,a0,4
   13600:	4781                	li	a5,0
   13602:	0569                	addi	a0,a0,26
   13604:	7861                	lui	a6,0xffff8
   13606:	a811                	j	1361a <eshdn1+0x1e>
   13608:	0017979b          	slliw	a5,a5,0x1
   1360c:	00e69023          	sh	a4,0(a3)
   13610:	17c2                	slli	a5,a5,0x30
   13612:	0689                	addi	a3,a3,2
   13614:	93c1                	srli	a5,a5,0x30
   13616:	02d50863          	beq	a0,a3,13646 <eshdn1+0x4a>
   1361a:	0006d703          	lhu	a4,0(a3)
   1361e:	00177613          	andi	a2,a4,1
   13622:	c219                	beqz	a2,13628 <eshdn1+0x2c>
   13624:	0017e793          	ori	a5,a5,1
   13628:	8305                	srli	a4,a4,0x1
   1362a:	0027f613          	andi	a2,a5,2
   1362e:	010765b3          	or	a1,a4,a6
   13632:	da79                	beqz	a2,13608 <eshdn1+0xc>
   13634:	0017979b          	slliw	a5,a5,0x1
   13638:	00b69023          	sh	a1,0(a3)
   1363c:	17c2                	slli	a5,a5,0x30
   1363e:	0689                	addi	a3,a3,2
   13640:	93c1                	srli	a5,a5,0x30
   13642:	fcd51ce3          	bne	a0,a3,1361a <eshdn1+0x1e>
   13646:	8082                	ret

0000000000013648 <eshup1>:
   13648:	01850693          	addi	a3,a0,24
   1364c:	4701                	li	a4,0
   1364e:	0509                	addi	a0,a0,2
   13650:	a811                	j	13664 <eshup1+0x1c>
   13652:	0017171b          	slliw	a4,a4,0x1
   13656:	00f69023          	sh	a5,0(a3)
   1365a:	1742                	slli	a4,a4,0x30
   1365c:	16f9                	addi	a3,a3,-2
   1365e:	9341                	srli	a4,a4,0x30
   13660:	02d50b63          	beq	a0,a3,13696 <eshup1+0x4e>
   13664:	0006d783          	lhu	a5,0(a3)
   13668:	00f7d613          	srli	a2,a5,0xf
   1366c:	0017979b          	slliw	a5,a5,0x1
   13670:	c219                	beqz	a2,13676 <eshup1+0x2e>
   13672:	00176713          	ori	a4,a4,1
   13676:	17c2                	slli	a5,a5,0x30
   13678:	93c1                	srli	a5,a5,0x30
   1367a:	00277613          	andi	a2,a4,2
   1367e:	0017e593          	ori	a1,a5,1
   13682:	da61                	beqz	a2,13652 <eshup1+0xa>
   13684:	0017171b          	slliw	a4,a4,0x1
   13688:	00b69023          	sh	a1,0(a3)
   1368c:	1742                	slli	a4,a4,0x30
   1368e:	16f9                	addi	a3,a3,-2
   13690:	9341                	srli	a4,a4,0x30
   13692:	fcd519e3          	bne	a0,a3,13664 <eshup1+0x1c>
   13696:	8082                	ret

0000000000013698 <m16m>:
   13698:	1101                	addi	sp,sp,-32
   1369a:	6e41                	lui	t3,0x10
   1369c:	00011b23          	sh	zero,22(sp)
   136a0:	00011c23          	sh	zero,24(sp)
   136a4:	05e1                	addi	a1,a1,24
   136a6:	083c                	addi	a5,sp,24
   136a8:	00410813          	addi	a6,sp,4
   136ac:	1e7d                	addi	t3,t3,-1
   136ae:	0005d703          	lhu	a4,0(a1)
   136b2:	17f9                	addi	a5,a5,-2
   136b4:	15f9                	addi	a1,a1,-2
   136b6:	e315                	bnez	a4,136da <m16m+0x42>
   136b8:	fe079f23          	sh	zero,-2(a5)
   136bc:	ff0799e3          	bne	a5,a6,136ae <m16m+0x16>
   136c0:	0611                	addi	a2,a2,4
   136c2:	01a10693          	addi	a3,sp,26
   136c6:	0007d703          	lhu	a4,0(a5)
   136ca:	0789                	addi	a5,a5,2
   136cc:	0609                	addi	a2,a2,2
   136ce:	fee61f23          	sh	a4,-2(a2) # ffffffffffffdffe <__BSS_END__+0xfffffffffffdd4b6>
   136d2:	fed79ae3          	bne	a5,a3,136c6 <m16m+0x2e>
   136d6:	6105                	addi	sp,sp,32
   136d8:	8082                	ret
   136da:	02a70733          	mul	a4,a4,a0
   136de:	0027d883          	lhu	a7,2(a5)
   136e2:	0007d303          	lhu	t1,0(a5)
   136e6:	01c776b3          	and	a3,a4,t3
   136ea:	96c6                	add	a3,a3,a7
   136ec:	8341                	srli	a4,a4,0x10
   136ee:	0106d893          	srli	a7,a3,0x10
   136f2:	971a                	add	a4,a4,t1
   136f4:	9746                	add	a4,a4,a7
   136f6:	01075893          	srli	a7,a4,0x10
   136fa:	00d79123          	sh	a3,2(a5)
   136fe:	00e79023          	sh	a4,0(a5)
   13702:	ff179f23          	sh	a7,-2(a5)
   13706:	fb0794e3          	bne	a5,a6,136ae <m16m+0x16>
   1370a:	bf5d                	j	136c0 <m16m+0x28>

000000000001370c <emovo.constprop.0>:
   1370c:	00055703          	lhu	a4,0(a0)
   13710:	00255783          	lhu	a5,2(a0)
   13714:	c319                	beqz	a4,1371a <emovo.constprop.0+0xe>
   13716:	6721                	lui	a4,0x8
   13718:	8fd9                	or	a5,a5,a4
   1371a:	00f59923          	sh	a5,18(a1)
   1371e:	00255703          	lhu	a4,2(a0)
   13722:	67a1                	lui	a5,0x8
   13724:	17fd                	addi	a5,a5,-1
   13726:	00f70f63          	beq	a4,a5,13744 <emovo.constprop.0+0x38>
   1372a:	00650793          	addi	a5,a0,6
   1372e:	05c1                	addi	a1,a1,16
   13730:	0561                	addi	a0,a0,24
   13732:	0007d703          	lhu	a4,0(a5) # 8000 <register_fini-0x80b0>
   13736:	0789                	addi	a5,a5,2
   13738:	15f9                	addi	a1,a1,-2
   1373a:	00e59123          	sh	a4,2(a1)
   1373e:	fea79ae3          	bne	a5,a0,13732 <emovo.constprop.0+0x26>
   13742:	8082                	ret
   13744:	00650793          	addi	a5,a0,6
   13748:	0569                	addi	a0,a0,26
   1374a:	0007d703          	lhu	a4,0(a5)
   1374e:	0789                	addi	a5,a5,2
   13750:	e31d                	bnez	a4,13776 <emovo.constprop.0+0x6a>
   13752:	fea79ce3          	bne	a5,a0,1374a <emovo.constprop.0+0x3e>
   13756:	01258713          	addi	a4,a1,18
   1375a:	87ae                	mv	a5,a1
   1375c:	0789                	addi	a5,a5,2
   1375e:	fe079f23          	sh	zero,-2(a5)
   13762:	fef71de3          	bne	a4,a5,1375c <emovo.constprop.0+0x50>
   13766:	0125d783          	lhu	a5,18(a1)
   1376a:	6721                	lui	a4,0x8
   1376c:	177d                	addi	a4,a4,-1
   1376e:	8fd9                	or	a5,a5,a4
   13770:	00f59923          	sh	a5,18(a1)
   13774:	8082                	ret
   13776:	01058713          	addi	a4,a1,16
   1377a:	87ae                	mv	a5,a1
   1377c:	0789                	addi	a5,a5,2
   1377e:	fe079f23          	sh	zero,-2(a5)
   13782:	fef71de3          	bne	a4,a5,1377c <emovo.constprop.0+0x70>
   13786:	77f1                	lui	a5,0xffffc
   13788:	00f59823          	sh	a5,16(a1)
   1378c:	77e1                	lui	a5,0xffff8
   1378e:	fff7c793          	not	a5,a5
   13792:	00f59923          	sh	a5,18(a1)
   13796:	8082                	ret

0000000000013798 <enormlz>:
   13798:	00455783          	lhu	a5,4(a0)
   1379c:	1101                	addi	sp,sp,-32
   1379e:	e426                	sd	s1,8(sp)
   137a0:	ec06                	sd	ra,24(sp)
   137a2:	e822                	sd	s0,16(sp)
   137a4:	e04a                	sd	s2,0(sp)
   137a6:	84aa                	mv	s1,a0
   137a8:	efc9                	bnez	a5,13842 <enormlz+0xaa>
   137aa:	00655703          	lhu	a4,6(a0)
   137ae:	4401                	li	s0,0
   137b0:	00f75793          	srli	a5,a4,0xf
   137b4:	e3c1                	bnez	a5,13834 <enormlz+0x9c>
   137b6:	01a50693          	addi	a3,a0,26
   137ba:	0a000613          	li	a2,160
   137be:	e31d                	bnez	a4,137e4 <enormlz+0x4c>
   137c0:	00648793          	addi	a5,s1,6
   137c4:	a019                	j	137ca <enormlz+0x32>
   137c6:	0007d703          	lhu	a4,0(a5) # ffffffffffff8000 <__BSS_END__+0xfffffffffffd74b8>
   137ca:	0789                	addi	a5,a5,2
   137cc:	fee79e23          	sh	a4,-4(a5)
   137d0:	fed79be3          	bne	a5,a3,137c6 <enormlz+0x2e>
   137d4:	00049c23          	sh	zero,24(s1)
   137d8:	2441                	addiw	s0,s0,16
   137da:	04c40d63          	beq	s0,a2,13834 <enormlz+0x9c>
   137de:	0064d703          	lhu	a4,6(s1)
   137e2:	df79                	beqz	a4,137c0 <enormlz+0x28>
   137e4:	f0077793          	andi	a5,a4,-256
   137e8:	eb8d                	bnez	a5,1381a <enormlz+0x82>
   137ea:	01848513          	addi	a0,s1,24
   137ee:	00248593          	addi	a1,s1,2
   137f2:	4781                	li	a5,0
   137f4:	872a                	mv	a4,a0
   137f6:	00075683          	lhu	a3,0(a4) # 8000 <register_fini-0x80b0>
   137fa:	1779                	addi	a4,a4,-2
   137fc:	0086961b          	slliw	a2,a3,0x8
   13800:	8fd1                	or	a5,a5,a2
   13802:	00f71123          	sh	a5,2(a4)
   13806:	0086d793          	srli	a5,a3,0x8
   1380a:	fee596e3          	bne	a1,a4,137f6 <enormlz+0x5e>
   1380e:	0064d703          	lhu	a4,6(s1)
   13812:	2421                	addiw	s0,s0,8
   13814:	f0077793          	andi	a5,a4,-256
   13818:	dfe9                	beqz	a5,137f2 <enormlz+0x5a>
   1381a:	0a000913          	li	s2,160
   1381e:	a801                	j	1382e <enormlz+0x96>
   13820:	2405                	addiw	s0,s0,1
   13822:	e27ff0ef          	jal	ra,13648 <eshup1>
   13826:	00894763          	blt	s2,s0,13834 <enormlz+0x9c>
   1382a:	0064d703          	lhu	a4,6(s1)
   1382e:	833d                	srli	a4,a4,0xf
   13830:	8526                	mv	a0,s1
   13832:	d77d                	beqz	a4,13820 <enormlz+0x88>
   13834:	60e2                	ld	ra,24(sp)
   13836:	8522                	mv	a0,s0
   13838:	6442                	ld	s0,16(sp)
   1383a:	64a2                	ld	s1,8(sp)
   1383c:	6902                	ld	s2,0(sp)
   1383e:	6105                	addi	sp,sp,32
   13840:	8082                	ret
   13842:	f007f713          	andi	a4,a5,-256
   13846:	4401                	li	s0,0
   13848:	e705                	bnez	a4,13870 <enormlz+0xd8>
   1384a:	f6f00913          	li	s2,-145
   1384e:	a801                	j	1385e <enormlz+0xc6>
   13850:	347d                	addiw	s0,s0,-1
   13852:	dabff0ef          	jal	ra,135fc <eshdn1>
   13856:	fd240fe3          	beq	s0,s2,13834 <enormlz+0x9c>
   1385a:	0044d783          	lhu	a5,4(s1)
   1385e:	8526                	mv	a0,s1
   13860:	fbe5                	bnez	a5,13850 <enormlz+0xb8>
   13862:	60e2                	ld	ra,24(sp)
   13864:	8522                	mv	a0,s0
   13866:	6442                	ld	s0,16(sp)
   13868:	64a2                	ld	s1,8(sp)
   1386a:	6902                	ld	s2,0(sp)
   1386c:	6105                	addi	sp,sp,32
   1386e:	8082                	ret
   13870:	00450693          	addi	a3,a0,4
   13874:	01a50593          	addi	a1,a0,26
   13878:	4701                	li	a4,0
   1387a:	a019                	j	13880 <enormlz+0xe8>
   1387c:	0006d783          	lhu	a5,0(a3)
   13880:	0087d61b          	srliw	a2,a5,0x8
   13884:	8f51                	or	a4,a4,a2
   13886:	0087979b          	slliw	a5,a5,0x8
   1388a:	00e69023          	sh	a4,0(a3)
   1388e:	03079713          	slli	a4,a5,0x30
   13892:	0689                	addi	a3,a3,2
   13894:	9341                	srli	a4,a4,0x30
   13896:	fed593e3          	bne	a1,a3,1387c <enormlz+0xe4>
   1389a:	0044d783          	lhu	a5,4(s1)
   1389e:	5461                	li	s0,-8
   138a0:	b76d                	j	1384a <enormlz+0xb2>

00000000000138a2 <eshift.part.0>:
   138a2:	7179                	addi	sp,sp,-48
   138a4:	f022                	sd	s0,32(sp)
   138a6:	ec26                	sd	s1,24(sp)
   138a8:	f406                	sd	ra,40(sp)
   138aa:	e84a                	sd	s2,16(sp)
   138ac:	e44e                	sd	s3,8(sp)
   138ae:	84ae                	mv	s1,a1
   138b0:	842a                	mv	s0,a0
   138b2:	0605cb63          	bltz	a1,13928 <eshift.part.0+0x86>
   138b6:	47bd                	li	a5,15
   138b8:	862e                	mv	a2,a1
   138ba:	0511                	addi	a0,a0,4
   138bc:	01840693          	addi	a3,s0,24
   138c0:	45bd                	li	a1,15
   138c2:	0297d063          	bge	a5,s1,138e2 <eshift.part.0+0x40>
   138c6:	87aa                	mv	a5,a0
   138c8:	0027d703          	lhu	a4,2(a5)
   138cc:	0789                	addi	a5,a5,2
   138ce:	fee79f23          	sh	a4,-2(a5)
   138d2:	fef69be3          	bne	a3,a5,138c8 <eshift.part.0+0x26>
   138d6:	00041c23          	sh	zero,24(s0)
   138da:	3641                	addiw	a2,a2,-16
   138dc:	fec5c5e3          	blt	a1,a2,138c6 <eshift.part.0+0x24>
   138e0:	88bd                	andi	s1,s1,15
   138e2:	479d                	li	a5,7
   138e4:	0297d463          	bge	a5,s1,1390c <eshift.part.0+0x6a>
   138e8:	01840713          	addi	a4,s0,24
   138ec:	00240593          	addi	a1,s0,2
   138f0:	4781                	li	a5,0
   138f2:	00075683          	lhu	a3,0(a4)
   138f6:	1779                	addi	a4,a4,-2
   138f8:	0086961b          	slliw	a2,a3,0x8
   138fc:	8fd1                	or	a5,a5,a2
   138fe:	00f71123          	sh	a5,2(a4)
   13902:	0086d793          	srli	a5,a3,0x8
   13906:	fee596e3          	bne	a1,a4,138f2 <eshift.part.0+0x50>
   1390a:	34e1                	addiw	s1,s1,-8
   1390c:	c491                	beqz	s1,13918 <eshift.part.0+0x76>
   1390e:	34fd                	addiw	s1,s1,-1
   13910:	8522                	mv	a0,s0
   13912:	d37ff0ef          	jal	ra,13648 <eshup1>
   13916:	fce5                	bnez	s1,1390e <eshift.part.0+0x6c>
   13918:	4501                	li	a0,0
   1391a:	70a2                	ld	ra,40(sp)
   1391c:	7402                	ld	s0,32(sp)
   1391e:	64e2                	ld	s1,24(sp)
   13920:	6942                	ld	s2,16(sp)
   13922:	69a2                	ld	s3,8(sp)
   13924:	6145                	addi	sp,sp,48
   13926:	8082                	ret
   13928:	57c5                	li	a5,-15
   1392a:	40b0093b          	negw	s2,a1
   1392e:	0ef5d763          	bge	a1,a5,13a1c <eshift.part.0+0x17a>
   13932:	01850593          	addi	a1,a0,24
   13936:	4981                	li	s3,0
   13938:	00450693          	addi	a3,a0,4
   1393c:	463d                	li	a2,15
   1393e:	01845703          	lhu	a4,24(s0)
   13942:	87ae                	mv	a5,a1
   13944:	00e9e9b3          	or	s3,s3,a4
   13948:	ffe7d703          	lhu	a4,-2(a5)
   1394c:	17f9                	addi	a5,a5,-2
   1394e:	00e79123          	sh	a4,2(a5)
   13952:	fed79be3          	bne	a5,a3,13948 <eshift.part.0+0xa6>
   13956:	00041223          	sh	zero,4(s0)
   1395a:	3941                	addiw	s2,s2,-16
   1395c:	ff2641e3          	blt	a2,s2,1393e <eshift.part.0+0x9c>
   13960:	5941                	li	s2,-16
   13962:	5745                	li	a4,-15
   13964:	4099093b          	subw	s2,s2,s1
   13968:	4781                	li	a5,0
   1396a:	08e4c263          	blt	s1,a4,139ee <eshift.part.0+0x14c>
   1396e:	00f9093b          	addw	s2,s2,a5
   13972:	479d                	li	a5,7
   13974:	0327ce63          	blt	a5,s2,139b0 <eshift.part.0+0x10e>
   13978:	08090a63          	beqz	s2,13a0c <eshift.part.0+0x16a>
   1397c:	01845783          	lhu	a5,24(s0)
   13980:	397d                	addiw	s2,s2,-1
   13982:	8522                	mv	a0,s0
   13984:	8b85                	andi	a5,a5,1
   13986:	0137e9b3          	or	s3,a5,s3
   1398a:	c73ff0ef          	jal	ra,135fc <eshdn1>
   1398e:	fe0917e3          	bnez	s2,1397c <eshift.part.0+0xda>
   13992:	0109979b          	slliw	a5,s3,0x10
   13996:	4107d79b          	sraiw	a5,a5,0x10
   1399a:	e7a5                	bnez	a5,13a02 <eshift.part.0+0x160>
   1399c:	03099513          	slli	a0,s3,0x30
   139a0:	9141                	srli	a0,a0,0x30
   139a2:	70a2                	ld	ra,40(sp)
   139a4:	7402                	ld	s0,32(sp)
   139a6:	64e2                	ld	s1,24(sp)
   139a8:	6942                	ld	s2,16(sp)
   139aa:	69a2                	ld	s3,8(sp)
   139ac:	6145                	addi	sp,sp,48
   139ae:	8082                	ret
   139b0:	0109999b          	slliw	s3,s3,0x10
   139b4:	4109d99b          	sraiw	s3,s3,0x10
   139b8:	01844783          	lbu	a5,24(s0)
   139bc:	01a40593          	addi	a1,s0,26
   139c0:	00f9e9b3          	or	s3,s3,a5
   139c4:	19c2                	slli	s3,s3,0x30
   139c6:	0309d993          	srli	s3,s3,0x30
   139ca:	4781                	li	a5,0
   139cc:	0006d703          	lhu	a4,0(a3)
   139d0:	0689                	addi	a3,a3,2
   139d2:	0087561b          	srliw	a2,a4,0x8
   139d6:	8fd1                	or	a5,a5,a2
   139d8:	0087171b          	slliw	a4,a4,0x8
   139dc:	fef69f23          	sh	a5,-2(a3)
   139e0:	03071793          	slli	a5,a4,0x30
   139e4:	93c1                	srli	a5,a5,0x30
   139e6:	fed593e3          	bne	a1,a3,139cc <eshift.part.0+0x12a>
   139ea:	3961                	addiw	s2,s2,-8
   139ec:	b771                	j	13978 <eshift.part.0+0xd6>
   139ee:	ff097793          	andi	a5,s2,-16
   139f2:	40f007bb          	negw	a5,a5
   139f6:	00f9093b          	addw	s2,s2,a5
   139fa:	479d                	li	a5,7
   139fc:	f727dee3          	bge	a5,s2,13978 <eshift.part.0+0xd6>
   13a00:	bf45                	j	139b0 <eshift.part.0+0x10e>
   13a02:	4985                	li	s3,1
   13a04:	03099513          	slli	a0,s3,0x30
   13a08:	9141                	srli	a0,a0,0x30
   13a0a:	bf61                	j	139a2 <eshift.part.0+0x100>
   13a0c:	854e                	mv	a0,s3
   13a0e:	00099563          	bnez	s3,13a18 <eshift.part.0+0x176>
   13a12:	1542                	slli	a0,a0,0x30
   13a14:	9141                	srli	a0,a0,0x30
   13a16:	b711                	j	1391a <eshift.part.0+0x78>
   13a18:	4505                	li	a0,1
   13a1a:	bfe5                	j	13a12 <eshift.part.0+0x170>
   13a1c:	57e5                	li	a5,-7
   13a1e:	4981                	li	s3,0
   13a20:	00450693          	addi	a3,a0,4
   13a24:	f8f5cae3          	blt	a1,a5,139b8 <eshift.part.0+0x116>
   13a28:	bf91                	j	1397c <eshift.part.0+0xda>

0000000000013a2a <emovi>:
   13a2a:	01255783          	lhu	a5,18(a0)
   13a2e:	6621                	lui	a2,0x8
   13a30:	167d                	addi	a2,a2,-1
   13a32:	00f7d79b          	srliw	a5,a5,0xf
   13a36:	40f007bb          	negw	a5,a5
   13a3a:	00f59023          	sh	a5,0(a1)
   13a3e:	01255683          	lhu	a3,18(a0)
   13a42:	01050793          	addi	a5,a0,16
   13a46:	00458713          	addi	a4,a1,4
   13a4a:	8ef1                	and	a3,a3,a2
   13a4c:	00d59123          	sh	a3,2(a1)
   13a50:	0006881b          	sext.w	a6,a3
   13a54:	02c68263          	beq	a3,a2,13a78 <emovi+0x4e>
   13a58:	00658713          	addi	a4,a1,6
   13a5c:	00059223          	sh	zero,4(a1)
   13a60:	1579                	addi	a0,a0,-2
   13a62:	0007d683          	lhu	a3,0(a5)
   13a66:	17f9                	addi	a5,a5,-2
   13a68:	0709                	addi	a4,a4,2
   13a6a:	fed71f23          	sh	a3,-2(a4)
   13a6e:	fef51ae3          	bne	a0,a5,13a62 <emovi+0x38>
   13a72:	00059c23          	sh	zero,24(a1)
   13a76:	8082                	ret
   13a78:	01255683          	lhu	a3,18(a0)
   13a7c:	00d876b3          	and	a3,a6,a3
   13a80:	01069b63          	bne	a3,a6,13a96 <emovi+0x6c>
   13a84:	01250813          	addi	a6,a0,18
   13a88:	86aa                	mv	a3,a0
   13a8a:	0006d603          	lhu	a2,0(a3)
   13a8e:	0689                	addi	a3,a3,2
   13a90:	ea11                	bnez	a2,13aa4 <emovi+0x7a>
   13a92:	ff069ce3          	bne	a3,a6,13a8a <emovi+0x60>
   13a96:	05e9                	addi	a1,a1,26
   13a98:	0709                	addi	a4,a4,2
   13a9a:	fe071f23          	sh	zero,-2(a4)
   13a9e:	fee59de3          	bne	a1,a4,13a98 <emovi+0x6e>
   13aa2:	8082                	ret
   13aa4:	00658713          	addi	a4,a1,6
   13aa8:	00059223          	sh	zero,4(a1)
   13aac:	1571                	addi	a0,a0,-4
   13aae:	0007d683          	lhu	a3,0(a5)
   13ab2:	17f9                	addi	a5,a5,-2
   13ab4:	0709                	addi	a4,a4,2
   13ab6:	fed71f23          	sh	a3,-2(a4)
   13aba:	fea79ae3          	bne	a5,a0,13aae <emovi+0x84>
   13abe:	8082                	ret

0000000000013ac0 <ecmp>:
   13ac0:	01255783          	lhu	a5,18(a0)
   13ac4:	715d                	addi	sp,sp,-80
   13ac6:	e0a2                	sd	s0,64(sp)
   13ac8:	fff7c793          	not	a5,a5
   13acc:	e486                	sd	ra,72(sp)
   13ace:	03179713          	slli	a4,a5,0x31
   13ad2:	842e                	mv	s0,a1
   13ad4:	eb11                	bnez	a4,13ae8 <ecmp+0x28>
   13ad6:	01250693          	addi	a3,a0,18
   13ada:	87aa                	mv	a5,a0
   13adc:	0007d703          	lhu	a4,0(a5)
   13ae0:	0789                	addi	a5,a5,2
   13ae2:	eb25                	bnez	a4,13b52 <ecmp+0x92>
   13ae4:	fed79ce3          	bne	a5,a3,13adc <ecmp+0x1c>
   13ae8:	01245783          	lhu	a5,18(s0)
   13aec:	fff7c793          	not	a5,a5
   13af0:	03179713          	slli	a4,a5,0x31
   13af4:	c331                	beqz	a4,13b38 <ecmp+0x78>
   13af6:	858a                	mv	a1,sp
   13af8:	f33ff0ef          	jal	ra,13a2a <emovi>
   13afc:	100c                	addi	a1,sp,32
   13afe:	8522                	mv	a0,s0
   13b00:	f2bff0ef          	jal	ra,13a2a <emovi>
   13b04:	00015583          	lhu	a1,0(sp)
   13b08:	02015783          	lhu	a5,32(sp)
   13b0c:	04b78863          	beq	a5,a1,13b5c <ecmp+0x9c>
   13b10:	00210793          	addi	a5,sp,2
   13b14:	02210713          	addi	a4,sp,34
   13b18:	0830                	addi	a2,sp,24
   13b1a:	0007d683          	lhu	a3,0(a5)
   13b1e:	0789                	addi	a5,a5,2
   13b20:	eea5                	bnez	a3,13b98 <ecmp+0xd8>
   13b22:	00075683          	lhu	a3,0(a4)
   13b26:	0709                	addi	a4,a4,2
   13b28:	eaa5                	bnez	a3,13b98 <ecmp+0xd8>
   13b2a:	fef618e3          	bne	a2,a5,13b1a <ecmp+0x5a>
   13b2e:	4501                	li	a0,0
   13b30:	60a6                	ld	ra,72(sp)
   13b32:	6406                	ld	s0,64(sp)
   13b34:	6161                	addi	sp,sp,80
   13b36:	8082                	ret
   13b38:	87a2                	mv	a5,s0
   13b3a:	0007d703          	lhu	a4,0(a5)
   13b3e:	01240693          	addi	a3,s0,18
   13b42:	0789                	addi	a5,a5,2
   13b44:	e719                	bnez	a4,13b52 <ecmp+0x92>
   13b46:	fad788e3          	beq	a5,a3,13af6 <ecmp+0x36>
   13b4a:	0007d703          	lhu	a4,0(a5)
   13b4e:	0789                	addi	a5,a5,2
   13b50:	db7d                	beqz	a4,13b46 <ecmp+0x86>
   13b52:	60a6                	ld	ra,72(sp)
   13b54:	6406                	ld	s0,64(sp)
   13b56:	5579                	li	a0,-2
   13b58:	6161                	addi	sp,sp,80
   13b5a:	8082                	ret
   13b5c:	4505                	li	a0,1
   13b5e:	e1a9                	bnez	a1,13ba0 <ecmp+0xe0>
   13b60:	00215603          	lhu	a2,2(sp)
   13b64:	02215683          	lhu	a3,34(sp)
   13b68:	00210713          	addi	a4,sp,2
   13b6c:	02210793          	addi	a5,sp,34
   13b70:	182c                	addi	a1,sp,56
   13b72:	0789                	addi	a5,a5,2
   13b74:	0709                	addi	a4,a4,2
   13b76:	00d61c63          	bne	a2,a3,13b8e <ecmp+0xce>
   13b7a:	fab78ae3          	beq	a5,a1,13b2e <ecmp+0x6e>
   13b7e:	00075603          	lhu	a2,0(a4)
   13b82:	0007d683          	lhu	a3,0(a5)
   13b86:	0709                	addi	a4,a4,2
   13b88:	0789                	addi	a5,a5,2
   13b8a:	fed608e3          	beq	a2,a3,13b7a <ecmp+0xba>
   13b8e:	fac6e1e3          	bltu	a3,a2,13b30 <ecmp+0x70>
   13b92:	40a0053b          	negw	a0,a0
   13b96:	bf69                	j	13b30 <ecmp+0x70>
   13b98:	4505                	li	a0,1
   13b9a:	d9d9                	beqz	a1,13b30 <ecmp+0x70>
   13b9c:	557d                	li	a0,-1
   13b9e:	bf49                	j	13b30 <ecmp+0x70>
   13ba0:	557d                	li	a0,-1
   13ba2:	bf7d                	j	13b60 <ecmp+0xa0>

0000000000013ba4 <emdnorm>:
   13ba4:	7139                	addi	sp,sp,-64
   13ba6:	f822                	sd	s0,48(sp)
   13ba8:	f426                	sd	s1,40(sp)
   13baa:	f04a                	sd	s2,32(sp)
   13bac:	ec4e                	sd	s3,24(sp)
   13bae:	e852                	sd	s4,16(sp)
   13bb0:	e456                	sd	s5,8(sp)
   13bb2:	8936                	mv	s2,a3
   13bb4:	84be                	mv	s1,a5
   13bb6:	fc06                	sd	ra,56(sp)
   13bb8:	842a                	mv	s0,a0
   13bba:	89ae                	mv	s3,a1
   13bbc:	8a32                	mv	s4,a2
   13bbe:	8aba                	mv	s5,a4
   13bc0:	bd9ff0ef          	jal	ra,13798 <enormlz>
   13bc4:	09000793          	li	a5,144
   13bc8:	40a90933          	sub	s2,s2,a0
   13bcc:	14a7d563          	bge	a5,a0,13d16 <emdnorm+0x172>
   13bd0:	67a1                	lui	a5,0x8
   13bd2:	17f9                	addi	a5,a5,-2
   13bd4:	1b27d663          	bge	a5,s2,13d80 <emdnorm+0x1dc>
   13bd8:	180a8463          	beqz	s5,13d60 <emdnorm+0x1bc>
   13bdc:	40c8                	lw	a0,4(s1)
   13bde:	409c                	lw	a5,0(s1)
   13be0:	04a78d63          	beq	a5,a0,13c3a <emdnorm+0x96>
   13be4:	01a48713          	addi	a4,s1,26
   13be8:	03448793          	addi	a5,s1,52
   13bec:	0709                	addi	a4,a4,2
   13bee:	fe071f23          	sh	zero,-2(a4)
   13bf2:	fef71de3          	bne	a4,a5,13bec <emdnorm+0x48>
   13bf6:	03800793          	li	a5,56
   13bfa:	28f50b63          	beq	a0,a5,13e90 <emdnorm+0x2ec>
   13bfe:	12a7db63          	bge	a5,a0,13d34 <emdnorm+0x190>
   13c02:	04000793          	li	a5,64
   13c06:	24f50b63          	beq	a0,a5,13e5c <emdnorm+0x2b8>
   13c0a:	07100793          	li	a5,113
   13c0e:	26f51463          	bne	a0,a5,13e76 <emdnorm+0x2d2>
   13c12:	400087b7          	lui	a5,0x40008
   13c16:	17fd                	addi	a5,a5,-1
   13c18:	4729                	li	a4,10
   13c1a:	c8dc                	sw	a5,20(s1)
   13c1c:	77e1                	lui	a5,0xffff8
   13c1e:	c498                	sw	a4,8(s1)
   13c20:	00f49c23          	sh	a5,24(s1)
   13c24:	c4d8                	sw	a4,12(s1)
   13c26:	47a9                	li	a5,10
   13c28:	6721                	lui	a4,0x8
   13c2a:	07a1                	addi	a5,a5,8
   13c2c:	0786                	slli	a5,a5,0x1
   13c2e:	97a6                	add	a5,a5,s1
   13c30:	00e79523          	sh	a4,10(a5) # ffffffffffff800a <__BSS_END__+0xfffffffffffd74c2>
   13c34:	c088                	sw	a0,0(s1)
   13c36:	17205b63          	blez	s2,13dac <emdnorm+0x208>
   13c3a:	4494                	lw	a3,8(s1)
   13c3c:	0144d603          	lhu	a2,20(s1)
   13c40:	08f00713          	li	a4,143
   13c44:	00169793          	slli	a5,a3,0x1
   13c48:	00f40833          	add	a6,s0,a5
   13c4c:	00085883          	lhu	a7,0(a6) # ffffffffffff8000 <__BSS_END__+0xfffffffffffd74b8>
   13c50:	00c8f5b3          	and	a1,a7,a2
   13c54:	02a74e63          	blt	a4,a0,13c90 <emdnorm+0xec>
   13c58:	472d                	li	a4,11
   13c5a:	02d74b63          	blt	a4,a3,13c90 <emdnorm+0xec>
   13c5e:	9f15                	subw	a4,a4,a3
   13c60:	1702                	slli	a4,a4,0x20
   13c62:	9301                	srli	a4,a4,0x20
   13c64:	9736                	add	a4,a4,a3
   13c66:	00171693          	slli	a3,a4,0x1
   13c6a:	0789                	addi	a5,a5,2
   13c6c:	00440713          	addi	a4,s0,4
   13c70:	97a2                	add	a5,a5,s0
   13c72:	9736                	add	a4,a4,a3
   13c74:	0007d683          	lhu	a3,0(a5)
   13c78:	c299                	beqz	a3,13c7e <emdnorm+0xda>
   13c7a:	0015e593          	ori	a1,a1,1
   13c7e:	00079023          	sh	zero,0(a5)
   13c82:	0789                	addi	a5,a5,2
   13c84:	fef718e3          	bne	a4,a5,13c74 <emdnorm+0xd0>
   13c88:	00085883          	lhu	a7,0(a6)
   13c8c:	0144d603          	lhu	a2,20(s1)
   13c90:	fff64613          	not	a2,a2
   13c94:	01167633          	and	a2,a2,a7
   13c98:	00c81023          	sh	a2,0(a6)
   13c9c:	0164d783          	lhu	a5,22(s1)
   13ca0:	00b7f733          	and	a4,a5,a1
   13ca4:	c339                	beqz	a4,13cea <emdnorm+0x146>
   13ca6:	00b79d63          	bne	a5,a1,13cc0 <emdnorm+0x11c>
