
riscv-spike.elf:     file format elf32-littleriscv


Disassembly of section .text:

00000000 <boot>:
   0:	00002fb7          	lui	t6,0x2
   4:	800f8f93          	addi	t6,t6,-2048 # 1800 <__stack_init+0x900>
   8:	300f9073          	csrw	mstatus,t6
   c:	0340006f          	j	40 <_mstart>
  10:	00000013          	nop
  14:	00000013          	nop
  18:	00000013          	nop
  1c:	00000013          	nop
  20:	00000013          	nop
  24:	00000013          	nop
  28:	00000013          	nop
  2c:	00000013          	nop
  30:	00000013          	nop
  34:	00000013          	nop
  38:	00000013          	nop
  3c:	00000013          	nop

00000040 <_mstart>:
  40:	00000297          	auipc	t0,0x0
  44:	0b428293          	addi	t0,t0,180 # f4 <trap_entry>
  48:	30529073          	csrw	mtvec,t0
  4c:	00000093          	li	ra,0
  50:	00000113          	li	sp,0
  54:	00000193          	li	gp,0
  58:	00000213          	li	tp,0
  5c:	00000293          	li	t0,0
  60:	00000313          	li	t1,0
  64:	00000393          	li	t2,0
  68:	00000413          	li	s0,0
  6c:	00000493          	li	s1,0
  70:	00000513          	li	a0,0
  74:	00000593          	li	a1,0
  78:	00000613          	li	a2,0
  7c:	00000693          	li	a3,0
  80:	00000713          	li	a4,0
  84:	00000793          	li	a5,0
  88:	00000813          	li	a6,0
  8c:	00000893          	li	a7,0
  90:	00000913          	li	s2,0
  94:	00000993          	li	s3,0
  98:	00000a13          	li	s4,0
  9c:	00000a93          	li	s5,0
  a0:	00000b13          	li	s6,0
  a4:	00000b93          	li	s7,0
  a8:	00000c13          	li	s8,0
  ac:	00000c93          	li	s9,0
  b0:	00000d13          	li	s10,0
  b4:	00000d93          	li	s11,0
  b8:	00000e13          	li	t3,0
  bc:	00000e93          	li	t4,0
  c0:	00000f13          	li	t5,0
  c4:	00000f93          	li	t6,0
  c8:	00020197          	auipc	gp,0x20
  cc:	73818193          	addi	gp,gp,1848 # 20800 <__global_pointer$>
  d0:	00040117          	auipc	sp,0x40
  d4:	f2c10113          	addi	sp,sp,-212 # 3fffc <__stacktop>
  d8:	00000297          	auipc	t0,0x0
  dc:	01c28293          	addi	t0,t0,28 # f4 <trap_entry>
  e0:	00012503          	lw	a0,0(sp)
  e4:	00000613          	li	a2,0
  e8:	429000ef          	jal	ra,d10 <main>
  ec:	0000006f          	j	ec <_mstart+0xac>
  f0:	00008067          	ret

000000f4 <trap_entry>:
  f4:	1e50006f          	j	ad8 <ISR5>
  f8:	30200073          	mret
  fc:	1dd0006f          	j	ad8 <ISR5>
 100:	30200073          	mret
 104:	1d50006f          	j	ad8 <ISR5>
 108:	30200073          	mret
 10c:	1cd0006f          	j	ad8 <ISR5>
 110:	30200073          	mret
 114:	1c50006f          	j	ad8 <ISR5>
 118:	30200073          	mret
 11c:	2d90006f          	j	bf4 <ISR6>
 120:	30200073          	mret
	...

00000130 <UART_init>:
 130:	fd010113          	addi	sp,sp,-48
 134:	02812623          	sw	s0,44(sp)
 138:	03010413          	addi	s0,sp,48
 13c:	fca42e23          	sw	a0,-36(s0)
 140:	00058793          	mv	a5,a1
 144:	fcf40da3          	sb	a5,-37(s0)
 148:	fdc42703          	lw	a4,-36(s0)
 14c:	000097b7          	lui	a5,0x9
 150:	60078793          	addi	a5,a5,1536 # 9600 <__stack_init+0x8700>
 154:	00f71a63          	bne	a4,a5,168 <UART_init+0x38>
 158:	fe0407a3          	sb	zero,-17(s0)
 15c:	fa200793          	li	a5,-94
 160:	fef40723          	sb	a5,-18(s0)
 164:	1180006f          	j	27c <UART_init+0x14c>
 168:	fdc42703          	lw	a4,-36(s0)
 16c:	000027b7          	lui	a5,0x2
 170:	58078793          	addi	a5,a5,1408 # 2580 <__stack_init+0x1680>
 174:	00f71c63          	bne	a4,a5,18c <UART_init+0x5c>
 178:	00200793          	li	a5,2
 17c:	fef407a3          	sb	a5,-17(s0)
 180:	f8b00793          	li	a5,-117
 184:	fef40723          	sb	a5,-18(s0)
 188:	0f40006f          	j	27c <UART_init+0x14c>
 18c:	fdc42703          	lw	a4,-36(s0)
 190:	000057b7          	lui	a5,0x5
 194:	b0078793          	addi	a5,a5,-1280 # 4b00 <__stack_init+0x3c00>
 198:	00f71c63          	bne	a4,a5,1b0 <UART_init+0x80>
 19c:	00100793          	li	a5,1
 1a0:	fef407a3          	sb	a5,-17(s0)
 1a4:	04500793          	li	a5,69
 1a8:	fef40723          	sb	a5,-18(s0)
 1ac:	0d00006f          	j	27c <UART_init+0x14c>
 1b0:	fdc42703          	lw	a4,-36(s0)
 1b4:	0000e7b7          	lui	a5,0xe
 1b8:	10078793          	addi	a5,a5,256 # e100 <__stack_init+0xd200>
 1bc:	00f71a63          	bne	a4,a5,1d0 <UART_init+0xa0>
 1c0:	fe0407a3          	sb	zero,-17(s0)
 1c4:	03600793          	li	a5,54
 1c8:	fef40723          	sb	a5,-18(s0)
 1cc:	0b00006f          	j	27c <UART_init+0x14c>
 1d0:	fdc42703          	lw	a4,-36(s0)
 1d4:	0001c7b7          	lui	a5,0x1c
 1d8:	20078793          	addi	a5,a5,512 # 1c200 <__stack_init+0x1b300>
 1dc:	00f71a63          	bne	a4,a5,1f0 <UART_init+0xc0>
 1e0:	fe0407a3          	sb	zero,-17(s0)
 1e4:	01b00793          	li	a5,27
 1e8:	fef40723          	sb	a5,-18(s0)
 1ec:	0900006f          	j	27c <UART_init+0x14c>
 1f0:	fdc42703          	lw	a4,-36(s0)
 1f4:	000387b7          	lui	a5,0x38
 1f8:	40078793          	addi	a5,a5,1024 # 38400 <__global_pointer$+0x17c00>
 1fc:	00f71a63          	bne	a4,a5,210 <UART_init+0xe0>
 200:	fe0407a3          	sb	zero,-17(s0)
 204:	00e00793          	li	a5,14
 208:	fef40723          	sb	a5,-18(s0)
 20c:	0700006f          	j	27c <UART_init+0x14c>
 210:	fdc42703          	lw	a4,-36(s0)
 214:	000717b7          	lui	a5,0x71
 218:	80078793          	addi	a5,a5,-2048 # 70800 <__VMEM_END+0x2f800>
 21c:	00f71a63          	bne	a4,a5,230 <UART_init+0x100>
 220:	fe0407a3          	sb	zero,-17(s0)
 224:	00700793          	li	a5,7
 228:	fef40723          	sb	a5,-18(s0)
 22c:	0500006f          	j	27c <UART_init+0x14c>
 230:	fdc42703          	lw	a4,-36(s0)
 234:	0017d7b7          	lui	a5,0x17d
 238:	78478793          	addi	a5,a5,1924 # 17d784 <__VREG_END+0xfd784>
 23c:	00f71a63          	bne	a4,a5,250 <UART_init+0x120>
 240:	fe0407a3          	sb	zero,-17(s0)
 244:	00400793          	li	a5,4
 248:	fef40723          	sb	a5,-18(s0)
 24c:	0300006f          	j	27c <UART_init+0x14c>
 250:	fdc42703          	lw	a4,-36(s0)
 254:	000bf7b7          	lui	a5,0xbf
 258:	bc278793          	addi	a5,a5,-1086 # bebc2 <__VREG_END+0x3ebc2>
 25c:	00f71a63          	bne	a4,a5,270 <UART_init+0x140>
 260:	fe0407a3          	sb	zero,-17(s0)
 264:	00800793          	li	a5,8
 268:	fef40723          	sb	a5,-18(s0)
 26c:	0100006f          	j	27c <UART_init+0x14c>
 270:	fe0407a3          	sb	zero,-17(s0)
 274:	00100793          	li	a5,1
 278:	fef40723          	sb	a5,-18(s0)
 27c:	fdb44703          	lbu	a4,-37(s0)
 280:	00100793          	li	a5,1
 284:	00f71663          	bne	a4,a5,290 <UART_init+0x160>
 288:	fe0406a3          	sb	zero,-19(s0)
 28c:	03c0006f          	j	2c8 <UART_init+0x198>
 290:	fdb44703          	lbu	a4,-37(s0)
 294:	00400793          	li	a5,4
 298:	00f71863          	bne	a4,a5,2a8 <UART_init+0x178>
 29c:	04000793          	li	a5,64
 2a0:	fef406a3          	sb	a5,-19(s0)
 2a4:	0240006f          	j	2c8 <UART_init+0x198>
 2a8:	fdb44703          	lbu	a4,-37(s0)
 2ac:	00800793          	li	a5,8
 2b0:	00f71863          	bne	a4,a5,2c0 <UART_init+0x190>
 2b4:	f8000793          	li	a5,-128
 2b8:	fef406a3          	sb	a5,-19(s0)
 2bc:	00c0006f          	j	2c8 <UART_init+0x198>
 2c0:	fc000793          	li	a5,-64
 2c4:	fef406a3          	sb	a5,-19(s0)
 2c8:	5f1007b7          	lui	a5,0x5f100
 2cc:	6f478793          	addi	a5,a5,1780 # 5f1006f4 <__VREG_END+0x5f0806f4>
 2d0:	01300713          	li	a4,19
 2d4:	00e78023          	sb	a4,0(a5)
 2d8:	5f1007b7          	lui	a5,0x5f100
 2dc:	6f378793          	addi	a5,a5,1779 # 5f1006f3 <__VREG_END+0x5f0806f3>
 2e0:	04000713          	li	a4,64
 2e4:	00e78023          	sb	a4,0(a5)
 2e8:	5f1007b7          	lui	a5,0x5f100
 2ec:	6f178793          	addi	a5,a5,1777 # 5f1006f1 <__VREG_END+0x5f0806f1>
 2f0:	00100713          	li	a4,1
 2f4:	00e78023          	sb	a4,0(a5)
 2f8:	5f1007b7          	lui	a5,0x5f100
 2fc:	6f478793          	addi	a5,a5,1780 # 5f1006f4 <__VREG_END+0x5f0806f4>
 300:	f9300713          	li	a4,-109
 304:	00e78023          	sb	a4,0(a5)
 308:	5f1007b7          	lui	a5,0x5f100
 30c:	6f178793          	addi	a5,a5,1777 # 5f1006f1 <__VREG_END+0x5f0806f1>
 310:	fef44703          	lbu	a4,-17(s0)
 314:	00e78023          	sb	a4,0(a5)
 318:	5f1007b7          	lui	a5,0x5f100
 31c:	6f078793          	addi	a5,a5,1776 # 5f1006f0 <__VREG_END+0x5f0806f0>
 320:	fee44703          	lbu	a4,-18(s0)
 324:	00e78023          	sb	a4,0(a5)
 328:	5f1007b7          	lui	a5,0x5f100
 32c:	6f478793          	addi	a5,a5,1780 # 5f1006f4 <__VREG_END+0x5f0806f4>
 330:	01300713          	li	a4,19
 334:	00e78023          	sb	a4,0(a5)
 338:	5f1007b7          	lui	a5,0x5f100
 33c:	6f378793          	addi	a5,a5,1779 # 5f1006f3 <__VREG_END+0x5f0806f3>
 340:	fed44703          	lbu	a4,-19(s0)
 344:	00e78023          	sb	a4,0(a5)
 348:	00000013          	nop
 34c:	02c12403          	lw	s0,44(sp)
 350:	03010113          	addi	sp,sp,48
 354:	00008067          	ret

00000358 <UARTCharPut>:
 358:	fe010113          	addi	sp,sp,-32
 35c:	00812e23          	sw	s0,28(sp)
 360:	02010413          	addi	s0,sp,32
 364:	00050793          	mv	a5,a0
 368:	fef407a3          	sb	a5,-17(s0)
 36c:	00000013          	nop
 370:	5f1007b7          	lui	a5,0x5f100
 374:	6f678793          	addi	a5,a5,1782 # 5f1006f6 <__VREG_END+0x5f0806f6>
 378:	0007c783          	lbu	a5,0(a5)
 37c:	0ff7f793          	andi	a5,a5,255
 380:	0207f793          	andi	a5,a5,32
 384:	0ff7f793          	andi	a5,a5,255
 388:	fe0784e3          	beqz	a5,370 <UARTCharPut+0x18>
 38c:	5f1007b7          	lui	a5,0x5f100
 390:	6f078793          	addi	a5,a5,1776 # 5f1006f0 <__VREG_END+0x5f0806f0>
 394:	fef44703          	lbu	a4,-17(s0)
 398:	00e78023          	sb	a4,0(a5)
 39c:	00000013          	nop
 3a0:	01c12403          	lw	s0,28(sp)
 3a4:	02010113          	addi	sp,sp,32
 3a8:	00008067          	ret

000003ac <UART_string>:
 3ac:	fe010113          	addi	sp,sp,-32
 3b0:	00112e23          	sw	ra,28(sp)
 3b4:	00812c23          	sw	s0,24(sp)
 3b8:	02010413          	addi	s0,sp,32
 3bc:	fea42623          	sw	a0,-20(s0)
 3c0:	01c0006f          	j	3dc <UART_string+0x30>
 3c4:	fec42783          	lw	a5,-20(s0)
 3c8:	00178713          	addi	a4,a5,1
 3cc:	fee42623          	sw	a4,-20(s0)
 3d0:	0007c783          	lbu	a5,0(a5)
 3d4:	00078513          	mv	a0,a5
 3d8:	f81ff0ef          	jal	ra,358 <UARTCharPut>
 3dc:	fec42783          	lw	a5,-20(s0)
 3e0:	0007c783          	lbu	a5,0(a5)
 3e4:	fe0790e3          	bnez	a5,3c4 <UART_string+0x18>
 3e8:	00000013          	nop
 3ec:	00000013          	nop
 3f0:	01c12083          	lw	ra,28(sp)
 3f4:	01812403          	lw	s0,24(sp)
 3f8:	02010113          	addi	sp,sp,32
 3fc:	00008067          	ret

00000400 <UART_newline>:
 400:	ff010113          	addi	sp,sp,-16
 404:	00112623          	sw	ra,12(sp)
 408:	00812423          	sw	s0,8(sp)
 40c:	01010413          	addi	s0,sp,16
 410:	00a00513          	li	a0,10
 414:	f45ff0ef          	jal	ra,358 <UARTCharPut>
 418:	00d00513          	li	a0,13
 41c:	f3dff0ef          	jal	ra,358 <UARTCharPut>
 420:	00000013          	nop
 424:	00c12083          	lw	ra,12(sp)
 428:	00812403          	lw	s0,8(sp)
 42c:	01010113          	addi	sp,sp,16
 430:	00008067          	ret

00000434 <UART_Htab>:
 434:	ff010113          	addi	sp,sp,-16
 438:	00112623          	sw	ra,12(sp)
 43c:	00812423          	sw	s0,8(sp)
 440:	01010413          	addi	s0,sp,16
 444:	00900513          	li	a0,9
 448:	f11ff0ef          	jal	ra,358 <UARTCharPut>
 44c:	00000013          	nop
 450:	00c12083          	lw	ra,12(sp)
 454:	00812403          	lw	s0,8(sp)
 458:	01010113          	addi	sp,sp,16
 45c:	00008067          	ret

00000460 <UARTwrite>:
 460:	fd010113          	addi	sp,sp,-48
 464:	02112623          	sw	ra,44(sp)
 468:	02812423          	sw	s0,40(sp)
 46c:	03010413          	addi	s0,sp,48
 470:	fca42e23          	sw	a0,-36(s0)
 474:	fcb42c23          	sw	a1,-40(s0)
 478:	fe042623          	sw	zero,-20(s0)
 47c:	0480006f          	j	4c4 <UARTwrite+0x64>
 480:	fdc42703          	lw	a4,-36(s0)
 484:	fec42783          	lw	a5,-20(s0)
 488:	00f707b3          	add	a5,a4,a5
 48c:	0007c703          	lbu	a4,0(a5)
 490:	00a00793          	li	a5,10
 494:	00f71663          	bne	a4,a5,4a0 <UARTwrite+0x40>
 498:	00d00513          	li	a0,13
 49c:	ebdff0ef          	jal	ra,358 <UARTCharPut>
 4a0:	fdc42703          	lw	a4,-36(s0)
 4a4:	fec42783          	lw	a5,-20(s0)
 4a8:	00f707b3          	add	a5,a4,a5
 4ac:	0007c783          	lbu	a5,0(a5)
 4b0:	00078513          	mv	a0,a5
 4b4:	ea5ff0ef          	jal	ra,358 <UARTCharPut>
 4b8:	fec42783          	lw	a5,-20(s0)
 4bc:	00178793          	addi	a5,a5,1
 4c0:	fef42623          	sw	a5,-20(s0)
 4c4:	fec42703          	lw	a4,-20(s0)
 4c8:	fd842783          	lw	a5,-40(s0)
 4cc:	faf76ae3          	bltu	a4,a5,480 <UARTwrite+0x20>
 4d0:	fec42783          	lw	a5,-20(s0)
 4d4:	00078513          	mv	a0,a5
 4d8:	02c12083          	lw	ra,44(sp)
 4dc:	02812403          	lw	s0,40(sp)
 4e0:	03010113          	addi	sp,sp,48
 4e4:	00008067          	ret

000004e8 <UARTvprintf>:
 4e8:	fa010113          	addi	sp,sp,-96
 4ec:	04112e23          	sw	ra,92(sp)
 4f0:	04812c23          	sw	s0,88(sp)
 4f4:	06010413          	addi	s0,sp,96
 4f8:	faa42623          	sw	a0,-84(s0)
 4fc:	fab42423          	sw	a1,-88(s0)
 500:	4440006f          	j	944 <UARTvprintf+0x45c>
 504:	fe042623          	sw	zero,-20(s0)
 508:	0100006f          	j	518 <UARTvprintf+0x30>
 50c:	fec42783          	lw	a5,-20(s0)
 510:	00178793          	addi	a5,a5,1
 514:	fef42623          	sw	a5,-20(s0)
 518:	fac42703          	lw	a4,-84(s0)
 51c:	fec42783          	lw	a5,-20(s0)
 520:	00f707b3          	add	a5,a4,a5
 524:	0007c703          	lbu	a4,0(a5)
 528:	02500793          	li	a5,37
 52c:	00f70c63          	beq	a4,a5,544 <UARTvprintf+0x5c>
 530:	fac42703          	lw	a4,-84(s0)
 534:	fec42783          	lw	a5,-20(s0)
 538:	00f707b3          	add	a5,a4,a5
 53c:	0007c783          	lbu	a5,0(a5)
 540:	fc0796e3          	bnez	a5,50c <UARTvprintf+0x24>
 544:	fec42583          	lw	a1,-20(s0)
 548:	fac42503          	lw	a0,-84(s0)
 54c:	f15ff0ef          	jal	ra,460 <UARTwrite>
 550:	fac42703          	lw	a4,-84(s0)
 554:	fec42783          	lw	a5,-20(s0)
 558:	00f707b3          	add	a5,a4,a5
 55c:	faf42623          	sw	a5,-84(s0)
 560:	fac42783          	lw	a5,-84(s0)
 564:	0007c703          	lbu	a4,0(a5)
 568:	02500793          	li	a5,37
 56c:	3cf71a63          	bne	a4,a5,940 <UARTvprintf+0x458>
 570:	fac42783          	lw	a5,-84(s0)
 574:	00178793          	addi	a5,a5,1
 578:	faf42623          	sw	a5,-84(s0)
 57c:	fe042223          	sw	zero,-28(s0)
 580:	02000793          	li	a5,32
 584:	fcf40da3          	sb	a5,-37(s0)
 588:	fac42783          	lw	a5,-84(s0)
 58c:	00178713          	addi	a4,a5,1
 590:	fae42623          	sw	a4,-84(s0)
 594:	0007c783          	lbu	a5,0(a5)
 598:	fdb78793          	addi	a5,a5,-37
 59c:	05300713          	li	a4,83
 5a0:	38f76663          	bltu	a4,a5,92c <UARTvprintf+0x444>
 5a4:	00279713          	slli	a4,a5,0x2
 5a8:	000017b7          	lui	a5,0x1
 5ac:	f2478793          	addi	a5,a5,-220 # f24 <__stack_init+0x24>
 5b0:	00f707b3          	add	a5,a4,a5
 5b4:	0007a783          	lw	a5,0(a5)
 5b8:	00078067          	jr	a5
 5bc:	fac42783          	lw	a5,-84(s0)
 5c0:	fff78793          	addi	a5,a5,-1
 5c4:	0007c703          	lbu	a4,0(a5)
 5c8:	03000793          	li	a5,48
 5cc:	00f71a63          	bne	a4,a5,5e0 <UARTvprintf+0xf8>
 5d0:	fe442783          	lw	a5,-28(s0)
 5d4:	00079663          	bnez	a5,5e0 <UARTvprintf+0xf8>
 5d8:	03000793          	li	a5,48
 5dc:	fcf40da3          	sb	a5,-37(s0)
 5e0:	fe442703          	lw	a4,-28(s0)
 5e4:	00070793          	mv	a5,a4
 5e8:	00279793          	slli	a5,a5,0x2
 5ec:	00e787b3          	add	a5,a5,a4
 5f0:	00179793          	slli	a5,a5,0x1
 5f4:	fef42223          	sw	a5,-28(s0)
 5f8:	fac42783          	lw	a5,-84(s0)
 5fc:	fff78793          	addi	a5,a5,-1
 600:	0007c783          	lbu	a5,0(a5)
 604:	00078713          	mv	a4,a5
 608:	fe442783          	lw	a5,-28(s0)
 60c:	00f707b3          	add	a5,a4,a5
 610:	fd078793          	addi	a5,a5,-48
 614:	fef42223          	sw	a5,-28(s0)
 618:	f71ff06f          	j	588 <UARTvprintf+0xa0>
 61c:	fa842783          	lw	a5,-88(s0)
 620:	00478713          	addi	a4,a5,4
 624:	fae42423          	sw	a4,-88(s0)
 628:	0007a783          	lw	a5,0(a5)
 62c:	fcf42223          	sw	a5,-60(s0)
 630:	fc440793          	addi	a5,s0,-60
 634:	00100593          	li	a1,1
 638:	00078513          	mv	a0,a5
 63c:	e25ff0ef          	jal	ra,460 <UARTwrite>
 640:	3040006f          	j	944 <UARTvprintf+0x45c>
 644:	fa842783          	lw	a5,-88(s0)
 648:	00478713          	addi	a4,a5,4
 64c:	fae42423          	sw	a4,-88(s0)
 650:	0007a783          	lw	a5,0(a5)
 654:	fcf42223          	sw	a5,-60(s0)
 658:	fe042423          	sw	zero,-24(s0)
 65c:	fc442783          	lw	a5,-60(s0)
 660:	0007de63          	bgez	a5,67c <UARTvprintf+0x194>
 664:	fc442783          	lw	a5,-60(s0)
 668:	40f007b3          	neg	a5,a5
 66c:	fcf42223          	sw	a5,-60(s0)
 670:	00100793          	li	a5,1
 674:	fcf42e23          	sw	a5,-36(s0)
 678:	0080006f          	j	680 <UARTvprintf+0x198>
 67c:	fc042e23          	sw	zero,-36(s0)
 680:	00a00793          	li	a5,10
 684:	fef42023          	sw	a5,-32(s0)
 688:	1040006f          	j	78c <UARTvprintf+0x2a4>
 68c:	fa842783          	lw	a5,-88(s0)
 690:	00778793          	addi	a5,a5,7
 694:	ff87f793          	andi	a5,a5,-8
 698:	00878713          	addi	a4,a5,8
 69c:	fae42423          	sw	a4,-88(s0)
 6a0:	0007a703          	lw	a4,0(a5)
 6a4:	0047a783          	lw	a5,4(a5)
 6a8:	fce42423          	sw	a4,-56(s0)
 6ac:	fcf42623          	sw	a5,-52(s0)
 6b0:	2940006f          	j	944 <UARTvprintf+0x45c>
 6b4:	fa842783          	lw	a5,-88(s0)
 6b8:	00478713          	addi	a4,a5,4
 6bc:	fae42423          	sw	a4,-88(s0)
 6c0:	0007a783          	lw	a5,0(a5)
 6c4:	fcf42a23          	sw	a5,-44(s0)
 6c8:	fe042623          	sw	zero,-20(s0)
 6cc:	0100006f          	j	6dc <UARTvprintf+0x1f4>
 6d0:	fec42783          	lw	a5,-20(s0)
 6d4:	00178793          	addi	a5,a5,1
 6d8:	fef42623          	sw	a5,-20(s0)
 6dc:	fd442703          	lw	a4,-44(s0)
 6e0:	fec42783          	lw	a5,-20(s0)
 6e4:	00f707b3          	add	a5,a4,a5
 6e8:	0007c783          	lbu	a5,0(a5)
 6ec:	fe0792e3          	bnez	a5,6d0 <UARTvprintf+0x1e8>
 6f0:	fec42583          	lw	a1,-20(s0)
 6f4:	fd442503          	lw	a0,-44(s0)
 6f8:	d69ff0ef          	jal	ra,460 <UARTwrite>
 6fc:	fe442703          	lw	a4,-28(s0)
 700:	fec42783          	lw	a5,-20(s0)
 704:	24e7f063          	bgeu	a5,a4,944 <UARTvprintf+0x45c>
 708:	fe442703          	lw	a4,-28(s0)
 70c:	fec42783          	lw	a5,-20(s0)
 710:	40f707b3          	sub	a5,a4,a5
 714:	fef42223          	sw	a5,-28(s0)
 718:	0140006f          	j	72c <UARTvprintf+0x244>
 71c:	00100593          	li	a1,1
 720:	000017b7          	lui	a5,0x1
 724:	f1878513          	addi	a0,a5,-232 # f18 <__stack_init+0x18>
 728:	d39ff0ef          	jal	ra,460 <UARTwrite>
 72c:	fe442783          	lw	a5,-28(s0)
 730:	fff78713          	addi	a4,a5,-1
 734:	fee42223          	sw	a4,-28(s0)
 738:	fe0792e3          	bnez	a5,71c <UARTvprintf+0x234>
 73c:	2080006f          	j	944 <UARTvprintf+0x45c>
 740:	fa842783          	lw	a5,-88(s0)
 744:	00478713          	addi	a4,a5,4
 748:	fae42423          	sw	a4,-88(s0)
 74c:	0007a783          	lw	a5,0(a5)
 750:	fcf42223          	sw	a5,-60(s0)
 754:	fe042423          	sw	zero,-24(s0)
 758:	00a00793          	li	a5,10
 75c:	fef42023          	sw	a5,-32(s0)
 760:	fc042e23          	sw	zero,-36(s0)
 764:	0280006f          	j	78c <UARTvprintf+0x2a4>
 768:	fa842783          	lw	a5,-88(s0)
 76c:	00478713          	addi	a4,a5,4
 770:	fae42423          	sw	a4,-88(s0)
 774:	0007a783          	lw	a5,0(a5)
 778:	fcf42223          	sw	a5,-60(s0)
 77c:	fe042423          	sw	zero,-24(s0)
 780:	01000793          	li	a5,16
 784:	fef42023          	sw	a5,-32(s0)
 788:	fc042e23          	sw	zero,-36(s0)
 78c:	00100793          	li	a5,1
 790:	fef42623          	sw	a5,-20(s0)
 794:	0200006f          	j	7b4 <UARTvprintf+0x2cc>
 798:	fec42703          	lw	a4,-20(s0)
 79c:	fe042783          	lw	a5,-32(s0)
 7a0:	02f707b3          	mul	a5,a4,a5
 7a4:	fef42623          	sw	a5,-20(s0)
 7a8:	fe442783          	lw	a5,-28(s0)
 7ac:	fff78793          	addi	a5,a5,-1
 7b0:	fef42223          	sw	a5,-28(s0)
 7b4:	fec42703          	lw	a4,-20(s0)
 7b8:	fe042783          	lw	a5,-32(s0)
 7bc:	02f70733          	mul	a4,a4,a5
 7c0:	fc442783          	lw	a5,-60(s0)
 7c4:	02e7e063          	bltu	a5,a4,7e4 <UARTvprintf+0x2fc>
 7c8:	fec42703          	lw	a4,-20(s0)
 7cc:	fe042783          	lw	a5,-32(s0)
 7d0:	02f70733          	mul	a4,a4,a5
 7d4:	fe042783          	lw	a5,-32(s0)
 7d8:	02f757b3          	divu	a5,a4,a5
 7dc:	fec42703          	lw	a4,-20(s0)
 7e0:	faf70ce3          	beq	a4,a5,798 <UARTvprintf+0x2b0>
 7e4:	fdc42783          	lw	a5,-36(s0)
 7e8:	00078863          	beqz	a5,7f8 <UARTvprintf+0x310>
 7ec:	fe442783          	lw	a5,-28(s0)
 7f0:	fff78793          	addi	a5,a5,-1
 7f4:	fef42223          	sw	a5,-28(s0)
 7f8:	fdc42783          	lw	a5,-36(s0)
 7fc:	02078863          	beqz	a5,82c <UARTvprintf+0x344>
 800:	fdb44703          	lbu	a4,-37(s0)
 804:	03000793          	li	a5,48
 808:	02f71263          	bne	a4,a5,82c <UARTvprintf+0x344>
 80c:	fe842783          	lw	a5,-24(s0)
 810:	00178713          	addi	a4,a5,1
 814:	fee42423          	sw	a4,-24(s0)
 818:	ff040713          	addi	a4,s0,-16
 81c:	00f707b3          	add	a5,a4,a5
 820:	02d00713          	li	a4,45
 824:	fce78223          	sb	a4,-60(a5)
 828:	fc042e23          	sw	zero,-36(s0)
 82c:	fe442703          	lw	a4,-28(s0)
 830:	00100793          	li	a5,1
 834:	04e7f863          	bgeu	a5,a4,884 <UARTvprintf+0x39c>
 838:	fe442703          	lw	a4,-28(s0)
 83c:	00f00793          	li	a5,15
 840:	04e7e263          	bltu	a5,a4,884 <UARTvprintf+0x39c>
 844:	fe442783          	lw	a5,-28(s0)
 848:	fff78793          	addi	a5,a5,-1
 84c:	fef42223          	sw	a5,-28(s0)
 850:	02c0006f          	j	87c <UARTvprintf+0x394>
 854:	fe842783          	lw	a5,-24(s0)
 858:	00178713          	addi	a4,a5,1
 85c:	fee42423          	sw	a4,-24(s0)
 860:	ff040713          	addi	a4,s0,-16
 864:	00f707b3          	add	a5,a4,a5
 868:	fdb44703          	lbu	a4,-37(s0)
 86c:	fce78223          	sb	a4,-60(a5)
 870:	fe442783          	lw	a5,-28(s0)
 874:	fff78793          	addi	a5,a5,-1
 878:	fef42223          	sw	a5,-28(s0)
 87c:	fe442783          	lw	a5,-28(s0)
 880:	fc079ae3          	bnez	a5,854 <UARTvprintf+0x36c>
 884:	fdc42783          	lw	a5,-36(s0)
 888:	06078863          	beqz	a5,8f8 <UARTvprintf+0x410>
 88c:	fe842783          	lw	a5,-24(s0)
 890:	00178713          	addi	a4,a5,1
 894:	fee42423          	sw	a4,-24(s0)
 898:	ff040713          	addi	a4,s0,-16
 89c:	00f707b3          	add	a5,a4,a5
 8a0:	02d00713          	li	a4,45
 8a4:	fce78223          	sb	a4,-60(a5)
 8a8:	0500006f          	j	8f8 <UARTvprintf+0x410>
 8ac:	000017b7          	lui	a5,0x1
 8b0:	f0478713          	addi	a4,a5,-252 # f04 <__stack_init+0x4>
 8b4:	fc442683          	lw	a3,-60(s0)
 8b8:	fec42783          	lw	a5,-20(s0)
 8bc:	02f6d6b3          	divu	a3,a3,a5
 8c0:	fe042783          	lw	a5,-32(s0)
 8c4:	02f6f7b3          	remu	a5,a3,a5
 8c8:	00f70733          	add	a4,a4,a5
 8cc:	fe842783          	lw	a5,-24(s0)
 8d0:	00178693          	addi	a3,a5,1
 8d4:	fed42423          	sw	a3,-24(s0)
 8d8:	00074703          	lbu	a4,0(a4)
 8dc:	ff040693          	addi	a3,s0,-16
 8e0:	00f687b3          	add	a5,a3,a5
 8e4:	fce78223          	sb	a4,-60(a5)
 8e8:	fec42703          	lw	a4,-20(s0)
 8ec:	fe042783          	lw	a5,-32(s0)
 8f0:	02f757b3          	divu	a5,a4,a5
 8f4:	fef42623          	sw	a5,-20(s0)
 8f8:	fec42783          	lw	a5,-20(s0)
 8fc:	fa0798e3          	bnez	a5,8ac <UARTvprintf+0x3c4>
 900:	fb440793          	addi	a5,s0,-76
 904:	fe842583          	lw	a1,-24(s0)
 908:	00078513          	mv	a0,a5
 90c:	b55ff0ef          	jal	ra,460 <UARTwrite>
 910:	0340006f          	j	944 <UARTvprintf+0x45c>
 914:	fac42783          	lw	a5,-84(s0)
 918:	fff78793          	addi	a5,a5,-1
 91c:	00100593          	li	a1,1
 920:	00078513          	mv	a0,a5
 924:	b3dff0ef          	jal	ra,460 <UARTwrite>
 928:	01c0006f          	j	944 <UARTvprintf+0x45c>
 92c:	00500593          	li	a1,5
 930:	000017b7          	lui	a5,0x1
 934:	f1c78513          	addi	a0,a5,-228 # f1c <__stack_init+0x1c>
 938:	b29ff0ef          	jal	ra,460 <UARTwrite>
 93c:	0080006f          	j	944 <UARTvprintf+0x45c>
 940:	00000013          	nop
 944:	fac42783          	lw	a5,-84(s0)
 948:	0007c783          	lbu	a5,0(a5)
 94c:	ba079ce3          	bnez	a5,504 <UARTvprintf+0x1c>
 950:	00000013          	nop
 954:	00000013          	nop
 958:	05c12083          	lw	ra,92(sp)
 95c:	05812403          	lw	s0,88(sp)
 960:	06010113          	addi	sp,sp,96
 964:	00008067          	ret

00000968 <UARTprintf>:
 968:	fb010113          	addi	sp,sp,-80
 96c:	02112623          	sw	ra,44(sp)
 970:	02812423          	sw	s0,40(sp)
 974:	03010413          	addi	s0,sp,48
 978:	fca42e23          	sw	a0,-36(s0)
 97c:	00b42223          	sw	a1,4(s0)
 980:	00c42423          	sw	a2,8(s0)
 984:	00d42623          	sw	a3,12(s0)
 988:	00e42823          	sw	a4,16(s0)
 98c:	00f42a23          	sw	a5,20(s0)
 990:	01042c23          	sw	a6,24(s0)
 994:	01142e23          	sw	a7,28(s0)
 998:	02040793          	addi	a5,s0,32
 99c:	fcf42c23          	sw	a5,-40(s0)
 9a0:	fd842783          	lw	a5,-40(s0)
 9a4:	fe478793          	addi	a5,a5,-28
 9a8:	fef42623          	sw	a5,-20(s0)
 9ac:	fec42783          	lw	a5,-20(s0)
 9b0:	00078593          	mv	a1,a5
 9b4:	fdc42503          	lw	a0,-36(s0)
 9b8:	b31ff0ef          	jal	ra,4e8 <UARTvprintf>
 9bc:	00000013          	nop
 9c0:	02c12083          	lw	ra,44(sp)
 9c4:	02812403          	lw	s0,40(sp)
 9c8:	05010113          	addi	sp,sp,80
 9cc:	00008067          	ret

000009d0 <mlp32>:
 9d0:	fd010113          	addi	sp,sp,-48
 9d4:	00812023          	sw	s0,0(sp)
 9d8:	00912223          	sw	s1,4(sp)
 9dc:	01212423          	sw	s2,8(sp)
 9e0:	01312623          	sw	s3,12(sp)
 9e4:	01412823          	sw	s4,16(sp)
 9e8:	01512a23          	sw	s5,20(sp)
 9ec:	01612c23          	sw	s6,24(sp)
 9f0:	01712e23          	sw	s7,28(sp)
 9f4:	03812023          	sw	s8,32(sp)
 9f8:	03912223          	sw	s9,36(sp)
 9fc:	03a12423          	sw	s10,40(sp)
 a00:	03b12623          	sw	s11,44(sp)
 a04:	02000313          	li	t1,32
 a08:	01237e57          	vsetvli	t3,t1,e32,m4,tu,mu
 a0c:	00400313          	li	t1,4
 a10:	0026d813          	srli	a6,a3,0x2
 a14:	00300293          	li	t0,3
 a18:	00a2b073          	csrc	vxrm,t0
 a1c:	96006057          	vmul.vx	v0,v0,zero
 a20:	96406257          	vmul.vx	v4,v4,zero
 a24:	96806457          	vmul.vx	v8,v8,zero
 a28:	96c06657          	vmul.vx	v12,v12,zero
 a2c:	97006857          	vmul.vx	v16,v16,zero
 a30:	97406a57          	vmul.vx	v20,v20,zero
 a34:	97806c57          	vmul.vx	v24,v24,zero
 a38:	97c06e57          	vmul.vx	v28,v28,zero
 a3c:	00000293          	li	t0,0
 a40:	02e303b3          	mul	t2,t1,a4
 a44:	02630e33          	mul	t3,t1,t1

00000a48 <OUTER_LOOP>:
 a48:	0005a483          	lw	s1,0(a1)
 a4c:	0045a903          	lw	s2,4(a1)
 a50:	0085a983          	lw	s3,8(a1)
 a54:	00c5aa03          	lw	s4,12(a1)
 a58:	00760ab3          	add	s5,a2,t2
 a5c:	007a8b33          	add	s6,s5,t2
 a60:	007b0bb3          	add	s7,s6,t2
 a64:	02066207          	vle32.v	v4,(a2)
 a68:	020ae407          	vle32.v	v8,(s5)
 a6c:	020b6607          	vle32.v	v12,(s6)
 a70:	020be807          	vle32.v	v16,(s7)
 a74:	b644ea57          	vmacc.vx	v20,s1,v4
 a78:	b6896a57          	vmacc.vx	v20,s2,v8
 a7c:	b6c9ea57          	vmacc.vx	v20,s3,v12
 a80:	b70a6a57          	vmacc.vx	v20,s4,v16
 a84:	00128293          	addi	t0,t0,1
 a88:	01c585b3          	add	a1,a1,t3
 a8c:	007b8633          	add	a2,s7,t2
 a90:	fb029ce3          	bne	t0,a6,a48 <OUTER_LOOP>
 a94:	00000013          	nop
 a98:	00000013          	nop
 a9c:	00000013          	nop
 aa0:	00012403          	lw	s0,0(sp)
 aa4:	00412483          	lw	s1,4(sp)
 aa8:	00812903          	lw	s2,8(sp)
 aac:	00c12983          	lw	s3,12(sp)
 ab0:	01012a03          	lw	s4,16(sp)
 ab4:	01412a83          	lw	s5,20(sp)
 ab8:	01812b03          	lw	s6,24(sp)
 abc:	01c12b83          	lw	s7,28(sp)
 ac0:	02012c03          	lw	s8,32(sp)
 ac4:	02412c83          	lw	s9,36(sp)
 ac8:	02812d03          	lw	s10,40(sp)
 acc:	02c12d83          	lw	s11,44(sp)
 ad0:	03010113          	addi	sp,sp,48
 ad4:	00008067          	ret

00000ad8 <ISR5>:
 ad8:	30047073          	csrci	mstatus,8
 adc:	e8010113          	addi	sp,sp,-384
 ae0:	10112023          	sw	ra,256(sp)
 ae4:	10212223          	sw	sp,260(sp)
 ae8:	10312423          	sw	gp,264(sp)
 aec:	10412623          	sw	tp,268(sp)
 af0:	10512823          	sw	t0,272(sp)
 af4:	10612a23          	sw	t1,276(sp)
 af8:	10712c23          	sw	t2,280(sp)
 afc:	10812e23          	sw	s0,284(sp)
 b00:	12912023          	sw	s1,288(sp)
 b04:	12a12223          	sw	a0,292(sp)
 b08:	12b12423          	sw	a1,296(sp)
 b0c:	12c12623          	sw	a2,300(sp)
 b10:	12d12823          	sw	a3,304(sp)
 b14:	12e12a23          	sw	a4,308(sp)
 b18:	12f12c23          	sw	a5,312(sp)
 b1c:	13012e23          	sw	a6,316(sp)
 b20:	15112023          	sw	a7,320(sp)
 b24:	15212223          	sw	s2,324(sp)
 b28:	15312423          	sw	s3,328(sp)
 b2c:	15412623          	sw	s4,332(sp)
 b30:	15512823          	sw	s5,336(sp)
 b34:	15612a23          	sw	s6,340(sp)
 b38:	15712c23          	sw	s7,344(sp)
 b3c:	15812e23          	sw	s8,348(sp)
 b40:	17912023          	sw	s9,352(sp)
 b44:	17a12223          	sw	s10,356(sp)
 b48:	17b12423          	sw	s11,360(sp)
 b4c:	17c12623          	sw	t3,364(sp)
 b50:	17d12823          	sw	t4,368(sp)
 b54:	17e12a23          	sw	t5,372(sp)
 b58:	17f12c23          	sw	t6,376(sp)
 b5c:	341022f3          	csrr	t0,mepc
 b60:	16512e23          	sw	t0,380(sp)
 b64:	200000ef          	jal	ra,d64 <ISR5_uart>
 b68:	30047073          	csrci	mstatus,8
 b6c:	17c12283          	lw	t0,380(sp)
 b70:	34129073          	csrw	mepc,t0
 b74:	10012083          	lw	ra,256(sp)
 b78:	10c12203          	lw	tp,268(sp)
 b7c:	11012283          	lw	t0,272(sp)
 b80:	11412303          	lw	t1,276(sp)
 b84:	11812383          	lw	t2,280(sp)
 b88:	11c12403          	lw	s0,284(sp)
 b8c:	12012483          	lw	s1,288(sp)
 b90:	12412503          	lw	a0,292(sp)
 b94:	12812583          	lw	a1,296(sp)
 b98:	12c12603          	lw	a2,300(sp)
 b9c:	13012683          	lw	a3,304(sp)
 ba0:	13412703          	lw	a4,308(sp)
 ba4:	13812783          	lw	a5,312(sp)
 ba8:	13c12803          	lw	a6,316(sp)
 bac:	14012883          	lw	a7,320(sp)
 bb0:	14412903          	lw	s2,324(sp)
 bb4:	14812983          	lw	s3,328(sp)
 bb8:	14c12a03          	lw	s4,332(sp)
 bbc:	15012a83          	lw	s5,336(sp)
 bc0:	15412b03          	lw	s6,340(sp)
 bc4:	15812b83          	lw	s7,344(sp)
 bc8:	15c12c03          	lw	s8,348(sp)
 bcc:	16012c83          	lw	s9,352(sp)
 bd0:	16412d03          	lw	s10,356(sp)
 bd4:	16812d83          	lw	s11,360(sp)
 bd8:	16c12e03          	lw	t3,364(sp)
 bdc:	17012e83          	lw	t4,368(sp)
 be0:	17412f03          	lw	t5,372(sp)
 be4:	17812f83          	lw	t6,376(sp)
 be8:	18010113          	addi	sp,sp,384
 bec:	30046073          	csrsi	mstatus,8
 bf0:	30200073          	mret

00000bf4 <ISR6>:
 bf4:	30047073          	csrci	mstatus,8
 bf8:	e8010113          	addi	sp,sp,-384
 bfc:	10112023          	sw	ra,256(sp)
 c00:	10212223          	sw	sp,260(sp)
 c04:	10312423          	sw	gp,264(sp)
 c08:	10412623          	sw	tp,268(sp)
 c0c:	10512823          	sw	t0,272(sp)
 c10:	10612a23          	sw	t1,276(sp)
 c14:	10712c23          	sw	t2,280(sp)
 c18:	10812e23          	sw	s0,284(sp)
 c1c:	12912023          	sw	s1,288(sp)
 c20:	12a12223          	sw	a0,292(sp)
 c24:	12b12423          	sw	a1,296(sp)
 c28:	12c12623          	sw	a2,300(sp)
 c2c:	12d12823          	sw	a3,304(sp)
 c30:	12e12a23          	sw	a4,308(sp)
 c34:	12f12c23          	sw	a5,312(sp)
 c38:	13012e23          	sw	a6,316(sp)
 c3c:	15112023          	sw	a7,320(sp)
 c40:	15212223          	sw	s2,324(sp)
 c44:	15312423          	sw	s3,328(sp)
 c48:	15412623          	sw	s4,332(sp)
 c4c:	15512823          	sw	s5,336(sp)
 c50:	15612a23          	sw	s6,340(sp)
 c54:	15712c23          	sw	s7,344(sp)
 c58:	15812e23          	sw	s8,348(sp)
 c5c:	17912023          	sw	s9,352(sp)
 c60:	17a12223          	sw	s10,356(sp)
 c64:	17b12423          	sw	s11,360(sp)
 c68:	17c12623          	sw	t3,364(sp)
 c6c:	17d12823          	sw	t4,368(sp)
 c70:	17e12a23          	sw	t5,372(sp)
 c74:	17f12c23          	sw	t6,376(sp)
 c78:	341022f3          	csrr	t0,mepc
 c7c:	16512e23          	sw	t0,380(sp)
 c80:	264000ef          	jal	ra,ee4 <ISR6_addr_exception>
 c84:	30047073          	csrci	mstatus,8
 c88:	17c12283          	lw	t0,380(sp)
 c8c:	34129073          	csrw	mepc,t0
 c90:	10012083          	lw	ra,256(sp)
 c94:	10c12203          	lw	tp,268(sp)
 c98:	11012283          	lw	t0,272(sp)
 c9c:	11412303          	lw	t1,276(sp)
 ca0:	11812383          	lw	t2,280(sp)
 ca4:	11c12403          	lw	s0,284(sp)
 ca8:	12012483          	lw	s1,288(sp)
 cac:	12412503          	lw	a0,292(sp)
 cb0:	12812583          	lw	a1,296(sp)
 cb4:	12c12603          	lw	a2,300(sp)
 cb8:	13012683          	lw	a3,304(sp)
 cbc:	13412703          	lw	a4,308(sp)
 cc0:	13812783          	lw	a5,312(sp)
 cc4:	13c12803          	lw	a6,316(sp)
 cc8:	14012883          	lw	a7,320(sp)
 ccc:	14412903          	lw	s2,324(sp)
 cd0:	14812983          	lw	s3,328(sp)
 cd4:	14c12a03          	lw	s4,332(sp)
 cd8:	15012a83          	lw	s5,336(sp)
 cdc:	15412b03          	lw	s6,340(sp)
 ce0:	15812b83          	lw	s7,344(sp)
 ce4:	15c12c03          	lw	s8,348(sp)
 ce8:	16012c83          	lw	s9,352(sp)
 cec:	16412d03          	lw	s10,356(sp)
 cf0:	16812d83          	lw	s11,360(sp)
 cf4:	16c12e03          	lw	t3,364(sp)
 cf8:	17012e83          	lw	t4,368(sp)
 cfc:	17412f03          	lw	t5,372(sp)
 d00:	17812f83          	lw	t6,376(sp)
 d04:	18010113          	addi	sp,sp,384
 d08:	30046073          	csrsi	mstatus,8
 d0c:	30200073          	mret

00000d10 <main>:
 d10:	fe010113          	addi	sp,sp,-32
 d14:	00112e23          	sw	ra,28(sp)
 d18:	00812c23          	sw	s0,24(sp)
 d1c:	02010413          	addi	s0,sp,32
 d20:	fea42623          	sw	a0,-20(s0)
 d24:	feb42423          	sw	a1,-24(s0)
 d28:	91c18793          	addi	a5,gp,-1764 # 2011c <Y>
 d2c:	0807a503          	lw	a0,128(a5)
 d30:	02000713          	li	a4,32
 d34:	02000693          	li	a3,32
 d38:	000407b7          	lui	a5,0x40
 d3c:	00078613          	mv	a2,a5
 d40:	000207b7          	lui	a5,0x20
 d44:	00078593          	mv	a1,a5
 d48:	c89ff0ef          	jal	ra,9d0 <mlp32>
 d4c:	00000793          	li	a5,0
 d50:	00078513          	mv	a0,a5
 d54:	01c12083          	lw	ra,28(sp)
 d58:	01812403          	lw	s0,24(sp)
 d5c:	02010113          	addi	sp,sp,32
 d60:	00008067          	ret

00000d64 <ISR5_uart>:
 d64:	ff010113          	addi	sp,sp,-16
 d68:	00112623          	sw	ra,12(sp)
 d6c:	00812423          	sw	s0,8(sp)
 d70:	01010413          	addi	s0,sp,16
 d74:	5f1007b7          	lui	a5,0x5f100
 d78:	6f078793          	addi	a5,a5,1776 # 5f1006f0 <__VREG_END+0x5f0806f0>
 d7c:	0007c783          	lbu	a5,0(a5)
 d80:	0ff7f713          	andi	a4,a5,255
 d84:	90e18623          	sb	a4,-1780(gp) # 2010c <read_val>
 d88:	90c1c783          	lbu	a5,-1780(gp) # 2010c <read_val>
 d8c:	00078513          	mv	a0,a5
 d90:	dc8ff0ef          	jal	ra,358 <UARTCharPut>
 d94:	9041a783          	lw	a5,-1788(gp) # 20104 <recv_counter>
 d98:	00178713          	addi	a4,a5,1
 d9c:	90e1a223          	sw	a4,-1788(gp) # 20104 <recv_counter>
 da0:	9151c783          	lbu	a5,-1771(gp) # 20115 <start_read>
 da4:	0c079a63          	bnez	a5,e78 <ISR5_uart+0x114>
 da8:	9141c783          	lbu	a5,-1772(gp) # 20114 <header_count>
 dac:	02079663          	bnez	a5,dd8 <ISR5_uart+0x74>
 db0:	90c1c703          	lbu	a4,-1780(gp) # 2010c <read_val>
 db4:	0aa00793          	li	a5,170
 db8:	00f71a63          	bne	a4,a5,dcc <ISR5_uart+0x68>
 dbc:	00100713          	li	a4,1
 dc0:	90e18a23          	sb	a4,-1772(gp) # 20114 <header_count>
 dc4:	90018aa3          	sb	zero,-1771(gp) # 20115 <start_read>
 dc8:	0dc0006f          	j	ea4 <ISR5_uart+0x140>
 dcc:	90018a23          	sb	zero,-1772(gp) # 20114 <header_count>
 dd0:	90018aa3          	sb	zero,-1771(gp) # 20115 <start_read>
 dd4:	0d00006f          	j	ea4 <ISR5_uart+0x140>
 dd8:	9141c703          	lbu	a4,-1772(gp) # 20114 <header_count>
 ddc:	00100793          	li	a5,1
 de0:	02f71663          	bne	a4,a5,e0c <ISR5_uart+0xa8>
 de4:	90c1c703          	lbu	a4,-1780(gp) # 2010c <read_val>
 de8:	05500793          	li	a5,85
 dec:	00f71a63          	bne	a4,a5,e00 <ISR5_uart+0x9c>
 df0:	00200713          	li	a4,2
 df4:	90e18a23          	sb	a4,-1772(gp) # 20114 <header_count>
 df8:	90018aa3          	sb	zero,-1771(gp) # 20115 <start_read>
 dfc:	0a80006f          	j	ea4 <ISR5_uart+0x140>
 e00:	90018a23          	sb	zero,-1772(gp) # 20114 <header_count>
 e04:	90018aa3          	sb	zero,-1771(gp) # 20115 <start_read>
 e08:	09c0006f          	j	ea4 <ISR5_uart+0x140>
 e0c:	9141c703          	lbu	a4,-1772(gp) # 20114 <header_count>
 e10:	00200793          	li	a5,2
 e14:	02f71663          	bne	a4,a5,e40 <ISR5_uart+0xdc>
 e18:	90c1c703          	lbu	a4,-1780(gp) # 2010c <read_val>
 e1c:	0bb00793          	li	a5,187
 e20:	00f71a63          	bne	a4,a5,e34 <ISR5_uart+0xd0>
 e24:	00300713          	li	a4,3
 e28:	90e18a23          	sb	a4,-1772(gp) # 20114 <header_count>
 e2c:	90018aa3          	sb	zero,-1771(gp) # 20115 <start_read>
 e30:	0740006f          	j	ea4 <ISR5_uart+0x140>
 e34:	90018a23          	sb	zero,-1772(gp) # 20114 <header_count>
 e38:	90018aa3          	sb	zero,-1771(gp) # 20115 <start_read>
 e3c:	0680006f          	j	ea4 <ISR5_uart+0x140>
 e40:	9141c703          	lbu	a4,-1772(gp) # 20114 <header_count>
 e44:	00300793          	li	a5,3
 e48:	04f71e63          	bne	a4,a5,ea4 <ISR5_uart+0x140>
 e4c:	90c1c703          	lbu	a4,-1780(gp) # 2010c <read_val>
 e50:	06600793          	li	a5,102
 e54:	00f71c63          	bne	a4,a5,e6c <ISR5_uart+0x108>
 e58:	00400713          	li	a4,4
 e5c:	90e18a23          	sb	a4,-1772(gp) # 20114 <header_count>
 e60:	00100713          	li	a4,1
 e64:	90e18aa3          	sb	a4,-1771(gp) # 20115 <start_read>
 e68:	03c0006f          	j	ea4 <ISR5_uart+0x140>
 e6c:	90018a23          	sb	zero,-1772(gp) # 20114 <header_count>
 e70:	90018aa3          	sb	zero,-1771(gp) # 20115 <start_read>
 e74:	0300006f          	j	ea4 <ISR5_uart+0x140>
 e78:	90c1c783          	lbu	a5,-1780(gp) # 2010c <read_val>
 e7c:	00078713          	mv	a4,a5
 e80:	9081a783          	lw	a5,-1784(gp) # 20108 <recv_num_counter>
 e84:	01071713          	slli	a4,a4,0x10
 e88:	99c18693          	addi	a3,gp,-1636 # 2019c <img_buf>
 e8c:	00279793          	slli	a5,a5,0x2
 e90:	00f687b3          	add	a5,a3,a5
 e94:	00e7a023          	sw	a4,0(a5)
 e98:	9081a783          	lw	a5,-1784(gp) # 20108 <recv_num_counter>
 e9c:	00178713          	addi	a4,a5,1
 ea0:	90e1a423          	sw	a4,-1784(gp) # 20108 <recv_num_counter>
 ea4:	9081a703          	lw	a4,-1784(gp) # 20108 <recv_num_counter>
 ea8:	01000793          	li	a5,16
 eac:	02f71063          	bne	a4,a5,ecc <ISR5_uart+0x168>
 eb0:	00100713          	li	a4,1
 eb4:	90e1a823          	sw	a4,-1776(gp) # 20110 <pflag>
 eb8:	9001a423          	sw	zero,-1784(gp) # 20108 <recv_num_counter>
 ebc:	9001a223          	sw	zero,-1788(gp) # 20104 <recv_counter>
 ec0:	90018aa3          	sb	zero,-1771(gp) # 20115 <start_read>
 ec4:	90018a23          	sb	zero,-1772(gp) # 20114 <header_count>
 ec8:	0080006f          	j	ed0 <ISR5_uart+0x16c>
 ecc:	9001a823          	sw	zero,-1776(gp) # 20110 <pflag>
 ed0:	00000013          	nop
 ed4:	00c12083          	lw	ra,12(sp)
 ed8:	00812403          	lw	s0,8(sp)
 edc:	01010113          	addi	sp,sp,16
 ee0:	00008067          	ret

00000ee4 <ISR6_addr_exception>:
 ee4:	ff010113          	addi	sp,sp,-16
 ee8:	00812623          	sw	s0,12(sp)
 eec:	01010413          	addi	s0,sp,16
 ef0:	00000013          	nop
 ef4:	00c12403          	lw	s0,12(sp)
 ef8:	01010113          	addi	sp,sp,16
 efc:	00008067          	ret

00000f00 <__stack_init>:
 f00:	fffc                	fsw	fa5,124(a5)
 f02:	          	lb	zero,0(zero) # 0 <boot>

Disassembly of section .vmem_data:

00040000 <weights>:
   40000:	0000                	unimp
   40002:	0000                	unimp
   40004:	0001                	nop
   40006:	0000                	unimp
   40008:	0002                	c.slli64	zero
   4000a:	0000                	unimp
   4000c:	00000003          	lb	zero,0(zero) # 0 <boot>
   40010:	0004                	0x4
   40012:	0000                	unimp
   40014:	0005                	c.nop	1
   40016:	0000                	unimp
   40018:	0006                	c.slli	zero,0x1
   4001a:	0000                	unimp
   4001c:	00000007          	vle8.v	v0,(zero),v0.t
   40020:	0008                	0x8
   40022:	0000                	unimp
   40024:	0009                	c.nop	2
   40026:	0000                	unimp
   40028:	000a                	c.slli	zero,0x2
   4002a:	0000                	unimp
   4002c:	0000000b          	0xb
   40030:	000c                	0xc
   40032:	0000                	unimp
   40034:	000d                	c.nop	3
   40036:	0000                	unimp
   40038:	000e                	c.slli	zero,0x3
   4003a:	0000                	unimp
   4003c:	0000000f          	fence	unknown,unknown
   40040:	0010                	0x10
   40042:	0000                	unimp
   40044:	0011                	c.nop	4
   40046:	0000                	unimp
   40048:	0012                	c.slli	zero,0x4
   4004a:	0000                	unimp
   4004c:	00000013          	nop
   40050:	0014                	0x14
   40052:	0000                	unimp
   40054:	0015                	c.nop	5
   40056:	0000                	unimp
   40058:	0016                	c.slli	zero,0x5
   4005a:	0000                	unimp
   4005c:	00000017          	auipc	zero,0x0
   40060:	0018                	0x18
   40062:	0000                	unimp
   40064:	0019                	c.nop	6
   40066:	0000                	unimp
   40068:	001a                	c.slli	zero,0x6
   4006a:	0000                	unimp
   4006c:	0000001b          	0x1b
   40070:	001c                	0x1c
   40072:	0000                	unimp
   40074:	001d                	c.nop	7
   40076:	0000                	unimp
   40078:	001e                	c.slli	zero,0x7
   4007a:	0000                	unimp
   4007c:	001f 0000 0020      	0x200000001f
   40082:	0000                	unimp
   40084:	0021                	c.nop	8
   40086:	0000                	unimp
   40088:	0022                	c.slli	zero,0x8
   4008a:	0000                	unimp
   4008c:	00000023          	sb	zero,0(zero) # 0 <boot>
   40090:	0024                	addi	s1,sp,8
   40092:	0000                	unimp
   40094:	0025                	c.nop	9
   40096:	0000                	unimp
   40098:	0026                	c.slli	zero,0x9
   4009a:	0000                	unimp
   4009c:	00000027          	vse8.v	v0,(zero),v0.t
   400a0:	0028                	addi	a0,sp,8
   400a2:	0000                	unimp
   400a4:	0029                	c.nop	10
   400a6:	0000                	unimp
   400a8:	002a                	c.slli	zero,0xa
   400aa:	0000                	unimp
   400ac:	0000002b          	0x2b
   400b0:	002c                	addi	a1,sp,8
   400b2:	0000                	unimp
   400b4:	002d                	c.nop	11
   400b6:	0000                	unimp
   400b8:	002e                	c.slli	zero,0xb
   400ba:	0000                	unimp
   400bc:	0000002f          	vamoaddei8.v	zero,(zero),v0,v0,v0.t
   400c0:	0030                	addi	a2,sp,8
   400c2:	0000                	unimp
   400c4:	0031                	c.nop	12
   400c6:	0000                	unimp
   400c8:	0032                	c.slli	zero,0xc
   400ca:	0000                	unimp
   400cc:	00000033          	add	zero,zero,zero
   400d0:	0034                	addi	a3,sp,8
   400d2:	0000                	unimp
   400d4:	0035                	c.nop	13
   400d6:	0000                	unimp
   400d8:	0036                	c.slli	zero,0xd
   400da:	0000                	unimp
   400dc:	00000037          	lui	zero,0x0
   400e0:	0038                	addi	a4,sp,8
   400e2:	0000                	unimp
   400e4:	0039                	c.nop	14
   400e6:	0000                	unimp
   400e8:	003a                	c.slli	zero,0xe
   400ea:	0000                	unimp
   400ec:	0000003b          	0x3b
   400f0:	003c                	addi	a5,sp,8
   400f2:	0000                	unimp
   400f4:	003d                	c.nop	15
   400f6:	0000                	unimp
   400f8:	003e                	c.slli	zero,0xf
   400fa:	0000                	unimp
   400fc:	0000003f 00000040 	0x400000003f
   40104:	0041                	c.nop	16
   40106:	0000                	unimp
   40108:	0042                	c.slli	zero,0x10
   4010a:	0000                	unimp
   4010c:	00000043          	fmadd.s	ft0,ft0,ft0,ft0,rne
   40110:	0044                	addi	s1,sp,4
   40112:	0000                	unimp
   40114:	0045                	c.nop	17
   40116:	0000                	unimp
   40118:	0046                	c.slli	zero,0x11
   4011a:	0000                	unimp
   4011c:	00000047          	fmsub.s	ft0,ft0,ft0,ft0,rne
   40120:	0048                	addi	a0,sp,4
   40122:	0000                	unimp
   40124:	0049                	c.nop	18
   40126:	0000                	unimp
   40128:	004a                	c.slli	zero,0x12
   4012a:	0000                	unimp
   4012c:	0000004b          	fnmsub.s	ft0,ft0,ft0,ft0,rne
   40130:	004c                	addi	a1,sp,4
   40132:	0000                	unimp
   40134:	004d                	c.nop	19
   40136:	0000                	unimp
   40138:	004e                	c.slli	zero,0x13
   4013a:	0000                	unimp
   4013c:	0000004f          	fnmadd.s	ft0,ft0,ft0,ft0,rne
   40140:	0050                	addi	a2,sp,4
   40142:	0000                	unimp
   40144:	0051                	c.nop	20
   40146:	0000                	unimp
   40148:	0052                	c.slli	zero,0x14
   4014a:	0000                	unimp
   4014c:	00000053          	fadd.s	ft0,ft0,ft0,rne
   40150:	0054                	addi	a3,sp,4
   40152:	0000                	unimp
   40154:	0055                	c.nop	21
   40156:	0000                	unimp
   40158:	0056                	c.slli	zero,0x15
   4015a:	0000                	unimp
   4015c:	00000057          	vadd.vv	v0,v0,v0,v0.t
   40160:	0058                	addi	a4,sp,4
   40162:	0000                	unimp
   40164:	0059                	c.nop	22
   40166:	0000                	unimp
   40168:	005a                	c.slli	zero,0x16
   4016a:	0000                	unimp
   4016c:	0000005b          	0x5b
   40170:	005c                	addi	a5,sp,4
   40172:	0000                	unimp
   40174:	005d                	c.nop	23
   40176:	0000                	unimp
   40178:	005e                	c.slli	zero,0x17
   4017a:	0000                	unimp
   4017c:	005f 0000 0060      	0x600000005f
   40182:	0000                	unimp
   40184:	0061                	c.nop	24
   40186:	0000                	unimp
   40188:	0062                	c.slli	zero,0x18
   4018a:	0000                	unimp
   4018c:	00000063          	beqz	zero,4018c <weights+0x18c>
   40190:	0000                	unimp
   40192:	0000                	unimp
   40194:	0001                	nop
   40196:	0000                	unimp
   40198:	0002                	c.slli64	zero
   4019a:	0000                	unimp
   4019c:	00000003          	lb	zero,0(zero) # 0 <boot>
   401a0:	0004                	0x4
   401a2:	0000                	unimp
   401a4:	0005                	c.nop	1
   401a6:	0000                	unimp
   401a8:	0006                	c.slli	zero,0x1
   401aa:	0000                	unimp
   401ac:	00000007          	vle8.v	v0,(zero),v0.t
   401b0:	0008                	0x8
   401b2:	0000                	unimp
   401b4:	0009                	c.nop	2
   401b6:	0000                	unimp
   401b8:	000a                	c.slli	zero,0x2
   401ba:	0000                	unimp
   401bc:	0000000b          	0xb
   401c0:	000c                	0xc
   401c2:	0000                	unimp
   401c4:	000d                	c.nop	3
   401c6:	0000                	unimp
   401c8:	000e                	c.slli	zero,0x3
   401ca:	0000                	unimp
   401cc:	0000000f          	fence	unknown,unknown
   401d0:	0010                	0x10
   401d2:	0000                	unimp
   401d4:	0011                	c.nop	4
   401d6:	0000                	unimp
   401d8:	0012                	c.slli	zero,0x4
   401da:	0000                	unimp
   401dc:	00000013          	nop
   401e0:	0014                	0x14
   401e2:	0000                	unimp
   401e4:	0015                	c.nop	5
   401e6:	0000                	unimp
   401e8:	0016                	c.slli	zero,0x5
   401ea:	0000                	unimp
   401ec:	00000017          	auipc	zero,0x0
   401f0:	0018                	0x18
   401f2:	0000                	unimp
   401f4:	0019                	c.nop	6
   401f6:	0000                	unimp
   401f8:	001a                	c.slli	zero,0x6
   401fa:	0000                	unimp
   401fc:	0000001b          	0x1b
   40200:	001c                	0x1c
   40202:	0000                	unimp
   40204:	001d                	c.nop	7
   40206:	0000                	unimp
   40208:	001e                	c.slli	zero,0x7
   4020a:	0000                	unimp
   4020c:	001f 0000 0020      	0x200000001f
   40212:	0000                	unimp
   40214:	0021                	c.nop	8
   40216:	0000                	unimp
   40218:	0022                	c.slli	zero,0x8
   4021a:	0000                	unimp
   4021c:	00000023          	sb	zero,0(zero) # 0 <boot>
   40220:	0024                	addi	s1,sp,8
   40222:	0000                	unimp
   40224:	0025                	c.nop	9
   40226:	0000                	unimp
   40228:	0026                	c.slli	zero,0x9
   4022a:	0000                	unimp
   4022c:	00000027          	vse8.v	v0,(zero),v0.t
   40230:	0028                	addi	a0,sp,8
   40232:	0000                	unimp
   40234:	0029                	c.nop	10
   40236:	0000                	unimp
   40238:	002a                	c.slli	zero,0xa
   4023a:	0000                	unimp
   4023c:	0000002b          	0x2b
   40240:	002c                	addi	a1,sp,8
   40242:	0000                	unimp
   40244:	002d                	c.nop	11
   40246:	0000                	unimp
   40248:	002e                	c.slli	zero,0xb
   4024a:	0000                	unimp
   4024c:	0000002f          	vamoaddei8.v	zero,(zero),v0,v0,v0.t
   40250:	0030                	addi	a2,sp,8
   40252:	0000                	unimp
   40254:	0031                	c.nop	12
   40256:	0000                	unimp
   40258:	0032                	c.slli	zero,0xc
   4025a:	0000                	unimp
   4025c:	00000033          	add	zero,zero,zero
   40260:	0034                	addi	a3,sp,8
   40262:	0000                	unimp
   40264:	0035                	c.nop	13
   40266:	0000                	unimp
   40268:	0036                	c.slli	zero,0xd
   4026a:	0000                	unimp
   4026c:	00000037          	lui	zero,0x0
   40270:	0038                	addi	a4,sp,8
   40272:	0000                	unimp
   40274:	0039                	c.nop	14
   40276:	0000                	unimp
   40278:	003a                	c.slli	zero,0xe
   4027a:	0000                	unimp
   4027c:	0000003b          	0x3b
   40280:	003c                	addi	a5,sp,8
   40282:	0000                	unimp
   40284:	003d                	c.nop	15
   40286:	0000                	unimp
   40288:	003e                	c.slli	zero,0xf
   4028a:	0000                	unimp
   4028c:	0000003f 00000040 	0x400000003f
   40294:	0041                	c.nop	16
   40296:	0000                	unimp
   40298:	0042                	c.slli	zero,0x10
   4029a:	0000                	unimp
   4029c:	00000043          	fmadd.s	ft0,ft0,ft0,ft0,rne
   402a0:	0044                	addi	s1,sp,4
   402a2:	0000                	unimp
   402a4:	0045                	c.nop	17
   402a6:	0000                	unimp
   402a8:	0046                	c.slli	zero,0x11
   402aa:	0000                	unimp
   402ac:	00000047          	fmsub.s	ft0,ft0,ft0,ft0,rne
   402b0:	0048                	addi	a0,sp,4
   402b2:	0000                	unimp
   402b4:	0049                	c.nop	18
   402b6:	0000                	unimp
   402b8:	004a                	c.slli	zero,0x12
   402ba:	0000                	unimp
   402bc:	0000004b          	fnmsub.s	ft0,ft0,ft0,ft0,rne
   402c0:	004c                	addi	a1,sp,4
   402c2:	0000                	unimp
   402c4:	004d                	c.nop	19
   402c6:	0000                	unimp
   402c8:	004e                	c.slli	zero,0x13
   402ca:	0000                	unimp
   402cc:	0000004f          	fnmadd.s	ft0,ft0,ft0,ft0,rne
   402d0:	0050                	addi	a2,sp,4
   402d2:	0000                	unimp
   402d4:	0051                	c.nop	20
   402d6:	0000                	unimp
   402d8:	0052                	c.slli	zero,0x14
   402da:	0000                	unimp
   402dc:	00000053          	fadd.s	ft0,ft0,ft0,rne
   402e0:	0054                	addi	a3,sp,4
   402e2:	0000                	unimp
   402e4:	0055                	c.nop	21
   402e6:	0000                	unimp
   402e8:	0056                	c.slli	zero,0x15
   402ea:	0000                	unimp
   402ec:	00000057          	vadd.vv	v0,v0,v0,v0.t
   402f0:	0058                	addi	a4,sp,4
   402f2:	0000                	unimp
   402f4:	0059                	c.nop	22
   402f6:	0000                	unimp
   402f8:	005a                	c.slli	zero,0x16
   402fa:	0000                	unimp
   402fc:	0000005b          	0x5b
   40300:	005c                	addi	a5,sp,4
   40302:	0000                	unimp
   40304:	005d                	c.nop	23
   40306:	0000                	unimp
   40308:	005e                	c.slli	zero,0x17
   4030a:	0000                	unimp
   4030c:	005f 0000 0060      	0x600000005f
   40312:	0000                	unimp
   40314:	0061                	c.nop	24
   40316:	0000                	unimp
   40318:	0062                	c.slli	zero,0x18
   4031a:	0000                	unimp
   4031c:	00000063          	beqz	zero,4031c <weights+0x31c>
   40320:	0000                	unimp
   40322:	0000                	unimp
   40324:	0001                	nop
   40326:	0000                	unimp
   40328:	0002                	c.slli64	zero
   4032a:	0000                	unimp
   4032c:	00000003          	lb	zero,0(zero) # 0 <boot>
   40330:	0004                	0x4
   40332:	0000                	unimp
   40334:	0005                	c.nop	1
   40336:	0000                	unimp
   40338:	0006                	c.slli	zero,0x1
   4033a:	0000                	unimp
   4033c:	00000007          	vle8.v	v0,(zero),v0.t
   40340:	0008                	0x8
   40342:	0000                	unimp
   40344:	0009                	c.nop	2
   40346:	0000                	unimp
   40348:	000a                	c.slli	zero,0x2
   4034a:	0000                	unimp
   4034c:	0000000b          	0xb
   40350:	000c                	0xc
   40352:	0000                	unimp
   40354:	000d                	c.nop	3
   40356:	0000                	unimp
   40358:	000e                	c.slli	zero,0x3
   4035a:	0000                	unimp
   4035c:	0000000f          	fence	unknown,unknown
   40360:	0010                	0x10
   40362:	0000                	unimp
   40364:	0011                	c.nop	4
   40366:	0000                	unimp
   40368:	0012                	c.slli	zero,0x4
   4036a:	0000                	unimp
   4036c:	00000013          	nop
   40370:	0014                	0x14
   40372:	0000                	unimp
   40374:	0015                	c.nop	5
   40376:	0000                	unimp
   40378:	0016                	c.slli	zero,0x5
   4037a:	0000                	unimp
   4037c:	00000017          	auipc	zero,0x0
   40380:	0018                	0x18
   40382:	0000                	unimp
   40384:	0019                	c.nop	6
   40386:	0000                	unimp
   40388:	001a                	c.slli	zero,0x6
   4038a:	0000                	unimp
   4038c:	0000001b          	0x1b
   40390:	001c                	0x1c
   40392:	0000                	unimp
   40394:	001d                	c.nop	7
   40396:	0000                	unimp
   40398:	001e                	c.slli	zero,0x7
   4039a:	0000                	unimp
   4039c:	001f 0000 0020      	0x200000001f
   403a2:	0000                	unimp
   403a4:	0021                	c.nop	8
   403a6:	0000                	unimp
   403a8:	0022                	c.slli	zero,0x8
   403aa:	0000                	unimp
   403ac:	00000023          	sb	zero,0(zero) # 0 <boot>
   403b0:	0024                	addi	s1,sp,8
   403b2:	0000                	unimp
   403b4:	0025                	c.nop	9
   403b6:	0000                	unimp
   403b8:	0026                	c.slli	zero,0x9
   403ba:	0000                	unimp
   403bc:	00000027          	vse8.v	v0,(zero),v0.t
   403c0:	0028                	addi	a0,sp,8
   403c2:	0000                	unimp
   403c4:	0029                	c.nop	10
   403c6:	0000                	unimp
   403c8:	002a                	c.slli	zero,0xa
   403ca:	0000                	unimp
   403cc:	0000002b          	0x2b
   403d0:	002c                	addi	a1,sp,8
   403d2:	0000                	unimp
   403d4:	002d                	c.nop	11
   403d6:	0000                	unimp
   403d8:	002e                	c.slli	zero,0xb
   403da:	0000                	unimp
   403dc:	0000002f          	vamoaddei8.v	zero,(zero),v0,v0,v0.t
   403e0:	0030                	addi	a2,sp,8
   403e2:	0000                	unimp
   403e4:	0031                	c.nop	12
   403e6:	0000                	unimp
   403e8:	0032                	c.slli	zero,0xc
   403ea:	0000                	unimp
   403ec:	00000033          	add	zero,zero,zero
   403f0:	0034                	addi	a3,sp,8
   403f2:	0000                	unimp
   403f4:	0035                	c.nop	13
   403f6:	0000                	unimp
   403f8:	0036                	c.slli	zero,0xd
   403fa:	0000                	unimp
   403fc:	00000037          	lui	zero,0x0
   40400:	0038                	addi	a4,sp,8
   40402:	0000                	unimp
   40404:	0039                	c.nop	14
   40406:	0000                	unimp
   40408:	003a                	c.slli	zero,0xe
   4040a:	0000                	unimp
   4040c:	0000003b          	0x3b
   40410:	003c                	addi	a5,sp,8
   40412:	0000                	unimp
   40414:	003d                	c.nop	15
   40416:	0000                	unimp
   40418:	003e                	c.slli	zero,0xf
   4041a:	0000                	unimp
   4041c:	0000003f 00000040 	0x400000003f
   40424:	0041                	c.nop	16
   40426:	0000                	unimp
   40428:	0042                	c.slli	zero,0x10
   4042a:	0000                	unimp
   4042c:	00000043          	fmadd.s	ft0,ft0,ft0,ft0,rne
   40430:	0044                	addi	s1,sp,4
   40432:	0000                	unimp
   40434:	0045                	c.nop	17
   40436:	0000                	unimp
   40438:	0046                	c.slli	zero,0x11
   4043a:	0000                	unimp
   4043c:	00000047          	fmsub.s	ft0,ft0,ft0,ft0,rne
   40440:	0048                	addi	a0,sp,4
   40442:	0000                	unimp
   40444:	0049                	c.nop	18
   40446:	0000                	unimp
   40448:	004a                	c.slli	zero,0x12
   4044a:	0000                	unimp
   4044c:	0000004b          	fnmsub.s	ft0,ft0,ft0,ft0,rne
   40450:	004c                	addi	a1,sp,4
   40452:	0000                	unimp
   40454:	004d                	c.nop	19
   40456:	0000                	unimp
   40458:	004e                	c.slli	zero,0x13
   4045a:	0000                	unimp
   4045c:	0000004f          	fnmadd.s	ft0,ft0,ft0,ft0,rne
   40460:	0050                	addi	a2,sp,4
   40462:	0000                	unimp
   40464:	0051                	c.nop	20
   40466:	0000                	unimp
   40468:	0052                	c.slli	zero,0x14
   4046a:	0000                	unimp
   4046c:	00000053          	fadd.s	ft0,ft0,ft0,rne
   40470:	0054                	addi	a3,sp,4
   40472:	0000                	unimp
   40474:	0055                	c.nop	21
   40476:	0000                	unimp
   40478:	0056                	c.slli	zero,0x15
   4047a:	0000                	unimp
   4047c:	00000057          	vadd.vv	v0,v0,v0,v0.t
   40480:	0058                	addi	a4,sp,4
   40482:	0000                	unimp
   40484:	0059                	c.nop	22
   40486:	0000                	unimp
   40488:	005a                	c.slli	zero,0x16
   4048a:	0000                	unimp
   4048c:	0000005b          	0x5b
   40490:	005c                	addi	a5,sp,4
   40492:	0000                	unimp
   40494:	005d                	c.nop	23
   40496:	0000                	unimp
   40498:	005e                	c.slli	zero,0x17
   4049a:	0000                	unimp
   4049c:	005f 0000 0060      	0x600000005f
   404a2:	0000                	unimp
   404a4:	0061                	c.nop	24
   404a6:	0000                	unimp
   404a8:	0062                	c.slli	zero,0x18
   404aa:	0000                	unimp
   404ac:	00000063          	beqz	zero,404ac <weights+0x4ac>
   404b0:	0000                	unimp
   404b2:	0000                	unimp
   404b4:	0001                	nop
   404b6:	0000                	unimp
   404b8:	0002                	c.slli64	zero
   404ba:	0000                	unimp
   404bc:	00000003          	lb	zero,0(zero) # 0 <boot>
   404c0:	0004                	0x4
   404c2:	0000                	unimp
   404c4:	0005                	c.nop	1
   404c6:	0000                	unimp
   404c8:	0006                	c.slli	zero,0x1
   404ca:	0000                	unimp
   404cc:	00000007          	vle8.v	v0,(zero),v0.t
   404d0:	0008                	0x8
   404d2:	0000                	unimp
   404d4:	0009                	c.nop	2
   404d6:	0000                	unimp
   404d8:	000a                	c.slli	zero,0x2
   404da:	0000                	unimp
   404dc:	0000000b          	0xb
   404e0:	000c                	0xc
   404e2:	0000                	unimp
   404e4:	000d                	c.nop	3
   404e6:	0000                	unimp
   404e8:	000e                	c.slli	zero,0x3
   404ea:	0000                	unimp
   404ec:	0000000f          	fence	unknown,unknown
   404f0:	0010                	0x10
   404f2:	0000                	unimp
   404f4:	0011                	c.nop	4
   404f6:	0000                	unimp
   404f8:	0012                	c.slli	zero,0x4
   404fa:	0000                	unimp
   404fc:	00000013          	nop
   40500:	0014                	0x14
   40502:	0000                	unimp
   40504:	0015                	c.nop	5
   40506:	0000                	unimp
   40508:	0016                	c.slli	zero,0x5
   4050a:	0000                	unimp
   4050c:	00000017          	auipc	zero,0x0
   40510:	0018                	0x18
   40512:	0000                	unimp
   40514:	0019                	c.nop	6
   40516:	0000                	unimp
   40518:	001a                	c.slli	zero,0x6
   4051a:	0000                	unimp
   4051c:	0000001b          	0x1b
   40520:	001c                	0x1c
   40522:	0000                	unimp
   40524:	001d                	c.nop	7
   40526:	0000                	unimp
   40528:	001e                	c.slli	zero,0x7
   4052a:	0000                	unimp
   4052c:	001f 0000 0020      	0x200000001f
   40532:	0000                	unimp
   40534:	0021                	c.nop	8
   40536:	0000                	unimp
   40538:	0022                	c.slli	zero,0x8
   4053a:	0000                	unimp
   4053c:	00000023          	sb	zero,0(zero) # 0 <boot>
   40540:	0024                	addi	s1,sp,8
   40542:	0000                	unimp
   40544:	0025                	c.nop	9
   40546:	0000                	unimp
   40548:	0026                	c.slli	zero,0x9
   4054a:	0000                	unimp
   4054c:	00000027          	vse8.v	v0,(zero),v0.t
   40550:	0028                	addi	a0,sp,8
   40552:	0000                	unimp
   40554:	0029                	c.nop	10
   40556:	0000                	unimp
   40558:	002a                	c.slli	zero,0xa
   4055a:	0000                	unimp
   4055c:	0000002b          	0x2b
   40560:	002c                	addi	a1,sp,8
   40562:	0000                	unimp
   40564:	002d                	c.nop	11
   40566:	0000                	unimp
   40568:	002e                	c.slli	zero,0xb
   4056a:	0000                	unimp
   4056c:	0000002f          	vamoaddei8.v	zero,(zero),v0,v0,v0.t
   40570:	0030                	addi	a2,sp,8
   40572:	0000                	unimp
   40574:	0031                	c.nop	12
   40576:	0000                	unimp
   40578:	0032                	c.slli	zero,0xc
   4057a:	0000                	unimp
   4057c:	00000033          	add	zero,zero,zero
   40580:	0034                	addi	a3,sp,8
   40582:	0000                	unimp
   40584:	0035                	c.nop	13
   40586:	0000                	unimp
   40588:	0036                	c.slli	zero,0xd
   4058a:	0000                	unimp
   4058c:	00000037          	lui	zero,0x0
   40590:	0038                	addi	a4,sp,8
   40592:	0000                	unimp
   40594:	0039                	c.nop	14
   40596:	0000                	unimp
   40598:	003a                	c.slli	zero,0xe
   4059a:	0000                	unimp
   4059c:	0000003b          	0x3b
   405a0:	003c                	addi	a5,sp,8
   405a2:	0000                	unimp
   405a4:	003d                	c.nop	15
   405a6:	0000                	unimp
   405a8:	003e                	c.slli	zero,0xf
   405aa:	0000                	unimp
   405ac:	0000003f 00000040 	0x400000003f
   405b4:	0041                	c.nop	16
   405b6:	0000                	unimp
   405b8:	0042                	c.slli	zero,0x10
   405ba:	0000                	unimp
   405bc:	00000043          	fmadd.s	ft0,ft0,ft0,ft0,rne
   405c0:	0044                	addi	s1,sp,4
   405c2:	0000                	unimp
   405c4:	0045                	c.nop	17
   405c6:	0000                	unimp
   405c8:	0046                	c.slli	zero,0x11
   405ca:	0000                	unimp
   405cc:	00000047          	fmsub.s	ft0,ft0,ft0,ft0,rne
   405d0:	0048                	addi	a0,sp,4
   405d2:	0000                	unimp
   405d4:	0049                	c.nop	18
   405d6:	0000                	unimp
   405d8:	004a                	c.slli	zero,0x12
   405da:	0000                	unimp
   405dc:	0000004b          	fnmsub.s	ft0,ft0,ft0,ft0,rne
   405e0:	004c                	addi	a1,sp,4
   405e2:	0000                	unimp
   405e4:	004d                	c.nop	19
   405e6:	0000                	unimp
   405e8:	004e                	c.slli	zero,0x13
   405ea:	0000                	unimp
   405ec:	0000004f          	fnmadd.s	ft0,ft0,ft0,ft0,rne
   405f0:	0050                	addi	a2,sp,4
   405f2:	0000                	unimp
   405f4:	0051                	c.nop	20
   405f6:	0000                	unimp
   405f8:	0052                	c.slli	zero,0x14
   405fa:	0000                	unimp
   405fc:	00000053          	fadd.s	ft0,ft0,ft0,rne
   40600:	0054                	addi	a3,sp,4
   40602:	0000                	unimp
   40604:	0055                	c.nop	21
   40606:	0000                	unimp
   40608:	0056                	c.slli	zero,0x15
   4060a:	0000                	unimp
   4060c:	00000057          	vadd.vv	v0,v0,v0,v0.t
   40610:	0058                	addi	a4,sp,4
   40612:	0000                	unimp
   40614:	0059                	c.nop	22
   40616:	0000                	unimp
   40618:	005a                	c.slli	zero,0x16
   4061a:	0000                	unimp
   4061c:	0000005b          	0x5b
   40620:	005c                	addi	a5,sp,4
   40622:	0000                	unimp
   40624:	005d                	c.nop	23
   40626:	0000                	unimp
   40628:	005e                	c.slli	zero,0x17
   4062a:	0000                	unimp
   4062c:	005f 0000 0060      	0x600000005f
   40632:	0000                	unimp
   40634:	0061                	c.nop	24
   40636:	0000                	unimp
   40638:	0062                	c.slli	zero,0x18
   4063a:	0000                	unimp
   4063c:	00000063          	beqz	zero,4063c <weights+0x63c>
   40640:	0000                	unimp
   40642:	0000                	unimp
   40644:	0001                	nop
   40646:	0000                	unimp
   40648:	0002                	c.slli64	zero
   4064a:	0000                	unimp
   4064c:	00000003          	lb	zero,0(zero) # 0 <boot>
   40650:	0004                	0x4
   40652:	0000                	unimp
   40654:	0005                	c.nop	1
   40656:	0000                	unimp
   40658:	0006                	c.slli	zero,0x1
   4065a:	0000                	unimp
   4065c:	00000007          	vle8.v	v0,(zero),v0.t
   40660:	0008                	0x8
   40662:	0000                	unimp
   40664:	0009                	c.nop	2
   40666:	0000                	unimp
   40668:	000a                	c.slli	zero,0x2
   4066a:	0000                	unimp
   4066c:	0000000b          	0xb
   40670:	000c                	0xc
   40672:	0000                	unimp
   40674:	000d                	c.nop	3
   40676:	0000                	unimp
   40678:	000e                	c.slli	zero,0x3
   4067a:	0000                	unimp
   4067c:	0000000f          	fence	unknown,unknown
   40680:	0010                	0x10
   40682:	0000                	unimp
   40684:	0011                	c.nop	4
   40686:	0000                	unimp
   40688:	0012                	c.slli	zero,0x4
   4068a:	0000                	unimp
   4068c:	00000013          	nop
   40690:	0014                	0x14
   40692:	0000                	unimp
   40694:	0015                	c.nop	5
   40696:	0000                	unimp
   40698:	0016                	c.slli	zero,0x5
   4069a:	0000                	unimp
   4069c:	00000017          	auipc	zero,0x0
   406a0:	0018                	0x18
   406a2:	0000                	unimp
   406a4:	0019                	c.nop	6
   406a6:	0000                	unimp
   406a8:	001a                	c.slli	zero,0x6
   406aa:	0000                	unimp
   406ac:	0000001b          	0x1b
   406b0:	001c                	0x1c
   406b2:	0000                	unimp
   406b4:	001d                	c.nop	7
   406b6:	0000                	unimp
   406b8:	001e                	c.slli	zero,0x7
   406ba:	0000                	unimp
   406bc:	001f 0000 0020      	0x200000001f
   406c2:	0000                	unimp
   406c4:	0021                	c.nop	8
   406c6:	0000                	unimp
   406c8:	0022                	c.slli	zero,0x8
   406ca:	0000                	unimp
   406cc:	00000023          	sb	zero,0(zero) # 0 <boot>
   406d0:	0024                	addi	s1,sp,8
   406d2:	0000                	unimp
   406d4:	0025                	c.nop	9
   406d6:	0000                	unimp
   406d8:	0026                	c.slli	zero,0x9
   406da:	0000                	unimp
   406dc:	00000027          	vse8.v	v0,(zero),v0.t
   406e0:	0028                	addi	a0,sp,8
   406e2:	0000                	unimp
   406e4:	0029                	c.nop	10
   406e6:	0000                	unimp
   406e8:	002a                	c.slli	zero,0xa
   406ea:	0000                	unimp
   406ec:	0000002b          	0x2b
   406f0:	002c                	addi	a1,sp,8
   406f2:	0000                	unimp
   406f4:	002d                	c.nop	11
   406f6:	0000                	unimp
   406f8:	002e                	c.slli	zero,0xb
   406fa:	0000                	unimp
   406fc:	0000002f          	vamoaddei8.v	zero,(zero),v0,v0,v0.t
   40700:	0030                	addi	a2,sp,8
   40702:	0000                	unimp
   40704:	0031                	c.nop	12
   40706:	0000                	unimp
   40708:	0032                	c.slli	zero,0xc
   4070a:	0000                	unimp
   4070c:	00000033          	add	zero,zero,zero
   40710:	0034                	addi	a3,sp,8
   40712:	0000                	unimp
   40714:	0035                	c.nop	13
   40716:	0000                	unimp
   40718:	0036                	c.slli	zero,0xd
   4071a:	0000                	unimp
   4071c:	00000037          	lui	zero,0x0
   40720:	0038                	addi	a4,sp,8
   40722:	0000                	unimp
   40724:	0039                	c.nop	14
   40726:	0000                	unimp
   40728:	003a                	c.slli	zero,0xe
   4072a:	0000                	unimp
   4072c:	0000003b          	0x3b
   40730:	003c                	addi	a5,sp,8
   40732:	0000                	unimp
   40734:	003d                	c.nop	15
   40736:	0000                	unimp
   40738:	003e                	c.slli	zero,0xf
   4073a:	0000                	unimp
   4073c:	0000003f 00000040 	0x400000003f
   40744:	0041                	c.nop	16
   40746:	0000                	unimp
   40748:	0042                	c.slli	zero,0x10
   4074a:	0000                	unimp
   4074c:	00000043          	fmadd.s	ft0,ft0,ft0,ft0,rne
   40750:	0044                	addi	s1,sp,4
   40752:	0000                	unimp
   40754:	0045                	c.nop	17
   40756:	0000                	unimp
   40758:	0046                	c.slli	zero,0x11
   4075a:	0000                	unimp
   4075c:	00000047          	fmsub.s	ft0,ft0,ft0,ft0,rne
   40760:	0048                	addi	a0,sp,4
   40762:	0000                	unimp
   40764:	0049                	c.nop	18
   40766:	0000                	unimp
   40768:	004a                	c.slli	zero,0x12
   4076a:	0000                	unimp
   4076c:	0000004b          	fnmsub.s	ft0,ft0,ft0,ft0,rne
   40770:	004c                	addi	a1,sp,4
   40772:	0000                	unimp
   40774:	004d                	c.nop	19
   40776:	0000                	unimp
   40778:	004e                	c.slli	zero,0x13
   4077a:	0000                	unimp
   4077c:	0000004f          	fnmadd.s	ft0,ft0,ft0,ft0,rne
   40780:	0050                	addi	a2,sp,4
   40782:	0000                	unimp
   40784:	0051                	c.nop	20
   40786:	0000                	unimp
   40788:	0052                	c.slli	zero,0x14
   4078a:	0000                	unimp
   4078c:	00000053          	fadd.s	ft0,ft0,ft0,rne
   40790:	0054                	addi	a3,sp,4
   40792:	0000                	unimp
   40794:	0055                	c.nop	21
   40796:	0000                	unimp
   40798:	0056                	c.slli	zero,0x15
   4079a:	0000                	unimp
   4079c:	00000057          	vadd.vv	v0,v0,v0,v0.t
   407a0:	0058                	addi	a4,sp,4
   407a2:	0000                	unimp
   407a4:	0059                	c.nop	22
   407a6:	0000                	unimp
   407a8:	005a                	c.slli	zero,0x16
   407aa:	0000                	unimp
   407ac:	0000005b          	0x5b
   407b0:	005c                	addi	a5,sp,4
   407b2:	0000                	unimp
   407b4:	005d                	c.nop	23
   407b6:	0000                	unimp
   407b8:	005e                	c.slli	zero,0x17
   407ba:	0000                	unimp
   407bc:	005f 0000 0060      	0x600000005f
   407c2:	0000                	unimp
   407c4:	0061                	c.nop	24
   407c6:	0000                	unimp
   407c8:	0062                	c.slli	zero,0x18
   407ca:	0000                	unimp
   407cc:	00000063          	beqz	zero,407cc <weights+0x7cc>
   407d0:	0000                	unimp
   407d2:	0000                	unimp
   407d4:	0001                	nop
   407d6:	0000                	unimp
   407d8:	0002                	c.slli64	zero
   407da:	0000                	unimp
   407dc:	00000003          	lb	zero,0(zero) # 0 <boot>
   407e0:	0004                	0x4
   407e2:	0000                	unimp
   407e4:	0005                	c.nop	1
   407e6:	0000                	unimp
   407e8:	0006                	c.slli	zero,0x1
   407ea:	0000                	unimp
   407ec:	00000007          	vle8.v	v0,(zero),v0.t
   407f0:	0008                	0x8
   407f2:	0000                	unimp
   407f4:	0009                	c.nop	2
   407f6:	0000                	unimp
   407f8:	000a                	c.slli	zero,0x2
   407fa:	0000                	unimp
   407fc:	0000000b          	0xb
   40800:	000c                	0xc
   40802:	0000                	unimp
   40804:	000d                	c.nop	3
   40806:	0000                	unimp
   40808:	000e                	c.slli	zero,0x3
   4080a:	0000                	unimp
   4080c:	0000000f          	fence	unknown,unknown
   40810:	0010                	0x10
   40812:	0000                	unimp
   40814:	0011                	c.nop	4
   40816:	0000                	unimp
   40818:	0012                	c.slli	zero,0x4
   4081a:	0000                	unimp
   4081c:	00000013          	nop
   40820:	0014                	0x14
   40822:	0000                	unimp
   40824:	0015                	c.nop	5
   40826:	0000                	unimp
   40828:	0016                	c.slli	zero,0x5
   4082a:	0000                	unimp
   4082c:	00000017          	auipc	zero,0x0
   40830:	0018                	0x18
   40832:	0000                	unimp
   40834:	0019                	c.nop	6
   40836:	0000                	unimp
   40838:	001a                	c.slli	zero,0x6
   4083a:	0000                	unimp
   4083c:	0000001b          	0x1b
   40840:	001c                	0x1c
   40842:	0000                	unimp
   40844:	001d                	c.nop	7
   40846:	0000                	unimp
   40848:	001e                	c.slli	zero,0x7
   4084a:	0000                	unimp
   4084c:	001f 0000 0020      	0x200000001f
   40852:	0000                	unimp
   40854:	0021                	c.nop	8
   40856:	0000                	unimp
   40858:	0022                	c.slli	zero,0x8
   4085a:	0000                	unimp
   4085c:	00000023          	sb	zero,0(zero) # 0 <boot>
   40860:	0024                	addi	s1,sp,8
   40862:	0000                	unimp
   40864:	0025                	c.nop	9
   40866:	0000                	unimp
   40868:	0026                	c.slli	zero,0x9
   4086a:	0000                	unimp
   4086c:	00000027          	vse8.v	v0,(zero),v0.t
   40870:	0028                	addi	a0,sp,8
   40872:	0000                	unimp
   40874:	0029                	c.nop	10
   40876:	0000                	unimp
   40878:	002a                	c.slli	zero,0xa
   4087a:	0000                	unimp
   4087c:	0000002b          	0x2b
   40880:	002c                	addi	a1,sp,8
   40882:	0000                	unimp
   40884:	002d                	c.nop	11
   40886:	0000                	unimp
   40888:	002e                	c.slli	zero,0xb
   4088a:	0000                	unimp
   4088c:	0000002f          	vamoaddei8.v	zero,(zero),v0,v0,v0.t
   40890:	0030                	addi	a2,sp,8
   40892:	0000                	unimp
   40894:	0031                	c.nop	12
   40896:	0000                	unimp
   40898:	0032                	c.slli	zero,0xc
   4089a:	0000                	unimp
   4089c:	00000033          	add	zero,zero,zero
   408a0:	0034                	addi	a3,sp,8
   408a2:	0000                	unimp
   408a4:	0035                	c.nop	13
   408a6:	0000                	unimp
   408a8:	0036                	c.slli	zero,0xd
   408aa:	0000                	unimp
   408ac:	00000037          	lui	zero,0x0
   408b0:	0038                	addi	a4,sp,8
   408b2:	0000                	unimp
   408b4:	0039                	c.nop	14
   408b6:	0000                	unimp
   408b8:	003a                	c.slli	zero,0xe
   408ba:	0000                	unimp
   408bc:	0000003b          	0x3b
   408c0:	003c                	addi	a5,sp,8
   408c2:	0000                	unimp
   408c4:	003d                	c.nop	15
   408c6:	0000                	unimp
   408c8:	003e                	c.slli	zero,0xf
   408ca:	0000                	unimp
   408cc:	0000003f 00000040 	0x400000003f
   408d4:	0041                	c.nop	16
   408d6:	0000                	unimp
   408d8:	0042                	c.slli	zero,0x10
   408da:	0000                	unimp
   408dc:	00000043          	fmadd.s	ft0,ft0,ft0,ft0,rne
   408e0:	0044                	addi	s1,sp,4
   408e2:	0000                	unimp
   408e4:	0045                	c.nop	17
   408e6:	0000                	unimp
   408e8:	0046                	c.slli	zero,0x11
   408ea:	0000                	unimp
   408ec:	00000047          	fmsub.s	ft0,ft0,ft0,ft0,rne
   408f0:	0048                	addi	a0,sp,4
   408f2:	0000                	unimp
   408f4:	0049                	c.nop	18
   408f6:	0000                	unimp
   408f8:	004a                	c.slli	zero,0x12
   408fa:	0000                	unimp
   408fc:	0000004b          	fnmsub.s	ft0,ft0,ft0,ft0,rne
   40900:	004c                	addi	a1,sp,4
   40902:	0000                	unimp
   40904:	004d                	c.nop	19
   40906:	0000                	unimp
   40908:	004e                	c.slli	zero,0x13
   4090a:	0000                	unimp
   4090c:	0000004f          	fnmadd.s	ft0,ft0,ft0,ft0,rne
   40910:	0050                	addi	a2,sp,4
   40912:	0000                	unimp
   40914:	0051                	c.nop	20
   40916:	0000                	unimp
   40918:	0052                	c.slli	zero,0x14
   4091a:	0000                	unimp
   4091c:	00000053          	fadd.s	ft0,ft0,ft0,rne
   40920:	0054                	addi	a3,sp,4
   40922:	0000                	unimp
   40924:	0055                	c.nop	21
   40926:	0000                	unimp
   40928:	0056                	c.slli	zero,0x15
   4092a:	0000                	unimp
   4092c:	00000057          	vadd.vv	v0,v0,v0,v0.t
   40930:	0058                	addi	a4,sp,4
   40932:	0000                	unimp
   40934:	0059                	c.nop	22
   40936:	0000                	unimp
   40938:	005a                	c.slli	zero,0x16
   4093a:	0000                	unimp
   4093c:	0000005b          	0x5b
   40940:	005c                	addi	a5,sp,4
   40942:	0000                	unimp
   40944:	005d                	c.nop	23
   40946:	0000                	unimp
   40948:	005e                	c.slli	zero,0x17
   4094a:	0000                	unimp
   4094c:	005f 0000 0060      	0x600000005f
   40952:	0000                	unimp
   40954:	0061                	c.nop	24
   40956:	0000                	unimp
   40958:	0062                	c.slli	zero,0x18
   4095a:	0000                	unimp
   4095c:	00000063          	beqz	zero,4095c <weights+0x95c>
   40960:	0000                	unimp
   40962:	0000                	unimp
   40964:	0001                	nop
   40966:	0000                	unimp
   40968:	0002                	c.slli64	zero
   4096a:	0000                	unimp
   4096c:	00000003          	lb	zero,0(zero) # 0 <boot>
   40970:	0004                	0x4
   40972:	0000                	unimp
   40974:	0005                	c.nop	1
   40976:	0000                	unimp
   40978:	0006                	c.slli	zero,0x1
   4097a:	0000                	unimp
   4097c:	00000007          	vle8.v	v0,(zero),v0.t
   40980:	0008                	0x8
   40982:	0000                	unimp
   40984:	0009                	c.nop	2
   40986:	0000                	unimp
   40988:	000a                	c.slli	zero,0x2
   4098a:	0000                	unimp
   4098c:	0000000b          	0xb
   40990:	000c                	0xc
   40992:	0000                	unimp
   40994:	000d                	c.nop	3
   40996:	0000                	unimp
   40998:	000e                	c.slli	zero,0x3
   4099a:	0000                	unimp
   4099c:	0000000f          	fence	unknown,unknown
   409a0:	0010                	0x10
   409a2:	0000                	unimp
   409a4:	0011                	c.nop	4
   409a6:	0000                	unimp
   409a8:	0012                	c.slli	zero,0x4
   409aa:	0000                	unimp
   409ac:	00000013          	nop
   409b0:	0014                	0x14
   409b2:	0000                	unimp
   409b4:	0015                	c.nop	5
   409b6:	0000                	unimp
   409b8:	0016                	c.slli	zero,0x5
   409ba:	0000                	unimp
   409bc:	00000017          	auipc	zero,0x0
   409c0:	0018                	0x18
   409c2:	0000                	unimp
   409c4:	0019                	c.nop	6
   409c6:	0000                	unimp
   409c8:	001a                	c.slli	zero,0x6
   409ca:	0000                	unimp
   409cc:	0000001b          	0x1b
   409d0:	001c                	0x1c
   409d2:	0000                	unimp
   409d4:	001d                	c.nop	7
   409d6:	0000                	unimp
   409d8:	001e                	c.slli	zero,0x7
   409da:	0000                	unimp
   409dc:	001f 0000 0020      	0x200000001f
   409e2:	0000                	unimp
   409e4:	0021                	c.nop	8
   409e6:	0000                	unimp
   409e8:	0022                	c.slli	zero,0x8
   409ea:	0000                	unimp
   409ec:	00000023          	sb	zero,0(zero) # 0 <boot>
   409f0:	0024                	addi	s1,sp,8
   409f2:	0000                	unimp
   409f4:	0025                	c.nop	9
   409f6:	0000                	unimp
   409f8:	0026                	c.slli	zero,0x9
   409fa:	0000                	unimp
   409fc:	00000027          	vse8.v	v0,(zero),v0.t
   40a00:	0028                	addi	a0,sp,8
   40a02:	0000                	unimp
   40a04:	0029                	c.nop	10
   40a06:	0000                	unimp
   40a08:	002a                	c.slli	zero,0xa
   40a0a:	0000                	unimp
   40a0c:	0000002b          	0x2b
   40a10:	002c                	addi	a1,sp,8
   40a12:	0000                	unimp
   40a14:	002d                	c.nop	11
   40a16:	0000                	unimp
   40a18:	002e                	c.slli	zero,0xb
   40a1a:	0000                	unimp
   40a1c:	0000002f          	vamoaddei8.v	zero,(zero),v0,v0,v0.t
   40a20:	0030                	addi	a2,sp,8
   40a22:	0000                	unimp
   40a24:	0031                	c.nop	12
   40a26:	0000                	unimp
   40a28:	0032                	c.slli	zero,0xc
   40a2a:	0000                	unimp
   40a2c:	00000033          	add	zero,zero,zero
   40a30:	0034                	addi	a3,sp,8
   40a32:	0000                	unimp
   40a34:	0035                	c.nop	13
   40a36:	0000                	unimp
   40a38:	0036                	c.slli	zero,0xd
   40a3a:	0000                	unimp
   40a3c:	00000037          	lui	zero,0x0
   40a40:	0038                	addi	a4,sp,8
   40a42:	0000                	unimp
   40a44:	0039                	c.nop	14
   40a46:	0000                	unimp
   40a48:	003a                	c.slli	zero,0xe
   40a4a:	0000                	unimp
   40a4c:	0000003b          	0x3b
   40a50:	003c                	addi	a5,sp,8
   40a52:	0000                	unimp
   40a54:	003d                	c.nop	15
   40a56:	0000                	unimp
   40a58:	003e                	c.slli	zero,0xf
   40a5a:	0000                	unimp
   40a5c:	0000003f 00000040 	0x400000003f
   40a64:	0041                	c.nop	16
   40a66:	0000                	unimp
   40a68:	0042                	c.slli	zero,0x10
   40a6a:	0000                	unimp
   40a6c:	00000043          	fmadd.s	ft0,ft0,ft0,ft0,rne
   40a70:	0044                	addi	s1,sp,4
   40a72:	0000                	unimp
   40a74:	0045                	c.nop	17
   40a76:	0000                	unimp
   40a78:	0046                	c.slli	zero,0x11
   40a7a:	0000                	unimp
   40a7c:	00000047          	fmsub.s	ft0,ft0,ft0,ft0,rne
   40a80:	0048                	addi	a0,sp,4
   40a82:	0000                	unimp
   40a84:	0049                	c.nop	18
   40a86:	0000                	unimp
   40a88:	004a                	c.slli	zero,0x12
   40a8a:	0000                	unimp
   40a8c:	0000004b          	fnmsub.s	ft0,ft0,ft0,ft0,rne
   40a90:	004c                	addi	a1,sp,4
   40a92:	0000                	unimp
   40a94:	004d                	c.nop	19
   40a96:	0000                	unimp
   40a98:	004e                	c.slli	zero,0x13
   40a9a:	0000                	unimp
   40a9c:	0000004f          	fnmadd.s	ft0,ft0,ft0,ft0,rne
   40aa0:	0050                	addi	a2,sp,4
   40aa2:	0000                	unimp
   40aa4:	0051                	c.nop	20
   40aa6:	0000                	unimp
   40aa8:	0052                	c.slli	zero,0x14
   40aaa:	0000                	unimp
   40aac:	00000053          	fadd.s	ft0,ft0,ft0,rne
   40ab0:	0054                	addi	a3,sp,4
   40ab2:	0000                	unimp
   40ab4:	0055                	c.nop	21
   40ab6:	0000                	unimp
   40ab8:	0056                	c.slli	zero,0x15
   40aba:	0000                	unimp
   40abc:	00000057          	vadd.vv	v0,v0,v0,v0.t
   40ac0:	0058                	addi	a4,sp,4
   40ac2:	0000                	unimp
   40ac4:	0059                	c.nop	22
   40ac6:	0000                	unimp
   40ac8:	005a                	c.slli	zero,0x16
   40aca:	0000                	unimp
   40acc:	0000005b          	0x5b
   40ad0:	005c                	addi	a5,sp,4
   40ad2:	0000                	unimp
   40ad4:	005d                	c.nop	23
   40ad6:	0000                	unimp
   40ad8:	005e                	c.slli	zero,0x17
   40ada:	0000                	unimp
   40adc:	005f 0000 0060      	0x600000005f
   40ae2:	0000                	unimp
   40ae4:	0061                	c.nop	24
   40ae6:	0000                	unimp
   40ae8:	0062                	c.slli	zero,0x18
   40aea:	0000                	unimp
   40aec:	00000063          	beqz	zero,40aec <weights+0xaec>
   40af0:	0000                	unimp
   40af2:	0000                	unimp
   40af4:	0001                	nop
   40af6:	0000                	unimp
   40af8:	0002                	c.slli64	zero
   40afa:	0000                	unimp
   40afc:	00000003          	lb	zero,0(zero) # 0 <boot>
   40b00:	0004                	0x4
   40b02:	0000                	unimp
   40b04:	0005                	c.nop	1
   40b06:	0000                	unimp
   40b08:	0006                	c.slli	zero,0x1
   40b0a:	0000                	unimp
   40b0c:	00000007          	vle8.v	v0,(zero),v0.t
   40b10:	0008                	0x8
   40b12:	0000                	unimp
   40b14:	0009                	c.nop	2
   40b16:	0000                	unimp
   40b18:	000a                	c.slli	zero,0x2
   40b1a:	0000                	unimp
   40b1c:	0000000b          	0xb
   40b20:	000c                	0xc
   40b22:	0000                	unimp
   40b24:	000d                	c.nop	3
   40b26:	0000                	unimp
   40b28:	000e                	c.slli	zero,0x3
   40b2a:	0000                	unimp
   40b2c:	0000000f          	fence	unknown,unknown
   40b30:	0010                	0x10
   40b32:	0000                	unimp
   40b34:	0011                	c.nop	4
   40b36:	0000                	unimp
   40b38:	0012                	c.slli	zero,0x4
   40b3a:	0000                	unimp
   40b3c:	00000013          	nop
   40b40:	0014                	0x14
   40b42:	0000                	unimp
   40b44:	0015                	c.nop	5
   40b46:	0000                	unimp
   40b48:	0016                	c.slli	zero,0x5
   40b4a:	0000                	unimp
   40b4c:	00000017          	auipc	zero,0x0
   40b50:	0018                	0x18
   40b52:	0000                	unimp
   40b54:	0019                	c.nop	6
   40b56:	0000                	unimp
   40b58:	001a                	c.slli	zero,0x6
   40b5a:	0000                	unimp
   40b5c:	0000001b          	0x1b
   40b60:	001c                	0x1c
   40b62:	0000                	unimp
   40b64:	001d                	c.nop	7
   40b66:	0000                	unimp
   40b68:	001e                	c.slli	zero,0x7
   40b6a:	0000                	unimp
   40b6c:	001f 0000 0020      	0x200000001f
   40b72:	0000                	unimp
   40b74:	0021                	c.nop	8
   40b76:	0000                	unimp
   40b78:	0022                	c.slli	zero,0x8
   40b7a:	0000                	unimp
   40b7c:	00000023          	sb	zero,0(zero) # 0 <boot>
   40b80:	0024                	addi	s1,sp,8
   40b82:	0000                	unimp
   40b84:	0025                	c.nop	9
   40b86:	0000                	unimp
   40b88:	0026                	c.slli	zero,0x9
   40b8a:	0000                	unimp
   40b8c:	00000027          	vse8.v	v0,(zero),v0.t
   40b90:	0028                	addi	a0,sp,8
   40b92:	0000                	unimp
   40b94:	0029                	c.nop	10
   40b96:	0000                	unimp
   40b98:	002a                	c.slli	zero,0xa
   40b9a:	0000                	unimp
   40b9c:	0000002b          	0x2b
   40ba0:	002c                	addi	a1,sp,8
   40ba2:	0000                	unimp
   40ba4:	002d                	c.nop	11
   40ba6:	0000                	unimp
   40ba8:	002e                	c.slli	zero,0xb
   40baa:	0000                	unimp
   40bac:	0000002f          	vamoaddei8.v	zero,(zero),v0,v0,v0.t
   40bb0:	0030                	addi	a2,sp,8
   40bb2:	0000                	unimp
   40bb4:	0031                	c.nop	12
   40bb6:	0000                	unimp
   40bb8:	0032                	c.slli	zero,0xc
   40bba:	0000                	unimp
   40bbc:	00000033          	add	zero,zero,zero
   40bc0:	0034                	addi	a3,sp,8
   40bc2:	0000                	unimp
   40bc4:	0035                	c.nop	13
   40bc6:	0000                	unimp
   40bc8:	0036                	c.slli	zero,0xd
   40bca:	0000                	unimp
   40bcc:	00000037          	lui	zero,0x0
   40bd0:	0038                	addi	a4,sp,8
   40bd2:	0000                	unimp
   40bd4:	0039                	c.nop	14
   40bd6:	0000                	unimp
   40bd8:	003a                	c.slli	zero,0xe
   40bda:	0000                	unimp
   40bdc:	0000003b          	0x3b
   40be0:	003c                	addi	a5,sp,8
   40be2:	0000                	unimp
   40be4:	003d                	c.nop	15
   40be6:	0000                	unimp
   40be8:	003e                	c.slli	zero,0xf
   40bea:	0000                	unimp
   40bec:	0000003f 00000040 	0x400000003f
   40bf4:	0041                	c.nop	16
   40bf6:	0000                	unimp
   40bf8:	0042                	c.slli	zero,0x10
   40bfa:	0000                	unimp
   40bfc:	00000043          	fmadd.s	ft0,ft0,ft0,ft0,rne
   40c00:	0044                	addi	s1,sp,4
   40c02:	0000                	unimp
   40c04:	0045                	c.nop	17
   40c06:	0000                	unimp
   40c08:	0046                	c.slli	zero,0x11
   40c0a:	0000                	unimp
   40c0c:	00000047          	fmsub.s	ft0,ft0,ft0,ft0,rne
   40c10:	0048                	addi	a0,sp,4
   40c12:	0000                	unimp
   40c14:	0049                	c.nop	18
   40c16:	0000                	unimp
   40c18:	004a                	c.slli	zero,0x12
   40c1a:	0000                	unimp
   40c1c:	0000004b          	fnmsub.s	ft0,ft0,ft0,ft0,rne
   40c20:	004c                	addi	a1,sp,4
   40c22:	0000                	unimp
   40c24:	004d                	c.nop	19
   40c26:	0000                	unimp
   40c28:	004e                	c.slli	zero,0x13
   40c2a:	0000                	unimp
   40c2c:	0000004f          	fnmadd.s	ft0,ft0,ft0,ft0,rne
   40c30:	0050                	addi	a2,sp,4
   40c32:	0000                	unimp
   40c34:	0051                	c.nop	20
   40c36:	0000                	unimp
   40c38:	0052                	c.slli	zero,0x14
   40c3a:	0000                	unimp
   40c3c:	00000053          	fadd.s	ft0,ft0,ft0,rne
   40c40:	0054                	addi	a3,sp,4
   40c42:	0000                	unimp
   40c44:	0055                	c.nop	21
   40c46:	0000                	unimp
   40c48:	0056                	c.slli	zero,0x15
   40c4a:	0000                	unimp
   40c4c:	00000057          	vadd.vv	v0,v0,v0,v0.t
   40c50:	0058                	addi	a4,sp,4
   40c52:	0000                	unimp
   40c54:	0059                	c.nop	22
   40c56:	0000                	unimp
   40c58:	005a                	c.slli	zero,0x16
   40c5a:	0000                	unimp
   40c5c:	0000005b          	0x5b
   40c60:	005c                	addi	a5,sp,4
   40c62:	0000                	unimp
   40c64:	005d                	c.nop	23
   40c66:	0000                	unimp
   40c68:	005e                	c.slli	zero,0x17
   40c6a:	0000                	unimp
   40c6c:	005f 0000 0060      	0x600000005f
   40c72:	0000                	unimp
   40c74:	0061                	c.nop	24
   40c76:	0000                	unimp
   40c78:	0062                	c.slli	zero,0x18
   40c7a:	0000                	unimp
   40c7c:	00000063          	beqz	zero,40c7c <weights+0xc7c>
   40c80:	0000                	unimp
   40c82:	0000                	unimp
   40c84:	0001                	nop
   40c86:	0000                	unimp
   40c88:	0002                	c.slli64	zero
   40c8a:	0000                	unimp
   40c8c:	00000003          	lb	zero,0(zero) # 0 <boot>
   40c90:	0004                	0x4
   40c92:	0000                	unimp
   40c94:	0005                	c.nop	1
   40c96:	0000                	unimp
   40c98:	0006                	c.slli	zero,0x1
   40c9a:	0000                	unimp
   40c9c:	00000007          	vle8.v	v0,(zero),v0.t
   40ca0:	0008                	0x8
   40ca2:	0000                	unimp
   40ca4:	0009                	c.nop	2
   40ca6:	0000                	unimp
   40ca8:	000a                	c.slli	zero,0x2
   40caa:	0000                	unimp
   40cac:	0000000b          	0xb
   40cb0:	000c                	0xc
   40cb2:	0000                	unimp
   40cb4:	000d                	c.nop	3
   40cb6:	0000                	unimp
   40cb8:	000e                	c.slli	zero,0x3
   40cba:	0000                	unimp
   40cbc:	0000000f          	fence	unknown,unknown
   40cc0:	0010                	0x10
   40cc2:	0000                	unimp
   40cc4:	0011                	c.nop	4
   40cc6:	0000                	unimp
   40cc8:	0012                	c.slli	zero,0x4
   40cca:	0000                	unimp
   40ccc:	00000013          	nop
   40cd0:	0014                	0x14
   40cd2:	0000                	unimp
   40cd4:	0015                	c.nop	5
   40cd6:	0000                	unimp
   40cd8:	0016                	c.slli	zero,0x5
   40cda:	0000                	unimp
   40cdc:	00000017          	auipc	zero,0x0
   40ce0:	0018                	0x18
   40ce2:	0000                	unimp
   40ce4:	0019                	c.nop	6
   40ce6:	0000                	unimp
   40ce8:	001a                	c.slli	zero,0x6
   40cea:	0000                	unimp
   40cec:	0000001b          	0x1b
   40cf0:	001c                	0x1c
   40cf2:	0000                	unimp
   40cf4:	001d                	c.nop	7
   40cf6:	0000                	unimp
   40cf8:	001e                	c.slli	zero,0x7
   40cfa:	0000                	unimp
   40cfc:	001f 0000 0020      	0x200000001f
   40d02:	0000                	unimp
   40d04:	0021                	c.nop	8
   40d06:	0000                	unimp
   40d08:	0022                	c.slli	zero,0x8
   40d0a:	0000                	unimp
   40d0c:	00000023          	sb	zero,0(zero) # 0 <boot>
   40d10:	0024                	addi	s1,sp,8
   40d12:	0000                	unimp
   40d14:	0025                	c.nop	9
   40d16:	0000                	unimp
   40d18:	0026                	c.slli	zero,0x9
   40d1a:	0000                	unimp
   40d1c:	00000027          	vse8.v	v0,(zero),v0.t
   40d20:	0028                	addi	a0,sp,8
   40d22:	0000                	unimp
   40d24:	0029                	c.nop	10
   40d26:	0000                	unimp
   40d28:	002a                	c.slli	zero,0xa
   40d2a:	0000                	unimp
   40d2c:	0000002b          	0x2b
   40d30:	002c                	addi	a1,sp,8
   40d32:	0000                	unimp
   40d34:	002d                	c.nop	11
   40d36:	0000                	unimp
   40d38:	002e                	c.slli	zero,0xb
   40d3a:	0000                	unimp
   40d3c:	0000002f          	vamoaddei8.v	zero,(zero),v0,v0,v0.t
   40d40:	0030                	addi	a2,sp,8
   40d42:	0000                	unimp
   40d44:	0031                	c.nop	12
   40d46:	0000                	unimp
   40d48:	0032                	c.slli	zero,0xc
   40d4a:	0000                	unimp
   40d4c:	00000033          	add	zero,zero,zero
   40d50:	0034                	addi	a3,sp,8
   40d52:	0000                	unimp
   40d54:	0035                	c.nop	13
   40d56:	0000                	unimp
   40d58:	0036                	c.slli	zero,0xd
   40d5a:	0000                	unimp
   40d5c:	00000037          	lui	zero,0x0
   40d60:	0038                	addi	a4,sp,8
   40d62:	0000                	unimp
   40d64:	0039                	c.nop	14
   40d66:	0000                	unimp
   40d68:	003a                	c.slli	zero,0xe
   40d6a:	0000                	unimp
   40d6c:	0000003b          	0x3b
   40d70:	003c                	addi	a5,sp,8
   40d72:	0000                	unimp
   40d74:	003d                	c.nop	15
   40d76:	0000                	unimp
   40d78:	003e                	c.slli	zero,0xf
   40d7a:	0000                	unimp
   40d7c:	0000003f 00000040 	0x400000003f
   40d84:	0041                	c.nop	16
   40d86:	0000                	unimp
   40d88:	0042                	c.slli	zero,0x10
   40d8a:	0000                	unimp
   40d8c:	00000043          	fmadd.s	ft0,ft0,ft0,ft0,rne
   40d90:	0044                	addi	s1,sp,4
   40d92:	0000                	unimp
   40d94:	0045                	c.nop	17
   40d96:	0000                	unimp
   40d98:	0046                	c.slli	zero,0x11
   40d9a:	0000                	unimp
   40d9c:	00000047          	fmsub.s	ft0,ft0,ft0,ft0,rne
   40da0:	0048                	addi	a0,sp,4
   40da2:	0000                	unimp
   40da4:	0049                	c.nop	18
   40da6:	0000                	unimp
   40da8:	004a                	c.slli	zero,0x12
   40daa:	0000                	unimp
   40dac:	0000004b          	fnmsub.s	ft0,ft0,ft0,ft0,rne
   40db0:	004c                	addi	a1,sp,4
   40db2:	0000                	unimp
   40db4:	004d                	c.nop	19
   40db6:	0000                	unimp
   40db8:	004e                	c.slli	zero,0x13
   40dba:	0000                	unimp
   40dbc:	0000004f          	fnmadd.s	ft0,ft0,ft0,ft0,rne
   40dc0:	0050                	addi	a2,sp,4
   40dc2:	0000                	unimp
   40dc4:	0051                	c.nop	20
   40dc6:	0000                	unimp
   40dc8:	0052                	c.slli	zero,0x14
   40dca:	0000                	unimp
   40dcc:	00000053          	fadd.s	ft0,ft0,ft0,rne
   40dd0:	0054                	addi	a3,sp,4
   40dd2:	0000                	unimp
   40dd4:	0055                	c.nop	21
   40dd6:	0000                	unimp
   40dd8:	0056                	c.slli	zero,0x15
   40dda:	0000                	unimp
   40ddc:	00000057          	vadd.vv	v0,v0,v0,v0.t
   40de0:	0058                	addi	a4,sp,4
   40de2:	0000                	unimp
   40de4:	0059                	c.nop	22
   40de6:	0000                	unimp
   40de8:	005a                	c.slli	zero,0x16
   40dea:	0000                	unimp
   40dec:	0000005b          	0x5b
   40df0:	005c                	addi	a5,sp,4
   40df2:	0000                	unimp
   40df4:	005d                	c.nop	23
   40df6:	0000                	unimp
   40df8:	005e                	c.slli	zero,0x17
   40dfa:	0000                	unimp
   40dfc:	005f 0000 0060      	0x600000005f
   40e02:	0000                	unimp
   40e04:	0061                	c.nop	24
   40e06:	0000                	unimp
   40e08:	0062                	c.slli	zero,0x18
   40e0a:	0000                	unimp
   40e0c:	00000063          	beqz	zero,40e0c <weights+0xe0c>
   40e10:	0000                	unimp
   40e12:	0000                	unimp
   40e14:	0001                	nop
   40e16:	0000                	unimp
   40e18:	0002                	c.slli64	zero
   40e1a:	0000                	unimp
   40e1c:	00000003          	lb	zero,0(zero) # 0 <boot>
   40e20:	0004                	0x4
   40e22:	0000                	unimp
   40e24:	0005                	c.nop	1
   40e26:	0000                	unimp
   40e28:	0006                	c.slli	zero,0x1
   40e2a:	0000                	unimp
   40e2c:	00000007          	vle8.v	v0,(zero),v0.t
   40e30:	0008                	0x8
   40e32:	0000                	unimp
   40e34:	0009                	c.nop	2
   40e36:	0000                	unimp
   40e38:	000a                	c.slli	zero,0x2
   40e3a:	0000                	unimp
   40e3c:	0000000b          	0xb
   40e40:	000c                	0xc
   40e42:	0000                	unimp
   40e44:	000d                	c.nop	3
   40e46:	0000                	unimp
   40e48:	000e                	c.slli	zero,0x3
   40e4a:	0000                	unimp
   40e4c:	0000000f          	fence	unknown,unknown
   40e50:	0010                	0x10
   40e52:	0000                	unimp
   40e54:	0011                	c.nop	4
   40e56:	0000                	unimp
   40e58:	0012                	c.slli	zero,0x4
   40e5a:	0000                	unimp
   40e5c:	00000013          	nop
   40e60:	0014                	0x14
   40e62:	0000                	unimp
   40e64:	0015                	c.nop	5
   40e66:	0000                	unimp
   40e68:	0016                	c.slli	zero,0x5
   40e6a:	0000                	unimp
   40e6c:	00000017          	auipc	zero,0x0
   40e70:	0018                	0x18
   40e72:	0000                	unimp
   40e74:	0019                	c.nop	6
   40e76:	0000                	unimp
   40e78:	001a                	c.slli	zero,0x6
   40e7a:	0000                	unimp
   40e7c:	0000001b          	0x1b
   40e80:	001c                	0x1c
   40e82:	0000                	unimp
   40e84:	001d                	c.nop	7
   40e86:	0000                	unimp
   40e88:	001e                	c.slli	zero,0x7
   40e8a:	0000                	unimp
   40e8c:	001f 0000 0020      	0x200000001f
   40e92:	0000                	unimp
   40e94:	0021                	c.nop	8
   40e96:	0000                	unimp
   40e98:	0022                	c.slli	zero,0x8
   40e9a:	0000                	unimp
   40e9c:	00000023          	sb	zero,0(zero) # 0 <boot>
   40ea0:	0024                	addi	s1,sp,8
   40ea2:	0000                	unimp
   40ea4:	0025                	c.nop	9
   40ea6:	0000                	unimp
   40ea8:	0026                	c.slli	zero,0x9
   40eaa:	0000                	unimp
   40eac:	00000027          	vse8.v	v0,(zero),v0.t
   40eb0:	0028                	addi	a0,sp,8
   40eb2:	0000                	unimp
   40eb4:	0029                	c.nop	10
   40eb6:	0000                	unimp
   40eb8:	002a                	c.slli	zero,0xa
   40eba:	0000                	unimp
   40ebc:	0000002b          	0x2b
   40ec0:	002c                	addi	a1,sp,8
   40ec2:	0000                	unimp
   40ec4:	002d                	c.nop	11
   40ec6:	0000                	unimp
   40ec8:	002e                	c.slli	zero,0xb
   40eca:	0000                	unimp
   40ecc:	0000002f          	vamoaddei8.v	zero,(zero),v0,v0,v0.t
   40ed0:	0030                	addi	a2,sp,8
   40ed2:	0000                	unimp
   40ed4:	0031                	c.nop	12
   40ed6:	0000                	unimp
   40ed8:	0032                	c.slli	zero,0xc
   40eda:	0000                	unimp
   40edc:	00000033          	add	zero,zero,zero
   40ee0:	0034                	addi	a3,sp,8
   40ee2:	0000                	unimp
   40ee4:	0035                	c.nop	13
   40ee6:	0000                	unimp
   40ee8:	0036                	c.slli	zero,0xd
   40eea:	0000                	unimp
   40eec:	00000037          	lui	zero,0x0
   40ef0:	0038                	addi	a4,sp,8
   40ef2:	0000                	unimp
   40ef4:	0039                	c.nop	14
   40ef6:	0000                	unimp
   40ef8:	003a                	c.slli	zero,0xe
   40efa:	0000                	unimp
   40efc:	0000003b          	0x3b
   40f00:	003c                	addi	a5,sp,8
   40f02:	0000                	unimp
   40f04:	003d                	c.nop	15
   40f06:	0000                	unimp
   40f08:	003e                	c.slli	zero,0xf
   40f0a:	0000                	unimp
   40f0c:	0000003f 00000040 	0x400000003f
   40f14:	0041                	c.nop	16
   40f16:	0000                	unimp
   40f18:	0042                	c.slli	zero,0x10
   40f1a:	0000                	unimp
   40f1c:	00000043          	fmadd.s	ft0,ft0,ft0,ft0,rne
   40f20:	0044                	addi	s1,sp,4
   40f22:	0000                	unimp
   40f24:	0045                	c.nop	17
   40f26:	0000                	unimp
   40f28:	0046                	c.slli	zero,0x11
   40f2a:	0000                	unimp
   40f2c:	00000047          	fmsub.s	ft0,ft0,ft0,ft0,rne
   40f30:	0048                	addi	a0,sp,4
   40f32:	0000                	unimp
   40f34:	0049                	c.nop	18
   40f36:	0000                	unimp
   40f38:	004a                	c.slli	zero,0x12
   40f3a:	0000                	unimp
   40f3c:	0000004b          	fnmsub.s	ft0,ft0,ft0,ft0,rne
   40f40:	004c                	addi	a1,sp,4
   40f42:	0000                	unimp
   40f44:	004d                	c.nop	19
   40f46:	0000                	unimp
   40f48:	004e                	c.slli	zero,0x13
   40f4a:	0000                	unimp
   40f4c:	0000004f          	fnmadd.s	ft0,ft0,ft0,ft0,rne
   40f50:	0050                	addi	a2,sp,4
   40f52:	0000                	unimp
   40f54:	0051                	c.nop	20
   40f56:	0000                	unimp
   40f58:	0052                	c.slli	zero,0x14
   40f5a:	0000                	unimp
   40f5c:	00000053          	fadd.s	ft0,ft0,ft0,rne
   40f60:	0054                	addi	a3,sp,4
   40f62:	0000                	unimp
   40f64:	0055                	c.nop	21
   40f66:	0000                	unimp
   40f68:	0056                	c.slli	zero,0x15
   40f6a:	0000                	unimp
   40f6c:	00000057          	vadd.vv	v0,v0,v0,v0.t
   40f70:	0058                	addi	a4,sp,4
   40f72:	0000                	unimp
   40f74:	0059                	c.nop	22
   40f76:	0000                	unimp
   40f78:	005a                	c.slli	zero,0x16
   40f7a:	0000                	unimp
   40f7c:	0000005b          	0x5b
   40f80:	005c                	addi	a5,sp,4
   40f82:	0000                	unimp
   40f84:	005d                	c.nop	23
   40f86:	0000                	unimp
   40f88:	005e                	c.slli	zero,0x17
   40f8a:	0000                	unimp
   40f8c:	005f 0000 0060      	0x600000005f
   40f92:	0000                	unimp
   40f94:	0061                	c.nop	24
   40f96:	0000                	unimp
   40f98:	0062                	c.slli	zero,0x18
   40f9a:	0000                	unimp
   40f9c:	00000063          	beqz	zero,40f9c <weights+0xf9c>
   40fa0:	0000                	unimp
   40fa2:	0000                	unimp
   40fa4:	0001                	nop
   40fa6:	0000                	unimp
   40fa8:	0002                	c.slli64	zero
   40faa:	0000                	unimp
   40fac:	00000003          	lb	zero,0(zero) # 0 <boot>
   40fb0:	0004                	0x4
   40fb2:	0000                	unimp
   40fb4:	0005                	c.nop	1
   40fb6:	0000                	unimp
   40fb8:	0006                	c.slli	zero,0x1
   40fba:	0000                	unimp
   40fbc:	00000007          	vle8.v	v0,(zero),v0.t
   40fc0:	0008                	0x8
   40fc2:	0000                	unimp
   40fc4:	0009                	c.nop	2
   40fc6:	0000                	unimp
   40fc8:	000a                	c.slli	zero,0x2
   40fca:	0000                	unimp
   40fcc:	0000000b          	0xb
   40fd0:	000c                	0xc
   40fd2:	0000                	unimp
   40fd4:	000d                	c.nop	3
   40fd6:	0000                	unimp
   40fd8:	000e                	c.slli	zero,0x3
   40fda:	0000                	unimp
   40fdc:	0000000f          	fence	unknown,unknown
   40fe0:	0010                	0x10
   40fe2:	0000                	unimp
   40fe4:	0011                	c.nop	4
   40fe6:	0000                	unimp
   40fe8:	0012                	c.slli	zero,0x4
   40fea:	0000                	unimp
   40fec:	00000013          	nop
   40ff0:	0014                	0x14
   40ff2:	0000                	unimp
   40ff4:	0015                	c.nop	5
   40ff6:	0000                	unimp
   40ff8:	0016                	c.slli	zero,0x5
   40ffa:	0000                	unimp
   40ffc:	00000017          	auipc	zero,0x0
