
riscv-spike.elf:     file format elf32-littleriscv


Disassembly of section .text:

00000000 <main>:
   0:	ff010113          	addi	sp,sp,-16
   4:	00912223          	sw	s1,4(sp)
   8:	00100737          	lui	a4,0x100
   c:	0010d4b7          	lui	s1,0x10d
  10:	00100637          	lui	a2,0x100
  14:	000205b7          	lui	a1,0x20
  18:	50048513          	addi	a0,s1,1280 # 10d500 <Y>
  1c:	01000793          	li	a5,16
  20:	24070713          	addi	a4,a4,576 # 100240 <bias>
  24:	01c00693          	li	a3,28
  28:	00060613          	mv	a2,a2
  2c:	00058593          	mv	a1,a1
  30:	00112623          	sw	ra,12(sp)
  34:	00812423          	sw	s0,8(sp)
  38:	1b8000ef          	jal	ra,1f0 <conv2d>
  3c:	0010d437          	lui	s0,0x10d
  40:	00105737          	lui	a4,0x105
  44:	00100637          	lui	a2,0x100
  48:	02000793          	li	a5,32
  4c:	50048593          	addi	a1,s1,1280
  50:	88040513          	addi	a0,s0,-1920 # 10c880 <Y2>
  54:	01000813          	li	a6,16
  58:	a8070713          	addi	a4,a4,-1408 # 104a80 <bias2>
  5c:	00d00693          	li	a3,13
  60:	28060613          	addi	a2,a2,640 # 100280 <ker2>
  64:	488000ef          	jal	ra,4ec <layer2>
  68:	0010d6b7          	lui	a3,0x10d
  6c:	001055b7          	lui	a1,0x105
  70:	88040513          	addi	a0,s0,-1920
  74:	00a00713          	li	a4,10
  78:	80068693          	addi	a3,a3,-2048 # 10c800 <bias3>
  7c:	32000613          	li	a2,800
  80:	b0058593          	addi	a1,a1,-1280 # 104b00 <w3>
  84:	08d000ef          	jal	ra,910 <layer3>
  88:	00c12083          	lw	ra,12(sp)
  8c:	00812403          	lw	s0,8(sp)
  90:	0010d7b7          	lui	a5,0x10d
  94:	84a7a023          	sw	a0,-1984(a5) # 10c840 <output>
  98:	00412483          	lw	s1,4(sp)
  9c:	00000513          	li	a0,0
  a0:	01010113          	addi	sp,sp,16
  a4:	00008067          	ret
	...

000000c0 <boot>:
  c0:	00002fb7          	lui	t6,0x2
  c4:	800f8f93          	addi	t6,t6,-2048 # 1800 <__stack_init+0xaf8>
  c8:	300f9073          	csrw	mstatus,t6
  cc:	0340006f          	j	100 <_mstart>
  d0:	00000013          	nop
  d4:	00000013          	nop
  d8:	00000013          	nop
  dc:	00000013          	nop
  e0:	00000013          	nop
  e4:	00000013          	nop
  e8:	00000013          	nop
  ec:	00000013          	nop
  f0:	00000013          	nop
  f4:	00000013          	nop
  f8:	00000013          	nop
  fc:	00000013          	nop

00000100 <_mstart>:
 100:	00000297          	auipc	t0,0x0
 104:	0b428293          	addi	t0,t0,180 # 1b4 <trap_entry>
 108:	30529073          	csrw	mtvec,t0
 10c:	00000093          	li	ra,0
 110:	00000113          	li	sp,0
 114:	00000193          	li	gp,0
 118:	00000213          	li	tp,0
 11c:	00000293          	li	t0,0
 120:	00000313          	li	t1,0
 124:	00000393          	li	t2,0
 128:	00000413          	li	s0,0
 12c:	00000493          	li	s1,0
 130:	00000513          	li	a0,0
 134:	00000593          	li	a1,0
 138:	00000613          	li	a2,0
 13c:	00000693          	li	a3,0
 140:	00000713          	li	a4,0
 144:	00000793          	li	a5,0
 148:	00000813          	li	a6,0
 14c:	00000893          	li	a7,0
 150:	00000913          	li	s2,0
 154:	00000993          	li	s3,0
 158:	00000a13          	li	s4,0
 15c:	00000a93          	li	s5,0
 160:	00000b13          	li	s6,0
 164:	00000b93          	li	s7,0
 168:	00000c13          	li	s8,0
 16c:	00000c93          	li	s9,0
 170:	00000d13          	li	s10,0
 174:	00000d93          	li	s11,0
 178:	00000e13          	li	t3,0
 17c:	00000e93          	li	t4,0
 180:	00000f13          	li	t5,0
 184:	00000f93          	li	t6,0
 188:	00024197          	auipc	gp,0x24
 18c:	9a418193          	addi	gp,gp,-1628 # 23b2c <__global_pointer$>
 190:	000ff117          	auipc	sp,0xff
 194:	e6c10113          	addi	sp,sp,-404 # feffc <__stacktop>
 198:	00000297          	auipc	t0,0x0
 19c:	01c28293          	addi	t0,t0,28 # 1b4 <trap_entry>
 1a0:	00012503          	lw	a0,0(sp)
 1a4:	00000613          	li	a2,0
 1a8:	e59ff0ef          	jal	ra,0 <main>
 1ac:	0000006f          	j	1ac <_mstart+0xac>
 1b0:	00008067          	ret

000001b4 <trap_entry>:
 1b4:	1150006f          	j	ac8 <ISR5>
 1b8:	30200073          	mret
 1bc:	10d0006f          	j	ac8 <ISR5>
 1c0:	30200073          	mret
 1c4:	1050006f          	j	ac8 <ISR5>
 1c8:	30200073          	mret
 1cc:	0fd0006f          	j	ac8 <ISR5>
 1d0:	30200073          	mret
 1d4:	0f50006f          	j	ac8 <ISR5>
 1d8:	30200073          	mret
 1dc:	2090006f          	j	be4 <ISR6>
 1e0:	30200073          	mret
	...

000001f0 <conv2d>:
 1f0:	fa010113          	addi	sp,sp,-96
 1f4:	0d000793          	li	a5,208
 1f8:	00f12a23          	sw	a5,20(sp)
 1fc:	04060793          	addi	a5,a2,64
 200:	04812e23          	sw	s0,92(sp)
 204:	04912c23          	sw	s1,88(sp)
 208:	05212a23          	sw	s2,84(sp)
 20c:	05312823          	sw	s3,80(sp)
 210:	05412623          	sw	s4,76(sp)
 214:	05512423          	sw	s5,72(sp)
 218:	05612223          	sw	s6,68(sp)
 21c:	05712023          	sw	s7,64(sp)
 220:	03812e23          	sw	s8,60(sp)
 224:	03912c23          	sw	s9,56(sp)
 228:	03a12a23          	sw	s10,52(sp)
 22c:	03b12823          	sw	s11,48(sp)
 230:	00c12c23          	sw	a2,24(sp)
 234:	00e12e23          	sw	a4,28(sp)
 238:	02a12423          	sw	a0,40(sp)
 23c:	02b12623          	sw	a1,44(sp)
 240:	02012023          	sw	zero,32(sp)
 244:	02012223          	sw	zero,36(sp)
 248:	00f12423          	sw	a5,8(sp)
 24c:	02c12783          	lw	a5,44(sp)
 250:	00078c93          	mv	s9,a5
 254:	0e078293          	addi	t0,a5,224
 258:	07078f93          	addi	t6,a5,112
 25c:	02012783          	lw	a5,32(sp)
 260:	150c8b13          	addi	s6,s9,336
 264:	02512623          	sw	t0,44(sp)
 268:	03878793          	addi	a5,a5,56
 26c:	02f12023          	sw	a5,32(sp)
 270:	02412783          	lw	a5,36(sp)
 274:	000b0b93          	mv	s7,s6
 278:	00479793          	slli	a5,a5,0x4
 27c:	00f12823          	sw	a5,16(sp)
 280:	02812783          	lw	a5,40(sp)
 284:	00f12623          	sw	a5,12(sp)
 288:	01812703          	lw	a4,24(sp)
 28c:	01c12383          	lw	t2,28(sp)
 290:	00c12d03          	lw	s10,12(sp)
 294:	00072f03          	lw	t5,0(a4)
 298:	04072983          	lw	s3,64(a4)
 29c:	004caa03          	lw	s4,4(s9)
 2a0:	000cac03          	lw	s8,0(s9)
 2a4:	008ca903          	lw	s2,8(s9)
 2a8:	03498b33          	mul	s6,s3,s4
 2ac:	08072e83          	lw	t4,128(a4)
 2b0:	004fae03          	lw	t3,4(t6)
 2b4:	008fa883          	lw	a7,8(t6)
 2b8:	000fa483          	lw	s1,0(t6)
 2bc:	0c072303          	lw	t1,192(a4)
 2c0:	10072803          	lw	a6,256(a4)
 2c4:	0042a583          	lw	a1,4(t0)
 2c8:	00cfa403          	lw	s0,12(t6)
 2cc:	0082a683          	lw	a3,8(t0)
 2d0:	038f0c33          	mul	s8,t5,s8
 2d4:	14072503          	lw	a0,320(a4)
 2d8:	18072603          	lw	a2,384(a4)
 2dc:	1c072a83          	lw	s5,448(a4)
 2e0:	20072783          	lw	a5,512(a4)
 2e4:	03390db3          	mul	s11,s2,s3
 2e8:	016c0b33          	add	s6,s8,s6
 2ec:	00ccac03          	lw	s8,12(s9)
 2f0:	03ea0a33          	mul	s4,s4,t5
 2f4:	032e8933          	mul	s2,t4,s2
 2f8:	014d8a33          	add	s4,s11,s4
 2fc:	038e8db3          	mul	s11,t4,s8
 300:	01690b33          	add	s6,s2,s6
 304:	03e48c33          	mul	s8,s1,t5
 308:	014d8a33          	add	s4,s11,s4
 30c:	03c98933          	mul	s2,s3,t3
 310:	03ee0f33          	mul	t5,t3,t5
 314:	01890c33          	add	s8,s2,s8
 318:	033889b3          	mul	s3,a7,s3
 31c:	029304b3          	mul	s1,t1,s1
 320:	01e98f33          	add	t5,s3,t5
 324:	03c30db3          	mul	s11,t1,t3
 328:	01648b33          	add	s6,s1,s6
 32c:	03c80e33          	mul	t3,a6,t3
 330:	014d8a33          	add	s4,s11,s4
 334:	031e89b3          	mul	s3,t4,a7
 338:	016e0b33          	add	s6,t3,s6
 33c:	0002ae03          	lw	t3,0(t0)
 340:	01898c33          	add	s8,s3,s8
 344:	026e09b3          	mul	s3,t3,t1
 348:	01898c33          	add	s8,s3,s8
 34c:	02b809b3          	mul	s3,a6,a1
 350:	03d40eb3          	mul	t4,s0,t4
 354:	018989b3          	add	s3,s3,s8
 358:	02658333          	mul	t1,a1,t1
 35c:	01ee8f33          	add	t5,t4,t5
 360:	03180db3          	mul	s11,a6,a7
 364:	01e30f33          	add	t5,t1,t5
 368:	03068833          	mul	a6,a3,a6
 36c:	014d8a33          	add	s4,s11,s4
 370:	02850433          	mul	s0,a0,s0
 374:	01e80f33          	add	t5,a6,t5
 378:	00c2a803          	lw	a6,12(t0)
 37c:	02d50c33          	mul	s8,a0,a3
 380:	01440a33          	add	s4,s0,s4
 384:	02b60433          	mul	s0,a2,a1
 388:	013c0c33          	add	s8,s8,s3
 38c:	031508b3          	mul	a7,a0,a7
 390:	01440a33          	add	s4,s0,s4
 394:	02a80533          	mul	a0,a6,a0
 398:	000ba803          	lw	a6,0(s7)
 39c:	01688b33          	add	s6,a7,s6
 3a0:	008ba883          	lw	a7,8(s7)
 3a4:	030609b3          	mul	s3,a2,a6
 3a8:	004ba803          	lw	a6,4(s7)
 3ac:	01e50533          	add	a0,a0,t5
 3b0:	03c60e33          	mul	t3,a2,t3
 3b4:	018989b3          	add	s3,s3,s8
 3b8:	02c80633          	mul	a2,a6,a2
 3bc:	00c2a803          	lw	a6,12(t0)
 3c0:	016e0b33          	add	s6,t3,s6
 3c4:	02ba85b3          	mul	a1,s5,a1
 3c8:	00a60633          	add	a2,a2,a0
 3cc:	02da8433          	mul	s0,s5,a3
 3d0:	016585b3          	add	a1,a1,s6
 3d4:	02d786b3          	mul	a3,a5,a3
 3d8:	01440a33          	add	s4,s0,s4
 3dc:	03078833          	mul	a6,a5,a6
 3e0:	00b686b3          	add	a3,a3,a1
 3e4:	004ba583          	lw	a1,4(s7)
 3e8:	01480533          	add	a0,a6,s4
 3ec:	008ba803          	lw	a6,8(s7)
 3f0:	02ba85b3          	mul	a1,s5,a1
 3f4:	03078833          	mul	a6,a5,a6
 3f8:	013585b3          	add	a1,a1,s3
 3fc:	03588ab3          	mul	s5,a7,s5
 400:	00b805b3          	add	a1,a6,a1
 404:	00ca8633          	add	a2,s5,a2
 408:	00d55463          	bge	a0,a3,410 <conv2d+0x220>
 40c:	00068513          	mv	a0,a3
 410:	00a5d463          	bge	a1,a0,418 <conv2d+0x228>
 414:	00050593          	mv	a1,a0
 418:	00cba683          	lw	a3,12(s7)
 41c:	02d787b3          	mul	a5,a5,a3
 420:	00c787b3          	add	a5,a5,a2
 424:	00b7d463          	bge	a5,a1,42c <conv2d+0x23c>
 428:	00058793          	mv	a5,a1
 42c:	0003a683          	lw	a3,0(t2)
 430:	00d787b3          	add	a5,a5,a3
 434:	0af05863          	blez	a5,4e4 <conv2d+0x2f4>
 438:	00fd2023          	sw	a5,0(s10)
 43c:	00812783          	lw	a5,8(sp)
 440:	00470713          	addi	a4,a4,4
 444:	00438393          	addi	t2,t2,4
 448:	004d0d13          	addi	s10,s10,4
 44c:	e4f714e3          	bne	a4,a5,294 <conv2d+0xa4>
 450:	00c12703          	lw	a4,12(sp)
 454:	01012783          	lw	a5,16(sp)
 458:	008c8c93          	addi	s9,s9,8
 45c:	04070713          	addi	a4,a4,64
 460:	00e12623          	sw	a4,12(sp)
 464:	01412703          	lw	a4,20(sp)
 468:	01078793          	addi	a5,a5,16
 46c:	00f12823          	sw	a5,16(sp)
 470:	008f8f93          	addi	t6,t6,8
 474:	00828293          	addi	t0,t0,8
 478:	008b8b93          	addi	s7,s7,8
 47c:	e0f716e3          	bne	a4,a5,288 <conv2d+0x98>
 480:	0d070793          	addi	a5,a4,208
 484:	00f12a23          	sw	a5,20(sp)
 488:	02812783          	lw	a5,40(sp)
 48c:	2d800713          	li	a4,728
 490:	34078793          	addi	a5,a5,832
 494:	02f12423          	sw	a5,40(sp)
 498:	02412783          	lw	a5,36(sp)
 49c:	00d78793          	addi	a5,a5,13
 4a0:	02f12223          	sw	a5,36(sp)
 4a4:	02012783          	lw	a5,32(sp)
 4a8:	dae792e3          	bne	a5,a4,24c <conv2d+0x5c>
 4ac:	05c12403          	lw	s0,92(sp)
 4b0:	05812483          	lw	s1,88(sp)
 4b4:	05412903          	lw	s2,84(sp)
 4b8:	05012983          	lw	s3,80(sp)
 4bc:	04c12a03          	lw	s4,76(sp)
 4c0:	04812a83          	lw	s5,72(sp)
 4c4:	04412b03          	lw	s6,68(sp)
 4c8:	04012b83          	lw	s7,64(sp)
 4cc:	03c12c03          	lw	s8,60(sp)
 4d0:	03812c83          	lw	s9,56(sp)
 4d4:	03412d03          	lw	s10,52(sp)
 4d8:	03012d83          	lw	s11,48(sp)
 4dc:	06010113          	addi	sp,sp,96
 4e0:	00008067          	ret
 4e4:	000d2023          	sw	zero,0(s10)
 4e8:	f55ff06f          	j	43c <conv2d+0x24c>

000004ec <layer2>:
 4ec:	f6010113          	addi	sp,sp,-160
 4f0:	000017b7          	lui	a5,0x1
 4f4:	80078793          	addi	a5,a5,-2048 # 800 <layer2+0x314>
 4f8:	06e12623          	sw	a4,108(sp)
 4fc:	0a000713          	li	a4,160
 500:	04e12c23          	sw	a4,88(sp)
 504:	04f12623          	sw	a5,76(sp)
 508:	fffff737          	lui	a4,0xfffff
 50c:	000047b7          	lui	a5,0x4
 510:	80070713          	addi	a4,a4,-2048 # ffffe800 <__VREG_END+0xffe7e800>
 514:	80078793          	addi	a5,a5,-2048 # 3800 <__stack_init+0x2af8>
 518:	08812e23          	sw	s0,156(sp)
 51c:	08912c23          	sw	s1,152(sp)
 520:	09212a23          	sw	s2,148(sp)
 524:	09312823          	sw	s3,144(sp)
 528:	09412623          	sw	s4,140(sp)
 52c:	09512423          	sw	s5,136(sp)
 530:	09612223          	sw	s6,132(sp)
 534:	09712023          	sw	s7,128(sp)
 538:	07812e23          	sw	s8,124(sp)
 53c:	07912c23          	sw	s9,120(sp)
 540:	07a12a23          	sw	s10,116(sp)
 544:	07b12823          	sw	s11,112(sp)
 548:	06a12223          	sw	a0,100(sp)
 54c:	06c12423          	sw	a2,104(sp)
 550:	04b12a23          	sw	a1,84(sp)
 554:	04012823          	sw	zero,80(sp)
 558:	06012023          	sw	zero,96(sp)
 55c:	04e12423          	sw	a4,72(sp)
 560:	02f12a23          	sw	a5,52(sp)
 564:	05012783          	lw	a5,80(sp)
 568:	00579793          	slli	a5,a5,0x5
 56c:	04f12e23          	sw	a5,92(sp)
 570:	05412783          	lw	a5,84(sp)
 574:	04f12223          	sw	a5,68(sp)
 578:	05c12783          	lw	a5,92(sp)
 57c:	06412703          	lw	a4,100(sp)
 580:	04012023          	sw	zero,64(sp)
 584:	00279793          	slli	a5,a5,0x2
 588:	00f707b3          	add	a5,a4,a5
 58c:	02f12e23          	sw	a5,60(sp)
 590:	06c12783          	lw	a5,108(sp)
 594:	00002737          	lui	a4,0x2
 598:	02f12c23          	sw	a5,56(sp)
 59c:	06812783          	lw	a5,104(sp)
 5a0:	00e787b3          	add	a5,a5,a4
 5a4:	02f12823          	sw	a5,48(sp)
 5a8:	04412b83          	lw	s7,68(sp)
 5ac:	000017b7          	lui	a5,0x1
 5b0:	9c078793          	addi	a5,a5,-1600 # 9c0 <layer3+0xb0>
 5b4:	04812703          	lw	a4,72(sp)
 5b8:	00fb86b3          	add	a3,s7,a5
 5bc:	03012783          	lw	a5,48(sp)
 5c0:	00000c13          	li	s8,0
 5c4:	000c0a93          	mv	s5,s8
 5c8:	00e783b3          	add	t2,a5,a4
 5cc:	04c12703          	lw	a4,76(sp)
 5d0:	80078a13          	addi	s4,a5,-2048
 5d4:	00012823          	sw	zero,16(sp)
 5d8:	00e78733          	add	a4,a5,a4
 5dc:	00e12423          	sw	a4,8(sp)
 5e0:	00002737          	lui	a4,0x2
 5e4:	80070713          	addi	a4,a4,-2048 # 1800 <__stack_init+0xaf8>
 5e8:	00e787b3          	add	a5,a5,a4
 5ec:	00f12623          	sw	a5,12(sp)
 5f0:	00000c93          	li	s9,0
 5f4:	00000d13          	li	s10,0
 5f8:	000a0f93          	mv	t6,s4
 5fc:	00068c13          	mv	s8,a3
 600:	8003ae83          	lw	t4,-2048(t2)
 604:	0c0ba783          	lw	a5,192(s7)
 608:	000bab03          	lw	s6,0(s7)
 60c:	740ba683          	lw	a3,1856(s7)
 610:	02f12223          	sw	a5,36(sp)
 614:	036e8b33          	mul	s6,t4,s6
 618:	680ba783          	lw	a5,1664(s7)
 61c:	00c12f03          	lw	t5,12(sp)
 620:	00d12c23          	sw	a3,24(sp)
 624:	00f12e23          	sw	a5,28(sp)
 628:	00812783          	lw	a5,8(sp)
 62c:	800f2683          	lw	a3,-2048(t5)
 630:	040c2a03          	lw	s4,64(s8)
 634:	8007a503          	lw	a0,-2048(a5)
 638:	0007a603          	lw	a2,0(a5)
 63c:	000f2783          	lw	a5,0(t5)
 640:	03412f03          	lw	t5,52(sp)
 644:	000c2d83          	lw	s11,0(s8)
 648:	3c0ba583          	lw	a1,960(s7)
 64c:	01e38f33          	add	t5,t2,t5
 650:	380ba803          	lw	a6,896(s7)
 654:	0003ae03          	lw	t3,0(t2)
 658:	800fa303          	lw	t1,-2048(t6)
 65c:	000fa883          	lw	a7,0(t6)
 660:	6c0ba703          	lw	a4,1728(s7)
 664:	700ba283          	lw	t0,1792(s7)
 668:	040ba983          	lw	s3,64(s7)
 66c:	340ba483          	lw	s1,832(s7)
 670:	080ba903          	lw	s2,128(s7)
 674:	400ba403          	lw	s0,1024(s7)
 678:	03612023          	sw	s6,32(sp)
 67c:	01412a23          	sw	s4,20(sp)
 680:	03b12423          	sw	s11,40(sp)
 684:	080c2d83          	lw	s11,128(s8)
 688:	000f2f03          	lw	t5,0(t5)
 68c:	0c0c2b03          	lw	s6,192(s8)
 690:	03d98a33          	mul	s4,s3,t4
 694:	080f8f93          	addi	t6,t6,128
 698:	03612623          	sw	s6,44(sp)
 69c:	02012b03          	lw	s6,32(sp)
 6a0:	004b8b93          	addi	s7,s7,4
 6a4:	004c0c13          	addi	s8,s8,4
 6a8:	015b0b33          	add	s6,s6,s5
 6ac:	00812a83          	lw	s5,8(sp)
 6b0:	08038393          	addi	t2,t2,128
 6b4:	080a8a93          	addi	s5,s5,128
 6b8:	01512423          	sw	s5,8(sp)
 6bc:	03d48ab3          	mul	s5,s1,t4
 6c0:	01aa0d33          	add	s10,s4,s10
 6c4:	00c12a03          	lw	s4,12(sp)
 6c8:	080a0a13          	addi	s4,s4,128
 6cc:	01412623          	sw	s4,12(sp)
 6d0:	03d80eb3          	mul	t4,a6,t4
 6d4:	019a8ab3          	add	s5,s5,s9
 6d8:	01012c83          	lw	s9,16(sp)
 6dc:	03c90a33          	mul	s4,s2,t3
 6e0:	019e8eb3          	add	t4,t4,s9
 6e4:	033e09b3          	mul	s3,t3,s3
 6e8:	01aa0d33          	add	s10,s4,s10
 6ec:	030e0cb3          	mul	s9,t3,a6
 6f0:	016989b3          	add	s3,s3,s6
 6f4:	03c58e33          	mul	t3,a1,t3
 6f8:	015c8ab3          	add	s5,s9,s5
 6fc:	01de0eb3          	add	t4,t3,t4
 700:	02412e03          	lw	t3,36(sp)
 704:	02b30cb3          	mul	s9,t1,a1
 708:	03c30a33          	mul	s4,t1,t3
 70c:	015c8cb3          	add	s9,s9,s5
 710:	03230933          	mul	s2,t1,s2
 714:	01aa0d33          	add	s10,s4,s10
 718:	02640333          	mul	t1,s0,t1
 71c:	013909b3          	add	s3,s2,s3
 720:	01d30eb3          	add	t4,t1,t4
 724:	01c12303          	lw	t1,28(sp)
 728:	03088a33          	mul	s4,a7,a6
 72c:	03130ab3          	mul	s5,t1,a7
 730:	01aa0d33          	add	s10,s4,s10
 734:	019a8cb3          	add	s9,s5,s9
 738:	02e50ab3          	mul	s5,a0,a4
 73c:	029884b3          	mul	s1,a7,s1
 740:	019a8cb3          	add	s9,s5,s9
 744:	031708b3          	mul	a7,a4,a7
 748:	013489b3          	add	s3,s1,s3
 74c:	02b50a33          	mul	s4,a0,a1
 750:	01d88eb3          	add	t4,a7,t4
 754:	03050833          	mul	a6,a0,a6
 758:	01aa0a33          	add	s4,s4,s10
 75c:	02a28533          	mul	a0,t0,a0
 760:	013809b3          	add	s3,a6,s3
 764:	02560ab3          	mul	s5,a2,t0
 768:	01d50eb3          	add	t4,a0,t4
 76c:	02812503          	lw	a0,40(sp)
 770:	02b60b33          	mul	s6,a2,a1
 774:	01812583          	lw	a1,24(sp)
 778:	019a8ab3          	add	s5,s5,s9
 77c:	02860433          	mul	s0,a2,s0
 780:	013b09b3          	add	s3,s6,s3
 784:	02c58633          	mul	a2,a1,a2
 788:	01440a33          	add	s4,s0,s4
 78c:	02e68d33          	mul	s10,a3,a4
 790:	01d60eb3          	add	t4,a2,t4
 794:	01412603          	lw	a2,20(sp)
 798:	02a68cb3          	mul	s9,a3,a0
 79c:	014d0a33          	add	s4,s10,s4
 7a0:	02668b33          	mul	s6,a3,t1
 7a4:	015c8ab3          	add	s5,s9,s5
 7a8:	02e78733          	mul	a4,a5,a4
 7ac:	013b0b33          	add	s6,s6,s3
 7b0:	02578d33          	mul	s10,a5,t0
 7b4:	01670b33          	add	s6,a4,s6
 7b8:	02f60cb3          	mul	s9,a2,a5
 7bc:	014d0d33          	add	s10,s10,s4
 7c0:	025f02b3          	mul	t0,t5,t0
 7c4:	015c8cb3          	add	s9,s9,s5
 7c8:	01628ab3          	add	s5,t0,s6
 7cc:	02c12b03          	lw	s6,44(sp)
 7d0:	02c686b3          	mul	a3,a3,a2
 7d4:	03b787b3          	mul	a5,a5,s11
 7d8:	01d686b3          	add	a3,a3,t4
 7dc:	02bf0733          	mul	a4,t5,a1
 7e0:	00d787b3          	add	a5,a5,a3
 7e4:	03ed8db3          	mul	s11,s11,t5
 7e8:	01a70d33          	add	s10,a4,s10
 7ec:	036f0f33          	mul	t5,t5,s6
 7f0:	019d8cb3          	add	s9,s11,s9
 7f4:	00ff07b3          	add	a5,t5,a5
 7f8:	00f12823          	sw	a5,16(sp)
 7fc:	03012783          	lw	a5,48(sp)
 800:	e1f790e3          	bne	a5,t6,600 <layer2+0x114>
 804:	01012703          	lw	a4,16(sp)
 808:	000a8c13          	mv	s8,s5
 80c:	000c8793          	mv	a5,s9
 810:	00ecd463          	bge	s9,a4,818 <layer2+0x32c>
 814:	00070793          	mv	a5,a4
 818:	01a7d463          	bge	a5,s10,820 <layer2+0x334>
 81c:	000d0793          	mv	a5,s10
 820:	0187d463          	bge	a5,s8,828 <layer2+0x33c>
 824:	000c0793          	mv	a5,s8
 828:	03812703          	lw	a4,56(sp)
 82c:	00072703          	lw	a4,0(a4)
 830:	00e787b3          	add	a5,a5,a4
 834:	0cf05663          	blez	a5,900 <layer2+0x414>
 838:	03c12703          	lw	a4,60(sp)
 83c:	00f72023          	sw	a5,0(a4)
 840:	00470713          	addi	a4,a4,4
 844:	02e12e23          	sw	a4,60(sp)
 848:	03812703          	lw	a4,56(sp)
 84c:	04012783          	lw	a5,64(sp)
 850:	00470713          	addi	a4,a4,4
 854:	02e12c23          	sw	a4,56(sp)
 858:	03012703          	lw	a4,48(sp)
 85c:	00178793          	addi	a5,a5,1
 860:	04f12023          	sw	a5,64(sp)
 864:	00470713          	addi	a4,a4,4
 868:	02e12823          	sw	a4,48(sp)
 86c:	02000713          	li	a4,32
 870:	d2e79ce3          	bne	a5,a4,5a8 <layer2+0xbc>
 874:	04412703          	lw	a4,68(sp)
 878:	05c12783          	lw	a5,92(sp)
 87c:	08070713          	addi	a4,a4,128
 880:	04e12223          	sw	a4,68(sp)
 884:	05812703          	lw	a4,88(sp)
 888:	02078793          	addi	a5,a5,32
 88c:	04f12e23          	sw	a5,92(sp)
 890:	cef714e3          	bne	a4,a5,578 <layer2+0x8c>
 894:	0a070713          	addi	a4,a4,160
 898:	04e12c23          	sw	a4,88(sp)
 89c:	05412703          	lw	a4,84(sp)
 8a0:	06012783          	lw	a5,96(sp)
 8a4:	68070713          	addi	a4,a4,1664
 8a8:	04e12a23          	sw	a4,84(sp)
 8ac:	05012703          	lw	a4,80(sp)
 8b0:	01a78793          	addi	a5,a5,26
 8b4:	06f12023          	sw	a5,96(sp)
 8b8:	00570713          	addi	a4,a4,5
 8bc:	04e12823          	sw	a4,80(sp)
 8c0:	08200713          	li	a4,130
 8c4:	cae790e3          	bne	a5,a4,564 <layer2+0x78>
 8c8:	09c12403          	lw	s0,156(sp)
 8cc:	09812483          	lw	s1,152(sp)
 8d0:	09412903          	lw	s2,148(sp)
 8d4:	09012983          	lw	s3,144(sp)
 8d8:	08c12a03          	lw	s4,140(sp)
 8dc:	08812a83          	lw	s5,136(sp)
 8e0:	08412b03          	lw	s6,132(sp)
 8e4:	08012b83          	lw	s7,128(sp)
 8e8:	07c12c03          	lw	s8,124(sp)
 8ec:	07812c83          	lw	s9,120(sp)
 8f0:	07412d03          	lw	s10,116(sp)
 8f4:	07012d83          	lw	s11,112(sp)
 8f8:	0a010113          	addi	sp,sp,160
 8fc:	00008067          	ret
 900:	03c12783          	lw	a5,60(sp)
 904:	0007a023          	sw	zero,0(a5)
 908:	00078713          	mv	a4,a5
 90c:	f35ff06f          	j	840 <layer2+0x354>

00000910 <layer3>:
 910:	00050e93          	mv	t4,a0
 914:	00008537          	lui	a0,0x8
 918:	fd010113          	addi	sp,sp,-48
 91c:	d0050513          	addi	a0,a0,-768 # 7d00 <__stack_init+0x6ff8>
 920:	ffff8e37          	lui	t3,0xffff8
 924:	00068813          	mv	a6,a3
 928:	00810313          	addi	t1,sp,8
 92c:	00a58533          	add	a0,a1,a0
 930:	00000893          	li	a7,0
 934:	300e0e13          	addi	t3,t3,768 # ffff8300 <__VREG_END+0xffe78300>
 938:	00a00f13          	li	t5,10
 93c:	000e8693          	mv	a3,t4
 940:	01c507b3          	add	a5,a0,t3
 944:	00000613          	li	a2,0
 948:	0006a703          	lw	a4,0(a3)
 94c:	0007a583          	lw	a1,0(a5)
 950:	02878793          	addi	a5,a5,40
 954:	00468693          	addi	a3,a3,4
 958:	02b70733          	mul	a4,a4,a1
 95c:	00e60633          	add	a2,a2,a4
 960:	fef514e3          	bne	a0,a5,948 <layer3+0x38>
 964:	00082783          	lw	a5,0(a6)
 968:	00188893          	addi	a7,a7,1
 96c:	00480813          	addi	a6,a6,4
 970:	00c78633          	add	a2,a5,a2
 974:	fff64793          	not	a5,a2
 978:	41f7d793          	srai	a5,a5,0x1f
 97c:	00f67633          	and	a2,a2,a5
 980:	00c32023          	sw	a2,0(t1)
 984:	00450513          	addi	a0,a0,4
 988:	00430313          	addi	t1,t1,4
 98c:	fbe898e3          	bne	a7,t5,93c <layer3+0x2c>
 990:	00812783          	lw	a5,8(sp)
 994:	00c12703          	lw	a4,12(sp)
 998:	00000513          	li	a0,0
 99c:	00e7d663          	bge	a5,a4,9a8 <layer3+0x98>
 9a0:	00070793          	mv	a5,a4
 9a4:	00100513          	li	a0,1
 9a8:	01012703          	lw	a4,16(sp)
 9ac:	00e7d663          	bge	a5,a4,9b8 <layer3+0xa8>
 9b0:	00070793          	mv	a5,a4
 9b4:	00200513          	li	a0,2
 9b8:	01412703          	lw	a4,20(sp)
 9bc:	00e7d663          	bge	a5,a4,9c8 <layer3+0xb8>
 9c0:	00070793          	mv	a5,a4
 9c4:	00300513          	li	a0,3
 9c8:	01812703          	lw	a4,24(sp)
 9cc:	00e7d663          	bge	a5,a4,9d8 <layer3+0xc8>
 9d0:	00070793          	mv	a5,a4
 9d4:	00400513          	li	a0,4
 9d8:	01c12703          	lw	a4,28(sp)
 9dc:	00e7d663          	bge	a5,a4,9e8 <layer3+0xd8>
 9e0:	00070793          	mv	a5,a4
 9e4:	00500513          	li	a0,5
 9e8:	02012703          	lw	a4,32(sp)
 9ec:	00e7d663          	bge	a5,a4,9f8 <layer3+0xe8>
 9f0:	00070793          	mv	a5,a4
 9f4:	00600513          	li	a0,6
 9f8:	02412703          	lw	a4,36(sp)
 9fc:	00e7d663          	bge	a5,a4,a08 <layer3+0xf8>
 a00:	00070793          	mv	a5,a4
 a04:	00700513          	li	a0,7
 a08:	02812703          	lw	a4,40(sp)
 a0c:	00e7d663          	bge	a5,a4,a18 <layer3+0x108>
 a10:	00070793          	mv	a5,a4
 a14:	00800513          	li	a0,8
 a18:	02c12703          	lw	a4,44(sp)
 a1c:	00e7d463          	bge	a5,a4,a24 <layer3+0x114>
 a20:	00900513          	li	a0,9
 a24:	03010113          	addi	sp,sp,48
 a28:	00008067          	ret

00000a2c <softmax>:
 a2c:	00052783          	lw	a5,0(a0)
 a30:	00452683          	lw	a3,4(a0)
 a34:	00050713          	mv	a4,a0
 a38:	00000513          	li	a0,0
 a3c:	00d7d663          	bge	a5,a3,a48 <softmax+0x1c>
 a40:	00068793          	mv	a5,a3
 a44:	00100513          	li	a0,1
 a48:	00872683          	lw	a3,8(a4)
 a4c:	00d7d663          	bge	a5,a3,a58 <softmax+0x2c>
 a50:	00068793          	mv	a5,a3
 a54:	00200513          	li	a0,2
 a58:	00c72683          	lw	a3,12(a4)
 a5c:	00d7d663          	bge	a5,a3,a68 <softmax+0x3c>
 a60:	00068793          	mv	a5,a3
 a64:	00300513          	li	a0,3
 a68:	01072683          	lw	a3,16(a4)
 a6c:	00d7d663          	bge	a5,a3,a78 <softmax+0x4c>
 a70:	00068793          	mv	a5,a3
 a74:	00400513          	li	a0,4
 a78:	01472683          	lw	a3,20(a4)
 a7c:	00d7d663          	bge	a5,a3,a88 <softmax+0x5c>
 a80:	00068793          	mv	a5,a3
 a84:	00500513          	li	a0,5
 a88:	01872683          	lw	a3,24(a4)
 a8c:	00d7d663          	bge	a5,a3,a98 <softmax+0x6c>
 a90:	00068793          	mv	a5,a3
 a94:	00600513          	li	a0,6
 a98:	01c72683          	lw	a3,28(a4)
 a9c:	00d7d663          	bge	a5,a3,aa8 <softmax+0x7c>
 aa0:	00068793          	mv	a5,a3
 aa4:	00700513          	li	a0,7
 aa8:	02072683          	lw	a3,32(a4)
 aac:	00d7d663          	bge	a5,a3,ab8 <softmax+0x8c>
 ab0:	00068793          	mv	a5,a3
 ab4:	00800513          	li	a0,8
 ab8:	02472703          	lw	a4,36(a4)
 abc:	00e7d463          	bge	a5,a4,ac4 <softmax+0x98>
 ac0:	00900513          	li	a0,9
 ac4:	00008067          	ret

00000ac8 <ISR5>:
 ac8:	30047073          	csrci	mstatus,8
 acc:	e8010113          	addi	sp,sp,-384
 ad0:	10112023          	sw	ra,256(sp)
 ad4:	10212223          	sw	sp,260(sp)
 ad8:	10312423          	sw	gp,264(sp)
 adc:	10412623          	sw	tp,268(sp)
 ae0:	10512823          	sw	t0,272(sp)
 ae4:	10612a23          	sw	t1,276(sp)
 ae8:	10712c23          	sw	t2,280(sp)
 aec:	10812e23          	sw	s0,284(sp)
 af0:	12912023          	sw	s1,288(sp)
 af4:	12a12223          	sw	a0,292(sp)
 af8:	12b12423          	sw	a1,296(sp)
 afc:	12c12623          	sw	a2,300(sp)
 b00:	12d12823          	sw	a3,304(sp)
 b04:	12e12a23          	sw	a4,308(sp)
 b08:	12f12c23          	sw	a5,312(sp)
 b0c:	13012e23          	sw	a6,316(sp)
 b10:	15112023          	sw	a7,320(sp)
 b14:	15212223          	sw	s2,324(sp)
 b18:	15312423          	sw	s3,328(sp)
 b1c:	15412623          	sw	s4,332(sp)
 b20:	15512823          	sw	s5,336(sp)
 b24:	15612a23          	sw	s6,340(sp)
 b28:	15712c23          	sw	s7,344(sp)
 b2c:	15812e23          	sw	s8,348(sp)
 b30:	17912023          	sw	s9,352(sp)
 b34:	17a12223          	sw	s10,356(sp)
 b38:	17b12423          	sw	s11,360(sp)
 b3c:	17c12623          	sw	t3,364(sp)
 b40:	17d12823          	sw	t4,368(sp)
 b44:	17e12a23          	sw	t5,372(sp)
 b48:	17f12c23          	sw	t6,376(sp)
 b4c:	341022f3          	csrr	t0,mepc
 b50:	16512e23          	sw	t0,380(sp)
 b54:	1ac000ef          	jal	ra,d00 <ISR5_uart>
 b58:	30047073          	csrci	mstatus,8
 b5c:	17c12283          	lw	t0,380(sp)
 b60:	34129073          	csrw	mepc,t0
 b64:	10012083          	lw	ra,256(sp)
 b68:	10c12203          	lw	tp,268(sp)
 b6c:	11012283          	lw	t0,272(sp)
 b70:	11412303          	lw	t1,276(sp)
 b74:	11812383          	lw	t2,280(sp)
 b78:	11c12403          	lw	s0,284(sp)
 b7c:	12012483          	lw	s1,288(sp)
 b80:	12412503          	lw	a0,292(sp)
 b84:	12812583          	lw	a1,296(sp)
 b88:	12c12603          	lw	a2,300(sp)
 b8c:	13012683          	lw	a3,304(sp)
 b90:	13412703          	lw	a4,308(sp)
 b94:	13812783          	lw	a5,312(sp)
 b98:	13c12803          	lw	a6,316(sp)
 b9c:	14012883          	lw	a7,320(sp)
 ba0:	14412903          	lw	s2,324(sp)
 ba4:	14812983          	lw	s3,328(sp)
 ba8:	14c12a03          	lw	s4,332(sp)
 bac:	15012a83          	lw	s5,336(sp)
 bb0:	15412b03          	lw	s6,340(sp)
 bb4:	15812b83          	lw	s7,344(sp)
 bb8:	15c12c03          	lw	s8,348(sp)
 bbc:	16012c83          	lw	s9,352(sp)
 bc0:	16412d03          	lw	s10,356(sp)
 bc4:	16812d83          	lw	s11,360(sp)
 bc8:	16c12e03          	lw	t3,364(sp)
 bcc:	17012e83          	lw	t4,368(sp)
 bd0:	17412f03          	lw	t5,372(sp)
 bd4:	17812f83          	lw	t6,376(sp)
 bd8:	18010113          	addi	sp,sp,384
 bdc:	30046073          	csrsi	mstatus,8
 be0:	30200073          	mret

00000be4 <ISR6>:
 be4:	30047073          	csrci	mstatus,8
 be8:	e8010113          	addi	sp,sp,-384
 bec:	10112023          	sw	ra,256(sp)
 bf0:	10212223          	sw	sp,260(sp)
 bf4:	10312423          	sw	gp,264(sp)
 bf8:	10412623          	sw	tp,268(sp)
 bfc:	10512823          	sw	t0,272(sp)
 c00:	10612a23          	sw	t1,276(sp)
 c04:	10712c23          	sw	t2,280(sp)
 c08:	10812e23          	sw	s0,284(sp)
 c0c:	12912023          	sw	s1,288(sp)
 c10:	12a12223          	sw	a0,292(sp)
 c14:	12b12423          	sw	a1,296(sp)
 c18:	12c12623          	sw	a2,300(sp)
 c1c:	12d12823          	sw	a3,304(sp)
 c20:	12e12a23          	sw	a4,308(sp)
 c24:	12f12c23          	sw	a5,312(sp)
 c28:	13012e23          	sw	a6,316(sp)
 c2c:	15112023          	sw	a7,320(sp)
 c30:	15212223          	sw	s2,324(sp)
 c34:	15312423          	sw	s3,328(sp)
 c38:	15412623          	sw	s4,332(sp)
 c3c:	15512823          	sw	s5,336(sp)
 c40:	15612a23          	sw	s6,340(sp)
 c44:	15712c23          	sw	s7,344(sp)
 c48:	15812e23          	sw	s8,348(sp)
 c4c:	17912023          	sw	s9,352(sp)
 c50:	17a12223          	sw	s10,356(sp)
 c54:	17b12423          	sw	s11,360(sp)
 c58:	17c12623          	sw	t3,364(sp)
 c5c:	17d12823          	sw	t4,368(sp)
 c60:	17e12a23          	sw	t5,372(sp)
 c64:	17f12c23          	sw	t6,376(sp)
 c68:	341022f3          	csrr	t0,mepc
 c6c:	16512e23          	sw	t0,380(sp)
 c70:	094000ef          	jal	ra,d04 <ISR6_addr_exception>
 c74:	30047073          	csrci	mstatus,8
 c78:	17c12283          	lw	t0,380(sp)
 c7c:	34129073          	csrw	mepc,t0
 c80:	10012083          	lw	ra,256(sp)
 c84:	10c12203          	lw	tp,268(sp)
 c88:	11012283          	lw	t0,272(sp)
 c8c:	11412303          	lw	t1,276(sp)
 c90:	11812383          	lw	t2,280(sp)
 c94:	11c12403          	lw	s0,284(sp)
 c98:	12012483          	lw	s1,288(sp)
 c9c:	12412503          	lw	a0,292(sp)
 ca0:	12812583          	lw	a1,296(sp)
 ca4:	12c12603          	lw	a2,300(sp)
 ca8:	13012683          	lw	a3,304(sp)
 cac:	13412703          	lw	a4,308(sp)
 cb0:	13812783          	lw	a5,312(sp)
 cb4:	13c12803          	lw	a6,316(sp)
 cb8:	14012883          	lw	a7,320(sp)
 cbc:	14412903          	lw	s2,324(sp)
 cc0:	14812983          	lw	s3,328(sp)
 cc4:	14c12a03          	lw	s4,332(sp)
 cc8:	15012a83          	lw	s5,336(sp)
 ccc:	15412b03          	lw	s6,340(sp)
 cd0:	15812b83          	lw	s7,344(sp)
 cd4:	15c12c03          	lw	s8,348(sp)
 cd8:	16012c83          	lw	s9,352(sp)
 cdc:	16412d03          	lw	s10,356(sp)
 ce0:	16812d83          	lw	s11,360(sp)
 ce4:	16c12e03          	lw	t3,364(sp)
 ce8:	17012e83          	lw	t4,368(sp)
 cec:	17412f03          	lw	t5,372(sp)
 cf0:	17812f83          	lw	t6,376(sp)
 cf4:	18010113          	addi	sp,sp,384
 cf8:	30046073          	csrsi	mstatus,8
 cfc:	30200073          	mret

00000d00 <ISR5_uart>:
 d00:	00008067          	ret

00000d04 <ISR6_addr_exception>:
 d04:	00008067          	ret

00000d08 <__stack_init>:
 d08:	effc                	fsw	fa5,92(a5)
 d0a:	          	fence	unknown,unknown

Disassembly of section .vmem_data:

00100000 <ker>:
  100000:	11a9                	addi	gp,gp,-22
  100002:	22f1003b          	0x22f1003b
  100006:	ffa9                	bnez	a5,fff60 <__stacktop+0xf64>
  100008:	6c8a                	flw	fs9,128(sp)
  10000a:	fff0                	fsw	fa2,124(a5)
  10000c:	00280537          	lui	a0,0x280
  100010:	a54a                	fsd	fs2,136(sp)
  100012:	05dcfff7          	0x5dcfff7
  100016:	ffd9                	bnez	a5,fffb4 <__stacktop+0xfb8>
  100018:	f02e                	fsw	fa1,32(sp)
  10001a:	ffa8                	fsw	fa0,120(a5)
  10001c:	fec4                	fsw	fs1,60(a3)
  10001e:	226b001b          	0x226b001b
  100022:	0049                	c.nop	18
  100024:	1c3a                	slli	s8,s8,0x2e
  100026:	0030                	addi	a2,sp,8
  100028:	e795                	bnez	a5,100054 <ker+0x54>
  10002a:	b65a002b          	0xb65a002b
  10002e:	ffcd                	bnez	a5,fffe8 <__stacktop+0xfec>
  100030:	ee75                	bnez	a2,10012c <ker+0x12c>
  100032:	ffdd                	bnez	a5,ffff0 <__stacktop+0xff4>
  100034:	478e                	lw	a5,192(sp)
  100036:	0051                	c.nop	20
  100038:	003429ab          	0x3429ab
  10003c:	9ea2                	add	t4,t4,s0
  10003e:	0045                	c.nop	17
  100040:	b325                	j	ffd68 <__stacktop+0xd6c>
  100042:	fff1                	bnez	a5,10001e <ker+0x1e>
  100044:	1dec                	addi	a1,sp,764
  100046:	0009                	c.nop	2
  100048:	81be                	mv	gp,a5
  10004a:	001a                	c.slli	zero,0x6
  10004c:	54e2                	lw	s1,56(sp)
  10004e:	ffe5                	bnez	a5,100046 <ker+0x46>
  100050:	9d94                	0x9d94
  100052:	0061                	c.nop	24
  100054:	e5a8                	fsw	fa0,72(a1)
  100056:	ffe5                	bnez	a5,10004e <ker+0x4e>
  100058:	4f1a                	lw	t5,132(sp)
  10005a:	ffda                	fsw	fs6,252(sp)
  10005c:	975a                	add	a4,a4,s6
  10005e:	0022                	c.slli	zero,0x8
  100060:	c3b5                	beqz	a5,1000c4 <ker+0xc4>
  100062:	9ab6005b          	0x9ab6005b
  100066:	0055                	c.nop	21
  100068:	dfd9                	beqz	a5,100006 <ker+0x6>
  10006a:	004c                	addi	a1,sp,4
  10006c:	ee60                	fsw	fs0,92(a2)
  10006e:	ffb0                	fsw	fa2,120(a5)
  100070:	c226                	sw	s1,4(sp)
  100072:	0042                	c.slli	zero,0x10
  100074:	00606713          	ori	a4,zero,6
  100078:	001c622b          	0x1c622b
  10007c:	6d3d                	lui	s10,0xf
  10007e:	0055                	c.nop	21
  100080:	49e0                	lw	s0,84(a1)
  100082:	ff90                	fsw	fa2,56(a5)
  100084:	4bd2                	lw	s7,20(sp)
  100086:	b22a005b          	0xb22a005b
  10008a:	002d                	c.nop	11
  10008c:	25f2                	fld	fa1,280(sp)
  10008e:	d7c60003          	lb	zero,-644(a2)
  100092:	003e                	c.slli	zero,0xf
  100094:	de11                	beqz	a2,fffb0 <__stacktop+0xfb4>
  100096:	0014                	0x14
  100098:	1c15                	addi	s8,s8,-27
  10009a:	ffcc                	fsw	fa1,60(a5)
  10009c:	1819                	addi	a6,a6,-26
  10009e:	001a                	c.slli	zero,0x6
  1000a0:	14e8                	addi	a0,sp,620
  1000a2:	0046                	c.slli	zero,0x11
  1000a4:	2e8c                	fld	fa1,24(a3)
  1000a6:	7bb5ffe7          	0x7bb5ffe7
  1000aa:	002a                	c.slli	zero,0xa
  1000ac:	001e2187          	flw	ft3,1(t3)
  1000b0:	e51e                	fsw	ft7,136(sp)
  1000b2:	0041                	c.nop	16
  1000b4:	81c6                	mv	gp,a7
  1000b6:	86960023          	sb	s1,-1952(a2)
  1000ba:	002a                	c.slli	zero,0xa
  1000bc:	54d8                	lw	a4,44(s1)
  1000be:	3e840053          	0x3e840053
  1000c2:	0040                	addi	s0,sp,4
  1000c4:	cdb9                	beqz	a1,100122 <ker+0x122>
  1000c6:	85b0ffc3          	fmadd.h	ft11,ft1,fs11,fa6
  1000ca:	f222ffc3          	fmadd.d	ft11,ft5,ft2,ft10
  1000ce:	002e                	c.slli	zero,0xb
  1000d0:	0272                	slli	tp,tp,0x1c
  1000d2:	ffec                	fsw	fa1,124(a5)
  1000d4:	b14a                	fsd	fs2,160(sp)
  1000d6:	6403ffab          	0x6403ffab
  1000da:	0028                	addi	a0,sp,8
  1000dc:	005ad5cf          	fnmadd.s	fa1,fs5,ft5,ft0,unknown
  1000e0:	28ca                	fld	fa7,144(sp)
  1000e2:	ffc8                	fsw	fa0,60(a5)
  1000e4:	3989                	jal	ffd36 <__stacktop+0xd3a>
  1000e6:	ffdf c8af 004e      	0x4ec8afffdf
  1000ec:	b835                	j	ff928 <__stacktop+0x92c>
  1000ee:	fff5                	bnez	a5,1000ea <ker+0xea>
  1000f0:	1959                	addi	s2,s2,-10
  1000f2:	800a000b          	0x800a000b
  1000f6:	ffe0                	fsw	fs0,124(a5)
  1000f8:	0043f68b          	0x43f68b
  1000fc:	833e                	mv	t1,a5
  1000fe:	ffc9                	bnez	a5,100098 <ker+0x98>
  100100:	84e1                	srai	s1,s1,0x18
  100102:	fffe                	fsw	ft11,252(sp)
  100104:	18d4                	addi	a3,sp,116
  100106:	ffed                	bnez	a5,100100 <ker+0x100>
  100108:	58e5                	li	a7,-7
  10010a:	0025                	c.nop	9
  10010c:	f946                	fsw	fa7,176(sp)
  10010e:	0051                	c.nop	20
  100110:	1fe9                	addi	t6,t6,-6
  100112:	9a20001b          	0x9a20001b
  100116:	837f0007          	0x837f0007
  10011a:	ffd4                	fsw	fa3,60(a5)
  10011c:	11ae                	slli	gp,gp,0x2b
  10011e:	0041                	c.nop	16
  100120:	ffc279ab          	0xffc279ab
  100124:	56e6                	lw	a3,120(sp)
  100126:	0036                	c.slli	zero,0xd
  100128:	03da                	slli	t2,t2,0x16
  10012a:	0045                	c.nop	17
  10012c:	959c                	0x959c
  10012e:	0039                	c.nop	14
  100130:	0050e84f          	fnmadd.s	fa6,ft1,ft5,ft0,unknown
  100134:	fb68                	fsw	fa0,116(a4)
  100136:	4e2bffef          	jal	t6,1bf618 <__VREG_END+0x3f618>
  10013a:	003a                	c.slli	zero,0xe
  10013c:	ffe37a83          	0xffe37a83
  100140:	0b91                	addi	s7,s7,4
  100142:	ffae                	fsw	fa1,252(sp)
  100144:	f24c                	fsw	fa1,36(a2)
  100146:	000a                	c.slli	zero,0x2
  100148:	b784                	fsd	fs1,40(a5)
  10014a:	0026                	c.slli	zero,0x9
  10014c:	449c                	lw	a5,8(s1)
  10014e:	0011                	c.nop	4
  100150:	f84a                	fsw	fs2,48(sp)
  100152:	0041                	c.nop	16
  100154:	8ac1                	andi	a3,a3,16
  100156:	0035                	c.nop	13
  100158:	6c8a                	flw	fs9,128(sp)
  10015a:	ffe4                	fsw	fs1,124(a5)
  10015c:	ff94018f          	0xff94018f
  100160:	62c9                	lui	t0,0x12
  100162:	ffcc                	fsw	fa1,60(a5)
  100164:	001fa20f          	0x1fa20f
  100168:	3106                	fld	ft2,96(sp)
  10016a:	002d                	c.nop	11
  10016c:	1365                	addi	t1,t1,-7
  10016e:	0002                	c.slli64	zero
  100170:	875a                	mv	a4,s6
  100172:	fff4                	fsw	fa3,124(a5)
  100174:	a25e                	fsd	fs7,256(sp)
  100176:	000a                	c.slli	zero,0x2
  100178:	00578b2f          	vamoaddei8.v	zero,(a5),v5,v22,v0.t
  10017c:	7130                	flw	fa2,96(a0)
  10017e:	962b003b          	0x962b003b
  100182:	0054                	addi	a3,sp,4
  100184:	113a                	slli	sp,sp,0x2e
  100186:	ffc9                	bnez	a5,100120 <ker+0x120>
  100188:	bd7c                	fsd	fa5,248(a0)
  10018a:	ffbc                	fsw	fa5,120(a5)
  10018c:	6ad5                	lui	s5,0x15
  10018e:	0052                	c.slli	zero,0x14
  100190:	0003e01b          	0x3e01b
  100194:	ffc27263          	bgeu	tp,t3,ff978 <__stacktop+0x97c>
  100198:	002d22c7          	fmsub.s	ft5,fs10,ft2,ft0,rdn
  10019c:	5931                	li	s2,-20
  10019e:	f5ab0033          	0xf5ab0033
  1001a2:	4797ffa7          	vsuxseg3ei64.v	v31,(a5),v25
  1001a6:	ffc6                	fsw	fa7,252(sp)
  1001a8:	43f5                	li	t2,29
  1001aa:	0024                	addi	s1,sp,8
  1001ac:	83c6                	mv	t2,a7
  1001ae:	0049                	c.nop	18
  1001b0:	4494                	lw	a3,8(s1)
  1001b2:	2970001b          	0x2970001b
  1001b6:	ffaa                	fsw	fa0,252(sp)
  1001b8:	ffb7d16b          	0xffb7d16b
  1001bc:	ff8f64e7          	0xff8f64e7
  1001c0:	281f 0030 e092      	0xe0920030281f
  1001c6:	002c                	addi	a1,sp,8
  1001c8:	87a2                	mv	a5,s0
  1001ca:	2dc4002b          	0x2dc4002b
  1001ce:	002a                	c.slli	zero,0xa
  1001d0:	00075dab          	0x75dab
  1001d4:	ffe7847b          	0xffe7847b
  1001d8:	4afd                	li	s5,31
  1001da:	003d                	c.nop	15
  1001dc:	476e                	lw	a4,216(sp)
  1001de:	495affbb          	0x495affbb
  1001e2:	ffea                	fsw	fs10,252(sp)
  1001e4:	5b81                	li	s7,-32
  1001e6:	0036                	c.slli	zero,0xd
  1001e8:	0018a1ef          	jal	gp,18a9e8 <__VREG_END+0xa9e8>
  1001ec:	f27d                	bnez	a2,1001d2 <ker+0x1d2>
  1001ee:	002e                	c.slli	zero,0xb
  1001f0:	edd4                	fsw	fa3,28(a1)
  1001f2:	001a                	c.slli	zero,0x6
  1001f4:	ffb58a97          	auipc	s5,0xffb58
  1001f8:	7d05                	lui	s10,0xfffe1
  1001fa:	55f6ffb3          	0x55f6ffb3
  1001fe:	ffda                	fsw	fs6,252(sp)
  100200:	f4b2                	fsw	fa2,104(sp)
  100202:	fff5                	bnez	a5,1001fe <ker+0x1fe>
  100204:	f492                	fsw	ft4,104(sp)
  100206:	bb11003f 7e4a003e 	0x7e4a003ebb11003f
  10020e:	0036                	c.slli	zero,0xd
  100210:	0015636f          	jal	t1,156a10 <__VMEM_END+0x46ad0>
  100214:	558a                	lw	a1,160(sp)
  100216:	004a                	c.slli	zero,0x12
  100218:	b579                	j	1000a6 <ker+0xa6>
  10021a:	004d                	c.nop	19
  10021c:	be31                	j	ffd38 <__stacktop+0xd3c>
  10021e:	ff81                	bnez	a5,100136 <ker+0x136>
  100220:	8a3c                	0x8a3c
  100222:	7f24ffe3          	bgeu	s1,s2,101220 <ker2+0xfa0>
  100226:	4748002b          	0x4748002b
  10022a:	ffe1                	bnez	a5,100202 <ker+0x202>
  10022c:	d889                	beqz	s1,10013e <ker+0x13e>
  10022e:	ed36003f df8affd3 	0xdf8affd3ed36003f
  100236:	ffe2                	fsw	fs8,252(sp)
  100238:	cdd0                	sw	a2,28(a1)
  10023a:	ffde                	fsw	fs7,252(sp)
  10023c:	eaf8                	fsw	fa4,84(a3)
  10023e:	ffe8                	fsw	fa0,124(a5)

00100240 <bias>:
  100240:	ffff4c93          	not	s9,t5
  100244:	ee0d                	bnez	a2,10027e <bias+0x3e>
  100246:	ffff                	0xffff
  100248:	b25a                	fsd	fs6,288(sp)
  10024a:	ffff                	0xffff
  10024c:	fffee597          	auipc	a1,0xfffee
  100250:	8699                	srai	a3,a3,0x6
  100252:	0000                	unimp
  100254:	9a9f 000b 945b      	0x945b000b9a9f
  10025a:	0010                	0x10
  10025c:	6af5                	lui	s5,0x1d
  10025e:	000c                	0xc
  100260:	e56d                	bnez	a0,10034a <ker2+0xca>
  100262:	000c                	0xc
  100264:	e2b4                	fsw	fa3,64(a3)
  100266:	6664fff3          	csrrci	t6,0x666,9
  10026a:	ffff                	0xffff
  10026c:	2b39                	jal	10078a <ker2+0x50a>
  10026e:	ffff                	0xffff
  100270:	ffff4c83          	lbu	s9,-1(t5) # 18fff <__stack_init+0x182f7>
  100274:	000e1593          	slli	a1,t3,0x0
  100278:	d3bc                	sw	a5,96(a5)
  10027a:	ffff                	0xffff
  10027c:	e4fa                	fsw	ft10,72(sp)
  10027e:	ffff                	0xffff

00100280 <ker2>:
  100280:	ffe700bf fffc92af 	0xfffc92afffe700bf
  100288:	8155                	srli	a0,a0,0x15
  10028a:	001e                	c.slli	zero,0x7
  10028c:	f441                	bnez	s0,100214 <ker+0x214>
  10028e:	ffd8                	fsw	fa4,60(a5)
  100290:	0009a38b          	0x9a38b
  100294:	00533d17          	auipc	s10,0x533
  100298:	0031e0c7          	fmsub.s	ft1,ft3,ft3,ft0,unknown
  10029c:	03d9                	addi	t2,t2,22
  10029e:	ffd8                	fsw	fa4,60(a5)
  1002a0:	b692                	fsd	ft4,360(sp)
  1002a2:	fff5                	bnez	a5,10029e <ker2+0x1e>
  1002a4:	ffe43b07          	fld	fs6,-2(s0)
  1002a8:	230c                	fld	fa1,0(a4)
  1002aa:	ff3afff3          	csrrci	t6,0xff3,21
  1002ae:	fff2                	fsw	ft8,252(sp)
  1002b0:	bb26                	fsd	fs1,432(sp)
  1002b2:	a48effe7          	0xa48effe7
  1002b6:	0015                	c.nop	5
  1002b8:	ef91                	bnez	a5,1002d4 <ker2+0x54>
  1002ba:	ffea                	fsw	fs10,252(sp)
  1002bc:	7ff5                	lui	t6,0xffffd
  1002be:	ea170027          	vssseg8e8.v	v0,(a4),ra
  1002c2:	0002                	c.slli64	zero
  1002c4:	b5d5                	j	1001a8 <ker+0x1a8>
  1002c6:	c3820027          	0xc3820027
  1002ca:	2ebcffcf          	fnmadd.q	ft11,fs9,fa1,ft5
  1002ce:	0000                	unimp
  1002d0:	263d                	jal	1005fe <ker2+0x37e>
  1002d2:	fffd                	bnez	a5,1002d0 <ker2+0x50>
  1002d4:	00210ac7          	fmsub.s	fs5,ft2,ft2,ft0,rne
  1002d8:	692a                	flw	fs2,136(sp)
  1002da:	005c                	addi	a5,sp,4
  1002dc:	ec89                	bnez	s1,1002f6 <ker2+0x76>
  1002de:	0026                	c.slli	zero,0x9
  1002e0:	3e80                	fld	fs0,56(a3)
  1002e2:	000a                	c.slli	zero,0x2
  1002e4:	0645                	addi	a2,a2,17
  1002e6:	56affff3          	csrrci	t6,0x56a,31
  1002ea:	fffc                	fsw	fa5,124(a5)
  1002ec:	a93c                	fsd	fa5,80(a0)
  1002ee:	ffcd                	bnez	a5,1002a8 <ker2+0x28>
  1002f0:	daaa                	sw	a0,116(sp)
  1002f2:	0020                	addi	s0,sp,8
  1002f4:	91dc                	0x91dc
  1002f6:	ffff                	0xffff
  1002f8:	003ea58f          	0x3ea58f
  1002fc:	e9ed                	bnez	a1,1003ee <ker2+0x16e>
  1002fe:	0030                	addi	a2,sp,8
  100300:	754c                	flw	fa1,44(a0)
  100302:	0026                	c.slli	zero,0x9
  100304:	3f61                	jal	10029c <ker2+0x1c>
  100306:	0012                	c.slli	zero,0x4
  100308:	53d4                	lw	a3,36(a5)
  10030a:	67100027          	vsuxseg4ei8.v	v0,(zero),v17
  10030e:	0002                	c.slli64	zero
  100310:	cabd                	beqz	a3,100386 <ker2+0x106>
  100312:	fff5                	bnez	a5,10030e <ker2+0x8e>
  100314:	fff6d6bf ffd50384 	0xffd50384fff6d6bf
  10031c:	1641                	addi	a2,a2,-16
  10031e:	ffec                	fsw	fa1,124(a5)
  100320:	902c                	0x902c
  100322:	1d5bfff7          	0x1d5bfff7
  100326:	fffe                	fsw	ft11,252(sp)
  100328:	251f ffeb 5d6e      	0x5d6effeb251f
  10032e:	000e                	c.slli	zero,0x3
  100330:	095a                	slli	s2,s2,0x16
  100332:	ffda                	fsw	fs6,252(sp)
  100334:	1d61                	addi	s10,s10,-8
  100336:	0018                	0x18
  100338:	1e14                	addi	a3,sp,816
  10033a:	0021                	c.nop	8
  10033c:	d9c8                	sw	a0,52(a1)
  10033e:	0008                	0x8
  100340:	2821                	jal	100358 <ker2+0xd8>
  100342:	003e                	c.slli	zero,0xf
  100344:	1872                	slli	a6,a6,0x3c
  100346:	e0c6ffd7          	vsetivli	t6,13,e16,(null),tu,mu
  10034a:	67c0000f          	0x67c0000f
  10034e:	001d                	c.nop	7
  100350:	76ae                	flw	fa3,232(sp)
  100352:	ebe9ffcf          	fnmadd.d	ft11,fs3,ft10,ft9
  100356:	0016                	c.slli	zero,0x5
  100358:	39a6                	fld	fs3,104(sp)
  10035a:	ffcc                	fsw	fa1,60(a5)
  10035c:	ad9e                	fsd	ft7,216(sp)
  10035e:	0015                	c.nop	5
  100360:	628e                	flw	ft5,192(sp)
  100362:	003a                	c.slli	zero,0xe
  100364:	00363a67          	0x363a67
  100368:	4aa8                	lw	a0,80(a3)
  10036a:	fff9                	bnez	a5,100348 <ker2+0xc8>
  10036c:	179c                	addi	a5,sp,992
  10036e:	0004                	0x4
  100370:	fa78                	fsw	fa4,116(a2)
  100372:	fffc                	fsw	fa5,124(a5)
  100374:	41cd                	li	gp,19
  100376:	2ddbffd3          	0x2ddbffd3
  10037a:	ffd1                	bnez	a5,100316 <ker2+0x96>
  10037c:	d466                	sw	s9,40(sp)
  10037e:	c18b0033          	0xc18b0033
  100382:	4db6fffb          	0x4db6fffb
  100386:	ffdf f996 fff4      	0xfff4f996ffdf
  10038c:	72b5                	lui	t0,0xfffed
  10038e:	7da4000b          	0x7da4000b
  100392:	fff0                	fsw	fa2,124(a5)
  100394:	aed5                	j	100788 <ker2+0x508>
  100396:	000c                	0xc
  100398:	b166                	fsd	fs9,160(sp)
  10039a:	ffec                	fsw	fa1,124(a5)
  10039c:	a981                	j	1007ec <ker2+0x56c>
  10039e:	ffe8                	fsw	fa0,124(a5)
  1003a0:	b918                	fsd	fa4,48(a0)
  1003a2:	ffd6                	fsw	fs5,252(sp)
  1003a4:	36b9                	jal	ffef2 <__stacktop+0xef6>
  1003a6:	14fbffeb          	0x14fbffeb
  1003aa:	eac4ffeb          	0xeac4ffeb
  1003ae:	6447ffeb          	0x6447ffeb
  1003b2:	000d                	c.nop	3
  1003b4:	d552                	sw	s4,168(sp)
  1003b6:	fff5                	bnez	a5,1003b2 <ker2+0x132>
  1003b8:	fff1ae97          	auipc	t4,0xfff1a
  1003bc:	7b1d                	lui	s6,0xfffe7
  1003be:	fffc                	fsw	fa5,124(a5)
  1003c0:	0008756f          	jal	a0,1873c0 <__VREG_END+0x73c0>
  1003c4:	7e74                	flw	fa3,124(a2)
  1003c6:	ffce                	fsw	fs3,252(sp)
  1003c8:	d81e                	sw	t2,48(sp)
  1003ca:	fff8                	fsw	fa4,124(a5)
  1003cc:	cc6c                	sw	a1,92(s0)
  1003ce:	0000                	unimp
  1003d0:	fd6e                	fsw	fs11,184(sp)
  1003d2:	ffd6                	fsw	fs5,252(sp)
  1003d4:	8a6d                	andi	a2,a2,27
  1003d6:	0006                	c.slli	zero,0x1
  1003d8:	ffefeaf7          	0xffefeaf7
  1003dc:	00271ecb          	fnmsub.s	ft9,fa4,ft2,ft0,rtz
  1003e0:	0020ea3b          	0x20ea3b
  1003e4:	002acd43          	fmadd.s	fs10,fs5,ft2,ft0,rmm
  1003e8:	2fa2                	fld	ft11,8(sp)
  1003ea:	fff4                	fsw	fa3,124(a5)
  1003ec:	fff778db          	0xfff778db
  1003f0:	390e                	fld	fs2,224(sp)
  1003f2:	ffd0                	fsw	fa2,60(a5)
  1003f4:	fdd5                	bnez	a1,1003b0 <ker2+0x130>
  1003f6:	ffc9                	bnez	a5,100390 <ker2+0x110>
  1003f8:	ffde222b          	0xffde222b
  1003fc:	5404                	lw	s1,40(s0)
  1003fe:	fd920013          	addi	zero,tp,-39 # fffe0fd9 <__VREG_END+0xffe60fd9>
  100402:	fff2                	fsw	ft8,252(sp)
  100404:	d38d                	beqz	a5,100326 <ker2+0xa6>
  100406:	ffe1                	bnez	a5,1003de <ker2+0x15e>
  100408:	000590fb          	0x590fb
  10040c:	0024265b          	0x24265b
  100410:	3771                	jal	10039c <ker2+0x11c>
  100412:	ffba                	fsw	fa4,252(sp)
  100414:	3114                	fld	fa3,32(a0)
  100416:	47960013          	addi	zero,a2,1145
  10041a:	79ed0017          	auipc	zero,0x79ed0
  10041e:	8d42ffd7          	0x8d42ffd7
  100422:	0005                	c.nop	1
  100424:	b0f0                	fsd	fa2,224(s1)
  100426:	7882ffef          	jal	t6,12fbae <__VMEM_END+0x1fc6e>
  10042a:	ffd5                	bnez	a5,1003e6 <ker2+0x166>
  10042c:	6b72                	flw	fs6,28(sp)
  10042e:	0009                	c.nop	2
  100430:	9215                	srli	a2,a2,0x25
  100432:	099cffef          	jal	t6,1cfcca <__VREG_END+0x4fcca>
  100436:	ffff                	0xffff
  100438:	36a4                	fld	fs1,104(a3)
  10043a:	fff0                	fsw	fa2,124(a5)
  10043c:	6a15                	lui	s4,0x5
  10043e:	0002                	c.slli64	zero
  100440:	3130                	fld	fa2,96(a0)
  100442:	fff8                	fsw	fa4,124(a5)
  100444:	8032                	c.mv	zero,a2
  100446:	b65dffeb          	0xb65dffeb
  10044a:	ffd4                	fsw	fa3,60(a5)
  10044c:	dfa8                	sw	a0,120(a5)
  10044e:	0011                	c.nop	4
  100450:	56cc                	lw	a1,44(a3)
  100452:	0000                	unimp
  100454:	026a                	slli	tp,tp,0x1a
  100456:	0005                	c.nop	1
  100458:	a0ae                	fsd	fa1,64(sp)
  10045a:	faaf0027          	0xfaaf0027
  10045e:	001e                	c.slli	zero,0x7
  100460:	fe3e                	fsw	fa5,60(sp)
  100462:	ffea                	fsw	fs10,252(sp)
  100464:	8de0                	0x8de0
  100466:	001c                	0x1c
  100468:	2fe8                	fld	fa0,216(a5)
  10046a:	000d                	c.nop	3
  10046c:	33b6                	fld	ft7,360(sp)
  10046e:	fff0                	fsw	fa2,124(a5)
  100470:	8e24                	0x8e24
  100472:	001a                	c.slli	zero,0x6
  100474:	761a                	flw	fa2,164(sp)
  100476:	4733fff7          	0x4733fff7
  10047a:	003a                	c.slli	zero,0xe
  10047c:	7ab8                	flw	fa4,112(a3)
  10047e:	a218002b          	0xa218002b
  100482:	0010                	0x10
  100484:	27ad                	jal	100bee <ker2+0x96e>
  100486:	ffe2                	fsw	fs8,252(sp)
  100488:	edfd                	bnez	a1,100586 <ker2+0x306>
  10048a:	001a                	c.slli	zero,0x6
  10048c:	2ca2                	fld	fs9,8(sp)
  10048e:	93d60017          	auipc	zero,0x93d60
  100492:	f8cefff3          	csrrci	t6,0xf8c,29
  100496:	fff9                	bnez	a5,100474 <ker2+0x1f4>
  100498:	ffd4676f          	jal	a4,47494 <__BSS_END__+0x23168>
  10049c:	e571                	bnez	a0,100568 <ker2+0x2e8>
  10049e:	032a0003          	lb	zero,50(s4) # 5032 <__stack_init+0x432a>
  1004a2:	f0daffe3          	bgeu	s5,a3,1003c0 <ker2+0x140>
  1004a6:	0000                	unimp
  1004a8:	825f ffe1 51e4      	0x51e4ffe1825f
  1004ae:	ffd9                	bnez	a5,10044c <ker2+0x1cc>
  1004b0:	b91c                	fsd	fa5,48(a0)
  1004b2:	0005                	c.nop	1
  1004b4:	a791                	j	100bf8 <ker2+0x978>
  1004b6:	b4790017          	auipc	zero,0xb4790
  1004ba:	09dcffeb          	0x9dcffeb
  1004be:	734bfffb          	0x734bfffb
  1004c2:	000d                	c.nop	3
  1004c4:	40f4                	lw	a3,68(s1)
  1004c6:	ffe5                	bnez	a5,1004be <ker2+0x23e>
  1004c8:	00390197          	auipc	gp,0x390
  1004cc:	0018fd43          	fmadd.s	fs10,fa7,ft1,ft0
  1004d0:	738a                	flw	ft7,160(sp)
  1004d2:	0000                	unimp
  1004d4:	ffe41783          	lh	a5,-2(s0)
  1004d8:	ffdef933          	0xffdef933
  1004dc:	1156                	slli	sp,sp,0x35
  1004de:	0026                	c.slli	zero,0x9
  1004e0:	0006e407          	vle32.v	v8,(a3),v0.t
  1004e4:	72b9                	lui	t0,0xfffee
  1004e6:	0014                	0x14
  1004e8:	bfca                	fsd	fs2,504(sp)
  1004ea:	fff5                	bnez	a5,1004e6 <ker2+0x266>
  1004ec:	1dc1                	addi	s11,s11,-16
  1004ee:	33ab0007          	0x33ab0007
  1004f2:	ffee                	fsw	fs11,252(sp)
  1004f4:	2eca                	fld	ft9,144(sp)
  1004f6:	ffce                	fsw	fs3,252(sp)
  1004f8:	fff947ef          	jal	a5,954f6 <__BSS_END__+0x711ca>
  1004fc:	bbdd                	j	1002f2 <ker2+0x72>
  1004fe:	0024                	addi	s1,sp,8
  100500:	f851                	bnez	s0,100494 <ker2+0x214>
  100502:	000c                	0xc
  100504:	e7f6                	fsw	ft9,204(sp)
  100506:	0031                	c.nop	12
  100508:	9345                	srli	a4,a4,0x31
  10050a:	37affff3          	csrrci	t6,0x37a,31
  10050e:	0001                	nop
  100510:	e135                	bnez	a0,100574 <ker2+0x2f4>
  100512:	fff6                	fsw	ft9,252(sp)
  100514:	ffe36b6b          	0xffe36b6b
  100518:	e88c                	fsw	fa1,16(s1)
  10051a:	cca0ffe3          	bgeu	ra,a0,1001f8 <ker+0x1f8>
  10051e:	0019                	c.nop	6
  100520:	fff9913f fffeb396 	0xfffeb396fff9913f
  100528:	289c                	fld	fa5,16(s1)
  10052a:	ffd5                	bnez	a5,1004e6 <ker2+0x266>
  10052c:	baf6                	fsd	ft9,368(sp)
  10052e:	0001                	nop
  100530:	ffe0a7b3          	0xffe0a7b3
  100534:	0014ff83          	0x14ff83
  100538:	fff9fcbb          	0xfff9fcbb
  10053c:	051a                	slli	a0,a0,0x6
  10053e:	ffcc                	fsw	fa1,60(a5)
  100540:	129f 0046 027f      	0x27f0046129f
  100546:	ffee                	fsw	fs11,252(sp)
  100548:	782a                	flw	fa6,168(sp)
  10054a:	0006                	c.slli	zero,0x1
  10054c:	fff5030b          	0xfff5030b
  100550:	8f84                	0x8f84
  100552:	8267ffc3          	fmadd.d	ft11,fa5,ft6,fa6
  100556:	0004                	0x4
  100558:	fffbac2b          	0xfffbac2b
  10055c:	1414                	addi	a3,sp,544
  10055e:	000c                	0xc
  100560:	fb99                	bnez	a5,100476 <ker2+0x1f6>
  100562:	0030                	addi	a2,sp,8
  100564:	ab28                	fsd	fa0,80(a4)
  100566:	e30b004b          	fnmsub.d	ft0,fs6,fa6,ft8,rne
  10056a:	0009                	c.nop	2
  10056c:	2729                	jal	100c76 <ker2+0x9f6>
  10056e:	ffe1                	bnez	a5,100546 <ker2+0x2c6>
  100570:	c9c4                	sw	s1,20(a1)
  100572:	ffe1                	bnez	a5,10054a <ker2+0x2ca>
  100574:	30ad                	jal	ffdde <__stacktop+0xde2>
  100576:	ffdc                	fsw	fa5,60(a5)
  100578:	ffa8660f          	0xffa8660f
  10057c:	e485                	bnez	s1,1005a4 <ker2+0x324>
  10057e:	0028                	addi	a0,sp,8
  100580:	50e9                	li	ra,-6
  100582:	0014                	0x14
  100584:	f2bd                	bnez	a3,1004ea <ker2+0x26a>
  100586:	0021                	c.nop	8
  100588:	dcd5                	beqz	s1,100544 <ker2+0x2c4>
  10058a:	0002                	c.slli64	zero
  10058c:	5419                	li	s0,-26
  10058e:	ffea                	fsw	fs10,252(sp)
  100590:	7602                	flw	fa2,32(sp)
  100592:	ffed                	bnez	a5,10058c <ker2+0x30c>
  100594:	4fae                	lw	t6,200(sp)
  100596:	d5b10013          	addi	zero,sp,-677 # 858d5b <__VREG_END+0x6d8d5b>
  10059a:	0008                	0x8
  10059c:	58ba                	lw	a7,172(sp)
  10059e:	ffea                	fsw	fs10,252(sp)
  1005a0:	7986                	flw	fs3,96(sp)
  1005a2:	fff5                	bnez	a5,10059e <ker2+0x31e>
  1005a4:	3245                	jal	fff44 <__stacktop+0xf48>
  1005a6:	ffe1                	bnez	a5,10057e <ker2+0x2fe>
  1005a8:	042a                	slli	s0,s0,0xa
  1005aa:	0004                	0x4
  1005ac:	2525                	jal	100bd4 <ker2+0x954>
  1005ae:	9827001b          	0x9827001b
  1005b2:	001c                	0x1c
  1005b4:	51cd                	li	gp,-13
  1005b6:	0019                	c.nop	6
  1005b8:	b88e                	fsd	ft3,112(sp)
  1005ba:	67b20003          	lb	zero,1659(tp) # 67b <layer2+0x18f>
  1005be:	ffe1                	bnez	a5,100596 <ker2+0x316>
  1005c0:	3db4                	fld	fa3,120(a1)
  1005c2:	ffea                	fsw	fs10,252(sp)
  1005c4:	46c6                	lw	a3,80(sp)
  1005c6:	0042                	c.slli	zero,0x10
  1005c8:	c9e5                	beqz	a1,1006b8 <ker2+0x438>
  1005ca:	ffea                	fsw	fs10,252(sp)
  1005cc:	c965                	beqz	a0,1006bc <ker2+0x43c>
  1005ce:	ffe1                	bnez	a5,1005a6 <ker2+0x326>
  1005d0:	7ef0                	flw	fa2,124(a3)
  1005d2:	ffc0                	fsw	fs0,60(a5)
  1005d4:	fcb2                	fsw	fa2,120(sp)
  1005d6:	0024                	addi	s1,sp,8
  1005d8:	00dd                	addi	ra,ra,23
  1005da:	de9d002b          	0xde9d002b
  1005de:	fffc                	fsw	fa5,124(a5)
  1005e0:	aed6                	fsd	fs5,344(sp)
  1005e2:	002c                	addi	a1,sp,8
  1005e4:	ffcae117          	auipc	sp,0xffcae
  1005e8:	92b5                	srli	a3,a3,0x2d
  1005ea:	0000                	unimp
  1005ec:	d67a                	sw	t5,44(sp)
  1005ee:	ffe5                	bnez	a5,1005e6 <ker2+0x366>
  1005f0:	b0fa                	fsd	ft10,96(sp)
  1005f2:	0010                	0x10
  1005f4:	b431                	j	100000 <ker>
  1005f6:	002a                	c.slli	zero,0xa
  1005f8:	45e9                	li	a1,26
  1005fa:	f2c40007          	0xf2c40007
  1005fe:	7f89ffeb          	0x7f89ffeb
  100602:	ffc0                	fsw	fs0,60(a5)
  100604:	ffeeaecb          	fnmsub.q	ft9,ft9,ft10,ft11,rdn
  100608:	215d                	jal	100aae <ker2+0x82e>
  10060a:	738dffdb          	0x738dffdb
  10060e:	fff8                	fsw	fa4,124(a5)
  100610:	ffeec3ab          	0xffeec3ab
  100614:	b0ff                	0xb0ff
  100616:	7bc4000b          	0x7bc4000b
  10061a:	ffb6                	fsw	fa3,252(sp)
  10061c:	c4f9                	beqz	s1,1006ea <ker2+0x46a>
  10061e:	e2c40003          	lb	zero,-468(s0)
  100622:	a72ffffb          	0xa72ffffb
  100626:	ffed                	bnez	a5,100620 <ker2+0x3a0>
  100628:	000d5eeb          	0xd5eeb
  10062c:	629a                	flw	ft5,132(sp)
  10062e:	fff5                	bnez	a5,10062a <ker2+0x3aa>
  100630:	ffe2a1f7          	0xffe2a1f7
  100634:	f968                	fsw	fa0,116(a0)
  100636:	fff1                	bnez	a5,100612 <ker2+0x392>
  100638:	caa2                	sw	s0,84(sp)
  10063a:	ffff                	0xffff
  10063c:	3a0a                	fld	fs4,160(sp)
  10063e:	ffe6                	fsw	fs9,252(sp)
  100640:	2811                	jal	100654 <ker2+0x3d4>
  100642:	fffe                	fsw	ft11,252(sp)
  100644:	63a5                	lui	t2,0x9
  100646:	0001                	nop
  100648:	a056                	fsd	fs5,0(sp)
  10064a:	0011                	c.nop	4
  10064c:	1671                	addi	a2,a2,-4
  10064e:	0039                	c.nop	14
  100650:	7622                	flw	fa2,40(sp)
  100652:	003e                	c.slli	zero,0xf
  100654:	e34c                	fsw	fa1,4(a4)
  100656:	ffd2                	fsw	fs4,252(sp)
  100658:	ab0d                	j	100b8a <ker2+0x90a>
  10065a:	fff0                	fsw	fa2,124(a5)
  10065c:	2159                	jal	100ae2 <ker2+0x862>
  10065e:	0034                	addi	a3,sp,8
  100660:	ffe2d913          	0xffe2d913
  100664:	94d0                	0x94d0
  100666:	6c61000f          	0x6c61000f
  10066a:	c6b20023          	sb	a1,-928(tp) # fffffc60 <__VREG_END+0xffe7fc60>
  10066e:	ffdf e6c4 000a      	0xae6c4ffdf
  100674:	770c                	flw	fa1,40(a4)
  100676:	ffe8                	fsw	fa0,124(a5)
  100678:	00210f37          	lui	t5,0x210
  10067c:	fff58f13          	addi	t5,a1,-1 # ee24b <__BSS_END__+0xc9f1f>
  100680:	e444                	fsw	fs1,12(s0)
  100682:	ffe4                	fsw	fs1,124(a5)
  100684:	ffd83323          	0xffd83323
  100688:	ffaa                	fsw	fa0,252(sp)
  10068a:	fffc                	fsw	fa5,124(a5)
  10068c:	7339                	lui	t1,0xfffee
  10068e:	ffed                	bnez	a5,100688 <ker2+0x408>
  100690:	97f4                	0x97f4
  100692:	001c                	0x1c
  100694:	aa02                	fsd	ft0,272(sp)
  100696:	0022                	c.slli	zero,0x8
  100698:	32e8                	fld	fa0,224(a3)
  10069a:	000e                	c.slli	zero,0x3
  10069c:	808c                	0x808c
  10069e:	0016                	c.slli	zero,0x5
  1006a0:	35f4                	fld	fa3,232(a1)
  1006a2:	ffdc                	fsw	fa5,60(a5)
  1006a4:	6880                	flw	fs0,16(s1)
  1006a6:	17da0017          	auipc	zero,0x17da0
  1006aa:	002a                	c.slli	zero,0xa
  1006ac:	00379283          	lh	t0,3(a5) # ffff6003 <__VREG_END+0xffe76003>
  1006b0:	c270                	sw	a2,68(a2)
  1006b2:	0016                	c.slli	zero,0x5
  1006b4:	d14a                	sw	s2,160(sp)
  1006b6:	ffe4                	fsw	fs1,124(a5)
  1006b8:	0005b09b          	0x5b09b
  1006bc:	1f9a                	slli	t6,t6,0x26
  1006be:	0014                	0x14
  1006c0:	ffd1dd8b          	0xffd1dd8b
  1006c4:	000e1693          	slli	a3,t3,0x0
  1006c8:	0048605b          	0x48605b
  1006cc:	75e4                	flw	fs1,108(a1)
  1006ce:	0008                	0x8
  1006d0:	001e580f          	0x1e580f
  1006d4:	824c                	0x824c
  1006d6:	003a                	c.slli	zero,0xe
  1006d8:	5c45                	li	s8,-15
  1006da:	ffae                	fsw	fa1,252(sp)
  1006dc:	0df4                	addi	a3,sp,732
  1006de:	75f0000b          	0x75f0000b
  1006e2:	ffe5                	bnez	a5,1006da <ker2+0x45a>
  1006e4:	fe5f ffbe 47ad      	0x47adffbefe5f
  1006ea:	578effcb          	fnmsub.q	ft11,ft9,fs8,fa0
  1006ee:	001f d0e0 000f      	0xfd0e0001f
  1006f4:	00089783          	lh	a5,0(a7) # 100000 <ker>
  1006f8:	9ac8                	0x9ac8
  1006fa:	0016                	c.slli	zero,0x5
  1006fc:	39ed                	jal	1003f6 <ker2+0x176>
  1006fe:	ffd8                	fsw	fa4,60(a5)
  100700:	001c902f          	0x1c902f
  100704:	39c0                	fld	fs0,176(a1)
  100706:	ffd5                	bnez	a5,1006c2 <ker2+0x442>
  100708:	e4a2                	fsw	fs0,72(sp)
  10070a:	0005                	c.nop	1
  10070c:	691f 000f f1cf      	0xf1cf000f691f
  100712:	ffc4                	fsw	fs1,60(a5)
  100714:	8e86                	mv	t4,ra
  100716:	001e                	c.slli	zero,0x7
  100718:	42c8                	lw	a0,4(a3)
  10071a:	0015                	c.nop	5
  10071c:	0cd5                	addi	s9,s9,21
  10071e:	ffe8                	fsw	fa0,124(a5)
  100720:	fd1c                	fsw	fa5,56(a0)
  100722:	ffff                	0xffff
  100724:	ffd86fcf          	fnmadd.q	ft11,fa6,ft9,ft11,unknown
  100728:	2e1c                	fld	fa5,24(a2)
  10072a:	ffde                	fsw	fs7,252(sp)
  10072c:	000730c3          	fmadd.s	ft1,fa4,ft0,ft0,rup
  100730:	845e                	mv	s0,s7
  100732:	ffe1                	bnez	a5,10070a <ker2+0x48a>
  100734:	23a4                	fld	fs1,64(a5)
  100736:	000e                	c.slli	zero,0x3
  100738:	6032                	flw	ft0,12(sp)
  10073a:	000c                	0xc
  10073c:	0015c8e7          	0x15c8e7
  100740:	3b14                	fld	fa3,48(a4)
  100742:	1ea20007          	0x1ea20007
  100746:	ffca                	fsw	fs2,252(sp)
  100748:	c698                	sw	a4,8(a3)
  10074a:	0005                	c.nop	1
  10074c:	c845                	beqz	s0,1007fc <ker2+0x57c>
  10074e:	ffe9                	bnez	a5,100728 <ker2+0x4a8>
  100750:	ffe70937          	lui	s2,0xffe70
  100754:	2d22                	fld	fs10,8(sp)
  100756:	1f970017          	auipc	zero,0x1f970
  10075a:	0026                	c.slli	zero,0x9
  10075c:	00182de3          	0x182de3
  100760:	85f9                	srai	a1,a1,0x1e
  100762:	0005                	c.nop	1
  100764:	0007df07          	vle16.v	v30,(a5),v0.t
  100768:	cc38                	sw	a4,88(s0)
  10076a:	0000                	unimp
  10076c:	00158d6b          	0x158d6b
  100770:	ed0a                	fsw	ft2,152(sp)
  100772:	ffbc                	fsw	fa5,120(a5)
  100774:	1c95                	addi	s9,s9,-27
  100776:	ffcc                	fsw	fa1,60(a5)
  100778:	ed5e                	fsw	fs7,152(sp)
  10077a:	002e                	c.slli	zero,0xb
  10077c:	86ba                	mv	a3,a4
  10077e:	001c                	0x1c
  100780:	543a                	lw	s0,172(sp)
  100782:	ffe6                	fsw	fs9,252(sp)
  100784:	fffc2163          	0xfffc2163
  100788:	01f0                	addi	a2,sp,204
  10078a:	000a                	c.slli	zero,0x2
  10078c:	34d5                	jal	100270 <bias+0x30>
  10078e:	0001                	nop
  100790:	715c                	flw	fa5,36(a0)
  100792:	7e12ffbf 2255000f 	0x2255000f7e12ffbf
  10079a:	0000                	unimp
  10079c:	ffe6b79b          	0xffe6b79b
  1007a0:	1f32                	slli	t5,t5,0x2c
  1007a2:	ffee                	fsw	fs11,252(sp)
  1007a4:	9e25                	0x9e25
  1007a6:	000e                	c.slli	zero,0x3
  1007a8:	ffeb772b          	0xffeb772b
  1007ac:	f568                	fsw	fa0,108(a0)
  1007ae:	fffc                	fsw	fa5,124(a5)
  1007b0:	200a                	fld	ft0,128(sp)
  1007b2:	6c8dfff7          	0x6c8dfff7
  1007b6:	0019                	c.nop	6
  1007b8:	6790                	flw	fa2,8(a5)
  1007ba:	0019                	c.nop	6
  1007bc:	0012482b          	0x12482b
  1007c0:	71dd                	lui	gp,0xffff7
  1007c2:	ffea                	fsw	fs10,252(sp)
  1007c4:	aa82                	fsd	ft0,336(sp)
  1007c6:	ffe5                	bnez	a5,1007be <ker2+0x53e>
  1007c8:	47d2                	lw	a5,20(sp)
  1007ca:	0018                	0x18
  1007cc:	dcb4                	sw	a3,120(s1)
  1007ce:	0011                	c.nop	4
  1007d0:	000cafd7          	vredsum.vs	v31,v0,v25,v0.t
  1007d4:	8e52                	mv	t3,s4
  1007d6:	0016                	c.slli	zero,0x5
  1007d8:	2ca2                	fld	fs9,8(sp)
  1007da:	ffe6                	fsw	fs9,252(sp)
  1007dc:	414c                	lw	a1,4(a0)
  1007de:	26de004b          	fnmsub.q	ft0,ft8,fa3,ft4,rne
  1007e2:	ffd5                	bnez	a5,10079e <ker2+0x51e>
  1007e4:	bc6c                	fsd	fa1,248(s0)
  1007e6:	001a                	c.slli	zero,0x6
  1007e8:	7035                	c.lui	zero,0xfffed
  1007ea:	0021                	c.nop	8
  1007ec:	917e                	add	sp,sp,t6
  1007ee:	fffe                	fsw	ft11,252(sp)
  1007f0:	ffd822bf ffb2c727 	0xffb2c727ffd822bf
  1007f8:	6840                	flw	fs0,20(s0)
  1007fa:	001a                	c.slli	zero,0x6
  1007fc:	53f4                	lw	a3,100(a5)
  1007fe:	0000                	unimp
  100800:	b721                	j	100708 <ker2+0x488>
  100802:	fff5                	bnez	a5,1007fe <ker2+0x57e>
  100804:	e589                	bnez	a1,10080e <ker2+0x58e>
  100806:	fffc                	fsw	fa5,124(a5)
  100808:	c62a                	sw	a0,12(sp)
  10080a:	fff5                	bnez	a5,100806 <ker2+0x586>
  10080c:	d040                	sw	s0,36(s0)
  10080e:	0018                	0x18
  100810:	36b5                	jal	10037c <ker2+0xfc>
  100812:	ffd2                	fsw	fs4,252(sp)
  100814:	4f94                	lw	a3,24(a5)
  100816:	0019                	c.nop	6
  100818:	ffff6a9b          	0xffff6a9b
  10081c:	3ca6                	fld	fs9,104(sp)
  10081e:	0000                	unimp
  100820:	70fe                	flw	ft1,252(sp)
  100822:	9488ffe3          	bgeu	a7,s0,100180 <ker+0x180>
  100826:	e13b0003          	lb	zero,-493(s6) # fffe6e13 <__VREG_END+0xffe66e13>
  10082a:	fffa                	fsw	ft10,252(sp)
  10082c:	aa2c                	fsd	fa1,80(a2)
  10082e:	0018                	0x18
  100830:	3a8d                	jal	1001a2 <ker+0x1a2>
  100832:	002a                	c.slli	zero,0xa
  100834:	9c3e                	add	s8,s8,a5
  100836:	978affe3          	bgeu	s5,s8,1001b4 <ker+0x1b4>
  10083a:	ffe5                	bnez	a5,100832 <ker2+0x5b2>
  10083c:	65c6                	flw	fa1,80(sp)
  10083e:	fffa                	fsw	ft10,252(sp)
  100840:	a695                	j	100ba4 <ker2+0x924>
  100842:	fff9                	bnez	a5,100820 <ker2+0x5a0>
  100844:	ec16                	fsw	ft5,24(sp)
  100846:	0025                	c.nop	9
  100848:	8e98                	0x8e98
  10084a:	ffd8                	fsw	fa4,60(a5)
  10084c:	18e9                	addi	a7,a7,-6
  10084e:	0001                	nop
  100850:	fff315fb          	0xfff315fb
  100854:	c66a                	sw	s10,12(sp)
  100856:	ffee                	fsw	fs11,252(sp)
  100858:	394c                	fld	fa1,176(a0)
  10085a:	0010                	0x10
  10085c:	ca6a                	sw	s10,20(sp)
  10085e:	001d                	c.nop	7
  100860:	bfb6                	fsd	fa3,504(sp)
  100862:	0b83fffb          	0xb83fffb
  100866:	39e90027          	0x39e90027
  10086a:	326d000b          	0x326d000b
  10086e:	ffe6                	fsw	fs9,252(sp)
  100870:	000d02af          	vamoaddei8.v	zero,(s10),v0,v5,v0.t
  100874:	446d                	li	s0,27
  100876:	b5440003          	lb	zero,-1196(s0)
  10087a:	fff0                	fsw	fa2,124(a5)
  10087c:	0c3e                	slli	s8,s8,0xf
  10087e:	0009                	c.nop	2
  100880:	ffef0eef          	jal	t4,f107e <__BSS_END__+0xccd52>
  100884:	ffe85ae7          	0xffe85ae7
  100888:	c3fc                	sw	a5,68(a5)
  10088a:	fff1                	bnez	a5,100866 <ker2+0x5e6>
  10088c:	736a                	flw	ft6,184(sp)
  10088e:	0024                	addi	s1,sp,8
  100890:	268a                	fld	fa3,128(sp)
  100892:	7cfeffcb          	fnmsub.h	ft11,ft9,fa5,fa5
  100896:	0010                	0x10
  100898:	c53c                	sw	a5,72(a0)
  10089a:	6cf7ffe3          	bgeu	a5,a5,101778 <ker2+0x14f8>
  10089e:	fffe                	fsw	ft11,252(sp)
  1008a0:	55c4                	lw	s1,44(a1)
  1008a2:	ffec                	fsw	fa1,124(a5)
  1008a4:	51c4                	lw	s1,36(a1)
  1008a6:	0004                	0x4
  1008a8:	cf58                	sw	a4,28(a4)
  1008aa:	0001                	nop
  1008ac:	7c60                	flw	fs0,124(s0)
  1008ae:	0008                	0x8
  1008b0:	d09f fff2 4bb2      	0x4bb2fff2d09f
  1008b6:	b32c000b          	0xb32c000b
  1008ba:	0e7f000f          	0xe7f000f
  1008be:	ffe9                	bnez	a5,100898 <ker2+0x618>
  1008c0:	8e82                	jr	t4
  1008c2:	fffd                	bnez	a5,1008c0 <ker2+0x640>
  1008c4:	9c5d                	0x9c5d
  1008c6:	3df8fff7          	0x3df8fff7
  1008ca:	0001                	nop
  1008cc:	e091                	bnez	s1,1008d0 <ker2+0x650>
  1008ce:	0035                	c.nop	13
  1008d0:	ae9c                	fsd	fa5,24(a3)
  1008d2:	4e7b002b          	0x4e7b002b
  1008d6:	000d                	c.nop	3
  1008d8:	7744                	flw	fs1,44(a4)
  1008da:	ffe6                	fsw	fs9,252(sp)
  1008dc:	36f4                	fld	fa3,232(a3)
  1008de:	84590023          	sb	t0,-1984(s2) # ffe6f840 <__VREG_END+0xffcef840>
  1008e2:	fc4ffff7          	0xfc4ffff7
  1008e6:	0029                	c.nop	10
  1008e8:	7961                	lui	s2,0xffff8
  1008ea:	0020                	addi	s0,sp,8
  1008ec:	6f49                	lui	t5,0x12
  1008ee:	0005                	c.nop	1
  1008f0:	677c                	flw	fa5,76(a4)
  1008f2:	ffe6                	fsw	fs9,252(sp)
  1008f4:	d8d6                	sw	s5,112(sp)
  1008f6:	cddeffa7          	vsoxseg7ei64.v	v31,(t4),v29,v0.t
  1008fa:	001e                	c.slli	zero,0x7
  1008fc:	17e8                	addi	a0,sp,1004
  1008fe:	0018                	0x18
  100900:	46dd                	li	a3,23
  100902:	ffd8                	fsw	fa4,60(a5)
  100904:	ffe3280f          	0xffe3280f
  100908:	4316                	lw	t1,68(sp)
  10090a:	ffd1                	bnez	a5,1008a6 <ker2+0x626>
  10090c:	000f7bc3          	fmadd.s	fs7,ft10,ft0,ft0
  100910:	5968                	lw	a0,116(a0)
  100912:	0009                	c.nop	2
  100914:	de65                	beqz	a2,10090c <ker2+0x68c>
  100916:	0006                	c.slli	zero,0x1
  100918:	d98a                	sw	sp,240(sp)
  10091a:	fffd                	bnez	a5,100918 <ker2+0x698>
  10091c:	118a                	slli	gp,gp,0x22
  10091e:	fffd                	bnez	a5,10091c <ker2+0x69c>
  100920:	dca0                	sw	s0,120(s1)
  100922:	2cacfffb          	0x2cacfffb
  100926:	0008                	0x8
  100928:	5dcc                	lw	a1,60(a1)
  10092a:	001e                	c.slli	zero,0x7
  10092c:	cfe2                	sw	s8,220(sp)
  10092e:	0015                	c.nop	5
  100930:	7229                	lui	tp,0xfffea
  100932:	002e                	c.slli	zero,0xb
  100934:	a002                	fsd	ft0,0(sp)
  100936:	ffec                	fsw	fa1,124(a5)
  100938:	f3d8                	fsw	fa4,36(a5)
  10093a:	001c                	0x1c
  10093c:	b88c                	fsd	fa1,48(s1)
  10093e:	13ce001b          	0x13ce001b
  100942:	097dffcb          	fnmsub.s	ft11,fs11,fs7,ft1
  100946:	001c                	0x1c
  100948:	001bef57          	0x1bef57
  10094c:	bc92                	fsd	ft4,120(sp)
  10094e:	ffd6                	fsw	fs5,252(sp)
  100950:	bf96                	fsd	ft5,504(sp)
  100952:	003d                	c.nop	15
  100954:	819c                	0x819c
  100956:	0012                	c.slli	zero,0x4
  100958:	ffd46fa7          	0xffd46fa7
  10095c:	003d40cf          	fnmadd.s	ft1,fs10,ft3,ft0,rmm
  100960:	ffd71afb          	0xffd71afb
  100964:	c9dd                	beqz	a1,100a1a <ker2+0x79a>
  100966:	ffb1                	bnez	a5,1008c2 <ker2+0x642>
  100968:	dbc4                	sw	s1,52(a5)
  10096a:	ffe5                	bnez	a5,100962 <ker2+0x6e2>
  10096c:	fffd0e63          	beq	s10,t6,100168 <ker+0x168>
  100970:	fff42743          	fmadd.q	fa4,fs0,ft11,ft11,rdn
  100974:	9b4c                	0x9b4c
  100976:	0001                	nop
  100978:	4684                	lw	s1,8(a3)
  10097a:	82d8001b          	0x82d8001b
  10097e:	ffdd                	bnez	a5,10093c <ker2+0x6bc>
  100980:	a5b0                	fsd	fa2,72(a1)
  100982:	0004                	0x4
  100984:	6eda                	flw	ft9,148(sp)
  100986:	fff4                	fsw	fa3,124(a5)
  100988:	6f44                	flw	fs1,28(a4)
  10098a:	ffe0                	fsw	fs0,124(a5)
  10098c:	4b15                	li	s6,5
  10098e:	0025                	c.nop	9
  100990:	ffcf44fb          	0xffcf44fb
  100994:	0012ea37          	lui	s4,0x12e
  100998:	000f253f fffaba87 	0xfffaba87000f253f
  1009a0:	c2d9                	beqz	a3,100a26 <ker2+0x7a6>
  1009a2:	ffe2                	fsw	fs8,252(sp)
  1009a4:	1c35                	addi	s8,s8,-19
  1009a6:	0028                	addi	a0,sp,8
  1009a8:	30ea                	fld	ft1,184(sp)
  1009aa:	fff2                	fsw	ft8,252(sp)
  1009ac:	712a                	flw	ft2,168(sp)
  1009ae:	fffd                	bnez	a5,1009ac <ker2+0x72c>
  1009b0:	bacc                	fsd	fa1,176(a3)
  1009b2:	002d                	c.nop	11
  1009b4:	fff302cf          	fnmadd.q	ft5,ft6,ft11,ft11,rne
  1009b8:	6f9a                	flw	ft11,132(sp)
  1009ba:	001f 269f 0027      	0x27269f001f
  1009c0:	00042b5b          	0x42b5b
  1009c4:	6911                	lui	s2,0x4
  1009c6:	ffe6                	fsw	fs9,252(sp)
  1009c8:	ab08                	fsd	fa0,16(a4)
  1009ca:	002e                	c.slli	zero,0xb
  1009cc:	9dc6                	add	s11,s11,a7
  1009ce:	0012                	c.slli	zero,0x4
  1009d0:	5df2                	lw	s11,60(sp)
  1009d2:	81390023          	sb	s3,-2048(s2) # 3800 <__stack_init+0x2af8>
  1009d6:	0030                	addi	a2,sp,8
  1009d8:	00143507          	fld	fa0,1(s0)
  1009dc:	5c2a                	lw	s8,168(sp)
  1009de:	004a                	c.slli	zero,0x12
  1009e0:	0d36                	slli	s10,s10,0xd
  1009e2:	ffd6                	fsw	fs5,252(sp)
  1009e4:	6a5a                	flw	fs4,148(sp)
  1009e6:	0012                	c.slli	zero,0x4
  1009e8:	0316                	slli	t1,t1,0x5
  1009ea:	001e                	c.slli	zero,0x7
  1009ec:	4a08                	lw	a0,16(a2)
  1009ee:	0012                	c.slli	zero,0x4
  1009f0:	e72a                	fsw	fa0,140(sp)
  1009f2:	2a6bffeb          	0x2a6bffeb
  1009f6:	ffba                	fsw	fa4,252(sp)
  1009f8:	9baa                	add	s7,s7,a0
  1009fa:	0008                	0x8
  1009fc:	51d5                	li	gp,-11
  1009fe:	0004                	0x4
  100a00:	ce45                	beqz	a2,100ab8 <ker2+0x838>
  100a02:	ffe6                	fsw	fs9,252(sp)
  100a04:	5ab2                	lw	s5,44(sp)
  100a06:	fff4                	fsw	fa3,124(a5)
  100a08:	ffd95467          	0xffd95467
  100a0c:	4946                	lw	s2,80(sp)
  100a0e:	fff8                	fsw	fa4,124(a5)
  100a10:	178a                	slli	a5,a5,0x22
  100a12:	0001                	nop
  100a14:	000009bb          	0x9bb
  100a18:	e8f8                	fsw	fa4,84(s1)
  100a1a:	2d9dffef          	jal	t6,1e04f2 <__VREG_END+0x604f2>
  100a1e:	ffed                	bnez	a5,100a18 <ker2+0x798>
  100a20:	6491                	lui	s1,0x4
  100a22:	ffe1                	bnez	a5,1009fa <ker2+0x77a>
  100a24:	000b5163          	bgez	s6,100a26 <ker2+0x7a6>
  100a28:	d6c8                	sw	a0,44(a3)
  100a2a:	fffe                	fsw	ft11,252(sp)
  100a2c:	ffeeeb43          	fmadd.q	fs6,ft9,ft10,ft11,unknown
  100a30:	fff1c113          	not	sp,gp
  100a34:	e320                	fsw	fs0,64(a4)
  100a36:	fffa                	fsw	ft10,252(sp)
  100a38:	0032f38b          	0x32f38b
  100a3c:	5835                	li	a6,-19
  100a3e:	d63c0013          	addi	zero,s8,-669 # 20866b <__VREG_END+0x8866b>
  100a42:	0000                	unimp
  100a44:	000788b7          	lui	a7,0x78
  100a48:	75c6                	flw	fa1,112(sp)
  100a4a:	004c                	addi	a1,sp,4
  100a4c:	a8ae                	fsd	fa1,80(sp)
  100a4e:	ffd4                	fsw	fa3,60(a5)
  100a50:	003058cf          	fnmadd.s	fa7,ft0,ft3,ft0,unknown
  100a54:	002ef7c7          	fmsub.s	fa5,ft9,ft2,ft0
  100a58:	b166                	fsd	fs9,160(sp)
  100a5a:	0016                	c.slli	zero,0x5
  100a5c:	c116                	sw	t0,128(sp)
  100a5e:	001d                	c.nop	7
  100a60:	a5cd                	j	101142 <ker2+0xec2>
  100a62:	df91fff7          	0xdf91fff7
  100a66:	0004                	0x4
  100a68:	0a2d                	addi	s4,s4,11
  100a6a:	0004                	0x4
  100a6c:	0036b18f          	0x36b18f
  100a70:	9f62                	add	t5,t5,s8
  100a72:	ffd4                	fsw	fa3,60(a5)
  100a74:	17ed                	addi	a5,a5,-5
  100a76:	ffbe                	fsw	fa5,252(sp)
  100a78:	7530                	flw	fa2,104(a0)
  100a7a:	fff9                	bnez	a5,100a58 <ker2+0x7d8>
  100a7c:	000f3e7b          	0xf3e7b
  100a80:	fff696ef          	jal	a3,6aa7e <__BSS_END__+0x46752>
  100a84:	eb59                	bnez	a4,100b1a <ker2+0x89a>
  100a86:	fff2                	fsw	ft8,252(sp)
  100a88:	bddd                	j	10097e <ker2+0x6fe>
  100a8a:	0019                	c.nop	6
  100a8c:	0019ac57          	vredsum.vs	v24,v1,v19,v0.t
  100a90:	8311                	srli	a4,a4,0x4
  100a92:	fff5                	bnez	a5,100a8e <ker2+0x80e>
  100a94:	e316                	fsw	ft5,132(sp)
  100a96:	9c55001b          	0x9c55001b
  100a9a:	77d6004b          	fnmsub.q	ft0,fa2,ft9,fa4,rne
  100a9e:	757affc7          	fmsub.h	ft11,fs5,fs7,fa4
  100aa2:	03590017          	auipc	zero,0x3590
  100aa6:	ffde                	fsw	fs7,252(sp)
  100aa8:	449f ffbb da2c      	0xda2cffbb449f
  100aae:	b894ffcb          	fnmsub.s	ft11,fs1,fs1,fs7
  100ab2:	fffd                	bnez	a5,100ab0 <ker2+0x830>
  100ab4:	ebac                	fsw	fa1,80(a5)
  100ab6:	56040003          	lb	zero,1376(s0)
  100aba:	fff4                	fsw	fa3,124(a5)
  100abc:	bc38                	fsd	fa4,120(s0)
  100abe:	0021                	c.nop	8
  100ac0:	4415                	li	s0,5
  100ac2:	0021                	c.nop	8
  100ac4:	001f19c7          	fmsub.s	fs3,ft10,ft1,ft0,rtz
  100ac8:	951e                	add	a0,a0,t2
  100aca:	ffcc                	fsw	fa1,60(a5)
  100acc:	9aba                	add	s5,s5,a4
  100ace:	000e                	c.slli	zero,0x3
  100ad0:	ffeccaa7          	fsq	ft10,-11(s9) # 19ff5 <__stack_init+0x192ed>
  100ad4:	3a85                	jal	100444 <ker2+0x1c4>
  100ad6:	0024                	addi	s1,sp,8
  100ad8:	5f76                	lw	t5,124(sp)
  100ada:	0035                	c.nop	13
  100adc:	d6ea                	sw	s10,108(sp)
  100ade:	001f 9e71 0010      	0x109e71001f
  100ae4:	0045594b          	fnmsub.s	fs2,fa0,ft4,ft0,unknown
  100ae8:	ac6d                	j	100da2 <ker2+0xb22>
  100aea:	0019                	c.nop	6
  100aec:	ffdee72b          	0xffdee72b
  100af0:	fffa18f3          	csrrw	a7,0xfff,s4
  100af4:	9138                	0x9138
  100af6:	0014                	0x14
  100af8:	9c3e                	add	s8,s8,a5
  100afa:	0009                	c.nop	2
  100afc:	a53c                	fsd	fa5,72(a0)
  100afe:	0041                	c.nop	16
  100b00:	661a                	flw	fa2,132(sp)
  100b02:	0014                	0x14
  100b04:	000f39f7          	0xf39f7
  100b08:	ffeff90b          	0xffeff90b
  100b0c:	ffdfeceb          	0xffdfeceb
  100b10:	b468                	fsd	fa0,232(s0)
  100b12:	42bb000b          	0x42bb000b
  100b16:	0002                	c.slli64	zero
  100b18:	ffe4534f          	fnmadd.q	ft6,fs0,ft10,ft11,unknown
  100b1c:	f84e                	fsw	fs3,48(sp)
  100b1e:	0011                	c.nop	4
  100b20:	ffdec2cf          	fnmadd.q	ft5,ft9,ft9,ft11,rmm
  100b24:	ec0d                	bnez	s0,100b5e <ker2+0x8de>
  100b26:	0019                	c.nop	6
  100b28:	c961                	beqz	a0,100bf8 <ker2+0x978>
  100b2a:	fff8                	fsw	fa4,124(a5)
  100b2c:	f9c0                	fsw	fs0,52(a1)
  100b2e:	0034                	addi	a3,sp,8
  100b30:	d3c5                	beqz	a5,100ad0 <ker2+0x850>
  100b32:	000c                	0xc
  100b34:	fff114b3          	0xfff114b3
  100b38:	0f90                	addi	a2,sp,976
  100b3a:	0026                	c.slli	zero,0x9
  100b3c:	884a                	mv	a6,s2
  100b3e:	0005                	c.nop	1
  100b40:	605c                	flw	fa5,4(s0)
  100b42:	b2a20033          	0xb2a20033
  100b46:	0004                	0x4
  100b48:	63ee                	flw	ft7,216(sp)
  100b4a:	0020                	addi	s0,sp,8
  100b4c:	e154                	fsw	fa3,4(a0)
  100b4e:	ffe0                	fsw	fs0,124(a5)
  100b50:	5436                	lw	s0,108(sp)
  100b52:	0005                	c.nop	1
  100b54:	f9bd                	bnez	a1,100aca <ker2+0x84a>
  100b56:	fff6                	fsw	ft9,252(sp)
  100b58:	b0f5                	j	100444 <ker2+0x1c4>
  100b5a:	ffe2                	fsw	fs8,252(sp)
  100b5c:	7a86                	flw	fs5,96(sp)
  100b5e:	0008                	0x8
  100b60:	829e                	mv	t0,t2
  100b62:	0031                	c.nop	12
  100b64:	f150                	fsw	fa2,36(a0)
  100b66:	0009                	c.nop	2
  100b68:	000fbfc3          	fmadd.s	ft11,ft11,ft0,ft0,rup
  100b6c:	3490                	fld	fa2,40(s1)
  100b6e:	fff9                	bnez	a5,100b4c <ker2+0x8cc>
  100b70:	eff2                	fsw	ft8,220(sp)
  100b72:	551c000f          	0x551c000f
  100b76:	ffe9                	bnez	a5,100b50 <ker2+0x8d0>
  100b78:	8a54                	0x8a54
  100b7a:	ffca                	fsw	fs2,252(sp)
  100b7c:	24a2                	fld	fs1,8(sp)
  100b7e:	fff2                	fsw	ft8,252(sp)
  100b80:	eed5                	bnez	a3,100c3c <ker2+0x9bc>
  100b82:	0028                	addi	a0,sp,8
  100b84:	c779                	beqz	a4,100c52 <ker2+0x9d2>
  100b86:	168e002f          	0x168e002f
  100b8a:	fff0                	fsw	fa2,124(a5)
  100b8c:	bc9a                	fsd	ft6,120(sp)
  100b8e:	b110fff3          	csrrci	t6,mhpmcounter17,1
  100b92:	a4e3002f          	vamomaxei8.v	v0,(t1),v14,v0,v0.t
  100b96:	0005                	c.nop	1
  100b98:	4ea2                	lw	t4,8(sp)
  100b9a:	ffcc                	fsw	fa1,60(a5)
  100b9c:	853d                	srai	a0,a0,0xf
  100b9e:	ffe2                	fsw	fs8,252(sp)
  100ba0:	dec2                	sw	a6,124(sp)
  100ba2:	ffea                	fsw	fs10,252(sp)
  100ba4:	003b1247          	fmsub.s	ft4,fs6,ft3,ft0,rtz
  100ba8:	c82d                	beqz	s0,100c1a <ker2+0x99a>
  100baa:	001d                	c.nop	7
  100bac:	0371                	addi	t1,t1,28
  100bae:	ebee000f          	0xebee000f
  100bb2:	001e                	c.slli	zero,0x7
  100bb4:	d018                	sw	a4,32(s0)
  100bb6:	9237000b          	0x9237000b
  100bba:	0028                	addi	a0,sp,8
  100bbc:	2a46                	fld	fs4,80(sp)
  100bbe:	0010                	0x10
  100bc0:	f994                	fsw	fa3,48(a1)
  100bc2:	000e                	c.slli	zero,0x3
  100bc4:	548a                	lw	s1,160(sp)
  100bc6:	fff6                	fsw	ft9,252(sp)
  100bc8:	0012cb6f          	jal	s6,12d3c8 <__VMEM_END+0x1d488>
  100bcc:	aa8a                	fsd	ft2,336(sp)
  100bce:	ffd4                	fsw	fa3,60(a5)
  100bd0:	e0de                	fsw	fs7,64(sp)
  100bd2:	79c7ffeb          	0x79c7ffeb
  100bd6:	ffdc                	fsw	fa5,60(a5)
  100bd8:	18fc                	addi	a5,sp,124
  100bda:	fbc70007          	0xfbc70007
  100bde:	fffd                	bnez	a5,100bdc <ker2+0x95c>
  100be0:	00043427          	fsd	ft0,8(s0)
  100be4:	0201                	addi	tp,tp,0
  100be6:	ffee                	fsw	fs11,252(sp)
  100be8:	015a                	slli	sp,sp,0x16
  100bea:	2cd60007          	vloxseg2ei8.v	v0,(a2),v13,v0.t
  100bee:	0000                	unimp
  100bf0:	0865                	addi	a6,a6,25
  100bf2:	ffe9                	bnez	a5,100bcc <ker2+0x94c>
  100bf4:	3482                	fld	fs1,32(sp)
  100bf6:	ffed                	bnez	a5,100bf0 <ker2+0x970>
  100bf8:	9312                	add	t1,t1,tp
  100bfa:	ffce                	fsw	fs3,252(sp)
  100bfc:	a2b8                	fsd	fa4,64(a3)
  100bfe:	3049ffe3          	bgeu	s3,tp,10171c <ker2+0x149c>
  100c02:	002e                	c.slli	zero,0xb
  100c04:	74f4                	flw	fa3,108(s1)
  100c06:	fff9                	bnez	a5,100be4 <ker2+0x964>
  100c08:	64ee                	flw	fs1,216(sp)
  100c0a:	0014                	0x14
  100c0c:	000f2727          	fsw	ft0,14(t5) # 1200e <__stack_init+0x11306>
  100c10:	00171ca7          	fsh	ft1,25(a4) # 19019 <__stack_init+0x18311>
  100c14:	e2f6                	fsw	ft9,68(sp)
  100c16:	0018                	0x18
  100c18:	e88e                	fsw	ft3,80(sp)
  100c1a:	002c                	addi	a1,sp,8
  100c1c:	fff34173          	0xfff34173
  100c20:	ffe6f4fb          	0xffe6f4fb
  100c24:	c4f6                	sw	t4,72(sp)
  100c26:	ffea                	fsw	fs10,252(sp)
  100c28:	000bed6f          	jal	s10,1bec28 <__VREG_END+0x3ec28>
  100c2c:	4085                	li	ra,1
  100c2e:	ffe0                	fsw	fs0,124(a5)
  100c30:	4ba5                	li	s7,9
  100c32:	12ac0007          	0x12ac0007
  100c36:	d1d6000f          	0xd1d6000f
  100c3a:	fff8                	fsw	fa4,124(a5)
  100c3c:	ea1d                	bnez	a2,100c72 <ker2+0x9f2>
  100c3e:	ffff                	0xffff
  100c40:	f10a                	fsw	ft2,160(sp)
  100c42:	0020                	addi	s0,sp,8
  100c44:	23dd                	jal	10122a <ker2+0xfaa>
  100c46:	00abfff7          	0xabfff7
  100c4a:	d1d9ffef          	jal	t6,a0966 <__BSS_END__+0x7c63a>
  100c4e:	0005                	c.nop	1
  100c50:	0e18                	addi	a4,sp,784
  100c52:	ffcc                	fsw	fa1,60(a5)
  100c54:	b118                	fsd	fa4,32(a0)
  100c56:	0014                	0x14
  100c58:	1704                	addi	s1,sp,928
  100c5a:	90280017          	auipc	zero,0x90280
  100c5e:	c4670023          	sb	t1,-960(a4)
  100c62:	fff5                	bnez	a5,100c5e <ker2+0x9de>
  100c64:	dbdc                	sw	a5,52(a5)
  100c66:	0029                	c.nop	10
  100c68:	3412                	fld	fs0,288(sp)
  100c6a:	fff9                	bnez	a5,100c48 <ker2+0x9c8>
  100c6c:	9fcd                	0x9fcd
  100c6e:	ffee                	fsw	fs11,252(sp)
  100c70:	537a                	lw	t1,188(sp)
  100c72:	ffd2                	fsw	fs4,252(sp)
  100c74:	ad99                	j	1012ca <ker2+0x104a>
  100c76:	3e89ffcf          	fnmadd.q	ft11,fs3,fs0,ft7
  100c7a:	ffd9                	bnez	a5,100c18 <ker2+0x998>
  100c7c:	b0fd                	j	10056a <ker2+0x2ea>
  100c7e:	ea8e0013          	addi	zero,t3,-344
  100c82:	5ba50033          	0x5ba50033
  100c86:	fffe                	fsw	ft11,252(sp)
  100c88:	1e64                	addi	s1,sp,828
  100c8a:	ffe0                	fsw	fs0,124(a5)
  100c8c:	7af9                	lui	s5,0xffffe
  100c8e:	0002                	c.slli64	zero
  100c90:	9cb9                	0x9cb9
  100c92:	0038                	addi	a4,sp,8
  100c94:	8bf5                	andi	a5,a5,29
  100c96:	0012                	c.slli	zero,0x4
  100c98:	ffd0e733          	0xffd0e733
  100c9c:	6558                	flw	fa4,12(a0)
  100c9e:	ffed                	bnez	a5,100c98 <ker2+0xa18>
  100ca0:	e070                	fsw	fa2,68(s0)
  100ca2:	0004                	0x4
  100ca4:	0003eb3b          	0x3eb3b
  100ca8:	71d4                	flw	fa3,36(a1)
  100caa:	ffe5                	bnez	a5,100ca2 <ker2+0xa22>
  100cac:	428e                	lw	t0,192(sp)
  100cae:	0012                	c.slli	zero,0x4
  100cb0:	1301                	addi	t1,t1,-32
  100cb2:	fff5                	bnez	a5,100cae <ker2+0xa2e>
  100cb4:	0025d50b          	0x25d50b
  100cb8:	bba4                	fsd	fs1,112(a5)
  100cba:	001d                	c.nop	7
  100cbc:	e609                	bnez	a2,100cc6 <ker2+0xa46>
  100cbe:	fffd                	bnez	a5,100cbc <ker2+0xa3c>
  100cc0:	00d6                	slli	ra,ra,0x15
  100cc2:	0036                	c.slli	zero,0xd
  100cc4:	0b20                	addi	s0,sp,408
  100cc6:	ffe2                	fsw	fs8,252(sp)
  100cc8:	6da2                	flw	fs11,8(sp)
  100cca:	001d                	c.nop	7
  100ccc:	bb5e                	fsd	fs7,432(sp)
  100cce:	0001                	nop
  100cd0:	4c91                	li	s9,4
  100cd2:	ffe2                	fsw	fs8,252(sp)
  100cd4:	ffd24477          	0xffd24477
  100cd8:	ffc412b3          	0xffc412b3
  100cdc:	0013a2af          	amoadd.w	t0,ra,(t2)
  100ce0:	609d                	lui	ra,0x7
  100ce2:	001c                	0x1c
  100ce4:	26f2                	fld	fa3,280(sp)
  100ce6:	f5170007          	0xf5170007
  100cea:	ffe8                	fsw	fa0,124(a5)
  100cec:	ae86                	fsd	ft1,344(sp)
  100cee:	001a                	c.slli	zero,0x6
  100cf0:	1fda                	slli	t6,t6,0x36
  100cf2:	fff5                	bnez	a5,100cee <ker2+0xa6e>
  100cf4:	8e58                	0x8e58
  100cf6:	ffda                	fsw	fs6,252(sp)
  100cf8:	4b74                	lw	a3,84(a4)
  100cfa:	af08ffc3          	fmadd.q	ft11,fa7,fa6,fs5
  100cfe:	ffff                	0xffff
  100d00:	7506                	flw	fa0,96(sp)
  100d02:	9680000f          	0x9680000f
  100d06:	0019                	c.nop	6
  100d08:	0003085b          	0x3085b
  100d0c:	21c2                	fld	ft3,16(sp)
  100d0e:	ffd6                	fsw	fs5,252(sp)
  100d10:	002e2c8b          	0x2e2c8b
  100d14:	cafd                	beqz	a3,100e0a <ker2+0xb8a>
  100d16:	0c60ffe3          	bgeu	ra,t1,1015f4 <ker2+0x1374>
  100d1a:	ffa1                	bnez	a5,100c72 <ker2+0x9f2>
  100d1c:	cc04                	sw	s1,24(s0)
  100d1e:	fff0                	fsw	fa2,124(a5)
  100d20:	041d                	addi	s0,s0,7
  100d22:	cd97ffeb          	0xcd97ffeb
  100d26:	0049                	c.nop	18
  100d28:	145e                	slli	s0,s0,0x37
  100d2a:	e898ffe7          	0xe898ffe7
  100d2e:	0031                	c.nop	12
  100d30:	ffe91997          	auipc	s3,0xffe91
  100d34:	375f 000b 99be      	0x99be000b375f
  100d3a:	0005                	c.nop	1
  100d3c:	000af4a7          	vse64.v	v9,(s5),v0.t
  100d40:	af65                	j	1014f8 <ker2+0x1278>
  100d42:	0000                	unimp
  100d44:	ffeeb363          	0xffeeb363
  100d48:	89dd                	andi	a1,a1,23
  100d4a:	ffe1                	bnez	a5,100d22 <ker2+0xaa2>
  100d4c:	50c1                	li	ra,-16
  100d4e:	ffd8                	fsw	fa4,60(a5)
  100d50:	fc8e                	fsw	ft3,120(sp)
  100d52:	bbe40027          	0xbbe40027
  100d56:	fff6                	fsw	ft9,252(sp)
  100d58:	b350                	fsd	fa2,160(a4)
  100d5a:	fff1                	bnez	a5,100d36 <ker2+0xab6>
  100d5c:	c7ed                	beqz	a5,100e46 <ker2+0xbc6>
  100d5e:	aaca000b          	0xaaca000b
  100d62:	ffea                	fsw	fs10,252(sp)
  100d64:	893d                	andi	a0,a0,15
  100d66:	424e0027          	0x424e0027
  100d6a:	0014                	0x14
  100d6c:	ccc4                	sw	s1,28(s1)
  100d6e:	0c880007          	vloxei8.v	v0,(a6),v8,v0.t
  100d72:	d506ffe3          	bgeu	a3,a6,100ad0 <ker2+0x850>
  100d76:	c3e3ffcb          	fnmsub.d	ft11,ft7,ft10,fs8
  100d7a:	000a                	c.slli	zero,0x2
  100d7c:	e805                	bnez	s0,100dac <ker2+0xb2c>
  100d7e:	002c                	addi	a1,sp,8
  100d80:	ffc356db          	0xffc356db
  100d84:	00200917          	auipc	s2,0x200
  100d88:	d03d                	beqz	s0,100cee <ker2+0xa6e>
  100d8a:	0011                	c.nop	4
  100d8c:	ffe5c68b          	0xffe5c68b
  100d90:	1aee                	slli	s5,s5,0x3b
  100d92:	ffe0                	fsw	fs0,124(a5)
  100d94:	002d517b          	0x2d517b
  100d98:	003af0e3          	bgeu	s5,gp,101598 <ker2+0x1318>
  100d9c:	2844                	fld	fs1,144(s0)
  100d9e:	0016                	c.slli	zero,0x5
  100da0:	78da                	flw	fa7,180(sp)
  100da2:	001f 8d21 fff6      	0xfff68d21001f
  100da8:	5209                	li	tp,-30
  100daa:	5a94003f afcffff1 	0xafcffff15a94003f
  100db2:	fff9                	bnez	a5,100d90 <ker2+0xb10>
  100db4:	b3d0                	fsd	fa2,160(a5)
  100db6:	0009                	c.nop	2
  100db8:	38c2                	fld	fa7,48(sp)
  100dba:	0021                	c.nop	8
  100dbc:	1f42                	slli	t5,t5,0x30
  100dbe:	ffe9                	bnez	a5,100d98 <ker2+0xb18>
  100dc0:	ffae005b          	0xffae005b
  100dc4:	000cd11b          	0xcd11b
  100dc8:	c159                	beqz	a0,100e4e <ker2+0xbce>
  100dca:	ffd1                	bnez	a5,100d66 <ker2+0xae6>
  100dcc:	a8e6                	fsd	fs9,80(sp)
  100dce:	0002                	c.slli64	zero
  100dd0:	3994                	fld	fa3,48(a1)
  100dd2:	e8a0fff7          	0xe8a0fff7
  100dd6:	1265002b          	0x1265002b
  100dda:	0049                	c.nop	18
  100ddc:	1555                	addi	a0,a0,-11
  100dde:	ffde                	fsw	fs7,252(sp)
  100de0:	1ca0                	addi	s0,sp,632
  100de2:	003c                	addi	a5,sp,8
  100de4:	1b9e                	slli	s7,s7,0x27
  100de6:	ffdc                	fsw	fa5,60(a5)
  100de8:	fffd3733          	0xfffd3733
  100dec:	ffd5b1c3          	fmadd.q	ft3,fa1,ft9,ft11,rup
  100df0:	151d                	addi	a0,a0,-25
  100df2:	0002                	c.slli64	zero
  100df4:	4a45                	li	s4,17
  100df6:	002d                	c.nop	11
  100df8:	9b5e                	add	s6,s6,s7
  100dfa:	002a                	c.slli	zero,0xa
  100dfc:	a8e8                	fsd	fa0,208(s1)
  100dfe:	0006                	c.slli	zero,0x1
  100e00:	fff608fb          	0xfff608fb
  100e04:	2536                	fld	fa0,328(sp)
  100e06:	ffe2                	fsw	fs8,252(sp)
  100e08:	ffdaf9ab          	0xffdaf9ab
  100e0c:	3dea                	fld	fs11,184(sp)
  100e0e:	002d                	c.nop	11
  100e10:	ffd11bf3          	csrrw	s7,0xffd,sp
  100e14:	ffcfe81b          	0xffcfe81b
  100e18:	05fe                	slli	a1,a1,0x1f
  100e1a:	a138ffd7          	0xa138ffd7
  100e1e:	ffd6                	fsw	fs5,252(sp)
  100e20:	6c52                	flw	fs8,20(sp)
  100e22:	001c                	0x1c
  100e24:	ffe6c927          	fsq	ft10,-14(a3)
  100e28:	5a48                	lw	a0,52(a2)
  100e2a:	66a5ffef          	jal	t6,160494 <__VMEM_END+0x50554>
  100e2e:	ffd4                	fsw	fa3,60(a5)
  100e30:	a394                	fsd	fa3,0(a5)
  100e32:	fff9                	bnez	a5,100e10 <ker2+0xb90>
  100e34:	fffe77eb          	0xfffe77eb
  100e38:	9759                	srai	a4,a4,0x36
  100e3a:	0019                	c.nop	6
  100e3c:	ffdd6017          	auipc	zero,0xffdd6
  100e40:	02f0                	addi	a2,sp,332
  100e42:	0009                	c.nop	2
  100e44:	62ce                	flw	ft5,208(sp)
  100e46:	9a40ffe3          	bgeu	ra,tp,100804 <ker2+0x584>
  100e4a:	fefefff3          	csrrci	t6,0xfef,29
  100e4e:	05f80043          	fmadd.h	ft0,fa6,ft11,ft0,rne
  100e52:	d2f80023          	sb	a5,-736(a6)
  100e56:	fff8                	fsw	fa4,124(a5)
  100e58:	0027ad73          	csrrs	s10,frm,a5
  100e5c:	0043996f          	jal	s2,139e60 <__VMEM_END+0x29f20>
  100e60:	07e9                	addi	a5,a5,26
  100e62:	ffee                	fsw	fs11,252(sp)
  100e64:	cb0e                	sw	gp,148(sp)
  100e66:	0031                	c.nop	12
  100e68:	00329277          	0x329277
  100e6c:	8309                	srli	a4,a4,0x2
  100e6e:	ffa5                	bnez	a5,100de6 <ker2+0xb66>
  100e70:	ff95                	bnez	a5,100dac <ker2+0xb2c>
  100e72:	ffe9                	bnez	a5,100e4c <ker2+0xbcc>
  100e74:	0baa                	slli	s7,s7,0xa
  100e76:	ffbc                	fsw	fa5,120(a5)
  100e78:	2b60                	fld	fs0,208(a4)
  100e7a:	0026                	c.slli	zero,0x9
  100e7c:	ac7c                	fsd	fa5,216(s0)
  100e7e:	003c                	addi	a5,sp,8
  100e80:	77e5                	lui	a5,0xffff9
  100e82:	ffc8                	fsw	fa0,60(a5)
  100e84:	ba09                	j	100796 <ker2+0x516>
  100e86:	ffdd                	bnez	a5,100e44 <ker2+0xbc4>
  100e88:	54e1                	li	s1,-8
  100e8a:	fffd                	bnez	a5,100e88 <ker2+0xc08>
  100e8c:	1629                	addi	a2,a2,-22
  100e8e:	e8f4fff3          	csrrci	t6,0xe8f,9
  100e92:	fffc                	fsw	fa5,124(a5)
  100e94:	fffe9157          	vfwnmsac.vv	v2,v29,v31
  100e98:	0912                	slli	s2,s2,0x4
  100e9a:	0000                	unimp
  100e9c:	aa84                	fsd	fs1,16(a3)
  100e9e:	00af0023          	sb	a0,0(t5)
  100ea2:	0029                	c.nop	10
  100ea4:	cf7c                	sw	a5,92(a4)
  100ea6:	fff1                	bnez	a5,100e82 <ker2+0xc02>
  100ea8:	2af9                	jal	101086 <ker2+0xe06>
  100eaa:	d8770013          	addi	zero,a4,-633
  100eae:	001c                	0x1c
  100eb0:	6ec6                	flw	ft9,80(sp)
  100eb2:	001a                	c.slli	zero,0x6
  100eb4:	641e                	flw	fs0,196(sp)
  100eb6:	47defffb          	0x47defffb
  100eba:	0026                	c.slli	zero,0x9
  100ebc:	ef41                	bnez	a4,100f54 <ker2+0xcd4>
  100ebe:	0025                	c.nop	9
  100ec0:	2c3c                	fld	fa5,88(s0)
  100ec2:	99d1ffe3          	bgeu	gp,t4,100860 <ker2+0x5e0>
  100ec6:	004a                	c.slli	zero,0x12
  100ec8:	688d                	lui	a7,0x3
  100eca:	001f 2c72 fff7      	0xfff72c72001f
  100ed0:	0a95                	addi	s5,s5,5
  100ed2:	19e1ffef          	jal	t6,120070 <__VMEM_END+0x10130>
  100ed6:	001d                	c.nop	7
  100ed8:	ffd42eef          	jal	t4,43ed4 <__BSS_END__+0x1fba8>
  100edc:	f226                	fsw	fs1,36(sp)
  100ede:	002d                	c.nop	11
  100ee0:	0344                	addi	s1,sp,388
  100ee2:	0022                	c.slli	zero,0x8
  100ee4:	ffeddf4f          	fnmadd.q	ft10,fs11,ft10,ft11,unknown
  100ee8:	ec0c                	fsw	fa1,24(s0)
  100eea:	ffe6                	fsw	fs9,252(sp)
  100eec:	26fd                	jal	1012da <ker2+0x105a>
  100eee:	000c                	0xc
  100ef0:	b780                	fsd	fs0,40(a5)
  100ef2:	001c                	0x1c
  100ef4:	107d                	c.nop	-1
  100ef6:	001d                	c.nop	7
  100ef8:	c876                	sw	t4,16(sp)
  100efa:	ffdf ffa1 ffb2      	0xffb2ffa1ffdf
  100f00:	8846                	mv	a6,a7
  100f02:	0006                	c.slli	zero,0x1
  100f04:	fffc6c77          	0xfffc6c77
  100f08:	0002606f          	j	126f08 <__VMEM_END+0x16fc8>
  100f0c:	000d01bb          	0xd01bb
  100f10:	595c                	lw	a5,52(a0)
  100f12:	0025                	c.nop	9
  100f14:	f221                	bnez	a2,100e54 <ker2+0xbd4>
  100f16:	0005                	c.nop	1
  100f18:	9e58                	0x9e58
  100f1a:	ffec                	fsw	fa1,124(a5)
  100f1c:	d504                	sw	s1,40(a0)
  100f1e:	0014                	0x14
  100f20:	9be1                	andi	a5,a5,-8
  100f22:	ffde                	fsw	fs7,252(sp)
  100f24:	802a                	c.mv	zero,a0
  100f26:	0014                	0x14
  100f28:	ffe7ca83          	lbu	s5,-2(a5) # ffff8ffe <__VREG_END+0xffe78ffe>
  100f2c:	0027b4d3          	fadd.s	fs1,fa5,ft2,rup
  100f30:	92b8                	0x92b8
  100f32:	a4b6fff7          	0xa4b6fff7
  100f36:	001d                	c.nop	7
  100f38:	0032c9f7          	0x32c9f7
  100f3c:	0006733b          	0x6733b
  100f40:	f722                	fsw	fs0,172(sp)
  100f42:	d1200007          	0xd1200007
  100f46:	ffff                	0xffff
  100f48:	b115                	j	100b6c <ker2+0x8ec>
  100f4a:	001a                	c.slli	zero,0x6
  100f4c:	f334                	fsw	fa3,96(a4)
  100f4e:	372a0003          	lb	zero,882(s4) # 12e372 <__VMEM_END+0x1e432>
  100f52:	0002                	c.slli64	zero
  100f54:	39ad                	jal	100bce <ker2+0x94e>
  100f56:	fffc                	fsw	fa5,124(a5)
  100f58:	18e4                	addi	s1,sp,124
  100f5a:	ffe6                	fsw	fs9,252(sp)
  100f5c:	e092                	fsw	ft4,64(sp)
  100f5e:	0016                	c.slli	zero,0x5
  100f60:	c62a                	sw	a0,12(sp)
  100f62:	fff0                	fsw	fa2,124(a5)
  100f64:	002484bb          	0x2484bb
  100f68:	3ff1                	jal	100f44 <ker2+0xcc4>
  100f6a:	fff9                	bnez	a5,100f48 <ker2+0xcc8>
  100f6c:	91e5                	srli	a1,a1,0x39
  100f6e:	002a                	c.slli	zero,0xa
  100f70:	a221                	j	101078 <ker2+0xdf8>
  100f72:	190effe3          	bgeu	t4,a6,101910 <ker2+0x1690>
  100f76:	ffe1                	bnez	a5,100f4e <ker2+0xcce>
  100f78:	ffdb6417          	auipc	s0,0xffdb6
  100f7c:	dce6                	sw	s9,120(sp)
  100f7e:	0011                	c.nop	4
  100f80:	2ece                	fld	ft9,208(sp)
  100f82:	0016                	c.slli	zero,0x5
  100f84:	ebaa                	fsw	fa0,212(sp)
  100f86:	0012                	c.slli	zero,0x4
  100f88:	1561                	addi	a0,a0,-8
  100f8a:	0005                	c.nop	1
  100f8c:	28f9                	jal	10106a <ker2+0xdea>
  100f8e:	0020                	addi	s0,sp,8
  100f90:	0006338f          	0x6338f
  100f94:	e0d4                	fsw	fa3,4(s1)
  100f96:	000d                	c.nop	3
  100f98:	ffef83e3          	beq	t6,t5,100f7e <ker2+0xcfe>
  100f9c:	ffe6736b          	0xffe6736b
  100fa0:	4f82                	lw	t6,0(sp)
  100fa2:	ffe8                	fsw	fa0,124(a5)
  100fa4:	1c49                	addi	s8,s8,-14
  100fa6:	fff2                	fsw	ft8,252(sp)
  100fa8:	833e                	mv	t1,a5
  100faa:	ffd0                	fsw	fa2,60(a5)
  100fac:	b21d                	j	1008d2 <ker2+0x652>
  100fae:	0002                	c.slli64	zero
  100fb0:	2f75                	jal	10176c <ker2+0x14ec>
  100fb2:	fff4                	fsw	fa3,124(a5)
  100fb4:	d175                	beqz	a0,100f98 <ker2+0xd18>
  100fb6:	2f020027          	vsoxseg2ei8.v	v0,(tp),v16
  100fba:	0010                	0x10
  100fbc:	ba1a                	fsd	ft6,304(sp)
  100fbe:	ffe6                	fsw	fs9,252(sp)
  100fc0:	fffa5fa3          	0xfffa5fa3
  100fc4:	fff0286b          	0xfff0286b
  100fc8:	0037b4ab          	0x37b4ab
  100fcc:	783a                	flw	fa6,172(sp)
  100fce:	fff2                	fsw	ft8,252(sp)
  100fd0:	ffd0389b          	0xffd0389b
  100fd4:	74e8                	flw	fa0,108(s1)
  100fd6:	0000                	unimp
  100fd8:	2eda                	fld	ft9,400(sp)
  100fda:	ffee                	fsw	fs11,252(sp)
  100fdc:	0022de23          	0x22de23
  100fe0:	6c20                	flw	fs0,88(s0)
  100fe2:	0021                	c.nop	8
  100fe4:	0575                	addi	a0,a0,29
  100fe6:	0025                	c.nop	9
  100fe8:	6faa                	flw	ft11,136(sp)
  100fea:	001c                	0x1c
  100fec:	3708                	fld	fa0,40(a4)
  100fee:	76a9fffb          	0x76a9fffb
  100ff2:	0d58fff3          	csrrci	t6,0xd5,17
  100ff6:	9861ffd7          	0x9861ffd7
  100ffa:	ffd5                	bnez	a5,100fb6 <ker2+0xd36>
  100ffc:	a8d0                	fsd	fa2,144(s1)
  100ffe:	b293000b          	0xb293000b
  101002:	fff9                	bnez	a5,100fe0 <ker2+0xd60>
  101004:	5dd5                	li	s11,-11
  101006:	0016                	c.slli	zero,0x5
  101008:	49ee                	lw	s3,216(sp)
  10100a:	11f9fff7          	0x11f9fff7
  10100e:	cd6f0013          	addi	zero,t5,-810
  101012:	0004                	0x4
  101014:	b1f0                	fsd	fa2,224(a1)
  101016:	001c                	0x1c
  101018:	13d2                	slli	t2,t2,0x34
  10101a:	0018                	0x18
  10101c:	9604                	0x9604
  10101e:	2d39000f          	0x2d39000f
  101022:	a0a30003          	lb	zero,-1526(t1) # fffeda0a <__VREG_END+0xffe6da0a>
  101026:	fffc                	fsw	fa5,124(a5)
  101028:	72ea                	flw	ft5,184(sp)
  10102a:	0005                	c.nop	1
  10102c:	60fe                	flw	ft1,220(sp)
  10102e:	0014                	0x14
  101030:	aa49                	j	1011c2 <ker2+0xf42>
  101032:	aa1cffef          	jal	t6,d0ad2 <__BSS_END__+0xac7a6>
  101036:	fffc                	fsw	fa5,124(a5)
  101038:	8976                	mv	s2,t4
  10103a:	ffed                	bnez	a5,101034 <ker2+0xdb4>
  10103c:	000ce197          	auipc	gp,0xce
  101040:	647f                	0x647f
  101042:	ffee                	fsw	fs11,252(sp)
  101044:	002c8833          	add	a6,s9,sp
  101048:	d415                	beqz	s0,100f74 <ker2+0xcf4>
  10104a:	ffe1                	bnez	a5,101022 <ker2+0xda2>
  10104c:	4c6a                	lw	s8,152(sp)
  10104e:	000c                	0xc
  101050:	0013aa23          	sw	ra,20(t2) # 9014 <__stack_init+0x830c>
  101054:	c4ea                	sw	s10,72(sp)
  101056:	0014                	0x14
  101058:	7d11                	lui	s10,0xfffe4
  10105a:	0018                	0x18
  10105c:	ffeaa4eb          	0xffeaa4eb
  101060:	0021d3d7          	vfadd.vf	v7,v2,ft3,v0.t
  101064:	4fa4                	lw	s1,88(a5)
  101066:	9a8ffffb          	0x9a8ffffb
  10106a:	0006                	c.slli	zero,0x1
  10106c:	0008b5cb          	fnmsub.s	fa1,fa7,ft0,ft0,rup
  101070:	000a3267          	0xa3267
  101074:	0236                	slli	tp,tp,0xd
  101076:	fffe                	fsw	ft11,252(sp)
  101078:	82d0                	0x82d0
  10107a:	ffca                	fsw	fs2,252(sp)
  10107c:	1891                	addi	a7,a7,-28
  10107e:	fff8                	fsw	fa4,124(a5)
  101080:	6689                	lui	a3,0x2
  101082:	002d                	c.nop	11
  101084:	fffb91b3          	0xfffb91b3
  101088:	26e4                	fld	fs1,200(a3)
  10108a:	ffda                	fsw	fs6,252(sp)
  10108c:	6cca                	flw	fs9,144(sp)
  10108e:	0015                	c.nop	5
  101090:	0be9                	addi	s7,s7,26
  101092:	b33c0013          	addi	zero,s8,-1229
  101096:	ffe0                	fsw	fs0,124(a5)
  101098:	4c59                	li	s8,22
  10109a:	ffea                	fsw	fs10,252(sp)
  10109c:	6482                	flw	fs1,0(sp)
  10109e:	ffe2                	fsw	fs8,252(sp)
  1010a0:	ffd1f81b          	0xffd1f81b
  1010a4:	22dc                	fld	fa5,128(a3)
  1010a6:	ffe4                	fsw	fs1,124(a5)
  1010a8:	b3da                	fsd	fs6,480(sp)
  1010aa:	7d09fff7          	0x7d09fff7
  1010ae:	ba600023          	sb	t1,-1120(zero) # fffffba0 <__VREG_END+0xffe7fba0>
  1010b2:	f657ffeb          	0xf657ffeb
  1010b6:	0028                	addi	a0,sp,8
  1010b8:	0fa5                	addi	t6,t6,9
  1010ba:	0022                	c.slli	zero,0x8
  1010bc:	1e91                	addi	t4,t4,-28
  1010be:	a3dffff7          	0xa3dffff7
  1010c2:	ff4e0037          	lui	zero,0xff4e0
  1010c6:	ffdc                	fsw	fa5,60(a5)
  1010c8:	1bda                	slli	s7,s7,0x36
  1010ca:	0029                	c.nop	10
  1010cc:	c09d                	beqz	s1,1010f2 <ker2+0xe72>
  1010ce:	0024                	addi	s1,sp,8
  1010d0:	fff08323          	sb	t6,-26(ra) # 6fe6 <__stack_init+0x62de>
  1010d4:	9b06                	add	s6,s6,ra
  1010d6:	ffdc                	fsw	fa5,60(a5)
  1010d8:	e585                	bnez	a1,101100 <ker2+0xe80>
  1010da:	2015ffe3          	bgeu	a1,ra,101af8 <ker2+0x1878>
  1010de:	7fa40047          	fmsub.q	ft0,fs0,fs10,fa5,rne
  1010e2:	fff8                	fsw	fa4,124(a5)
  1010e4:	6005                	c.lui	zero,0x1
  1010e6:	0032                	c.slli	zero,0xc
  1010e8:	3a2d                	jal	100a22 <ker2+0x7a2>
  1010ea:	0032                	c.slli	zero,0xc
  1010ec:	00010a0b          	0x10a0b
  1010f0:	b7cc                	fsd	fa1,168(a5)
  1010f2:	ffed                	bnez	a5,1010ec <ker2+0xe6c>
  1010f4:	aaa5                	j	10126c <ker2+0xfec>
  1010f6:	ffde                	fsw	fs7,252(sp)
  1010f8:	443e                	lw	s0,204(sp)
  1010fa:	ffdc                	fsw	fa5,60(a5)
  1010fc:	001a6ae7          	0x1a6ae7
  101100:	ffc5db47          	fmsub.q	fs6,fa1,ft8,ft11,unknown
  101104:	bcd1                	j	100bd8 <ker2+0x958>
  101106:	ffdc                	fsw	fa5,60(a5)
  101108:	b211                	j	100a0c <ker2+0x78c>
  10110a:	ffe5                	bnez	a5,101102 <ker2+0xe82>
  10110c:	569d                	li	a3,-25
  10110e:	d4b6ffef          	jal	t6,70e58 <__BSS_END__+0x4cb2c>
  101112:	b711fffb          	0xb711fffb
  101116:	fff0                	fsw	fa2,124(a5)
  101118:	6676                	flw	fa2,92(sp)
  10111a:	ffd2                	fsw	fs4,252(sp)
  10111c:	7d19                	lui	s10,0xfffe6
  10111e:	0009                	c.nop	2
  101120:	b4e8                	fsd	fa0,232(s1)
  101122:	000d                	c.nop	3
  101124:	870a                	mv	a4,sp
  101126:	ffec                	fsw	fa1,124(a5)
  101128:	95fe                	add	a1,a1,t6
  10112a:	0026                	c.slli	zero,0x9
  10112c:	b08c                	fsd	fa1,32(s1)
  10112e:	07f9fffb          	0x7f9fffb
  101132:	0026                	c.slli	zero,0x9
  101134:	e1ba                	fsw	fa4,192(sp)
  101136:	000a                	c.slli	zero,0x2
  101138:	fffef743          	fmadd.q	fa4,ft9,ft11,ft11
  10113c:	94f1                	srai	s1,s1,0x3c
  10113e:	0024                	addi	s1,sp,8
  101140:	eb8e                	fsw	ft3,212(sp)
  101142:	ffb6                	fsw	fa3,252(sp)
  101144:	b035                	j	100970 <ker2+0x6f0>
  101146:	ec9b0013          	addi	zero,s6,-311
  10114a:	0025                	c.nop	9
  10114c:	1b2e                	slli	s6,s6,0x2b
  10114e:	1074002b          	0x1074002b
  101152:	001e                	c.slli	zero,0x7
  101154:	31c2                	fld	ft3,48(sp)
  101156:	ffe0                	fsw	fs0,124(a5)
  101158:	8bc8                	0x8bc8
  10115a:	e3c2ffe3          	bgeu	t0,t3,100f98 <ker2+0xd18>
  10115e:	a7f1000f          	0xa7f1000f
  101162:	0f1a000b          	0xf1a000b
  101166:	fff6                	fsw	ft9,252(sp)
  101168:	2e65                	jal	101520 <ker2+0x12a0>
  10116a:	000e                	c.slli	zero,0x3
  10116c:	1e70                	addi	a2,sp,828
  10116e:	000a                	c.slli	zero,0x2
  101170:	003249f3          	0x3249f3
  101174:	7d1f fffc 5b9e      	0x5b9efffc7d1f
  10117a:	fff5                	bnez	a5,101176 <ker2+0xef6>
  10117c:	1808                	addi	a0,sp,48
  10117e:	ffd8                	fsw	fa4,60(a5)
  101180:	f7e8                	fsw	fa0,108(a5)
  101182:	0009                	c.nop	2
  101184:	ffdf8953          	0xffdf8953
  101188:	d4d5                	beqz	s1,101134 <ker2+0xeb4>
  10118a:	0009                	c.nop	2
  10118c:	000ba4eb          	0xba4eb
  101190:	9e4a                	add	t3,t3,s2
  101192:	fffc                	fsw	fa5,124(a5)
  101194:	4186                	lw	gp,64(sp)
  101196:	001e                	c.slli	zero,0x7
  101198:	1781                	addi	a5,a5,-32
  10119a:	f2920007          	0xf2920007
  10119e:	000a                	c.slli	zero,0x2
  1011a0:	fff8e8e3          	bltu	a7,t6,101190 <ker2+0xf10>
  1011a4:	cc19                	beqz	s0,1011c2 <ker2+0xf42>
  1011a6:	001c                	0x1c
  1011a8:	d25e                	sw	s7,36(sp)
  1011aa:	ffdf a39b ffea      	0xffeaa39bffdf
  1011b0:	00227143          	fmadd.s	ft2,ft4,ft2,ft0
  1011b4:	f7f9                	bnez	a5,101182 <ker2+0xf02>
  1011b6:	0025                	c.nop	9
  1011b8:	6542                	flw	fa0,16(sp)
  1011ba:	001f b59f ffe2      	0xffe2b59f001f
  1011c0:	fffd272f          	0xfffd272f
  1011c4:	5bf0                	lw	a2,116(a5)
  1011c6:	fff2                	fsw	ft8,252(sp)
  1011c8:	40d1                	li	ra,20
  1011ca:	5d3c002f          	0x5d3c002f
  1011ce:	ffff                	0xffff
  1011d0:	d304                	sw	s1,32(a4)
  1011d2:	fff1                	bnez	a5,1011ae <ker2+0xf2e>
  1011d4:	ffd8e167          	0xffd8e167
  1011d8:	ffc18b97          	auipc	s7,0xffc18
  1011dc:	003a08c3          	fmadd.s	fa7,fs4,ft3,ft0,rne
  1011e0:	6c56                	flw	fs8,84(sp)
  1011e2:	ffe9                	bnez	a5,1011bc <ker2+0xf3c>
  1011e4:	49f8                	lw	a4,84(a1)
  1011e6:	0009                	c.nop	2
  1011e8:	6aac                	flw	fa1,80(a3)
  1011ea:	ffe9                	bnez	a5,1011c4 <ker2+0xf44>
  1011ec:	6a20                	flw	fs0,80(a2)
  1011ee:	0020                	addi	s0,sp,8
  1011f0:	b04e                	fsd	fs3,32(sp)
  1011f2:	1f61000b          	0x1f61000b
  1011f6:	ffea                	fsw	fs10,252(sp)
  1011f8:	2c00                	fld	fs0,24(s0)
  1011fa:	ffd6                	fsw	fs5,252(sp)
  1011fc:	c375                	beqz	a4,1012e0 <ker2+0x1060>
  1011fe:	fff2                	fsw	ft8,252(sp)
  101200:	5ca6                	lw	s9,104(sp)
  101202:	8d2affef          	jal	t6,b02d4 <__BSS_END__+0x8bfa8>
  101206:	ffdc                	fsw	fa5,60(a5)
  101208:	16b2                	slli	a3,a3,0x2c
  10120a:	ffe2                	fsw	fs8,252(sp)
  10120c:	37ec                	fld	fa1,232(a5)
  10120e:	fff6                	fsw	ft9,252(sp)
  101210:	e5d4                	fsw	fa3,12(a1)
  101212:	0004                	0x4
  101214:	71bc                	flw	fa5,96(a1)
  101216:	fcfe0023          	sb	a5,-64(t3)
  10121a:	ffed                	bnez	a5,101214 <ker2+0xf94>
  10121c:	000592a3          	sh	zero,5(a1)
  101220:	6ccc                	flw	fa1,28(s1)
  101222:	5ce7fffb          	0x5ce7fffb
  101226:	0034                	addi	a3,sp,8
  101228:	b098                	fsd	fa4,32(s1)
  10122a:	98770003          	lb	zero,-1657(a4)
  10122e:	0005                	c.nop	1
  101230:	4e4c                	lw	a1,28(a2)
  101232:	0021                	c.nop	8
  101234:	000f40f3          	0xf40f3
  101238:	b212                	fsd	ft4,288(sp)
  10123a:	0002                	c.slli64	zero
  10123c:	0018b3c3          	fmadd.s	ft7,fa7,ft1,ft0,rup
  101240:	9d0e                	add	s10,s10,gp
  101242:	a4fe000f          	0xa4fe000f
  101246:	fff0                	fsw	fa2,124(a5)
  101248:	002b7863          	bgeu	s6,sp,101258 <ker2+0xfd8>
  10124c:	f729                	bnez	a4,101196 <ker2+0xf16>
  10124e:	b01f0013          	addi	zero,t5,-1279
  101252:	ffde                	fsw	fs7,252(sp)
  101254:	af3d                	j	101992 <ker2+0x1712>
  101256:	f376fff3          	csrrci	t6,0xf37,13
  10125a:	ffe1                	bnez	a5,101232 <ker2+0xfb2>
  10125c:	3448                	fld	fa0,168(s0)
  10125e:	49510037          	lui	zero,0x49510
  101262:	ffdd                	bnez	a5,101220 <ker2+0xfa0>
  101264:	ffe82c23          	sw	t5,-8(a6)
  101268:	aa74                	fsd	fa3,208(a2)
  10126a:	bf71001b          	0xbf71001b
  10126e:	9a0b0023          	sb	zero,-1632(s6)
  101272:	0015                	c.nop	5
  101274:	9d86                	add	s11,s11,ra
  101276:	1632fff7          	0x1632fff7
  10127a:	fff6                	fsw	ft9,252(sp)
  10127c:	5c6a                	lw	s8,184(sp)
  10127e:	76bdffc7          	fmsub.q	ft11,fs11,fa1,fa4
  101282:	fffd                	bnez	a5,101280 <ker2+0x1000>
  101284:	ffcf6483          	0xffcf6483
  101288:	000b556b          	0xb556b
  10128c:	a424                	fsd	fs1,72(s0)
  10128e:	001d                	c.nop	7
  101290:	5bb4                	lw	a3,112(a5)
  101292:	0012                	c.slli	zero,0x4
  101294:	4ca6                	lw	s9,72(sp)
  101296:	002a                	c.slli	zero,0xa
  101298:	100c                	addi	a1,sp,32
  10129a:	3f180023          	sb	a7,992(a6)
  10129e:	ffca                	fsw	fs2,252(sp)
  1012a0:	2ec0                	fld	fs0,152(a3)
  1012a2:	0020                	addi	s0,sp,8
  1012a4:	ee3a                	fsw	fa4,28(sp)
  1012a6:	001a                	c.slli	zero,0x6
  1012a8:	ffdd2c07          	flw	fs8,-3(s10) # fffe5ffd <__VREG_END+0xffe65ffd>
  1012ac:	37b9                	jal	1011fa <ker2+0xf7a>
  1012ae:	fff0                	fsw	fa2,124(a5)
  1012b0:	404d                	c.li	zero,19
  1012b2:	80870017          	auipc	zero,0x80870
  1012b6:	ffce                	fsw	fs3,252(sp)
  1012b8:	9326                	add	t1,t1,s1
  1012ba:	ffce                	fsw	fs3,252(sp)
  1012bc:	2f18                	fld	fa4,24(a4)
  1012be:	ab130007          	vlsseg6e8.v	v0,(t1),a7
  1012c2:	ffff                	0xffff
  1012c4:	efa0                	fsw	fs0,88(a5)
  1012c6:	0015                	c.nop	5
  1012c8:	ffdcd797          	auipc	a5,0xffdcd
  1012cc:	ffe1181b          	0xffe1181b
  1012d0:	ffd9dd3b          	0xffd9dd3b
  1012d4:	a07e                	fsd	ft11,0(sp)
  1012d6:	0012                	c.slli	zero,0x4
  1012d8:	d4dd                	beqz	s1,101286 <ker2+0x1006>
  1012da:	c47e0027          	vsuxseg7ei8.v	v0,(t3),v7,v0.t
  1012de:	0010                	0x10
  1012e0:	fffea26b          	0xfffea26b
  1012e4:	6ae2                	flw	fs5,24(sp)
  1012e6:	fffe                	fsw	ft11,252(sp)
  1012e8:	8f35                	xor	a4,a4,a3
  1012ea:	ffe5                	bnez	a5,1012e2 <ker2+0x1062>
  1012ec:	92c6                	add	t0,t0,a7
  1012ee:	0048                	addi	a0,sp,4
  1012f0:	d7b0                	sw	a2,104(a5)
  1012f2:	001d                	c.nop	7
  1012f4:	dfbd                	beqz	a5,101272 <ker2+0xff2>
  1012f6:	2e890007          	vloxseg2ei8.v	v0,(s2),v8
  1012fa:	50a3ff97          	auipc	t6,0x50a3f
  1012fe:	fff1                	bnez	a5,1012da <ker2+0x105a>
  101300:	5d81                	li	s11,-32
  101302:	ffed                	bnez	a5,1012fc <ker2+0x107c>
  101304:	0018026f          	jal	tp,181b04 <__VREG_END+0x1b04>
  101308:	adf6                	fsd	ft9,216(sp)
  10130a:	ffe9                	bnez	a5,1012e4 <ker2+0x1064>
  10130c:	b56e                	fsd	fs11,168(sp)
  10130e:	0020                	addi	s0,sp,8
  101310:	a8dd                	j	101406 <ker2+0x1186>
  101312:	fff0                	fsw	fa2,124(a5)
  101314:	344d                	jal	100db6 <ker2+0xb36>
  101316:	ffe8                	fsw	fa0,124(a5)
  101318:	ffd37893          	andi	a7,t1,-3
  10131c:	c9ac                	sw	a1,80(a1)
  10131e:	0022                	c.slli	zero,0x8
  101320:	000d25cb          	fnmsub.s	fa1,fs10,ft0,ft0,rdn
  101324:	0024d067          	0x24d067
  101328:	e5f9                	bnez	a1,1013f6 <ker2+0x1176>
  10132a:	0008                	0x8
  10132c:	5049                	c.li	zero,-14
  10132e:	0008                	0x8
  101330:	ad30                	fsd	fa2,88(a0)
  101332:	000a                	c.slli	zero,0x2
  101334:	beae                	fsd	fa1,376(sp)
  101336:	06e7ffdb          	0x6e7ffdb
  10133a:	0002                	c.slli64	zero
  10133c:	c648                	sw	a0,12(a2)
  10133e:	000c                	0xc
  101340:	fffaeea7          	0xfffaeea7
  101344:	9a4a                	add	s4,s4,s2
  101346:	04acfffb          	0x4acfffb
  10134a:	fff1                	bnez	a5,101326 <ker2+0x10a6>
  10134c:	003393d3          	fadd.s	ft7,ft7,ft3,rtz
  101350:	00136c73          	csrrsi	s8,fflags,6
  101354:	40d6                	lw	ra,84(sp)
  101356:	b4efffeb          	0xb4efffeb
  10135a:	ffff                	0xffff
  10135c:	8a7f                	0x8a7f
  10135e:	ffc6                	fsw	fa7,252(sp)
  101360:	0812                	slli	a6,a6,0x4
  101362:	fff2                	fsw	ft8,252(sp)
  101364:	ffe375cf          	fnmadd.q	fa1,ft6,ft10,ft11
  101368:	615a                	flw	ft2,148(sp)
  10136a:	0012                	c.slli	zero,0x4
  10136c:	715f 0026 406f      	0x406f0026715f
  101372:	aca9fff7          	0xaca9fff7
  101376:	ffce                	fsw	fs3,252(sp)
  101378:	9bea                	add	s7,s7,s10
  10137a:	002d                	c.nop	11
  10137c:	003fbbb7          	lui	s7,0x3fb
  101380:	fff2bf87          	fld	ft11,-1(t0) # fffedfff <__VREG_END+0xffe6dfff>
  101384:	0eb8                	addi	a4,sp,856
  101386:	0008                	0x8
  101388:	ffe3d17b          	0xffe3d17b
  10138c:	0026ff7b          	0x26ff7b
  101390:	0475                	addi	s0,s0,29
  101392:	0012                	c.slli	zero,0x4
  101394:	fff1d723          	0xfff1d723
  101398:	de32                	sw	a2,60(sp)
  10139a:	fff6                	fsw	ft9,252(sp)
  10139c:	0711                	addi	a4,a4,4
  10139e:	83fcfffb          	0x83fcfffb
  1013a2:	ffde                	fsw	fs7,252(sp)
  1013a4:	84ff                	0x84ff
  1013a6:	a5a60023          	sb	s10,-1472(a2)
  1013aa:	fffc                	fsw	fa5,124(a5)
  1013ac:	002befc7          	fmsub.s	ft11,fs7,ft2,ft0,unknown
  1013b0:	1fd9                	addi	t6,t6,-10
  1013b2:	0024                	addi	s1,sp,8
  1013b4:	b7e0                	fsd	fs0,232(a5)
  1013b6:	ba600013          	li	zero,-1114
  1013ba:	0001                	nop
  1013bc:	d2f2                	sw	t3,100(sp)
  1013be:	fff5                	bnez	a5,1013ba <ker2+0x113a>
  1013c0:	e3bd                	bnez	a5,101426 <ker2+0x11a6>
  1013c2:	5634ffe3          	bgeu	s1,gp,102140 <ker2+0x1ec0>
  1013c6:	0011                	c.nop	4
  1013c8:	dd5d                	beqz	a0,101386 <ker2+0x1106>
  1013ca:	001c                	0x1c
  1013cc:	49a1                	li	s3,8
  1013ce:	0030                	addi	a2,sp,8
  1013d0:	869d                	srai	a3,a3,0x7
  1013d2:	0021                	c.nop	8
  1013d4:	0b85                	addi	s7,s7,1
  1013d6:	fff9                	bnez	a5,1013b4 <ker2+0x1134>
  1013d8:	ffedef0f          	0xffedef0f
  1013dc:	3b5c                	fld	fa5,176(a4)
  1013de:	ccfaffbf 1f3cfffc 	0x1f3cfffcccfaffbf
  1013e6:	fff6                	fsw	ft9,252(sp)
  1013e8:	ffe43d6b          	0xffe43d6b
  1013ec:	9731                	srai	a4,a4,0x2c
  1013ee:	0024                	addi	s1,sp,8
  1013f0:	8d64                	0x8d64
  1013f2:	fff8                	fsw	fa4,124(a5)
  1013f4:	0e3a                	slli	t3,t3,0xe
  1013f6:	06c9fff3          	csrrci	t6,0x6c,19
  1013fa:	0029                	c.nop	10
  1013fc:	7792                	flw	fa5,36(sp)
  1013fe:	0025                	c.nop	9
  101400:	4db9                	li	s11,14
  101402:	0005                	c.nop	1
  101404:	2d6d                	jal	101abe <ker2+0x183e>
  101406:	fff8                	fsw	fa4,124(a5)
  101408:	001754f7          	0x1754f7
  10140c:	f562                	fsw	fs8,168(sp)
  10140e:	ffea                	fsw	fs10,252(sp)
  101410:	e89f 0007 7923      	0x79230007e89f
  101416:	002a                	c.slli	zero,0xa
  101418:	8c99                	sub	s1,s1,a4
  10141a:	fff5                	bnez	a5,101416 <ker2+0x1196>
  10141c:	14d6                	slli	s1,s1,0x35
  10141e:	0020                	addi	s0,sp,8
  101420:	a438                	fsd	fa4,72(s0)
  101422:	ffbd                	bnez	a5,1013a0 <ker2+0x1120>
  101424:	b154                	fsd	fa3,160(a0)
  101426:	0005                	c.nop	1
  101428:	978d                	srai	a5,a5,0x23
  10142a:	8847002f          	0x8847002f
  10142e:	0022                	c.slli	zero,0x8
  101430:	002b8943          	fmadd.s	fs2,fs7,ft2,ft0,rne
  101434:	a49a                	fsd	ft6,72(sp)
  101436:	fffe                	fsw	ft11,252(sp)
  101438:	1f02                	slli	t5,t5,0x20
  10143a:	0018                	0x18
  10143c:	45b2                	lw	a1,12(sp)
  10143e:	0024                	addi	s1,sp,8
  101440:	cbd0                	sw	a2,20(a5)
  101442:	0012                	c.slli	zero,0x4
  101444:	ffe09e27          	fsh	ft10,-4(ra)
  101448:	ffec3f3f 00061032 	0x61032ffec3f3f
  101450:	00097567          	0x97567
  101454:	a27c                	fsd	fa5,192(a2)
  101456:	000a                	c.slli	zero,0x2
  101458:	ffc6ffcf          	fnmadd.q	ft11,fa3,ft8,ft11
  10145c:	90d6                	add	ra,ra,s5
  10145e:	ffed                	bnez	a5,101458 <ker2+0x11d8>
  101460:	3aad                	jal	100dda <ker2+0xb5a>
  101462:	0016                	c.slli	zero,0x5
  101464:	ffc9a7d7          	vwmaccsu.vv	v15,v19,v28
  101468:	4971                	li	s2,28
  10146a:	fff9                	bnez	a5,101448 <ker2+0x11c8>
  10146c:	be55                	j	101020 <ker2+0xda0>
  10146e:	9bea000b          	0x9bea000b
  101472:	ffec                	fsw	fa1,124(a5)
  101474:	e4bc                	fsw	fa5,72(s1)
  101476:	fffe                	fsw	ft11,252(sp)
  101478:	fff28277          	0xfff28277
  10147c:	c6e4                	sw	s1,76(a3)
  10147e:	4c79ffe3          	bgeu	s3,t2,10215c <ker2+0x1edc>
  101482:	0009                	c.nop	2
  101484:	6cc1                	lui	s9,0x10
  101486:	413cffeb          	0x413cffeb
  10148a:	1769ffef          	jal	t6,1a0600 <__VREG_END+0x20600>
  10148e:	fcc9000b          	0xfcc9000b
  101492:	5964002f          	0x5964002f
  101496:	0004                	0x4
  101498:	ffbffd63          	bgeu	t6,s11,100c92 <ker2+0xa12>
  10149c:	0033d4a3          	0x33d4a3
  1014a0:	e7f5                	bnez	a5,10158c <ker2+0x130c>
  1014a2:	000a                	c.slli	zero,0x2
  1014a4:	002a41bb          	0x2a41bb
  1014a8:	0008fb83          	0x8fb83
  1014ac:	354a                	fld	fa0,176(sp)
  1014ae:	001e                	c.slli	zero,0x7
  1014b0:	00029317          	auipc	t1,0x29
  1014b4:	9710                	0x9710
  1014b6:	001c                	0x1c
  1014b8:	556d                	li	a0,-5
  1014ba:	0018                	0x18
  1014bc:	0015f8f3          	csrrci	a7,fflags,11
  1014c0:	9294                	0x9294
  1014c2:	6e39ffd3          	0x6e39ffd3
  1014c6:	fff4                	fsw	fa3,124(a5)
  1014c8:	002f3173          	csrrc	sp,frm,t5
  1014cc:	ad5c                	fsd	fa5,152(a0)
  1014ce:	fff1                	bnez	a5,1014aa <ker2+0x122a>
  1014d0:	e9c5                	bnez	a1,101580 <ker2+0x1300>
  1014d2:	f8420003          	lb	zero,-124(tp) # fffe9f84 <__VREG_END+0xffe69f84>
  1014d6:	fff1                	bnez	a5,1014b2 <ker2+0x1232>
  1014d8:	00025f4b          	fnmsub.s	ft10,ft4,ft0,ft0,unknown
  1014dc:	9cff                	0x9cff
  1014de:	ffe2                	fsw	fs8,252(sp)
  1014e0:	641c                	flw	fa5,8(s0)
  1014e2:	ffe6                	fsw	fs9,252(sp)
  1014e4:	9126                	add	sp,sp,s1
  1014e6:	fff1                	bnez	a5,1014c2 <ker2+0x1242>
  1014e8:	ffe8a967          	0xffe8a967
  1014ec:	0268                	addi	a0,sp,268
  1014ee:	0034                	addi	a3,sp,8
  1014f0:	8894                	0x8894
  1014f2:	ffee                	fsw	fs11,252(sp)
  1014f4:	b4cc                	fsd	fa1,168(s1)
  1014f6:	ffce                	fsw	fs3,252(sp)
  1014f8:	0020f9c3          	fmadd.s	fs3,ft1,ft2,ft0
  1014fc:	de94                	sw	a3,56(a3)
  1014fe:	ff8f0017          	auipc	zero,0xff8f0
  101502:	ffe5                	bnez	a5,1014fa <ker2+0x127a>
  101504:	3eff                	0x3eff
  101506:	0024                	addi	s1,sp,8
  101508:	ffe7aeb7          	lui	t4,0xffe7a
  10150c:	0025b50b          	0x25b50b
  101510:	be18                	fsd	fa4,56(a2)
  101512:	ffff                	0xffff
  101514:	c1ea                	sw	s10,192(sp)
  101516:	ffc4                	fsw	fs1,60(a5)
  101518:	8cd4                	0x8cd4
  10151a:	6618ffdb          	0x6618ffdb
  10151e:	0014                	0x14
  101520:	ffdc82e3          	beq	s9,t4,101504 <ker2+0x1284>
  101524:	ea00                	fsw	fs0,16(a2)
  101526:	59610033          	0x59610033
  10152a:	0012                	c.slli	zero,0x4
  10152c:	0a54                	addi	a3,sp,276
  10152e:	0021                	c.nop	8
  101530:	ffec02a3          	sb	t5,-27(s8)
  101534:	8f70                	0x8f70
  101536:	fff6                	fsw	ft9,252(sp)
  101538:	8591                	srai	a1,a1,0x4
  10153a:	0006                	c.slli	zero,0x1
  10153c:	95dc                	0x95dc
  10153e:	0fc10007          	vloxei8.v	v0,(sp),v28
  101542:	ffe5                	bnez	a5,10153a <ker2+0x12ba>
  101544:	0ae1                	addi	s5,s5,24
  101546:	ffd9                	bnez	a5,1014e4 <ker2+0x1264>
  101548:	fff4c5c3          	fmadd.q	fa1,fs1,ft11,ft11,rmm
  10154c:	be72                	fsd	ft8,312(sp)
  10154e:	39cd003b          	0x39cd003b
  101552:	0026                	c.slli	zero,0x9
  101554:	be89                	j	1010a6 <ker2+0xe26>
  101556:	fffc                	fsw	fa5,124(a5)
  101558:	0018ddd3          	fadd.s	fs11,fa7,ft1,unknown
  10155c:	765a                	flw	fa2,180(sp)
  10155e:	fff9                	bnez	a5,10153c <ker2+0x12bc>
  101560:	5695                	li	a3,-27
  101562:	0000                	unimp
  101564:	6e89                	lui	t4,0x2
  101566:	0011                	c.nop	4
  101568:	1661                	addi	a2,a2,-8
  10156a:	0019                	c.nop	6
  10156c:	c4c1                	beqz	s1,1015f4 <ker2+0x1374>
  10156e:	fff5                	bnez	a5,10156a <ker2+0x12ea>
  101570:	ffd898c3          	fmadd.q	fa7,fa7,ft9,ft11,rtz
  101574:	cb40                	sw	s0,20(a4)
  101576:	ffbc                	fsw	fa5,120(a5)
  101578:	ac38                	fsd	fa4,88(s0)
  10157a:	56e9005b          	0x56e9005b
  10157e:	0049                	c.nop	18
  101580:	ff7e                	fsw	ft11,188(sp)
  101582:	4788ffd3          	0x4788ffd3
  101586:	0002                	c.slli64	zero
  101588:	f7f5                	bnez	a5,101574 <ker2+0x12f4>
  10158a:	000a                	c.slli	zero,0x2
  10158c:	566d                	li	a2,-5
  10158e:	ffe5                	bnez	a5,101586 <ker2+0x1306>
  101590:	7d40                	flw	fs0,60(a0)
  101592:	fff8                	fsw	fa4,124(a5)
  101594:	003e0b6b          	0x3e0b6b
  101598:	b8e2                	fsd	fs8,112(sp)
  10159a:	4e180023          	sb	ra,1248(a6)
  10159e:	0008                	0x8
  1015a0:	ffdab8bf ffd1fff1 	0xffd1fff1ffdab8bf
  1015a8:	db6c                	sw	a1,116(a4)
  1015aa:	0010                	0x10
  1015ac:	ffea1003          	lh	zero,-2(s4)
  1015b0:	b501                	j	1013b0 <ker2+0x1130>
  1015b2:	ffd5                	bnez	a5,10156e <ker2+0x12ee>
  1015b4:	9598                	0x9598
  1015b6:	5bd20007          	0x5bd20007
  1015ba:	a0650013          	addi	zero,a0,-1530 # 27fa06 <__VREG_END+0xffa06>
  1015be:	ffff                	0xffff
  1015c0:	078d                	addi	a5,a5,3
  1015c2:	ffe9                	bnez	a5,10159c <ker2+0x131c>
  1015c4:	00186d63          	bltu	a6,ra,1015de <ker2+0x135e>
  1015c8:	f541                	bnez	a0,101550 <ker2+0x12d0>
  1015ca:	ffe6                	fsw	fs9,252(sp)
  1015cc:	f669                	bnez	a2,101596 <ker2+0x1316>
  1015ce:	e0e9ffef          	jal	t6,a0bdc <__BSS_END__+0x7c8b0>
  1015d2:	ffff                	0xffff
  1015d4:	00092a73          	csrrs	s4,ustatus,s2
  1015d8:	3d8a                	fld	fs11,160(sp)
  1015da:	0020                	addi	s0,sp,8
  1015dc:	16a9                	addi	a3,a3,-22
  1015de:	ffdc                	fsw	fa5,60(a5)
  1015e0:	6d51                	lui	s10,0x14
  1015e2:	0032                	c.slli	zero,0xc
  1015e4:	8500                	0x8500
  1015e6:	06bbfff7          	0x6bbfff7
  1015ea:	fff2                	fsw	ft8,252(sp)
  1015ec:	9d40                	0x9d40
  1015ee:	0000                	unimp
  1015f0:	8982                	jr	s3
  1015f2:	bc9dffef          	jal	t6,e11ba <__BSS_END__+0xbce8e>
  1015f6:	001e                	c.slli	zero,0x7
  1015f8:	000dce37          	lui	t3,0xdc
  1015fc:	1f74                	addi	a3,sp,956
  1015fe:	fffe                	fsw	ft11,252(sp)
  101600:	7112                	flw	ft2,36(sp)
  101602:	0019                	c.nop	6
  101604:	89f4                	0x89f4
  101606:	cd7b004b          	fnmsub.h	ft0,fs6,fs7,fs9,rne
  10160a:	ffb5                	bnez	a5,101586 <ker2+0x1306>
  10160c:	101f 0009 59a9      	0x59a90009101f
  101612:	fff5                	bnez	a5,10160e <ker2+0x138e>
  101614:	c01e                	sw	t2,0(sp)
  101616:	ffe6                	fsw	fs9,252(sp)
  101618:	d285                	beqz	a3,101538 <ker2+0x12b8>
  10161a:	ffe4                	fsw	fs1,124(a5)
  10161c:	272a                	fld	fa4,136(sp)
  10161e:	fff2                	fsw	ft8,252(sp)
  101620:	309a                	fld	ft1,416(sp)
  101622:	fffc                	fsw	fa5,124(a5)
  101624:	02ca                	slli	t0,t0,0x12
  101626:	0015                	c.nop	5
  101628:	0348                	addi	a0,sp,388
  10162a:	fff0                	fsw	fa2,124(a5)
  10162c:	57f9                	li	a5,-2
  10162e:	eb9d0007          	vlsseg8e8.v	v0,(s10),s9
  101632:	ffe0                	fsw	fs0,124(a5)
  101634:	ab30                	fsd	fa2,80(a4)
  101636:	0010                	0x10
  101638:	6c98                	flw	fa4,24(s1)
  10163a:	001d                	c.nop	7
  10163c:	77fa                	flw	fa5,188(sp)
  10163e:	0009                	c.nop	2
  101640:	2285                	jal	1017a0 <ker2+0x1520>
  101642:	0008                	0x8
  101644:	f52e                	fsw	fa1,168(sp)
  101646:	2a81ffef          	jal	t6,1208ee <__VMEM_END+0x109ae>
  10164a:	002a                	c.slli	zero,0xa
  10164c:	ffed6713          	ori	a4,s10,-2
  101650:	ffecc39b          	0xffecc39b
  101654:	ccf2                	sw	t3,88(sp)
  101656:	0016                	c.slli	zero,0x5
  101658:	0001e5a3          	0x1e5a3
  10165c:	fd11                	bnez	a0,101578 <ker2+0x12f8>
  10165e:	005a                	c.slli	zero,0x16
  101660:	eeea                	fsw	fs10,92(sp)
  101662:	0006                	c.slli	zero,0x1
  101664:	738d                	lui	t2,0xfffe3
  101666:	3ce7000b          	0x3ce7000b
  10166a:	fffe                	fsw	ft11,252(sp)
  10166c:	ffcb14b3          	0xffcb14b3
  101670:	4d45                	li	s10,17
  101672:	ffe1                	bnez	a5,10164a <ker2+0x13ca>
  101674:	c68e                	sw	gp,76(sp)
  101676:	ffd2                	fsw	fs4,252(sp)
  101678:	c541                	beqz	a0,101700 <ker2+0x1480>
  10167a:	8610ffd7          	0x8610ffd7
  10167e:	ffe2                	fsw	fs8,252(sp)
  101680:	ffe31673          	csrrw	a2,0xffe,t1
  101684:	fff6d3af          	0xfff6d3af
  101688:	ffd5f6b3          	0xffd5f6b3
  10168c:	d762                	sw	s8,172(sp)
  10168e:	ffe1                	bnez	a5,101666 <ker2+0x13e6>
  101690:	ffdf5643          	fmadd.q	fa2,ft10,ft9,ft11,unknown
  101694:	918c                	0x918c
  101696:	000a                	c.slli	zero,0x2
  101698:	cf8c                	sw	a1,24(a5)
  10169a:	060f0003          	lb	zero,96(t5)
  10169e:	0024                	addi	s1,sp,8
  1016a0:	d4dc                	sw	a5,44(s1)
  1016a2:	0054                	addi	a3,sp,4
  1016a4:	f590                	fsw	fa2,40(a1)
  1016a6:	ffa4                	fsw	fs1,120(a5)
  1016a8:	fff7c9ef          	jal	s3,7e6a6 <__BSS_END__+0x5a37a>
  1016ac:	5a22                	lw	s4,40(sp)
  1016ae:	fff9                	bnez	a5,10168c <ker2+0x140c>
  1016b0:	174a                	slli	a4,a4,0x32
  1016b2:	ffed                	bnez	a5,1016ac <ker2+0x142c>
  1016b4:	1cd5                	addi	s9,s9,-11
  1016b6:	0045                	c.nop	17
  1016b8:	0e60                	addi	s0,sp,796
  1016ba:	0012                	c.slli	zero,0x4
  1016bc:	e47e                	fsw	ft11,8(sp)
  1016be:	fff6                	fsw	ft9,252(sp)
  1016c0:	fff6ce6f          	jal	t3,6e6be <__BSS_END__+0x4a392>
  1016c4:	8429                	srai	s0,s0,0xa
  1016c6:	0012                	c.slli	zero,0x4
  1016c8:	3eac                	fld	fa1,120(a3)
  1016ca:	0038                	addi	a4,sp,8
  1016cc:	7148                	flw	fa0,36(a0)
  1016ce:	0022                	c.slli	zero,0x8
  1016d0:	ef64                	fsw	fs1,92(a4)
  1016d2:	0d53ffef          	jal	t6,140fa6 <__VMEM_END+0x31066>
  1016d6:	0006                	c.slli	zero,0x1
  1016d8:	889c                	0x889c
  1016da:	002e                	c.slli	zero,0xb
  1016dc:	301c                	fld	fa5,32(s0)
  1016de:	0035                	c.nop	13
  1016e0:	ff8d                	bnez	a5,10161a <ker2+0x139a>
  1016e2:	0005                	c.nop	1
  1016e4:	ab6a                	fsd	fs10,400(sp)
  1016e6:	0000                	unimp
  1016e8:	9d0d                	0x9d0d
  1016ea:	e2fe002b          	0xe2fe002b
  1016ee:	803dfffb          	0x803dfffb
  1016f2:	0009                	c.nop	2
  1016f4:	4dfe                	lw	s11,220(sp)
  1016f6:	ffee                	fsw	fs11,252(sp)
  1016f8:	ffeb0723          	sb	t5,-18(s6)
  1016fc:	bf59                	j	101692 <ker2+0x1412>
  1016fe:	ffdc                	fsw	fa5,60(a5)
  101700:	fff167e7          	0xfff167e7
  101704:	ffda711b          	0xffda711b
  101708:	fffb028f          	0xfffb028f
  10170c:	0010066b          	0x10066b
  101710:	0032b44b          	fnmsub.s	fs0,ft5,ft3,ft0,rup
  101714:	001e1333          	sll	t1,t3,ra
  101718:	dd39                	beqz	a0,101676 <ker2+0x13f6>
  10171a:	ffd0                	fsw	fa2,60(a5)
  10171c:	c631                	beqz	a2,101768 <ker2+0x14e8>
  10171e:	0015                	c.nop	5
  101720:	4c61                	li	s8,24
  101722:	fff1                	bnez	a5,1016fe <ker2+0x147e>
  101724:	33b9                	jal	101472 <ker2+0x11f2>
  101726:	0032                	c.slli	zero,0xc
  101728:	6f89                	lui	t6,0x2
  10172a:	0005                	c.nop	1
  10172c:	318a                	fld	ft3,160(sp)
  10172e:	0020                	addi	s0,sp,8
  101730:	9af8                	0x9af8
  101732:	ed13003b          	0xed13003b
  101736:	050cffef          	jal	t6,1d0786 <__VREG_END+0x50786>
  10173a:	000d                	c.nop	3
  10173c:	390c                	fld	fa1,48(a0)
  10173e:	b073001b          	0xb073001b
  101742:	001c                	0x1c
  101744:	4b66                	lw	s6,88(sp)
  101746:	000a                	c.slli	zero,0x2
  101748:	0009740f          	0x9740f
  10174c:	3df4                	fld	fa3,248(a1)
  10174e:	000a                	c.slli	zero,0x2
  101750:	86cd                	srai	a3,a3,0x13
  101752:	fff8                	fsw	fa4,124(a5)
  101754:	5381                	li	t2,-32
  101756:	ffd9                	bnez	a5,1016f4 <ker2+0x1474>
  101758:	8858                	0x8858
  10175a:	0be8ffc7          	fmsub.d	ft11,fa7,ft10,ft1
  10175e:	0015                	c.nop	5
  101760:	000b423f ffee0611 	0xffee0611000b423f
  101768:	ffe4a7cb          	fnmsub.q	fa5,fs1,ft10,ft11,rdn
  10176c:	cb12                	sw	tp,148(sp)
  10176e:	003d                	c.nop	15
  101770:	b9f5                	j	10146c <ker2+0x11ec>
  101772:	ffe6                	fsw	fs9,252(sp)
  101774:	ffd1483b          	0xffd1483b
  101778:	19fe                	slli	s3,s3,0x3f
  10177a:	0006                	c.slli	zero,0x1
  10177c:	042c                	addi	a1,sp,520
  10177e:	ef3efff3          	csrrci	t6,0xef3,29
  101782:	0002                	c.slli64	zero
  101784:	eb4a                	fsw	fs2,148(sp)
  101786:	0030                	addi	a2,sp,8
  101788:	24a9                	jal	1019d2 <ker2+0x1752>
  10178a:	0008                	0x8
  10178c:	3749                	jal	10170e <ker2+0x148e>
  10178e:	000a                	c.slli	zero,0x2
  101790:	0abe                	slli	s5,s5,0xf
  101792:	001d                	c.nop	7
  101794:	dbf2                	sw	t3,244(sp)
  101796:	0008                	0x8
  101798:	a098                	fsd	fa4,0(s1)
  10179a:	fff0                	fsw	fa2,124(a5)
  10179c:	f321                	bnez	a4,1016dc <ker2+0x145c>
  10179e:	20fdfff3          	csrrci	t6,0x20f,27
  1017a2:	ffcd                	bnez	a5,10175c <ker2+0x14dc>
  1017a4:	ec15                	bnez	s0,1017e0 <ker2+0x1560>
  1017a6:	000d                	c.nop	3
  1017a8:	972d                	srai	a4,a4,0x2b
  1017aa:	5cc40007          	0x5cc40007
  1017ae:	0021                	c.nop	8
  1017b0:	0025ae97          	auipc	t4,0x25a
  1017b4:	4f20                	lw	s0,88(a4)
  1017b6:	001a                	c.slli	zero,0x6
  1017b8:	002fd56b          	0x2fd56b
  1017bc:	4f99                	li	t6,6
  1017be:	fff0                	fsw	fa2,124(a5)
  1017c0:	432d                	li	t1,11
  1017c2:	0000                	unimp
  1017c4:	d648                	sw	a0,44(a2)
  1017c6:	ffdc                	fsw	fa5,60(a5)
  1017c8:	570d                	li	a4,-29
  1017ca:	0039                	c.nop	14
  1017cc:	000c7e47          	fmsub.s	ft8,fs8,ft0,ft0
  1017d0:	c8d8                	sw	a4,20(s1)
  1017d2:	0000                	unimp
  1017d4:	8b0d                	andi	a4,a4,3
  1017d6:	ffe2                	fsw	fs8,252(sp)
  1017d8:	7599                	lui	a1,0xfffe6
  1017da:	ffc6                	fsw	fa7,252(sp)
  1017dc:	0008b26f          	jal	tp,18c7dc <__VREG_END+0xc7dc>
  1017e0:	6755                	lui	a4,0x15
  1017e2:	0022                	c.slli	zero,0x8
  1017e4:	ffe435b7          	lui	a1,0xffe43
  1017e8:	fffda223          	sw	t6,-28(s11) # ffffafe4 <__VREG_END+0xffe7afe4>
  1017ec:	5eb8                	lw	a4,120(a3)
  1017ee:	0030                	addi	a2,sp,8
  1017f0:	ffede0af          	0xffede0af
  1017f4:	d281                	beqz	a3,1016f4 <ker2+0x1474>
  1017f6:	ffc5                	bnez	a5,1017ae <ker2+0x152e>
  1017f8:	4ecd                	li	t4,19
  1017fa:	ffd9                	bnez	a5,101798 <ker2+0x1518>
  1017fc:	fffc300f          	0xfffc300f
  101800:	ffd682b7          	lui	t0,0xffd68
  101804:	37f5                	jal	1017f0 <ker2+0x1570>
  101806:	0021                	c.nop	8
  101808:	e43e                	fsw	fa5,8(sp)
  10180a:	0026                	c.slli	zero,0x9
  10180c:	b8cc                	fsd	fa1,176(s1)
  10180e:	d505ffef          	jal	t6,60d5e <__BSS_END__+0x3ca32>
  101812:	001c                	0x1c
  101814:	88ee                	mv	a7,s11
  101816:	0006                	c.slli	zero,0x1
  101818:	0a54                	addi	a3,sp,276
  10181a:	0018                	0x18
  10181c:	b224                	fsd	fs1,96(a2)
  10181e:	0014                	0x14
  101820:	88b5                	andi	s1,s1,13
  101822:	ffc6                	fsw	fa7,252(sp)
  101824:	fffb082f          	0xfffb082f
  101828:	9c88                	0x9c88
  10182a:	001e                	c.slli	zero,0x7
  10182c:	000230e7          	0x230e7
  101830:	ffeee9e7          	0xffeee9e7
  101834:	6b91                	lui	s7,0x4
  101836:	0004                	0x4
  101838:	176a                	slli	a4,a4,0x3a
  10183a:	0028                	addi	a0,sp,8
  10183c:	3416                	fld	fs0,352(sp)
  10183e:	001e                	c.slli	zero,0x7
  101840:	ffdeb7eb          	0xffdeb7eb
  101844:	6662                	flw	fa2,24(sp)
  101846:	ffff                	0xffff
  101848:	bf50                	fsd	fa2,184(a4)
  10184a:	dc20ffeb          	0xdc20ffeb
  10184e:	0010                	0x10
  101850:	da8a                	sw	sp,116(sp)
  101852:	001c                	0x1c
  101854:	0c28                	addi	a0,sp,536
  101856:	aa9dfffb          	0xaa9dfffb
  10185a:	1b73fff7          	0x1b73fff7
  10185e:	e42bffc3          	fmadd.h	ft11,fs7,ft2,ft8
  101862:	001d                	c.nop	7
  101864:	ffdab657          	0xffdab657
  101868:	19c4                	addi	s1,sp,244
  10186a:	abf4ffd7          	0xabf4ffd7
  10186e:	0019                	c.nop	6
  101870:	1c3e                	slli	s8,s8,0x2f
  101872:	ffe1                	bnez	a5,10184a <ker2+0x15ca>
  101874:	0008735b          	0x8735b
  101878:	003ea313          	slti	t1,t4,3
  10187c:	5296                	lw	t0,100(sp)
  10187e:	0000                	unimp
  101880:	b396                	fsd	ft5,480(sp)
  101882:	0004                	0x4
  101884:	eb61                	bnez	a4,101954 <ker2+0x16d4>
  101886:	0024                	addi	s1,sp,8
  101888:	2f12                	fld	ft10,256(sp)
  10188a:	ffee                	fsw	fs11,252(sp)
  10188c:	8c14                	0x8c14
  10188e:	000d                	c.nop	3
  101890:	c729                	beqz	a4,1018da <ker2+0x165a>
  101892:	60f90017          	auipc	zero,0x60f90
  101896:	598c0003          	lb	zero,1432(s8)
  10189a:	0004                	0x4
  10189c:	b806                	fsd	ft1,48(sp)
  10189e:	0005                	c.nop	1
  1018a0:	1e30                	addi	a2,sp,824
  1018a2:	ffe4                	fsw	fs1,124(a5)
  1018a4:	34f0                	fld	fa2,232(s1)
  1018a6:	bf67002f          	0xbf67002f
  1018aa:	0016                	c.slli	zero,0x5
  1018ac:	8eda                	mv	t4,s6
  1018ae:	fff2                	fsw	ft8,252(sp)
  1018b0:	fff7b627          	fsd	ft11,-20(a5) # ffece2b4 <__VREG_END+0xffd4e2b4>
  1018b4:	5450                	lw	a2,44(s0)
  1018b6:	0031                	c.nop	12
  1018b8:	4fc1                	li	t6,16
  1018ba:	0026                	c.slli	zero,0x9
  1018bc:	bad5                	j	1012b0 <ker2+0x1030>
  1018be:	000c                	0xc
  1018c0:	275a                	fld	fa4,400(sp)
  1018c2:	fffa                	fsw	ft10,252(sp)
  1018c4:	ffdba5bb          	0xffdba5bb
  1018c8:	1034                	addi	a3,sp,40
  1018ca:	0025                	c.nop	9
  1018cc:	e625                	bnez	a2,101934 <ker2+0x16b4>
  1018ce:	0012                	c.slli	zero,0x4
  1018d0:	001a240f          	0x1a240f
  1018d4:	61ba                	flw	ft3,140(sp)
  1018d6:	ffdd                	bnez	a5,101894 <ker2+0x1614>
  1018d8:	a70d                	j	101ffa <ker2+0x1d7a>
  1018da:	8cc2fff3          	csrrci	t6,0x8cc,5
  1018de:	002d                	c.nop	11
  1018e0:	1f5c                	addi	a5,sp,948
  1018e2:	000a                	c.slli	zero,0x2
  1018e4:	0003c2b7          	lui	t0,0x3c
  1018e8:	ffef09b7          	lui	s3,0xffef0
  1018ec:	00033fb3          	sltu	t6,t1,zero
  1018f0:	e182                	fsw	ft0,192(sp)
  1018f2:	fffa                	fsw	ft10,252(sp)
  1018f4:	ffd36ffb          	0xffd36ffb
  1018f8:	a059                	j	10197e <ker2+0x16fe>
  1018fa:	ffe5                	bnez	a5,1018f2 <ker2+0x1672>
  1018fc:	fff92b17          	auipc	s6,0xfff92
  101900:	75b5                	lui	a1,0xfffed
  101902:	ffe2                	fsw	fs8,252(sp)
  101904:	3440                	fld	fs0,168(s0)
  101906:	0025                	c.nop	9
  101908:	797c                	flw	fa5,116(a0)
  10190a:	ffcd                	bnez	a5,1018c4 <ker2+0x1644>
  10190c:	f765                	bnez	a4,1018f4 <ker2+0x1674>
  10190e:	fff0                	fsw	fa2,124(a5)
  101910:	0340                	addi	s0,sp,388
  101912:	b324ffcf          	fnmadd.d	ft11,fs1,fs2,fs6
  101916:	ffdf 6e79 ffd9      	0xffd96e79ffdf
  10191c:	fe49                	bnez	a2,1018b6 <ker2+0x1636>
  10191e:	ffe0                	fsw	fs0,124(a5)
  101920:	6426                	flw	fs0,72(sp)
  101922:	001a                	c.slli	zero,0x6
  101924:	470d                	li	a4,3
  101926:	cf19ffaf          	0xcf19ffaf
  10192a:	ffda                	fsw	fs6,252(sp)
  10192c:	74f0                	flw	fa2,108(s1)
  10192e:	a45cffcb          	fnmsub.h	ft11,fs9,ft5,fs4
  101932:	ffc2                	fsw	fa6,252(sp)
  101934:	ea86                	fsw	ft1,84(sp)
  101936:	0029                	c.nop	10
  101938:	95e5                	srai	a1,a1,0x39
  10193a:	0020                	addi	s0,sp,8
  10193c:	a9a2                	fsd	fs0,208(sp)
  10193e:	fffe                	fsw	ft11,252(sp)
  101940:	e97c                	fsw	fa5,84(a0)
  101942:	fff1                	bnez	a5,10191e <ker2+0x169e>
  101944:	d0dc                	sw	a5,36(s1)
  101946:	fd06002f          	0xfd06002f
  10194a:	2b720037          	lui	zero,0x2b720
  10194e:	001d                	c.nop	7
  101950:	95f1                	srai	a1,a1,0x3c
  101952:	ffc1                	bnez	a5,1018ea <ker2+0x166a>
  101954:	1306                	slli	t1,t1,0x21
  101956:	0018                	0x18
  101958:	a496                	fsd	ft5,72(sp)
  10195a:	003c                	addi	a5,sp,8
  10195c:	6a64                	flw	fs1,84(a2)
  10195e:	1a3a0037          	lui	zero,0x1a3a0
  101962:	5df4ffe7          	0x5df4ffe7
  101966:	000a                	c.slli	zero,0x2
  101968:	9bf0                	0x9bf0
  10196a:	001e                	c.slli	zero,0x7
  10196c:	fffd8abf 00052e3a 	0x52e3afffd8abf
  101974:	ee26                	fsw	fs1,28(sp)
  101976:	fff4                	fsw	fa3,124(a5)
  101978:	14ad                	addi	s1,s1,-21
  10197a:	0f96ffeb          	0xf96ffeb
  10197e:	0009                	c.nop	2
  101980:	fff6c35b          	0xfff6c35b
  101984:	d755                	beqz	a4,101930 <ker2+0x16b0>
  101986:	0022                	c.slli	zero,0x8
  101988:	0bea                	slli	s7,s7,0x1a
  10198a:	7431001b          	0x7431001b
  10198e:	0009                	c.nop	2
  101990:	e8c8                	fsw	fa0,20(s1)
  101992:	0001                	nop
  101994:	fffc1d67          	0xfffc1d67
  101998:	e106                	fsw	ft1,128(sp)
  10199a:	fffa                	fsw	ft10,252(sp)
  10199c:	fe24                	fsw	fs1,120(a2)
  10199e:	ffee                	fsw	fs11,252(sp)
  1019a0:	4830                	lw	a2,80(s0)
  1019a2:	993effe7          	0x993effe7
  1019a6:	0011                	c.nop	4
  1019a8:	8b34                	0x8b34
  1019aa:	fff1                	bnez	a5,101986 <ker2+0x1706>
  1019ac:	ffec91f7          	0xffec91f7
  1019b0:	3d29                	jal	1017ca <ker2+0x154a>
  1019b2:	0014                	0x14
  1019b4:	9b8a                	add	s7,s7,sp
  1019b6:	c41f001b          	0xc41f001b
  1019ba:	f7a70017          	auipc	zero,0xf7a70
  1019be:	ffe6                	fsw	fs9,252(sp)
  1019c0:	3a11                	jal	1012d4 <ker2+0x1054>
  1019c2:	ffe6                	fsw	fs9,252(sp)
  1019c4:	eae8                	fsw	fa0,84(a3)
  1019c6:	fff5                	bnez	a5,1019c2 <ker2+0x1742>
  1019c8:	00298493          	addi	s1,s3,2 # ffef0002 <__VREG_END+0xffd70002>
  1019cc:	00010fbf fffd8b45 	0xfffd8b4500010fbf
  1019d4:	ee8a                	fsw	ft2,92(sp)
  1019d6:	ffd0                	fsw	fa2,60(a5)
  1019d8:	ffe6ccaf          	0xffe6ccaf
  1019dc:	8dc6                	mv	s11,a7
  1019de:	001d                	c.nop	7
  1019e0:	fffe0603          	lb	a2,-1(t3) # dbfff <__BSS_END__+0xb7cd3>
  1019e4:	a7d1                	j	1021a8 <ker2+0x1f28>
  1019e6:	ffe2                	fsw	fs8,252(sp)
  1019e8:	9036                	c.add	zero,a3
  1019ea:	0010                	0x10
  1019ec:	0ba1                	addi	s7,s7,8
  1019ee:	0012                	c.slli	zero,0x4
  1019f0:	2385                	jal	101f50 <ker2+0x1cd0>
  1019f2:	5686ffe7          	0x5686ffe7
  1019f6:	ffe6                	fsw	fs9,252(sp)
  1019f8:	d2d2                	sw	s4,100(sp)
  1019fa:	fff6                	fsw	ft9,252(sp)
  1019fc:	5f32                	lw	t5,44(sp)
  1019fe:	ffea                	fsw	fs10,252(sp)
  101a00:	d656                	sw	s5,44(sp)
  101a02:	ffd9                	bnez	a5,1019a0 <ker2+0x1720>
  101a04:	223d                	jal	101b32 <ker2+0x18b2>
  101a06:	dc02ffe3          	bgeu	t0,zero,1017e4 <ker2+0x1564>
  101a0a:	f202ffd3          	0xf202ffd3
  101a0e:	002c                	addi	a1,sp,8
  101a10:	3a21                	jal	101328 <ker2+0x10a8>
  101a12:	e965000b          	0xe965000b
  101a16:	0df9fffb          	0xdf9fffb
  101a1a:	b007ffcf          	fnmadd.s	ft11,fa5,ft0,fs6
  101a1e:	580b0007          	0x580b0007
  101a22:	0040                	addi	s0,sp,4
  101a24:	47e9                	li	a5,26
  101a26:	0009                	c.nop	2
  101a28:	0512                	slli	a0,a0,0x4
  101a2a:	fff2                	fsw	ft8,252(sp)
  101a2c:	ab99                	j	101f82 <ker2+0x1d02>
  101a2e:	ffe0                	fsw	fs0,124(a5)
  101a30:	000fec87          	vle32.v	v25,(t6),v0.t
  101a34:	0020d8a7          	0x20d8a7
  101a38:	7dbd                	lui	s11,0xfffef
  101a3a:	0016                	c.slli	zero,0x5
  101a3c:	3c96                	fld	fs9,352(sp)
  101a3e:	fff4                	fsw	fa3,124(a5)
  101a40:	0205                	addi	tp,tp,1
  101a42:	ffd5                	bnez	a5,1019fe <ker2+0x177e>
  101a44:	0022454b          	fnmsub.s	fa0,ft4,ft2,ft0,rmm
  101a48:	62c8                	flw	fa0,4(a3)
  101a4a:	2717002b          	0x2717002b
  101a4e:	0001                	nop
  101a50:	da69                	beqz	a2,101a22 <ker2+0x17a2>
  101a52:	ffe5                	bnez	a5,101a4a <ker2+0x17ca>
  101a54:	d4de                	sw	s7,104(sp)
  101a56:	fff6                	fsw	ft9,252(sp)
  101a58:	000f92cb          	fnmsub.s	ft5,ft11,ft0,ft0,rtz
  101a5c:	5694                	lw	a3,40(a3)
  101a5e:	ffff                	0xffff
  101a60:	1f28                	addi	a0,sp,952
  101a62:	0001                	nop
  101a64:	0001c713          	xori	a4,gp,0
  101a68:	1580                	addi	s0,sp,736
  101a6a:	0006                	c.slli	zero,0x1
  101a6c:	696e                	flw	fs2,216(sp)
  101a6e:	001a                	c.slli	zero,0x6
  101a70:	54b5                	li	s1,-19
  101a72:	ffe2                	fsw	fs8,252(sp)
  101a74:	a0d2                	fsd	fs4,64(sp)
  101a76:	ffe2                	fsw	fs8,252(sp)
  101a78:	ffeafce3          	bgeu	s5,t5,101a70 <ker2+0x17f0>
  101a7c:	ffdfc943          	fmadd.q	fs2,ft11,ft9,ft11,rmm
  101a80:	2942                	fld	fs2,16(sp)
  101a82:	ffd2                	fsw	fs4,252(sp)
  101a84:	e2e2                	fsw	fs8,68(sp)
  101a86:	0001                	nop
  101a88:	3831                	jal	1012a4 <ker2+0x1024>
  101a8a:	ffd6                	fsw	fs5,252(sp)
  101a8c:	3b26                	fld	fs6,104(sp)
  101a8e:	71520007          	0x71520007
  101a92:	0016                	c.slli	zero,0x5
  101a94:	000dbb6f          	jal	s6,1dca94 <__VREG_END+0x5ca94>
  101a98:	0436                	slli	s0,s0,0xd
  101a9a:	ffee                	fsw	fs11,252(sp)
  101a9c:	ffb80747          	fmsub.q	fa4,fa6,fs11,ft11,rne
  101aa0:	ba5c                	fsd	fa5,176(a2)
  101aa2:	001a                	c.slli	zero,0x6
  101aa4:	e248                	fsw	fa0,4(a2)
  101aa6:	fffa                	fsw	ft10,252(sp)
  101aa8:	ffb3104b          	fnmsub.q	ft0,ft6,fs11,ft11,rtz
  101aac:	049a                	slli	s1,s1,0x6
  101aae:	0016                	c.slli	zero,0x5
  101ab0:	ffd3ac1b          	0xffd3ac1b
  101ab4:	9a6d                	andi	a2,a2,-5
  101ab6:	0e11ffd3          	fsub.q	ft11,ft3,ft1
  101aba:	3bfdffcb          	fnmsub.d	ft11,fs11,ft11,ft7
  101abe:	ffc4                	fsw	fs1,60(a5)
  101ac0:	e58c                	fsw	fa1,8(a1)
  101ac2:	b3b0000f          	0xb3b0000f
  101ac6:	0024                	addi	s1,sp,8
  101ac8:	ffddef93          	ori	t6,s11,-3
  101acc:	4a52                	lw	s4,20(sp)
  101ace:	bc110007          	0xbc110007
  101ad2:	bf5e000f          	0xbf5e000f
  101ad6:	ffe2                	fsw	fs8,252(sp)
  101ad8:	8aed                	andi	a3,a3,27
  101ada:	0000                	unimp
  101adc:	ffefa3c7          	fmsub.q	ft7,ft11,ft10,ft11,rdn
  101ae0:	9710                	0x9710
  101ae2:	ffd1                	bnez	a5,101a7e <ker2+0x17fe>
  101ae4:	4b30                	lw	a2,80(a4)
  101ae6:	2f640037          	lui	zero,0x2f640
  101aea:	0028                	addi	a0,sp,8
  101aec:	8060                	0x8060
  101aee:	ffe5                	bnez	a5,101ae6 <ker2+0x1866>
  101af0:	9cfd                	0x9cfd
  101af2:	97070017          	auipc	zero,0x97070
  101af6:	726dffef          	jal	t6,1e121c <__VREG_END+0x6121c>
  101afa:	2abc0053          	fmin.d	ft0,fs8,fa1
  101afe:	b896002f          	0xb896002f
  101b02:	49f5002f          	0x49f5002f
  101b06:	fff5                	bnez	a5,101b02 <ker2+0x1882>
  101b08:	86bc                	0x86bc
  101b0a:	ffe8                	fsw	fa0,124(a5)
  101b0c:	ca90                	sw	a2,16(a3)
  101b0e:	001a                	c.slli	zero,0x6
  101b10:	cbee                	sw	s11,212(sp)
  101b12:	203fffeb          	0x203fffeb
  101b16:	ffe6                	fsw	fs9,252(sp)
  101b18:	5d3c                	lw	a5,120(a0)
  101b1a:	fff1                	bnez	a5,101af6 <ker2+0x1876>
  101b1c:	40cc                	lw	a1,4(s1)
  101b1e:	fff5                	bnez	a5,101b1a <ker2+0x189a>
  101b20:	ffe5d007          	0xffe5d007
  101b24:	8f61                	and	a4,a4,s0
  101b26:	ffd2                	fsw	fs4,252(sp)
  101b28:	e1e0                	fsw	fs0,68(a1)
  101b2a:	0019                	c.nop	6
  101b2c:	0005dfcf          	fnmadd.s	ft11,fa1,ft0,ft0,unknown
  101b30:	cc18                	sw	a4,24(s0)
  101b32:	351effe7          	0x351effe7
  101b36:	fff8                	fsw	fa4,124(a5)
  101b38:	550e                	lw	a0,224(sp)
  101b3a:	0df30017          	auipc	zero,0xdf30
  101b3e:	000d                	c.nop	3
  101b40:	1d1e                	slli	s10,s10,0x27
  101b42:	45af0033          	0x45af0033
  101b46:	ffff                	0xffff
  101b48:	d602                	sw	zero,44(sp)
  101b4a:	0011                	c.nop	4
  101b4c:	4746                	lw	a4,80(sp)
  101b4e:	ffea                	fsw	fs10,252(sp)
  101b50:	b9f5                	j	10184c <ker2+0x15cc>
  101b52:	001e                	c.slli	zero,0x7
  101b54:	6114                	flw	fa3,0(a0)
  101b56:	6e95fff3          	csrrci	t6,0x6e9,11
  101b5a:	ec80fff3          	csrrci	t6,0xec8,1
  101b5e:	000c                	0xc
  101b60:	e55a                	fsw	fs6,136(sp)
  101b62:	8ced000b          	0x8ced000b
  101b66:	ea6d002b          	0xea6d002b
  101b6a:	001c                	0x1c
  101b6c:	4d32                	lw	s10,12(sp)
  101b6e:	0004                	0x4
  101b70:	fe5a                	fsw	fs6,60(sp)
  101b72:	ffd1                	bnez	a5,101b0e <ker2+0x188e>
  101b74:	7bda                	flw	fs7,180(sp)
  101b76:	fff5                	bnez	a5,101b72 <ker2+0x18f2>
  101b78:	0275                	addi	tp,tp,29
  101b7a:	ffaa                	fsw	fa0,252(sp)
  101b7c:	2735                	jal	1022a8 <ker2+0x2028>
  101b7e:	fff1                	bnez	a5,101b5a <ker2+0x18da>
  101b80:	8259                	srli	a2,a2,0x16
  101b82:	0019                	c.nop	6
  101b84:	1fcd                	addi	t6,t6,-13
  101b86:	0018                	0x18
  101b88:	0016d22b          	0x16d22b
  101b8c:	c45f 001b 752b      	0x752b001bc45f
  101b92:	ffea                	fsw	fs10,252(sp)
  101b94:	a6ae                	fsd	fa1,328(sp)
  101b96:	000a                	c.slli	zero,0x2
  101b98:	9eb4                	0x9eb4
  101b9a:	ffe4                	fsw	fs1,124(a5)
  101b9c:	6538                	flw	fa4,72(a0)
  101b9e:	0022                	c.slli	zero,0x8
  101ba0:	d279                	beqz	a2,101b66 <ker2+0x18e6>
  101ba2:	0014                	0x14
  101ba4:	fff3f91b          	0xfff3f91b
  101ba8:	3046                	fld	ft0,112(sp)
  101baa:	002a                	c.slli	zero,0xa
  101bac:	ffef344b          	fnmsub.q	fs0,ft10,ft10,ft11,rup
  101bb0:	73e2                	flw	ft7,56(sp)
  101bb2:	fff5                	bnez	a5,101bae <ker2+0x192e>
  101bb4:	fa32                	fsw	fa2,52(sp)
  101bb6:	0001                	nop
  101bb8:	b95a                	fsd	fs6,176(sp)
  101bba:	fffa                	fsw	ft10,252(sp)
  101bbc:	9816                	add	a6,a6,t0
  101bbe:	fff2                	fsw	ft8,252(sp)
  101bc0:	00121a63          	bne	tp,ra,101bd4 <ker2+0x1954>
  101bc4:	05aa                	slli	a1,a1,0xa
  101bc6:	fff6                	fsw	ft9,252(sp)
  101bc8:	9e34                	0x9e34
  101bca:	ffe9                	bnez	a5,101ba4 <ker2+0x1924>
  101bcc:	2e72                	fld	ft8,280(sp)
  101bce:	ffea                	fsw	fs10,252(sp)
  101bd0:	fff39db7          	lui	s11,0xfff39
  101bd4:	dfe9                	beqz	a5,101bae <ker2+0x192e>
  101bd6:	001a                	c.slli	zero,0x6
  101bd8:	fff6e11b          	0xfff6e11b
  101bdc:	43a0                	lw	s0,64(a5)
  101bde:	0005                	c.nop	1
  101be0:	78c8                	flw	fa0,52(s1)
  101be2:	fffd                	bnez	a5,101be0 <ker2+0x1960>
  101be4:	6e86                	flw	ft9,64(sp)
  101be6:	0046                	c.slli	zero,0x11
  101be8:	8b29                	andi	a4,a4,10
  101bea:	fffa                	fsw	ft10,252(sp)
  101bec:	000c85c7          	fmsub.s	fa1,fs9,ft0,ft0,rne
  101bf0:	0016e667          	0x16e667
  101bf4:	385a                	fld	fa6,432(sp)
  101bf6:	fff9                	bnez	a5,101bd4 <ker2+0x1954>
  101bf8:	665f ffc0 34d0      	0x34d0ffc0665f
  101bfe:	fff5                	bnez	a5,101bfa <ker2+0x197a>
  101c00:	866d                	srai	a2,a2,0x1b
  101c02:	673a000f          	0x673a000f
  101c06:	6ad4ffef          	jal	t6,151ab2 <__VMEM_END+0x41b72>
  101c0a:	6bc90003          	lb	zero,1724(s2) # 301440 <__VREG_END+0x181440>
  101c0e:	ffdc                	fsw	fa5,60(a5)
  101c10:	fff1d4e3          	bge	gp,t6,101bf8 <ker2+0x1978>
  101c14:	92dd                	srli	a3,a3,0x37
  101c16:	ffe8                	fsw	fa0,124(a5)
  101c18:	44a4                	lw	s1,72(s1)
  101c1a:	ab72fff7          	0xab72fff7
  101c1e:	c53bffd7          	vsetivli	t6,23,e32,m8,ta,mu
  101c22:	0021                	c.nop	8
  101c24:	ffe7a457          	vwmaccsu.vv	v8,v15,v30
  101c28:	fff979b3          	0xfff979b3
  101c2c:	74ee                	flw	fs1,248(sp)
  101c2e:	0001                	nop
  101c30:	af80                	fsd	fs0,24(a5)
  101c32:	fff2                	fsw	ft8,252(sp)
  101c34:	f0c9                	bnez	s1,101bb6 <ker2+0x1936>
  101c36:	ffe6                	fsw	fs9,252(sp)
  101c38:	ffdedf9b          	0xffdedf9b
  101c3c:	4ea9                	li	t4,10
  101c3e:	ffe0                	fsw	fs0,124(a5)
  101c40:	0b99                	addi	s7,s7,6
  101c42:	fff4                	fsw	fa3,124(a5)
  101c44:	002b80a7          	0x2b80a7
  101c48:	6dd1                	lui	s11,0x14
  101c4a:	ffcd                	bnez	a5,101c04 <ker2+0x1984>
  101c4c:	9ea1                	0x9ea1
  101c4e:	0012                	c.slli	zero,0x4
  101c50:	845c                	0x845c
  101c52:	0004                	0x4
  101c54:	e36c                	fsw	fa1,68(a4)
  101c56:	ffdf 8267 001f      	0x1f8267ffdf
  101c5c:	7566                	flw	fa0,120(sp)
  101c5e:	0019                	c.nop	6
  101c60:	26ce                	fld	fa3,208(sp)
  101c62:	ffb4fffb          	0xffb4fffb
  101c66:	22490007          	0x22490007
  101c6a:	0026                	c.slli	zero,0x9
  101c6c:	564d                	li	a2,-13
  101c6e:	186effcf          	fnmadd.s	ft11,ft9,ft6,ft3
  101c72:	0011                	c.nop	4
  101c74:	00184963          	blt	a6,ra,101c86 <ker2+0x1a06>
  101c78:	001fa437          	lui	s0,0x1fa
  101c7c:	4e2a                	lw	t3,136(sp)
  101c7e:	0018                	0x18
  101c80:	ff38                	fsw	fa4,120(a4)
  101c82:	001d                	c.nop	7
  101c84:	0e1f ffd8 b41c      	0xb41cffd80e1f
  101c8a:	4df0ffef          	jal	t6,111968 <__VMEM_END+0x1a28>
  101c8e:	ffec                	fsw	fa1,124(a5)
  101c90:	6319                	lui	t1,0x6
  101c92:	e386ffe3          	bgeu	a3,s8,101ad0 <ker2+0x1850>
  101c96:	e0f00003          	lb	zero,-497(zero) # fffffe0f <__VREG_END+0xffe7fe0f>
  101c9a:	0029                	c.nop	10
  101c9c:	ffe94813          	xori	a6,s2,-2
  101ca0:	4e5d                	li	t3,23
  101ca2:	ffda                	fsw	fs6,252(sp)
  101ca4:	ffc98b03          	lb	s6,-4(s3)
  101ca8:	ffe3228b          	0xffe3228b
  101cac:	5b14                	lw	a3,48(a4)
  101cae:	ffd6                	fsw	fs5,252(sp)
  101cb0:	80dc                	0x80dc
  101cb2:	03cbffef          	jal	t6,1c0cee <__VREG_END+0x40cee>
  101cb6:	0025                	c.nop	9
  101cb8:	ffe3aa77          	0xffe3aa77
  101cbc:	1680                	addi	s0,sp,864
  101cbe:	fff2                	fsw	ft8,252(sp)
  101cc0:	aa59                	j	101e56 <ker2+0x1bd6>
  101cc2:	0022                	c.slli	zero,0x8
  101cc4:	d134                	sw	a3,96(a0)
  101cc6:	ffdf 08bb ffde      	0xffde08bbffdf
  101ccc:	a4f4                	fsd	fa3,200(s1)
  101cce:	0016                	c.slli	zero,0x5
  101cd0:	ffdf2b63          	0xffdf2b63
  101cd4:	fff9dda7          	0xfff9dda7
  101cd8:	dd40                	sw	s0,60(a0)
  101cda:	1e3c0013          	addi	zero,s8,483
  101cde:	001f 33da 000c      	0xc33da001f
  101ce4:	35d5                	jal	101bc8 <ker2+0x1948>
  101ce6:	91e60003          	lb	zero,-1762(a2)
  101cea:	4c56fffb          	0x4c56fffb
  101cee:	ffcd                	bnez	a5,101ca8 <ker2+0x1a28>
  101cf0:	7881                	lui	a7,0xfffe0
  101cf2:	fff0                	fsw	fa2,124(a5)
  101cf4:	77d1                	lui	a5,0xffff4
  101cf6:	fffc                	fsw	fa5,124(a5)
  101cf8:	62a1                	lui	t0,0x8
  101cfa:	ffdf 2404 0011      	0x112404ffdf
  101d00:	3972                	fld	fs2,312(sp)
  101d02:	ffff                	0xffff
  101d04:	7dd6                	flw	fs11,116(sp)
  101d06:	0df80017          	auipc	zero,0xdf80
  101d0a:	ffe9                	bnez	a5,101ce4 <ker2+0x1a64>
  101d0c:	52ed                	li	t0,-5
  101d0e:	0024                	addi	s1,sp,8
  101d10:	e15a                	fsw	fs6,128(sp)
  101d12:	000d                	c.nop	3
  101d14:	ffd32827          	fsw	ft9,-16(t1) # 5ff0 <__stack_init+0x52e8>
  101d18:	ffd31f0b          	0xffd31f0b
  101d1c:	b6b1                	j	101868 <ker2+0x15e8>
  101d1e:	1ba4002b          	0x1ba4002b
  101d22:	ffe8                	fsw	fa0,124(a5)
  101d24:	eb80                	fsw	fs0,16(a5)
  101d26:	ffdc                	fsw	fa5,60(a5)
  101d28:	c369                	beqz	a4,101dea <ker2+0x1b6a>
  101d2a:	0015                	c.nop	5
  101d2c:	ffe4b59b          	0xffe4b59b
  101d30:	391f fff6 a77a      	0xa77afff6391f
  101d36:	0000                	unimp
  101d38:	0c41                	addi	s8,s8,16
  101d3a:	ffe5                	bnez	a5,101d32 <ker2+0x1ab2>
  101d3c:	e92e                	fsw	fa1,144(sp)
  101d3e:	fff4                	fsw	fa3,124(a5)
  101d40:	0012d183          	lhu	gp,1(t0) # 8001 <__stack_init+0x72f9>
  101d44:	92bc                	0x92bc
  101d46:	0414ffe7          	0x414ffe7
  101d4a:	e95dffe7          	0xe95dffe7
  101d4e:	fff0                	fsw	fa2,124(a5)
  101d50:	00368233          	add	tp,a3,gp
  101d54:	7f9d                	lui	t6,0xfffe7
  101d56:	ffe1                	bnez	a5,101d2e <ker2+0x1aae>
  101d58:	fff3bfe7          	0xfff3bfe7
  101d5c:	0375                	addi	t1,t1,29
  101d5e:	0015                	c.nop	5
  101d60:	fffa6f53          	0xfffa6f53
  101d64:	0034d6b7          	lui	a3,0x34d
  101d68:	002205ab          	0x2205ab
  101d6c:	6099                	lui	ra,0x6
  101d6e:	fffd                	bnez	a5,101d6c <ker2+0x1aec>
  101d70:	00f4                	addi	a3,sp,76
  101d72:	ffd9                	bnez	a5,101d10 <ker2+0x1a90>
  101d74:	ffdf9467          	0xffdf9467
  101d78:	5452                	lw	s0,52(sp)
  101d7a:	ffdc                	fsw	fa5,60(a5)
  101d7c:	7a54                	flw	fa3,52(a2)
  101d7e:	3721002b          	0x3721002b
  101d82:	fff0                	fsw	fa2,124(a5)
  101d84:	3dea                	fld	fs11,184(sp)
  101d86:	eca2000f          	0xeca2000f
  101d8a:	ffe8                	fsw	fa0,124(a5)
  101d8c:	154d                	addi	a0,a0,-13
  101d8e:	ffb0                	fsw	fa2,120(a5)
  101d90:	bcee                	fsd	fs11,120(sp)
  101d92:	fff1                	bnez	a5,101d6e <ker2+0x1aee>
  101d94:	b972                	fsd	ft8,176(sp)
  101d96:	ffd8                	fsw	fa4,60(a5)
  101d98:	6d0e                	flw	fs10,192(sp)
  101d9a:	000c                	0xc
  101d9c:	000ab34b          	fnmsub.s	ft6,fs5,ft0,ft0,rup
  101da0:	99b8                	0x99b8
  101da2:	0009                	c.nop	2
  101da4:	cbee                	sw	s11,212(sp)
  101da6:	7473000b          	0x7473000b
  101daa:	0011                	c.nop	4
  101dac:	fffbf8e3          	bgeu	s7,t6,101d9c <ker2+0x1b1c>
  101db0:	ffb19d0f          	0xffb19d0f
  101db4:	18e1                	addi	a7,a7,-8
  101db6:	ffdf 789d fffb      	0xfffb789dffdf
  101dbc:	5b2d                	li	s6,-21
  101dbe:	0005                	c.nop	1
  101dc0:	bbb0                	fsd	fa2,112(a5)
  101dc2:	ffe5                	bnez	a5,101dba <ker2+0x1b3a>
  101dc4:	0f1d                	addi	t5,t5,7
  101dc6:	0025                	c.nop	9
  101dc8:	db55                	beqz	a4,101d7c <ker2+0x1afc>
  101dca:	0024                	addi	s1,sp,8
  101dcc:	d588                	sw	a0,40(a1)
  101dce:	ffd1                	bnez	a5,101d6a <ker2+0x1aea>
  101dd0:	83e2                	mv	t2,s8
  101dd2:	001c                	0x1c
  101dd4:	0010a66b          	0x10a66b
  101dd8:	1c10                	addi	a2,sp,560
  101dda:	ffe0                	fsw	fs0,124(a5)
  101ddc:	25c4                	fld	fs1,136(a1)
  101dde:	ec47ffe7          	0xec47ffe7
  101de2:	6ed30007          	vloxseg4ei8.v	v0,(t1),v13
  101de6:	ffc5                	bnez	a5,101d9e <ker2+0x1b1e>
  101de8:	ffcd950f          	0xffcd950f
  101dec:	ffeabc5b          	0xffeabc5b
  101df0:	000c5f2f          	vamoaddei16.v	zero,(s8),v0,v30,v0.t
  101df4:	0009d7d3          	fadd.s	fa5,fs3,ft0,unknown
  101df8:	d93c                	sw	a5,112(a0)
  101dfa:	0004                	0x4
  101dfc:	1862                	slli	a6,a6,0x38
  101dfe:	ffc0                	fsw	fs0,60(a5)
  101e00:	5f16                	lw	t5,100(sp)
  101e02:	fffd                	bnez	a5,101e00 <ker2+0x1b80>
  101e04:	2dcd                	jal	1024f6 <ker2+0x2276>
  101e06:	fff4                	fsw	fa3,124(a5)
  101e08:	d50e                	sw	gp,168(sp)
  101e0a:	0011                	c.nop	4
  101e0c:	0028e3b7          	lui	t2,0x28e
  101e10:	96f8                	0x96f8
  101e12:	ffd8                	fsw	fa4,60(a5)
  101e14:	69a0                	flw	fs0,80(a1)
  101e16:	ffd5                	bnez	a5,101dd2 <ker2+0x1b52>
  101e18:	c6e6                	sw	s9,76(sp)
  101e1a:	ffe5                	bnez	a5,101e12 <ker2+0x1b92>
  101e1c:	0b68                	addi	a0,sp,412
  101e1e:	ffd5                	bnez	a5,101dda <ker2+0x1b5a>
  101e20:	5092                	lw	ra,36(sp)
  101e22:	fff0                	fsw	fa2,124(a5)
  101e24:	a4cd                	j	102106 <ker2+0x1e86>
  101e26:	0010                	0x10
  101e28:	a9cd                	j	10231a <ker2+0x209a>
  101e2a:	ffb8                	fsw	fa4,120(a5)
  101e2c:	4990                	lw	a2,16(a1)
  101e2e:	02f2000f          	0x2f2000f
  101e32:	54abfff3          	csrrci	t6,0x54a,23
  101e36:	fff5                	bnez	a5,101e32 <ker2+0x1bb2>
  101e38:	ffe3a083          	lw	ra,-2(t2) # 28dffe <__VREG_END+0x10dffe>
  101e3c:	8491                	srai	s1,s1,0x4
  101e3e:	fff9                	bnez	a5,101e1c <ker2+0x1b9c>
  101e40:	1076                	c.slli	zero,0x3d
  101e42:	4aeaffd7          	vsetvli	t6,s5,1198
  101e46:	ffe0                	fsw	fs0,124(a5)
  101e48:	4929                	li	s2,10
  101e4a:	3858ffd3          	0x3858ffd3
  101e4e:	ffff                	0xffff
  101e50:	c7a5                	beqz	a5,101eb8 <ker2+0x1c38>
  101e52:	70eb000b          	0x70eb000b
  101e56:	fd23000b          	0xfd23000b
  101e5a:	ffc4                	fsw	fs1,60(a5)
  101e5c:	002a0bef          	jal	s7,1a1e5e <__VREG_END+0x21e5e>
  101e60:	2f22                	fld	ft10,8(sp)
  101e62:	0000                	unimp
  101e64:	e0cc                	fsw	fa1,4(s1)
  101e66:	0014                	0x14
  101e68:	4466                	lw	s0,88(sp)
  101e6a:	0024                	addi	s1,sp,8
  101e6c:	44ce                	lw	s1,208(sp)
  101e6e:	ffd6                	fsw	fs5,252(sp)
  101e70:	c5ee                	sw	s11,200(sp)
  101e72:	0000                	unimp
  101e74:	6c35                	lui	s8,0xd
  101e76:	ffff                	0xffff
  101e78:	58f8                	lw	a4,116(s1)
  101e7a:	0050                	addi	a2,sp,4
  101e7c:	ad3c                	fsd	fa5,88(a0)
  101e7e:	fff6                	fsw	ft9,252(sp)
  101e80:	a00e                	fsd	ft3,0(sp)
  101e82:	ffe4                	fsw	fs1,124(a5)
  101e84:	fef8                	fsw	fa4,124(a3)
  101e86:	ffb9                	bnez	a5,101de4 <ker2+0x1b64>
  101e88:	b728                	fsd	fa0,104(a4)
  101e8a:	000c                	0xc
  101e8c:	29f5                	jal	102388 <ker2+0x2108>
  101e8e:	fff5                	bnez	a5,101e8a <ker2+0x1c0a>
  101e90:	914e                	add	sp,sp,s3
  101e92:	614fffeb          	0x614fffeb
  101e96:	002c                	addi	a1,sp,8
  101e98:	71de                	flw	ft3,244(sp)
  101e9a:	1fb8004b          	fnmsub.q	ft0,fa6,fs11,ft3,rne
  101e9e:	5a07ffef          	jal	t6,18143e <__VREG_END+0x143e>
  101ea2:	0004                	0x4
  101ea4:	0088                	addi	a0,sp,64
  101ea6:	0021                	c.nop	8
  101ea8:	c13d                	beqz	a0,101f0e <ker2+0x1c8e>
  101eaa:	fff9                	bnez	a5,101e88 <ker2+0x1c08>
  101eac:	e668                	fsw	fa0,76(a2)
  101eae:	ffbe                	fsw	fa5,252(sp)
  101eb0:	a851                	j	101f44 <ker2+0x1cc4>
  101eb2:	003c                	addi	a5,sp,8
  101eb4:	c814                	sw	a3,16(s0)
  101eb6:	c894000f          	0xc894000f
  101eba:	0001                	nop
  101ebc:	213a                	fld	ft2,392(sp)
  101ebe:	001a                	c.slli	zero,0x6
  101ec0:	fff51183          	lh	gp,-1(a0)
  101ec4:	f722                	fsw	fs0,172(sp)
  101ec6:	0020                	addi	s0,sp,8
  101ec8:	0028286f          	jal	a6,183eca <__VREG_END+0x3eca>
  101ecc:	e3df ffbc 1060      	0x1060ffbce3df
  101ed2:	0016                	c.slli	zero,0x5
  101ed4:	aaf8                	fsd	fa4,208(a3)
  101ed6:	0024                	addi	s1,sp,8
  101ed8:	00113b63          	0x113b63
  101edc:	e41a                	fsw	ft6,8(sp)
  101ede:	0055                	c.nop	21
  101ee0:	fffec33f ffb708e7 	0xffb708e7fffec33f
  101ee8:	ffe4f50f          	0xffe4f50f
  101eec:	0001d23f fff76402 	0xfff764020001d23f
  101ef4:	07ce                	slli	a5,a5,0x13
  101ef6:	ffed                	bnez	a5,101ef0 <ker2+0x1c70>
  101ef8:	f154                	fsw	fa3,36(a0)
  101efa:	0015                	c.nop	5
  101efc:	1d71                	addi	s10,s10,-4
  101efe:	ffae                	fsw	fa1,252(sp)
  101f00:	d836                	sw	a3,48(sp)
  101f02:	891e000b          	0x891e000b
  101f06:	ffd9                	bnez	a5,101ea4 <ker2+0x1c24>
  101f08:	13dc                	addi	a5,sp,484
  101f0a:	0020                	addi	s0,sp,8
  101f0c:	7e12                	flw	ft8,36(sp)
  101f0e:	0011                	c.nop	4
  101f10:	2ee2                	fld	ft9,24(sp)
  101f12:	ffb8                	fsw	fa4,120(a5)
  101f14:	00234c73          	0x234c73
  101f18:	7705                	lui	a4,0xfffe1
  101f1a:	0030                	addi	a2,sp,8
  101f1c:	845c                	0x845c
  101f1e:	8f0cffeb          	0x8f0cffeb
  101f22:	e1190007          	0xe1190007
  101f26:	ffe5                	bnez	a5,101f1e <ker2+0x1c9e>
  101f28:	22cd                	jal	10210a <ker2+0x1e8a>
  101f2a:	fff0                	fsw	fa2,124(a5)
  101f2c:	0004528b          	0x4528b
  101f30:	edda                	fsw	fs6,216(sp)
  101f32:	fff9                	bnez	a5,101f10 <ker2+0x1c90>
  101f34:	fff07423          	0xfff07423
  101f38:	6f18                	flw	fa4,24(a4)
  101f3a:	97afffef          	jal	t6,1010b4 <ker2+0xe34>
  101f3e:	ffec                	fsw	fa1,124(a5)
  101f40:	ffec6033          	0xffec6033
  101f44:	00031d67          	0x31d67
  101f48:	0f92                	slli	t6,t6,0x4
  101f4a:	ffdd                	bnez	a5,101f08 <ker2+0x1c88>
  101f4c:	c392                	sw	tp,196(sp)
  101f4e:	ffe6                	fsw	fs9,252(sp)
  101f50:	823a                	mv	tp,a4
  101f52:	ffe0                	fsw	fs0,124(a5)
  101f54:	86be                	mv	a3,a5
  101f56:	415bfff7          	0x415bfff7
  101f5a:	bae50023          	sb	a4,-1120(a0)
  101f5e:	6c79fffb          	0x6c79fffb
  101f62:	fff4                	fsw	fa3,124(a5)
  101f64:	912d                	srli	a0,a0,0x2b
  101f66:	002d                	c.nop	11
  101f68:	00198547          	fmsub.s	fa0,fs3,ft1,ft0,rne
  101f6c:	ffd18d73          	0xffd18d73
  101f70:	05c2                	slli	a1,a1,0x10
  101f72:	0019                	c.nop	6
  101f74:	4c21                	li	s8,8
  101f76:	fff1                	bnez	a5,101f52 <ker2+0x1cd2>
  101f78:	000742db          	0x742db
  101f7c:	4dee                	lw	s11,216(sp)
  101f7e:	002a                	c.slli	zero,0xa
  101f80:	54ca                	lw	s1,176(sp)
  101f82:	001d                	c.nop	7
  101f84:	7048                	flw	fa0,36(s0)
  101f86:	0019                	c.nop	6
  101f88:	c0da                	sw	s6,64(sp)
  101f8a:	0009                	c.nop	2
  101f8c:	b554                	fsd	fa3,168(a0)
  101f8e:	001a                	c.slli	zero,0x6
  101f90:	e1f0                	fsw	fa2,68(a1)
  101f92:	ffd8                	fsw	fa4,60(a5)
  101f94:	feb2                	fsw	fa2,124(sp)
  101f96:	0006                	c.slli	zero,0x1
  101f98:	541c                	lw	a5,40(s0)
  101f9a:	002a                	c.slli	zero,0xa
  101f9c:	27a1                	jal	1026e4 <ker2+0x2464>
  101f9e:	ffda                	fsw	fs6,252(sp)
  101fa0:	0016e1c3          	fmadd.s	ft3,fa3,ft1,ft0,unknown
  101fa4:	628a                	flw	ft5,128(sp)
  101fa6:	ffe8                	fsw	fa0,124(a5)
  101fa8:	67cd                	lui	a5,0x13
  101faa:	561cffe3          	bgeu	s9,ra,102d28 <ker2+0x2aa8>
  101fae:	000d                	c.nop	3
  101fb0:	3b09                	jal	101cc2 <ker2+0x1a42>
  101fb2:	0005                	c.nop	1
  101fb4:	ffe87f3f ffbaea72 	0xffbaea72ffe87f3f
  101fbc:	8879                	andi	s0,s0,30
  101fbe:	000a                	c.slli	zero,0x2
  101fc0:	b2f1                	j	10198c <ker2+0x170c>
  101fc2:	ffe0                	fsw	fs0,124(a5)
  101fc4:	0016284b          	fnmsub.s	fa6,fa2,ft1,ft0,rdn
  101fc8:	6298                	flw	fa4,0(a3)
  101fca:	ffc4                	fsw	fs1,60(a5)
  101fcc:	6fed                	lui	t6,0x1b
  101fce:	000d                	c.nop	3
  101fd0:	ffd0138f          	0xffd0138f
  101fd4:	811f 0008 4e0d      	0x4e0d0008811f
  101fda:	0000                	unimp
  101fdc:	1ddf 0000 ee0c      	0xee0c00001ddf
  101fe2:	000c                	0xc
  101fe4:	002c8d33          	add	s10,s9,sp
  101fe8:	fff701b7          	lui	gp,0xfff70
  101fec:	4538                	lw	a4,72(a0)
  101fee:	7d6affe7          	0x7d6affe7
  101ff2:	001c                	0x1c
  101ff4:	a7e4                	fsd	fs1,200(a5)
  101ff6:	ffff                	0xffff
  101ff8:	2ff4                	fld	fa3,216(a5)
  101ffa:	002e                	c.slli	zero,0xb
  101ffc:	002198cb          	fnmsub.s	fa7,ft3,ft2,ft0,rtz
  102000:	00465e03          	lhu	t3,4(a2)
  102004:	ffefde13          	0xffefde13
  102008:	4afc                	lw	a5,84(a3)
  10200a:	3348000f          	0x3348000f
  10200e:	cff5fffb          	0xcff5fffb
  102012:	ffd9                	bnez	a5,101fb0 <ker2+0x1d30>
  102014:	1186                	slli	gp,gp,0x21
  102016:	ffe6                	fsw	fs9,252(sp)
  102018:	4a3e                	lw	s4,204(sp)
  10201a:	ffe6                	fsw	fs9,252(sp)
  10201c:	bc46                	fsd	fa7,56(sp)
  10201e:	0012                	c.slli	zero,0x4
  102020:	3302                	fld	ft6,32(sp)
  102022:	0002                	c.slli64	zero
  102024:	ffc5b77b          	0xffc5b77b
  102028:	65f8                	flw	fa4,76(a1)
  10202a:	0035                	c.nop	13
  10202c:	002f9897          	auipc	a7,0x2f9
  102030:	6e90                	flw	fa2,24(a3)
  102032:	ffd1                	bnez	a5,101fce <ker2+0x1d4e>
  102034:	e37e                	fsw	ft11,132(sp)
  102036:	6752ffef          	jal	t6,131eaa <__VMEM_END+0x21f6a>
  10203a:	6388ffb3          	0x6388ffb3
  10203e:	a023001b          	0xa023001b
  102042:	000e                	c.slli	zero,0x3
  102044:	fffae4c7          	fmsub.q	fs1,fs5,ft11,ft11,unknown
  102048:	1695                	addi	a3,a3,-27
  10204a:	ffdc                	fsw	fa5,60(a5)
  10204c:	e416                	fsw	ft5,8(sp)
  10204e:	e28bfff3          	csrrci	t6,0xe28,23
  102052:	0004                	0x4
  102054:	7678                	flw	fa4,108(a2)
  102056:	f5d10013          	addi	zero,sp,-163 # ffdae541 <__VREG_END+0xffc2e541>
  10205a:	ffe0                	fsw	fs0,124(a5)
  10205c:	7c59                	lui	s8,0xffff6
  10205e:	9047ffc3          	fmadd.s	ft11,fa5,ft4,fs2
  102062:	0029                	c.nop	10
  102064:	fffe801b          	0xfffe801b
  102068:	dc3d                	beqz	s0,101fe6 <ker2+0x1d66>
  10206a:	0005                	c.nop	1
  10206c:	bad0                	fsd	fa2,176(a3)
  10206e:	1d100013          	li	zero,465
  102072:	4a70002b          	0x4a70002b
  102076:	0016                	c.slli	zero,0x5
  102078:	cdc9                	beqz	a1,102112 <ker2+0x1e92>
  10207a:	fff9                	bnez	a5,102058 <ker2+0x1dd8>
  10207c:	3952                	fld	fs2,304(sp)
  10207e:	fb940003          	lb	zero,-71(s0) # 1f9fb9 <__VREG_END+0x79fb9>
  102082:	0028                	addi	a0,sp,8
  102084:	6052                	flw	ft0,20(sp)
  102086:	1cb6ffe7          	0x1cb6ffe7
  10208a:	0021                	c.nop	8
  10208c:	aa74                	fsd	fa3,208(a2)
  10208e:	f247fff3          	csrrci	t6,0xf24,15
  102092:	ffbd                	bnez	a5,102010 <ker2+0x1d90>
  102094:	e91f fff2 0fa6      	0xfa6fff2e91f
  10209a:	000e                	c.slli	zero,0x3
  10209c:	dfe8                	sw	a0,124(a5)
  10209e:	ffcd                	bnez	a5,102058 <ker2+0x1dd8>
  1020a0:	5b5f 000a 79d5      	0x79d5000a5b5f
  1020a6:	ffe0                	fsw	fs0,124(a5)
  1020a8:	fc54                	fsw	fa3,60(s0)
  1020aa:	fff2                	fsw	ft8,252(sp)
  1020ac:	01e8                	addi	a0,sp,204
  1020ae:	000c                	0xc
  1020b0:	8d84                	0x8d84
  1020b2:	c341fff3          	csrrci	t6,0xc34,3
  1020b6:	0018                	0x18
  1020b8:	ffc75613          	0xffc75613
  1020bc:	3061                	jal	101944 <ker2+0x16c4>
  1020be:	ffde                	fsw	fs7,252(sp)
  1020c0:	56f4                	lw	a3,108(a3)
  1020c2:	fe080013          	addi	zero,a6,-32
  1020c6:	fff6                	fsw	ft9,252(sp)
  1020c8:	758e                	flw	fa1,224(sp)
  1020ca:	ffd4                	fsw	fa3,60(a5)
  1020cc:	0020b78f          	0x20b78f
  1020d0:	1629                	addi	a2,a2,-22
  1020d2:	ffe4                	fsw	fs1,124(a5)
  1020d4:	e73e                	fsw	fa5,140(sp)
  1020d6:	002a                	c.slli	zero,0xa
  1020d8:	8e76                	mv	t3,t4
  1020da:	fffa                	fsw	ft10,252(sp)
  1020dc:	3fc5                	jal	1020cc <ker2+0x1e4c>
  1020de:	0011                	c.nop	4
  1020e0:	118a                	slli	gp,gp,0x22
  1020e2:	000d                	c.nop	3
  1020e4:	13c2                	slli	t2,t2,0x30
  1020e6:	fe230043          	fmadd.q	ft0,ft6,ft2,ft11,rne
  1020ea:	6ccf000f          	0x6ccf000f
  1020ee:	ffd0                	fsw	fa2,60(a5)
  1020f0:	ffe78887          	0xffe78887
  1020f4:	a112                	fsd	ft4,128(sp)
  1020f6:	0008                	0x8
  1020f8:	cade                	sw	s7,84(sp)
  1020fa:	001c                	0x1c
  1020fc:	9028                	0x9028
  1020fe:	78a50017          	auipc	zero,0x78a50
  102102:	ffc4                	fsw	fs1,60(a5)
  102104:	ffceb457          	0xffceb457
  102108:	b7ea                	fsd	fs10,488(sp)
  10210a:	ffce                	fsw	fs3,252(sp)
  10210c:	a1f6                	fsd	ft9,192(sp)
  10210e:	0008                	0x8
  102110:	a64d                	j	1024b2 <ker2+0x2232>
  102112:	a8bfffd7          	0xa8bfffd7
  102116:	003d                	c.nop	15
  102118:	557a                	lw	a0,188(sp)
  10211a:	0036                	c.slli	zero,0xd
  10211c:	85f1                	srai	a1,a1,0x1c
  10211e:	2ca1ffe7          	0x2ca1ffe7
  102122:	ffff                	0xffff
  102124:	0401                	addi	s0,s0,0
  102126:	0024                	addi	s1,sp,8
  102128:	00108e43          	fmadd.s	ft8,ft1,ft1,ft0,rne
  10212c:	c89a                	sw	t1,80(sp)
  10212e:	ffed                	bnez	a5,102128 <ker2+0x1ea8>
  102130:	bdac                	fsd	fa1,120(a1)
  102132:	000c                	0xc
  102134:	88e2                	mv	a7,s8
  102136:	2aae0003          	lb	zero,682(t3)
  10213a:	7b01002b          	0x7b01002b
  10213e:	1ef1000b          	0x1ef1000b
  102142:	ffdc                	fsw	fa5,60(a5)
  102144:	65bd                	lui	a1,0xf
  102146:	0005                	c.nop	1
  102148:	9f0a                	add	t5,t5,sp
  10214a:	0014                	0x14
  10214c:	b6b1                	j	101c98 <ker2+0x1a18>
  10214e:	ffd6                	fsw	fs5,252(sp)
  102150:	8c26                	mv	s8,s1
  102152:	000e                	c.slli	zero,0x3
  102154:	4746                	lw	a4,80(sp)
  102156:	0034                	addi	a3,sp,8
  102158:	0043eb43          	fmadd.s	fs6,ft7,ft4,ft0,unknown
  10215c:	577a                	lw	a4,188(sp)
  10215e:	004c                	addi	a1,sp,4
  102160:	3c08                	fld	fa0,56(s0)
  102162:	fff1                	bnez	a5,10213e <ker2+0x1ebe>
  102164:	e691                	bnez	a3,102170 <ker2+0x1ef0>
  102166:	ffac                	fsw	fa1,120(a5)
  102168:	0dd5                	addi	s11,s11,21
  10216a:	fff1                	bnez	a5,102146 <ker2+0x1ec6>
  10216c:	ad2a                	fsd	fa0,152(sp)
  10216e:	001e                	c.slli	zero,0x7
  102170:	94fa                	add	s1,s1,t5
  102172:	fff2                	fsw	ft8,252(sp)
  102174:	7e06                	flw	ft8,96(sp)
  102176:	0010                	0x10
  102178:	000655af          	vamoaddei16.v	zero,(a2),v0,v11,v0.t
  10217c:	f258                	fsw	fa4,36(a2)
  10217e:	ffd1                	bnez	a5,10211a <ker2+0x1e9a>
  102180:	4cb2                	lw	s9,12(sp)
  102182:	fff1                	bnez	a5,10215e <ker2+0x1ede>
  102184:	2702                	fld	fa4,0(sp)
  102186:	fffa                	fsw	ft10,252(sp)
  102188:	8f88                	0x8f88
  10218a:	0001                	nop
  10218c:	1919                	addi	s2,s2,-26
  10218e:	fffe                	fsw	ft11,252(sp)
  102190:	3cd0                	fld	fa2,184(s1)
  102192:	ffd1                	bnez	a5,10212e <ker2+0x1eae>
  102194:	acde                	fsd	fs7,88(sp)
  102196:	33170033          	0x33170033
  10219a:	84360033          	0x84360033
  10219e:	422fffeb          	0x422fffeb
  1021a2:	0022fffb          	0x22fffb
  1021a6:	fff9                	bnez	a5,102184 <ker2+0x1f04>
  1021a8:	ffc82c57          	vwmaccsu.vv	v24,v16,v28
  1021ac:	ffebf477          	0xffebf477
  1021b0:	0c91                	addi	s9,s9,4
  1021b2:	0024                	addi	s1,sp,8
  1021b4:	5ce2                	lw	s9,56(sp)
  1021b6:	fff9                	bnez	a5,102194 <ker2+0x1f14>
  1021b8:	2386                	fld	ft7,64(sp)
  1021ba:	fff8                	fsw	fa4,124(a5)
  1021bc:	55a6                	lw	a1,104(sp)
  1021be:	0009                	c.nop	2
  1021c0:	c16c                	sw	a1,68(a0)
  1021c2:	0016                	c.slli	zero,0x5
  1021c4:	7011                	c.lui	zero,0xfffe4
  1021c6:	52a00013          	li	zero,1322
  1021ca:	ffd4                	fsw	fa3,60(a5)
  1021cc:	191d                	addi	s2,s2,-25
  1021ce:	ffe8                	fsw	fa0,124(a5)
  1021d0:	58f2                	lw	a7,60(sp)
  1021d2:	1418ffe3          	bgeu	a7,ra,102b30 <ker2+0x28b0>
  1021d6:	0029                	c.nop	10
  1021d8:	2ca5                	jal	102450 <ker2+0x21d0>
  1021da:	5b56000f          	0x5b56000f
  1021de:	c6b7002b          	0xc6b7002b
  1021e2:	0004                	0x4
  1021e4:	84b5                	srai	s1,s1,0xd
  1021e6:	ffe5                	bnez	a5,1021de <ker2+0x1f5e>
  1021e8:	61b8                	flw	fa4,64(a1)
  1021ea:	0006                	c.slli	zero,0x1
  1021ec:	f262                	fsw	fs8,36(sp)
  1021ee:	fffa                	fsw	ft10,252(sp)
  1021f0:	1485                	addi	s1,s1,-31
  1021f2:	001d                	c.nop	7
  1021f4:	ab42                	fsd	fa6,400(sp)
  1021f6:	0014                	0x14
  1021f8:	86ce                	mv	a3,s3
  1021fa:	0039                	c.nop	14
  1021fc:	7d96                	flw	fs11,100(sp)
  1021fe:	fff5                	bnez	a5,1021fa <ker2+0x1f7a>
  102200:	ffd38b97          	auipc	s7,0xffd38
  102204:	0dfc                	addi	a5,sp,732
  102206:	53fcffbf 181bffe6 	0x181bffe653fcffbf
  10220e:	001f c7bc ffc6      	0xffc6c7bc001f
  102214:	a1ca                	fsd	fs2,192(sp)
  102216:	0021                	c.nop	8
  102218:	b31e                	fsd	ft7,416(sp)
  10221a:	0044                	addi	s1,sp,4
  10221c:	9ccc                	0x9ccc
  10221e:	ffec                	fsw	fa1,124(a5)
  102220:	4c40                	lw	s0,28(s0)
  102222:	49120003          	lb	zero,1169(tp) # 491 <conv2d+0x2a1>
  102226:	ffe4                	fsw	fs1,124(a5)
  102228:	ffeb84f7          	0xffeb84f7
  10222c:	ffd3392f          	0xffd3392f
  102230:	b611                	j	101d34 <ker2+0x1ab4>
  102232:	002c                	addi	a1,sp,8
  102234:	6994                	flw	fa3,16(a1)
  102236:	0002                	c.slli64	zero
  102238:	a41f 0000 3dac      	0x3dac0000a41f
  10223e:	0015                	c.nop	5
  102240:	6398                	flw	fa4,0(a5)
  102242:	fffe                	fsw	ft11,252(sp)
  102244:	4912                	lw	s2,4(sp)
  102246:	001f 5501 fff2      	0xfff25501001f
  10224c:	00081887          	flh	fa7,0(a6)
  102250:	6308                	flw	fa0,0(a4)
  102252:	001c                	0x1c
  102254:	a65a                	fsd	fs6,264(sp)
  102256:	0039                	c.nop	14
  102258:	ecda                	fsw	fs6,88(sp)
  10225a:	0052                	c.slli	zero,0x14
  10225c:	6b92                	flw	fs7,4(sp)
  10225e:	0038                	addi	a4,sp,8
  102260:	000e                	c.slli	zero,0x3
  102262:	b148ffef          	jal	t6,91576 <__BSS_END__+0x6d24a>
  102266:	ffd2                	fsw	fs4,252(sp)
  102268:	8986                	mv	s3,ra
  10226a:	0012                	c.slli	zero,0x4
  10226c:	fffad5f3          	csrrwi	a1,0xfff,21
  102270:	5db8                	lw	a4,120(a1)
  102272:	fffd                	bnez	a5,102270 <ker2+0x1ff0>
  102274:	7dba                	flw	fs11,172(sp)
  102276:	fff6                	fsw	ft9,252(sp)
  102278:	3049                	jal	101afa <ker2+0x187a>
  10227a:	000e                	c.slli	zero,0x3
  10227c:	8a0d                	andi	a2,a2,3
  10227e:	8ba2ffcf          	fnmadd.d	ft11,ft5,fs10,fa7
  102282:	ffde                	fsw	fs7,252(sp)
  102284:	4495                	li	s1,5
  102286:	ffff                	0xffff
  102288:	c895                	beqz	s1,1022bc <ker2+0x203c>
  10228a:	ffc8                	fsw	fa0,60(a5)
  10228c:	8416                	mv	s0,t0
  10228e:	7c5a0017          	auipc	zero,0x7c5a0
  102292:	ffda                	fsw	fs6,252(sp)
  102294:	6082                	flw	ft1,0(sp)
  102296:	ffff                	0xffff
  102298:	b010                	fsd	fa2,32(s0)
  10229a:	001e                	c.slli	zero,0x7
  10229c:	1a2c                	addi	a1,sp,312
  10229e:	98c5ffe3          	bgeu	a1,a2,101c3c <ker2+0x19bc>
  1022a2:	0029                	c.nop	10
  1022a4:	ffe8a03b          	0xffe8a03b
  1022a8:	88f6                	mv	a7,t4
  1022aa:	ffd0                	fsw	fa2,60(a5)
  1022ac:	fa54                	fsw	fa3,52(a2)
  1022ae:	ffe4                	fsw	fs1,124(a5)
  1022b0:	fd2c                	fsw	fa1,120(a0)
  1022b2:	ffd5                	bnez	a5,10226e <ker2+0x1fee>
  1022b4:	434a                	lw	t1,144(sp)
  1022b6:	fff4                	fsw	fa3,124(a5)
  1022b8:	897f                	0x897f
  1022ba:	041bffb7          	lui	t6,0x41bf
  1022be:	ffd6                	fsw	fs5,252(sp)
  1022c0:	675e                	flw	fa4,212(sp)
  1022c2:	000a                	c.slli	zero,0x2
  1022c4:	8220                	0x8220
  1022c6:	fff4                	fsw	fa3,124(a5)
  1022c8:	1bae                	slli	s7,s7,0x2b
  1022ca:	ffdd                	bnez	a5,102288 <ker2+0x2008>
  1022cc:	9911                	andi	a0,a0,-28
  1022ce:	0026                	c.slli	zero,0x9
  1022d0:	cdc9                	beqz	a1,10236a <ker2+0x20ea>
  1022d2:	0009                	c.nop	2
  1022d4:	1ae0                	addi	s0,sp,380
  1022d6:	e707ffef          	jal	t6,81946 <__BSS_END__+0x5d61a>
  1022da:	0049                	c.nop	18
  1022dc:	b695                	j	101e40 <ker2+0x1bc0>
  1022de:	ffff                	0xffff
  1022e0:	9e81                	0x9e81
  1022e2:	7ba3ffcf          	fnmadd.d	ft11,ft7,fs10,fa5
  1022e6:	8a2b0023          	sb	sp,-1888(s6) # 9319c <__BSS_END__+0x6ee70>
  1022ea:	002c                	addi	a1,sp,8
  1022ec:	ffc0b0f7          	0xffc0b0f7
  1022f0:	28f1                	jal	1023cc <ker2+0x214c>
  1022f2:	001c                	0x1c
  1022f4:	4a7c                	lw	a5,84(a2)
  1022f6:	0012                	c.slli	zero,0x4
  1022f8:	f11e                	fsw	ft7,160(sp)
  1022fa:	001a                	c.slli	zero,0x6
  1022fc:	61b1                	lui	gp,0xc
  1022fe:	12d9003b          	0x12d9003b
  102302:	835d0007          	0x835d0007
  102306:	fff2                	fsw	ft8,252(sp)
  102308:	4c62                	lw	s8,24(sp)
  10230a:	ffed                	bnez	a5,102304 <ker2+0x2084>
  10230c:	da29                	beqz	a2,10225e <ker2+0x1fde>
  10230e:	0036                	c.slli	zero,0xd
  102310:	df86                	sw	ra,252(sp)
  102312:	0021                	c.nop	8
  102314:	6da1                	lui	s11,0x8
  102316:	ffd8                	fsw	fa4,60(a5)
  102318:	0a7c                	addi	a5,sp,284
  10231a:	7557ffd7          	vsetvli	t6,a5,1877
  10231e:	e8510007          	vlsseg8e8.v	v0,(sp),t0,v0.t
  102322:	8af3ffe3          	bgeu	t2,a5,101be0 <ker2+0x1960>
  102326:	0031                	c.nop	12
  102328:	9a7c                	0x9a7c
  10232a:	fffc                	fsw	fa5,124(a5)
  10232c:	fff2ca4f          	fnmadd.q	fs4,ft5,ft11,ft11,rmm
  102330:	3ef9                	jal	101f0e <ker2+0x1c8e>
  102332:	0008                	0x8
  102334:	6864                	flw	fs1,84(s0)
  102336:	fff1                	bnez	a5,102312 <ker2+0x2092>
  102338:	fff6208b          	0xfff6208b
  10233c:	ad4e                	fsd	fs3,152(sp)
  10233e:	ffed                	bnez	a5,102338 <ker2+0x20b8>
  102340:	fff979c3          	fmadd.q	fs3,fs2,ft11,ft11
  102344:	bdc1                	j	102214 <ker2+0x1f94>
  102346:	0000                	unimp
  102348:	7afa                	flw	fs5,188(sp)
  10234a:	fff6                	fsw	ft9,252(sp)
  10234c:	f545                	bnez	a0,1022f4 <ker2+0x2074>
  10234e:	ffd6                	fsw	fs5,252(sp)
  102350:	04c9                	addi	s1,s1,18
  102352:	001c                	0x1c
  102354:	fffab7a3          	0xfffab7a3
  102358:	ffd2d747          	fmsub.q	fa4,ft5,ft9,ft11,unknown
  10235c:	f154                	fsw	fa3,36(a0)
  10235e:	ffbc                	fsw	fa5,120(a5)
  102360:	78c4                	flw	fs1,52(s1)
  102362:	58fcffcf          	fnmadd.s	ft11,fs9,fa5,fa1
  102366:	91e0fff7          	0x91e0fff7
  10236a:	0001                	nop
  10236c:	7a4c                	flw	fa1,52(a2)
  10236e:	cd6d000f          	0xcd6d000f
  102372:	1676ffeb          	0x1676ffeb
  102376:	ffe8                	fsw	fa0,124(a5)
  102378:	4c64                	lw	s1,92(s0)
  10237a:	ffed                	bnez	a5,102374 <ker2+0x20f4>
  10237c:	4651                	li	a2,20
  10237e:	6d100013          	li	zero,1745
  102382:	000c                	0xc
  102384:	8491                	srai	s1,s1,0x4
  102386:	a46e001b          	0xa46e001b
  10238a:	fff9                	bnez	a5,102368 <ker2+0x20e8>
  10238c:	7f04                	flw	fs1,56(a4)
  10238e:	0024                	addi	s1,sp,8
  102390:	001ec567          	0x1ec567
  102394:	05ba                	slli	a1,a1,0xe
  102396:	000c                	0xc
  102398:	6a61                	lui	s4,0x18
  10239a:	fffe                	fsw	ft11,252(sp)
  10239c:	0421                	addi	s0,s0,8
  10239e:	0015                	c.nop	5
  1023a0:	05e8                	addi	a0,sp,716
  1023a2:	ffe2                	fsw	fs8,252(sp)
  1023a4:	fc68                	fsw	fa0,124(s0)
  1023a6:	0018                	0x18
  1023a8:	45cd                	li	a1,19
  1023aa:	0030                	addi	a2,sp,8
  1023ac:	c0b2                	sw	a2,64(sp)
  1023ae:	ffe8                	fsw	fa0,124(a5)
  1023b0:	2f3d                	jal	102aee <ker2+0x286e>
  1023b2:	001a                	c.slli	zero,0x6
  1023b4:	ffe82647          	fmsub.q	fa2,fa6,ft10,ft11,rdn
  1023b8:	001691eb          	0x1691eb
  1023bc:	3026                	fld	ft0,104(sp)
  1023be:	001f b31c 000f      	0xfb31c001f
  1023c4:	4e9d                	li	t4,7
  1023c6:	0014                	0x14
  1023c8:	a57d                	j	102a76 <ker2+0x27f6>
  1023ca:	ffdf 0300 ffce      	0xffce0300ffdf
  1023d0:	a1f8                	fsd	fa4,192(a1)
  1023d2:	fffd                	bnez	a5,1023d0 <ker2+0x2150>
  1023d4:	a9b9                	j	102832 <ker2+0x25b2>
  1023d6:	000c                	0xc
  1023d8:	5704                	lw	s1,40(a4)
  1023da:	0030                	addi	a2,sp,8
  1023dc:	4665                	li	a2,25
  1023de:	ffee                	fsw	fs11,252(sp)
  1023e0:	ffe178bf fff35996 	0xfff35996ffe178bf
  1023e8:	1dd5                	addi	s11,s11,-11
  1023ea:	0002                	c.slli64	zero
  1023ec:	57e5                	li	a5,-7
  1023ee:	fff9                	bnez	a5,1023cc <ker2+0x214c>
  1023f0:	a962                	fsd	fs8,144(sp)
  1023f2:	fc9bffef          	jal	t6,c23ba <__BSS_END__+0x9e08e>
  1023f6:	fff4                	fsw	fa3,124(a5)
  1023f8:	0e06                	slli	t3,t3,0x1
  1023fa:	fffe                	fsw	ft11,252(sp)
  1023fc:	60c6                	flw	ft1,80(sp)
  1023fe:	b15a0013          	addi	zero,s4,-1259 # 17b15 <__stack_init+0x16e0d>
  102402:	fff8                	fsw	fa4,124(a5)
  102404:	fffa818f          	0xfffa818f
  102408:	1211                	addi	tp,tp,-28
  10240a:	fff2                	fsw	ft8,252(sp)
  10240c:	9748                	0x9748
  10240e:	ffe9                	bnez	a5,1023e8 <ker2+0x2168>
  102410:	acb1                	j	10266c <ker2+0x23ec>
  102412:	fffa                	fsw	ft10,252(sp)
  102414:	00047f7b          	0x47f7b
  102418:	6a92                	flw	fs5,4(sp)
  10241a:	001a                	c.slli	zero,0x6
  10241c:	0002b29b          	0x2b29b
  102420:	ffec6fcf          	fnmadd.q	ft11,fs8,ft10,ft11,unknown
  102424:	11d5                	addi	gp,gp,-11
  102426:	ffd8                	fsw	fa4,60(a5)
  102428:	6cf0                	flw	fa2,92(s1)
  10242a:	d61d0023          	sb	ra,-672(s10) # 13d60 <__stack_init+0x13058>
  10242e:	ffea                	fsw	fs10,252(sp)
  102430:	8cce                	mv	s9,s3
  102432:	ffec                	fsw	fa1,124(a5)
  102434:	2f96                	fld	ft11,320(sp)
  102436:	0001                	nop
  102438:	c6c5                	beqz	a3,1024e0 <ker2+0x2260>
  10243a:	ffdc                	fsw	fa5,60(a5)
  10243c:	a342                	fsd	fa6,384(sp)
  10243e:	fff9                	bnez	a5,10241c <ker2+0x219c>
  102440:	9a1f 0004 963f      	0x963f00049a1f
  102446:	0020                	addi	s0,sp,8
  102448:	2a8c                	fld	fa1,16(a3)
  10244a:	ffe4                	fsw	fs1,124(a5)
  10244c:	cdb5                	beqz	a1,1024c8 <ker2+0x2248>
  10244e:	ffff                	0xffff
  102450:	001c84bf fffad2a2 	0xfffad2a2001c84bf
  102458:	9676                	add	a2,a2,t4
  10245a:	0022                	c.slli	zero,0x8
  10245c:	0bc8                	addi	a0,sp,468
  10245e:	ffec                	fsw	fa1,124(a5)
  102460:	3f99                	jal	1023b6 <ker2+0x2136>
  102462:	0025                	c.nop	9
  102464:	5060                	lw	s0,100(s0)
  102466:	0004                	0x4
  102468:	aa20                	fsd	fs0,80(a2)
  10246a:	641d0013          	addi	zero,s10,1601
  10246e:	0008                	0x8
  102470:	000e6797          	auipc	a5,0xe6
  102474:	b345                	j	102214 <ker2+0x1f94>
  102476:	0014                	0x14
  102478:	19d2                	slli	s3,s3,0x34
  10247a:	ffc6                	fsw	fa7,252(sp)
  10247c:	b354                	fsd	fa3,160(a4)
  10247e:	d87a0017          	auipc	zero,0xd87a0
  102482:	000c                	0xc
  102484:	126a                	slli	tp,tp,0x3a
  102486:	001c                	0x1c
  102488:	621f fff2 2f4a      	0x2f4afff2621f
  10248e:	ffe0                	fsw	fs0,124(a5)
  102490:	8ad9                	andi	a3,a3,22
  102492:	801d0037          	lui	zero,0x801d0
  102496:	0028                	addi	a0,sp,8
  102498:	014d                	addi	sp,sp,19
  10249a:	002e                	c.slli	zero,0xb
  10249c:	000f0013          	mv	zero,t5
  1024a0:	00007a3b          	0x7a3b
  1024a4:	000e8763          	beqz	t4,1024b2 <ker2+0x2232>
  1024a8:	0016a1f7          	0x16a1f7
  1024ac:	f338                	fsw	fa4,96(a4)
  1024ae:	9b87ffef          	jal	t6,81666 <__BSS_END__+0x5d33a>
  1024b2:	fff9                	bnez	a5,102490 <ker2+0x2210>
  1024b4:	a95e                	fsd	fs7,144(sp)
  1024b6:	0019                	c.nop	6
  1024b8:	e9fa                	fsw	ft10,208(sp)
  1024ba:	59320003          	lb	zero,1427(tp) # 593 <layer2+0xa7>
  1024be:	fffe                	fsw	ft11,252(sp)
  1024c0:	fff18517          	auipc	a0,0xfff18
  1024c4:	066e                	slli	a2,a2,0x1b
  1024c6:	0002                	c.slli64	zero
  1024c8:	0b3e                	slli	s6,s6,0xf
  1024ca:	21c0ffe7          	0x21c0ffe7
  1024ce:	ffff                	0xffff
  1024d0:	8230                	0x8230
  1024d2:	0022                	c.slli	zero,0x8
  1024d4:	84a8                	0x84a8
  1024d6:	0000                	unimp
  1024d8:	cc5d                	beqz	s0,102596 <ker2+0x2316>
  1024da:	0006                	c.slli	zero,0x1
  1024dc:	e581                	bnez	a1,1024e4 <ker2+0x2264>
  1024de:	fffc                	fsw	fa5,124(a5)
  1024e0:	0013b5af          	0x13b5af
  1024e4:	a49f fff2 ce8e      	0xce8efff2a49f
  1024ea:	93d40007          	0x93d40007
  1024ee:	0025                	c.nop	9
  1024f0:	2b92                	fld	fs7,256(sp)
  1024f2:	ffe0                	fsw	fs0,124(a5)
  1024f4:	e3fe                	fsw	ft11,196(sp)
  1024f6:	ffe0                	fsw	fs0,124(a5)
  1024f8:	88a9                	andi	s1,s1,10
  1024fa:	d18cffe7          	0xd18cffe7
  1024fe:	ffee                	fsw	fs11,252(sp)
  102500:	045f ffe5 4a10      	0x4a10ffe5045f
  102506:	092f0013          	addi	zero,t5,146
  10250a:	ffe5                	bnez	a5,102502 <ker2+0x2282>
  10250c:	c064                	sw	s1,68(s0)
  10250e:	001a                	c.slli	zero,0x6
  102510:	e45a                	fsw	fs6,8(sp)
  102512:	0012                	c.slli	zero,0x4
  102514:	af76                	fsd	ft9,408(sp)
  102516:	ffbe                	fsw	fa5,252(sp)
  102518:	9f9c                	0x9f9c
  10251a:	ffc8                	fsw	fa0,60(a5)
  10251c:	5c52                	lw	s8,52(sp)
  10251e:	3f0ffff7          	0x3f0ffff7
  102522:	e4b1ffef          	jal	t6,2236c <expected_output+0x172c>
  102526:	0045                	c.nop	17
  102528:	b73c                	fsd	fa5,104(a4)
  10252a:	001f ad8a fffe      	0xfffead8a001f
  102530:	c31d                	beqz	a4,102556 <ker2+0x22d6>
  102532:	4a840027          	vssseg3e8.v	v0,(s0),s0
  102536:	fca2fff7          	0xfca2fff7
  10253a:	906bffcf          	fnmadd.s	ft11,fs7,ft6,fs2
  10253e:	000a                	c.slli	zero,0x2
  102540:	11ac                	addi	a1,sp,232
  102542:	0011                	c.nop	4
  102544:	3219                	jal	101e4a <ker2+0x1bca>
  102546:	ffdd                	bnez	a5,102504 <ker2+0x2284>
  102548:	6805                	lui	a6,0x1
  10254a:	1b60fff3          	csrrci	t6,0x1b6,1
  10254e:	5e7cfff7          	0x5e7cfff7
  102552:	fffa                	fsw	ft10,252(sp)
  102554:	4b78                	lw	a4,84(a4)
  102556:	ffe2                	fsw	fs8,252(sp)
  102558:	ffe8af13          	slti	t5,a7,-2
  10255c:	b99f 0007 ae7e      	0xae7e0007b99f
  102562:	0005                	c.nop	1
  102564:	9d20                	0x9d20
  102566:	001d                	c.nop	7
  102568:	90de                	add	ra,ra,s7
  10256a:	000e                	c.slli	zero,0x3
  10256c:	7194                	flw	fa3,32(a1)
  10256e:	ffd8                	fsw	fa4,60(a5)
  102570:	ffed36e3          	0xffed36e3
  102574:	fffeb717          	auipc	a4,0xfffeb
  102578:	fffe41fb          	0xfffe41fb
  10257c:	001f33f3          	csrrc	t2,fflags,t5
  102580:	9510                	0x9510
  102582:	ffd8                	fsw	fa4,60(a5)
  102584:	e87e                	fsw	ft11,16(sp)
  102586:	ffdd                	bnez	a5,102544 <ker2+0x22c4>
  102588:	cf7d                	beqz	a4,102686 <ker2+0x2406>
  10258a:	91adffd7          	0x91adffd7
  10258e:	ffe1                	bnez	a5,102566 <ker2+0x22e6>
  102590:	5169                	li	sp,-6
  102592:	9a96ffdb          	0x9a96ffdb
  102596:	ffee                	fsw	fs11,252(sp)
  102598:	4e48                	lw	a0,28(a2)
  10259a:	3f84fff7          	0x3f84fff7
  10259e:	0002                	c.slli64	zero
  1025a0:	871e                	mv	a4,t2
  1025a2:	96040043          	fmadd.q	ft0,fs0,ft0,fs2,rne
  1025a6:	5ca2ffdb          	0x5ca2ffdb
  1025aa:	0009                	c.nop	2
  1025ac:	ffcc6fc3          	fmadd.q	ft11,fs8,ft8,ft11,unknown
  1025b0:	333e                	fld	ft6,488(sp)
  1025b2:	266effc3          	fmadd.q	ft11,ft9,ft6,ft4
  1025b6:	ffe4                	fsw	fs1,124(a5)
  1025b8:	6992                	flw	fs3,4(sp)
  1025ba:	0004                	0x4
  1025bc:	9685                	srai	a3,a3,0x21
  1025be:	9aeb0003          	lb	zero,-1618(s6)
  1025c2:	fff2                	fsw	ft8,252(sp)
  1025c4:	fc36                	fsw	fa3,56(sp)
  1025c6:	002e                	c.slli	zero,0xb
  1025c8:	b956                	fsd	fs5,176(sp)
  1025ca:	a4820037          	lui	zero,0xa4820
  1025ce:	0020                	addi	s0,sp,8
  1025d0:	83f0                	0x83f0
  1025d2:	002e                	c.slli	zero,0xb
  1025d4:	c8e0                	sw	s0,84(s1)
  1025d6:	892f0003          	lb	zero,-1902(t5)
  1025da:	2af30013          	addi	zero,t1,687
  1025de:	fff6                	fsw	ft9,252(sp)
  1025e0:	f449                	bnez	s0,10256a <ker2+0x22ea>
  1025e2:	0010                	0x10
  1025e4:	a0d8                	fsd	fa4,128(s1)
  1025e6:	ffce                	fsw	fs3,252(sp)
  1025e8:	d931                	beqz	a0,10253c <ker2+0x22bc>
  1025ea:	0006                	c.slli	zero,0x1
  1025ec:	6181                	0x6181
  1025ee:	ffe2                	fsw	fs8,252(sp)
  1025f0:	e426                	fsw	fs1,8(sp)
  1025f2:	fc440003          	lb	zero,-60(s0)
  1025f6:	002c                	addi	a1,sp,8
  1025f8:	6198                	flw	fa4,0(a1)
  1025fa:	39e7ffef          	jal	t6,181998 <__VREG_END+0x1998>
  1025fe:	fff9                	bnez	a5,1025dc <ker2+0x235c>
  102600:	003c25eb          	0x3c25eb
  102604:	aed6                	fsd	fs5,344(sp)
  102606:	002a                	c.slli	zero,0xa
  102608:	38f6                	fld	fa7,376(sp)
  10260a:	ffed                	bnez	a5,102604 <ker2+0x2384>
  10260c:	cc95                	beqz	s1,102648 <ker2+0x23c8>
  10260e:	000e                	c.slli	zero,0x3
  102610:	ffecf937          	lui	s2,0xffecf
  102614:	ffdfd047          	fmsub.q	ft0,ft11,ft9,ft11,unknown
  102618:	2706                	fld	fa4,64(sp)
  10261a:	ffd6                	fsw	fs5,252(sp)
  10261c:	0189                	addi	gp,gp,2
  10261e:	ffe4                	fsw	fs1,124(a5)
  102620:	73ec                	flw	fa1,100(a5)
  102622:	ffed                	bnez	a5,10261c <ker2+0x239c>
  102624:	ffeca66b          	0xffeca66b
  102628:	14b9                	addi	s1,s1,-18
  10262a:	0054                	addi	a3,sp,4
  10262c:	3a0e                	fld	fs4,224(sp)
  10262e:	000e                	c.slli	zero,0x3
  102630:	a5b0                	fsd	fa2,72(a1)
  102632:	ffda                	fsw	fs6,252(sp)
  102634:	ffff50cf          	fnmadd.q	ft1,ft10,ft11,ft11,unknown
  102638:	39b9                	jal	102296 <ker2+0x2016>
  10263a:	ffe8                	fsw	fa0,124(a5)
  10263c:	78e6                	flw	fa7,120(sp)
  10263e:	c7370007          	vluxseg7ei8.v	v0,(a4),v19
  102642:	ffe1                	bnez	a5,10261a <ker2+0x239a>
  102644:	34f1                	jal	102110 <ker2+0x1e90>
  102646:	ef6e0013          	addi	zero,t3,-266
  10264a:	6e5bffcf          	fnmadd.q	ft11,fs7,ft5,fa3
  10264e:	0025                	c.nop	9
  102650:	c091                	beqz	s1,102654 <ker2+0x23d4>
  102652:	0021                	c.nop	8
  102654:	969a                	add	a3,a3,t1
  102656:	ffe1                	bnez	a5,10262e <ker2+0x23ae>
  102658:	ffe24893          	xori	a7,tp,-2
  10265c:	f4b9                	bnez	s1,1025aa <ker2+0x232a>
  10265e:	fff1                	bnez	a5,10263a <ker2+0x23ba>
  102660:	a9d8                	fsd	fa4,144(a1)
  102662:	fff9                	bnez	a5,102640 <ker2+0x23c0>
  102664:	477a                	lw	a4,156(sp)
  102666:	0038                	addi	a4,sp,8
  102668:	9c89                	0x9c89
  10266a:	fff1                	bnez	a5,102646 <ker2+0x23c6>
  10266c:	ffc51053          	0xffc51053
  102670:	2add                	jal	102866 <ker2+0x25e6>
  102672:	179d000f          	0x179d000f
  102676:	fffa                	fsw	ft10,252(sp)
  102678:	7474                	flw	fa3,108(s0)
  10267a:	e19b0017          	auipc	zero,0xe19b0
  10267e:	0026                	c.slli	zero,0x9
  102680:	dae5                	beqz	a3,102670 <ker2+0x23f0>
  102682:	ffe9                	bnez	a5,10265c <ker2+0x23dc>
  102684:	31d5                	jal	102368 <ker2+0x20e8>
  102686:	ffca                	fsw	fs2,252(sp)
  102688:	b6a0                	fsd	fs0,104(a3)
  10268a:	0025                	c.nop	9
  10268c:	d2fe                	sw	t6,100(sp)
  10268e:	000a                	c.slli	zero,0x2
  102690:	4b00                	lw	s0,16(a4)
  102692:	ffe8                	fsw	fa0,124(a5)
  102694:	c0b1                	beqz	s1,1026d8 <ker2+0x2458>
  102696:	002d                	c.nop	11
  102698:	004bd947          	fmsub.s	fs2,fs7,ft4,ft0,unknown
  10269c:	ffec613f fffa482d 	0xfffa482dffec613f
  1026a4:	06f2                	slli	a3,a3,0x1c
  1026a6:	ffd9                	bnez	a5,102644 <ker2+0x23c4>
  1026a8:	ffd356cf          	fnmadd.q	fa3,ft6,ft9,ft11,unknown
  1026ac:	94b6                	add	s1,s1,a3
  1026ae:	badaffe3          	bgeu	s5,a3,10226c <ker2+0x1fec>
  1026b2:	0018                	0x18
  1026b4:	099e                	slli	s3,s3,0x7
  1026b6:	2a76004b          	fnmsub.d	ft0,fa2,ft7,ft5,rne
  1026ba:	0020                	addi	s0,sp,8
  1026bc:	ffe54b53          	0xffe54b53
  1026c0:	0e79                	addi	t3,t3,30
  1026c2:	ffd6                	fsw	fs5,252(sp)
  1026c4:	00360adb          	0x360adb
  1026c8:	a80d                	j	1026fa <ker2+0x247a>
  1026ca:	0039                	c.nop	14
  1026cc:	97e9                	srai	a5,a5,0x3a
  1026ce:	ffe6                	fsw	fs9,252(sp)
  1026d0:	ffc0cb13          	xori	s6,ra,-4
  1026d4:	00317bf3          	csrrci	s7,fcsr,2
  1026d8:	a1b4                	fsd	fa3,64(a1)
  1026da:	d81e0003          	lb	zero,-639(t3)
  1026de:	0036                	c.slli	zero,0xd
  1026e0:	ecd4                	fsw	fa3,28(s1)
  1026e2:	000c                	0xc
  1026e4:	00ce                	slli	ra,ra,0x13
  1026e6:	fff1                	bnez	a5,1026c2 <ker2+0x2442>
  1026e8:	1b81                	addi	s7,s7,-32
  1026ea:	cf92ffe3          	bgeu	t0,s9,1023e8 <ker2+0x2168>
  1026ee:	ffd1                	bnez	a5,10268a <ker2+0x240a>
  1026f0:	d708                	sw	a0,40(a4)
  1026f2:	ffd2                	fsw	fs4,252(sp)
  1026f4:	838a                	mv	t2,sp
  1026f6:	2dfeffe3          	bgeu	t4,t6,1031d4 <ker2+0x2f54>
  1026fa:	ffd2                	fsw	fs4,252(sp)
  1026fc:	8412                	mv	s0,tp
  1026fe:	ffbc                	fsw	fa5,120(a5)
  102700:	f085                	bnez	s1,102620 <ker2+0x23a0>
  102702:	fff6                	fsw	ft9,252(sp)
  102704:	00104a43          	fmadd.s	fs4,ft0,ft1,ft0,rmm
  102708:	0018e2db          	0x18e2db
  10270c:	0019796f          	jal	s2,199f0c <__VREG_END+0x19f0c>
  102710:	000ce52b          	0xce52b
  102714:	00146473          	csrrsi	s0,fflags,8
  102718:	10e1                	addi	ra,ra,-8
  10271a:	09910023          	sb	s9,128(sp)
  10271e:	0010                	0x10
  102720:	00037803          	0x37803
  102724:	cc82                	sw	zero,88(sp)
  102726:	ffff                	0xffff
  102728:	3dc1                	jal	1025f8 <ker2+0x2378>
  10272a:	0009                	c.nop	2
  10272c:	0bb9                	addi	s7,s7,14
  10272e:	0016                	c.slli	zero,0x5
  102730:	c031                	beqz	s0,102774 <ker2+0x24f4>
  102732:	0004                	0x4
  102734:	e51f 0006 abcf      	0xabcf0006e51f
  10273a:	bf63000f          	0xbf63000f
  10273e:	000a                	c.slli	zero,0x2
  102740:	88b1                	andi	s1,s1,12
  102742:	01580017          	auipc	zero,0x1580
  102746:	1e08ffeb          	0x1e08ffeb
  10274a:	ffdd                	bnez	a5,102708 <ker2+0x2488>
  10274c:	2f8d                	jal	102ebe <ker2+0x2c3e>
  10274e:	fff9                	bnez	a5,10272c <ker2+0x24ac>
  102750:	ea46                	fsw	fa7,20(sp)
  102752:	deadffd7          	vsetivli	t6,27,e256,m4,ta,ma
  102756:	fffc                	fsw	fa5,124(a5)
  102758:	004443a3          	0x4443a3
  10275c:	fff6474b          	fnmsub.q	fa4,fa2,ft11,ft11,rmm
  102760:	9a81                	andi	a3,a3,-32
  102762:	ffea                	fsw	fs10,252(sp)
  102764:	c209                	beqz	a2,102766 <ker2+0x24e6>
  102766:	fff9                	bnez	a5,102744 <ker2+0x24c4>
  102768:	3039                	jal	101f76 <ker2+0x1cf6>
  10276a:	0020                	addi	s0,sp,8
  10276c:	4c8e                	lw	s9,192(sp)
  10276e:	000e                	c.slli	zero,0x3
  102770:	d654                	sw	a3,44(a2)
  102772:	ffdd                	bnez	a5,102730 <ker2+0x24b0>
  102774:	df40                	sw	s0,60(a4)
  102776:	fff0                	fsw	fa2,124(a5)
  102778:	5854                	lw	a3,52(s0)
  10277a:	8db6ffe7          	0x8db6ffe7
  10277e:	0006                	c.slli	zero,0x1
  102780:	3e1c                	fld	fa5,56(a2)
  102782:	500c002b          	0x500c002b
  102786:	0002                	c.slli64	zero
  102788:	fffc4507          	flq	fa0,-1(s8) # ffff5fff <__VREG_END+0xffe75fff>
  10278c:	3a58                	fld	fa4,176(a2)
  10278e:	0002                	c.slli64	zero
  102790:	1281                	addi	t0,t0,-32
  102792:	fff9                	bnez	a5,102770 <ker2+0x24f0>
  102794:	3e5e                	fld	ft8,496(sp)
  102796:	66370013          	addi	zero,a4,1635 # edbd7 <__BSS_END__+0xc98ab>
  10279a:	0011                	c.nop	4
  10279c:	00032bfb          	0x32bfb
  1027a0:	7ba6                	flw	fs7,104(sp)
  1027a2:	ffe4                	fsw	fs1,124(a5)
  1027a4:	a802                	fsd	ft0,16(sp)
  1027a6:	ffdd                	bnez	a5,102764 <ker2+0x24e4>
  1027a8:	c8c6                	sw	a7,80(sp)
  1027aa:	002c                	addi	a1,sp,8
  1027ac:	0011b9cb          	fnmsub.s	fs3,ft3,ft1,ft0,rup
  1027b0:	5e28                	lw	a0,120(a2)
  1027b2:	0011                	c.nop	4
  1027b4:	3a5d                	jal	10216a <ker2+0x1eea>
  1027b6:	0008                	0x8
  1027b8:	b645                	j	102358 <ker2+0x20d8>
  1027ba:	0001                	nop
  1027bc:	61d5                	lui	gp,0x15
  1027be:	2baf001b          	0x2baf001b
  1027c2:	0001                	nop
  1027c4:	d2e0                	sw	s0,100(a3)
  1027c6:	ffe8                	fsw	fa0,124(a5)
  1027c8:	de28                	sw	a0,120(a2)
  1027ca:	edfaffcf          	fnmadd.h	ft11,fs5,ft11,ft9
  1027ce:	0005                	c.nop	1
  1027d0:	2416                	fld	fs0,320(sp)
  1027d2:	0018                	0x18
  1027d4:	aea8                	fsd	fa0,88(a3)
  1027d6:	6723ffeb          	0x6723ffeb
  1027da:	0016                	c.slli	zero,0x5
  1027dc:	da5a                	sw	s6,52(sp)
  1027de:	fff9                	bnez	a5,1027bc <ker2+0x253c>
  1027e0:	f8c5                	bnez	s1,102790 <ker2+0x2510>
  1027e2:	fff6                	fsw	ft9,252(sp)
  1027e4:	001714a7          	fsh	ft1,9(a4)
  1027e8:	0061                	c.nop	24
  1027ea:	63ca001b          	0x63ca001b
  1027ee:	ffde                	fsw	fs7,252(sp)
  1027f0:	630d                	lui	t1,0x3
  1027f2:	fe2affeb          	0xfe2affeb
  1027f6:	a984fff7          	0xa984fff7
  1027fa:	ffc0                	fsw	fs0,60(a5)
  1027fc:	e169                	bnez	a0,1028be <ker2+0x263e>
  1027fe:	e193fffb          	0xe193fffb
  102802:	3cd7001b          	0x3cd7001b
  102806:	0014                	0x14
  102808:	484d                	li	a6,19
  10280a:	000c                	0xc
  10280c:	1441                	addi	s0,s0,-16
  10280e:	0011                	c.nop	4
  102810:	fb8c                	fsw	fa1,48(a5)
  102812:	fffd                	bnez	a5,102810 <ker2+0x2590>
  102814:	75a0                	flw	fs0,104(a1)
  102816:	ffff                	0xffff
  102818:	2404                	fld	fs1,8(s0)
  10281a:	001a                	c.slli	zero,0x6
  10281c:	8246                	mv	tp,a7
  10281e:	0000                	unimp
  102820:	0c4a                	slli	s8,s8,0x12
  102822:	0034                	addi	a3,sp,8
  102824:	8fa2                	mv	t6,s0
  102826:	0b9f001b          	0xb9f001b
  10282a:	0012                	c.slli	zero,0x4
  10282c:	17ec                	addi	a1,sp,1004
  10282e:	1035fff7          	0x1035fff7
  102832:	81deffe7          	0x81deffe7
  102836:	ffe9                	bnez	a5,102810 <ker2+0x2590>
  102838:	dd7d                	beqz	a0,102836 <ker2+0x25b6>
  10283a:	ffe0                	fsw	fs0,124(a5)
  10283c:	000f6acb          	fnmsub.s	fs5,ft10,ft0,ft0,unknown
  102840:	6ca4                	flw	fs1,88(s1)
  102842:	000c                	0xc
  102844:	c46c                	sw	a1,76(s0)
  102846:	002e                	c.slli	zero,0xb
  102848:	c0f9                	beqz	s1,10290e <ker2+0x268e>
  10284a:	fff8                	fsw	fa4,124(a5)
  10284c:	6679                	lui	a2,0x1e
  10284e:	fffa                	fsw	ft10,252(sp)
  102850:	b351                	j	1025d4 <ker2+0x2354>
  102852:	0018                	0x18
  102854:	8772                	mv	a4,t3
  102856:	5d62000b          	0x5d62000b
  10285a:	2f38fff7          	0x2f38fff7
  10285e:	b59dffab          	0xb59dffab
  102862:	0021                	c.nop	8
  102864:	9b0c                	0x9b0c
  102866:	9166ffcf          	fnmadd.s	ft11,fa3,fs6,fs2
  10286a:	fff2                	fsw	ft8,252(sp)
  10286c:	fd5f 0016 bee7      	0xbee70016fd5f
  102872:	64fc001b          	0x64fc001b
  102876:	001a                	c.slli	zero,0x6
  102878:	faca                	fsw	fs2,116(sp)
  10287a:	ffe4                	fsw	fs1,124(a5)
  10287c:	5328                	lw	a0,96(a4)
  10287e:	fff2                	fsw	ft8,252(sp)
  102880:	000e60ef          	jal	ra,1e8880 <__VREG_END+0x68880>
  102884:	5c45                	li	s8,-15
  102886:	0002                	c.slli64	zero
  102888:	e731                	bnez	a4,1028d4 <ker2+0x2654>
  10288a:	001e                	c.slli	zero,0x7
  10288c:	ffed5ef3          	csrrwi	t4,0xffe,26
  102890:	d64e                	sw	s3,44(sp)
  102892:	0016                	c.slli	zero,0x5
  102894:	b4f4                	fsd	fa3,232(s1)
  102896:	0001                	nop
  102898:	6bcd                	lui	s7,0x13
  10289a:	d5d0ffef          	jal	t6,125f6 <__stack_init+0x118ee>
  10289e:	ffea                	fsw	fs10,252(sp)
  1028a0:	fffbdf5b          	0xfffbdf5b
  1028a4:	9a96                	add	s5,s5,t0
  1028a6:	ffdd                	bnez	a5,102864 <ker2+0x25e4>
  1028a8:	e2ba                	fsw	fa4,68(sp)
  1028aa:	0014                	0x14
  1028ac:	bf85                	j	10281c <ker2+0x259c>
  1028ae:	09120003          	lb	zero,145(tp) # 91 <main+0x91>
  1028b2:	001d                	c.nop	7
  1028b4:	a796                	fsd	ft5,456(sp)
  1028b6:	fffd                	bnez	a5,1028b4 <ker2+0x2634>
  1028b8:	4aa4                	lw	s1,80(a3)
  1028ba:	2b2f0013          	addi	zero,t5,690
  1028be:	001e                	c.slli	zero,0x7
  1028c0:	7f48                	flw	fa0,60(a4)
  1028c2:	0000                	unimp
  1028c4:	dc0e                	sw	gp,56(sp)
  1028c6:	ffed                	bnez	a5,1028c0 <ker2+0x2640>
  1028c8:	0ea2                	slli	t4,t4,0x8
  1028ca:	aa06ffeb          	0xaa06ffeb
  1028ce:	ffed                	bnez	a5,1028c8 <ker2+0x2648>
  1028d0:	c299                	beqz	a3,1028d6 <ker2+0x2656>
  1028d2:	fff9                	bnez	a5,1028b0 <ker2+0x2630>
  1028d4:	d74c                	sw	a1,44(a4)
  1028d6:	ffff                	0xffff
  1028d8:	165a                	slli	a2,a2,0x36
  1028da:	fffe                	fsw	ft11,252(sp)
  1028dc:	ad1f fff9 85e2      	0x85e2fff9ad1f
  1028e2:	001c                	0x1c
  1028e4:	0304                	addi	s1,sp,384
  1028e6:	ffe2                	fsw	fs8,252(sp)
  1028e8:	a49e                	fsd	ft7,72(sp)
  1028ea:	000c                	0xc
  1028ec:	caf8                	sw	a4,84(a3)
  1028ee:	fff8                	fsw	fa4,124(a5)
  1028f0:	000b84b3          	add	s1,s7,zero
  1028f4:	0280                	addi	s0,sp,320
  1028f6:	fffe                	fsw	ft11,252(sp)
  1028f8:	ba81                	j	102248 <ker2+0x1fc8>
  1028fa:	ffd1                	bnez	a5,102896 <ker2+0x2616>
  1028fc:	fffdaa9b          	0xfffdaa9b
  102900:	3bc8                	fld	fa0,176(a5)
  102902:	4c77ffcb          	fnmsub.h	ft11,fa5,ft7,fs1
  102906:	fff4                	fsw	fa3,124(a5)
  102908:	0015059b          	0x15059b
  10290c:	437e                	lw	t1,220(sp)
  10290e:	0002                	c.slli64	zero
  102910:	000f2757          	vredsum.vs	v14,v0,v30,v0.t
  102914:	003deadb          	0x3deadb
  102918:	aca6                	fsd	fs1,88(sp)
  10291a:	cd02004b          	fnmsub.h	ft0,ft4,fa6,fs9,rne
  10291e:	ffd9                	bnez	a5,1028bc <ker2+0x263c>
  102920:	49be                	lw	s3,204(sp)
  102922:	ae33ffc7          	fmsub.q	ft11,ft7,ft3,fs5
  102926:	fffc                	fsw	fa5,124(a5)
  102928:	344d                	jal	1023ca <ker2+0x214a>
  10292a:	fff1                	bnez	a5,102906 <ker2+0x2686>
  10292c:	e45c                	fsw	fa5,12(s0)
  10292e:	fff1                	bnez	a5,10290a <ker2+0x268a>
  102930:	d665                	beqz	a2,102918 <ker2+0x2698>
  102932:	ffff                	0xffff
  102934:	aca2                	fsd	fs0,88(sp)
  102936:	002e                	c.slli	zero,0xb
  102938:	2fba                	fld	ft11,392(sp)
  10293a:	0049                	c.nop	18
  10293c:	89b8                	0x89b8
  10293e:	b0eefff3          	csrrci	t6,mhpmcounter14,29
  102942:	6bf7ffcb          	fnmsub.d	ft11,fa5,ft11,fa3
  102946:	002e                	c.slli	zero,0xb
  102948:	00249a67          	0x249a67
  10294c:	a8fc                	fsd	fa5,208(s1)
  10294e:	001e                	c.slli	zero,0x7
  102950:	793c                	flw	fa5,112(a0)
  102952:	e22cffef          	jal	t6,d1f74 <__BSS_END__+0xadc48>
  102956:	002e                	c.slli	zero,0xb
  102958:	9b3a                	add	s6,s6,a4
  10295a:	fff5                	bnez	a5,102956 <ker2+0x26d6>
  10295c:	6009                	c.lui	zero,0x2
  10295e:	0020                	addi	s0,sp,8
  102960:	001d3acf          	fnmadd.s	fs5,fs10,ft1,ft0,rup
  102964:	0ff4                	addi	a3,sp,988
  102966:	976ffff3          	csrrci	t6,0x976,31
  10296a:	0011                	c.nop	4
  10296c:	9aa4                	0x9aa4
  10296e:	ffda                	fsw	fs6,252(sp)
  102970:	1031                	c.nop	-20
  102972:	4b03ffc7          	fmsub.d	ft11,ft7,fa6,fs1
  102976:	000c                	0xc
  102978:	d568                	sw	a0,108(a0)
  10297a:	c261fff7          	0xc261fff7
  10297e:	ffbe                	fsw	fa5,252(sp)
  102980:	38a2                	fld	fa7,40(sp)
  102982:	0167fff3          	csrrci	t6,0x16,15
  102986:	0009                	c.nop	2
  102988:	7860                	flw	fs0,116(s0)
  10298a:	0022                	c.slli	zero,0x8
  10298c:	ffe5a4d3          	0xffe5a4d3
  102990:	9f35                	0x9f35
  102992:	0018                	0x18
  102994:	3c22                	fld	fs8,40(sp)
  102996:	0032                	c.slli	zero,0xc
  102998:	036a                	slli	t1,t1,0x1a
  10299a:	002e                	c.slli	zero,0xb
  10299c:	90de                	add	ra,ra,s7
  10299e:	f199fff3          	csrrci	t6,0xf19,19
  1029a2:	ffed                	bnez	a5,10299c <ker2+0x271c>
  1029a4:	00091523          	sh	zero,10(s2) # ffecf00a <__VREG_END+0xffd4f00a>
  1029a8:	3cce                	fld	fs9,240(sp)
  1029aa:	fffe                	fsw	ft11,252(sp)
  1029ac:	5c8d                	li	s9,-29
  1029ae:	000e                	c.slli	zero,0x3
  1029b0:	b810                	fsd	fa2,48(s0)
  1029b2:	0001                	nop
  1029b4:	f055                	bnez	s0,102958 <ker2+0x26d8>
  1029b6:	002e                	c.slli	zero,0xb
  1029b8:	5d4d                	li	s10,-13
  1029ba:	87d7002b          	0x87d7002b
  1029be:	cbb0ffe3          	bgeu	ra,s11,10267c <ker2+0x23fc>
  1029c2:	000c                	0xc
  1029c4:	a8d4                	fsd	fa3,144(s1)
  1029c6:	001f e8de ffd8      	0xffd8e8de001f
  1029cc:	a77f                	0xa77f
  1029ce:	000a                	c.slli	zero,0x2
  1029d0:	21f4                	fld	fa3,192(a1)
  1029d2:	0010                	0x10
  1029d4:	1ce1                	addi	s9,s9,-8
  1029d6:	0000                	unimp
  1029d8:	e001                	bnez	s0,1029d8 <ker2+0x2758>
  1029da:	fffc                	fsw	fa5,124(a5)
  1029dc:	d4b2                	sw	a2,104(sp)
  1029de:	000e                	c.slli	zero,0x3
  1029e0:	1f38                	addi	a4,sp,952
  1029e2:	0015                	c.nop	5
  1029e4:	fffea00b          	0xfffea00b
  1029e8:	a8f4                	fsd	fa3,208(s1)
  1029ea:	ffe4                	fsw	fs1,124(a5)
  1029ec:	d4ce                	sw	s3,104(sp)
  1029ee:	f8910013          	addi	zero,sp,-119
  1029f2:	fff1                	bnez	a5,1029ce <ker2+0x274e>
  1029f4:	3c20                	fld	fs0,120(s0)
  1029f6:	002e                	c.slli	zero,0xb
  1029f8:	fffad643          	fmadd.q	fa2,fs5,ft11,ft11,unknown
  1029fc:	869d                	srai	a3,a3,0x7
  1029fe:	eacdffe3          	bgeu	s11,a2,1028bc <ker2+0x263c>
  102a02:	157bffeb          	0x157bffeb
  102a06:	fff2                	fsw	ft8,252(sp)
  102a08:	82e9                	srli	a3,a3,0x1a
  102a0a:	511b000b          	0x511b000b
  102a0e:	001e                	c.slli	zero,0x7
  102a10:	a529                	j	10301a <ker2+0x2d9a>
  102a12:	0000                	unimp
  102a14:	ca8c                	sw	a1,16(a3)
  102a16:	001e                	c.slli	zero,0x7
  102a18:	4730                	lw	a2,72(a4)
  102a1a:	0045                	c.nop	17
  102a1c:	ffcfa6bf fffa0a1f 	0xfffa0a1fffcfa6bf
  102a24:	f476                	fsw	ft9,40(sp)
  102a26:	0022                	c.slli	zero,0x8
  102a28:	110c                	addi	a1,sp,160
  102a2a:	ffcc                	fsw	fa1,60(a5)
  102a2c:	7d94                	flw	fa3,56(a1)
  102a2e:	7faaffe7          	0x7faaffe7
  102a32:	0026                	c.slli	zero,0x9
  102a34:	47e0                	lw	s0,76(a5)
  102a36:	0039                	c.nop	14
  102a38:	cf8c                	sw	a1,24(a5)
  102a3a:	002c                	addi	a1,sp,8
  102a3c:	4ba1                	li	s7,8
  102a3e:	4880ffeb          	0x4880ffeb
  102a42:	3979001b          	0x3979001b
  102a46:	fff9                	bnez	a5,102a24 <ker2+0x27a4>
  102a48:	3d98                	fld	fa4,56(a1)
  102a4a:	0025                	c.nop	9
  102a4c:	012a                	slli	sp,sp,0xa
  102a4e:	fffc                	fsw	fa5,124(a5)
  102a50:	ffcba677          	0xffcba677
  102a54:	0027c3f3          	0x27c3f3
  102a58:	576d                	li	a4,-5
  102a5a:	a5ee0013          	addi	zero,t3,-1442
  102a5e:	0029                	c.nop	10
  102a60:	9dc1                	0x9dc1
  102a62:	1e320003          	lb	zero,483(tp) # 1e3 <trap_entry+0x2f>
  102a66:	ffe9                	bnez	a5,102a40 <ker2+0x27c0>
  102a68:	53bd                	li	t2,-17
  102a6a:	970c0007          	0x970c0007
  102a6e:	8feafffb          	0x8feafffb
  102a72:	fff0                	fsw	fa2,124(a5)
  102a74:	0cff                	0xcff
  102a76:	fff1                	bnez	a5,102a52 <ker2+0x27d2>
  102a78:	33d9                	jal	10283e <ker2+0x25be>
  102a7a:	ffe4                	fsw	fs1,124(a5)
  102a7c:	ffb95d3b          	0xffb95d3b
  102a80:	7fc0                	flw	fs0,60(a5)
  102a82:	6bd3001b          	0x6bd3001b
  102a86:	0000                	unimp
  102a88:	ffbdb677          	0xffbdb677
  102a8c:	c6a6                	sw	s1,76(sp)
  102a8e:	0000                	unimp
  102a90:	7a05                	lui	s4,0xfffe1
  102a92:	000e                	c.slli	zero,0x3
  102a94:	29b0                	fld	fa2,80(a1)
  102a96:	001d                	c.nop	7
  102a98:	2e92                	fld	ft9,256(sp)
  102a9a:	0032                	c.slli	zero,0xc
  102a9c:	3052                	fld	ft0,304(sp)
  102a9e:	fffe                	fsw	ft11,252(sp)
  102aa0:	002603bb          	0x2603bb
  102aa4:	60c4                	flw	fs1,4(s1)
  102aa6:	0025                	c.nop	9
  102aa8:	0fa6                	slli	t6,t6,0x9
  102aaa:	ca94ffd3          	0xca94ffd3
  102aae:	ffed                	bnez	a5,102aa8 <ker2+0x2828>
  102ab0:	457d                	li	a0,31
  102ab2:	3db6fffb          	0x3db6fffb
  102ab6:	ffc1                	bnez	a5,102a4e <ker2+0x27ce>
  102ab8:	50ba                	lw	ra,172(sp)
  102aba:	ffb4                	fsw	fa3,120(a5)
  102abc:	4e69                	li	t3,26
  102abe:	ffc6                	fsw	fa7,252(sp)
  102ac0:	b744                	fsd	fs1,168(a4)
  102ac2:	0014                	0x14
  102ac4:	75d4                	flw	fa3,44(a1)
  102ac6:	f4820017          	auipc	zero,0xf4820
  102aca:	ffe9                	bnez	a5,102aa4 <ker2+0x2824>
  102acc:	ca96                	sw	t0,84(sp)
  102ace:	fff8                	fsw	fa4,124(a5)
  102ad0:	7981                	lui	s3,0xfffe0
  102ad2:	ffed                	bnez	a5,102acc <ker2+0x284c>
  102ad4:	e22a                	fsw	fa0,4(sp)
  102ad6:	fff2                	fsw	ft8,252(sp)
  102ad8:	21dd                	jal	102fbe <ker2+0x2d3e>
  102ada:	004a                	c.slli	zero,0x12
  102adc:	fffc3163          	0xfffc3163
  102ae0:	2c50                	fld	fa2,152(s0)
  102ae2:	ffb4                	fsw	fa3,120(a5)
  102ae4:	9551                	srai	a0,a0,0x34
  102ae6:	ffe6                	fsw	fs9,252(sp)
  102ae8:	f81f ffe8 bb05      	0xbb05ffe8f81f
  102aee:	1208fff3          	csrrci	t6,0x120,17
  102af2:	001a                	c.slli	zero,0x6
  102af4:	bcd0                	fsd	fa2,184(s1)
  102af6:	ffff                	0xffff
  102af8:	411f ffc7 585a      	0x585affc7411f
  102afe:	ffdf 042d ffed      	0xffed042dffdf
  102b04:	8958                	0x8958
  102b06:	ffec                	fsw	fa1,124(a5)
  102b08:	c490                	sw	a2,8(s1)
  102b0a:	ffd5                	bnez	a5,102ac6 <ker2+0x2846>
  102b0c:	d2b8                	sw	a4,96(a3)
  102b0e:	001c                	0x1c
  102b10:	2ebd                	jal	102e8e <ker2+0x2c0e>
  102b12:	cad3003b          	0xcad3003b
  102b16:	ffed                	bnez	a5,102b10 <ker2+0x2890>
  102b18:	2e9d                	jal	102e8e <ker2+0x2c0e>
  102b1a:	ffe5                	bnez	a5,102b12 <ker2+0x2892>
  102b1c:	0013ed1b          	0x13ed1b
  102b20:	4689                	li	a3,2
  102b22:	0011                	c.nop	4
  102b24:	d55a                	sw	s6,168(sp)
  102b26:	0019                	c.nop	6
  102b28:	00076607          	vle32.v	v12,(a4),v0.t
  102b2c:	89e9                	andi	a1,a1,26
  102b2e:	19e00013          	li	zero,414
  102b32:	0038                	addi	a4,sp,8
  102b34:	c790                	sw	a2,8(a5)
  102b36:	fff1                	bnez	a5,102b12 <ker2+0x2892>
  102b38:	8d24                	0x8d24
  102b3a:	ffe8                	fsw	fa0,124(a5)
  102b3c:	000a57b3          	srl	a5,s4,zero
  102b40:	bf01                	j	102a50 <ker2+0x27d0>
  102b42:	ffdf 8ba8 000b      	0xb8ba8ffdf
  102b48:	04bc                	addi	a5,sp,584
  102b4a:	fff4                	fsw	fa3,124(a5)
  102b4c:	0a6a                	slli	s4,s4,0x1a
  102b4e:	002a                	c.slli	zero,0xa
  102b50:	be08                	fsd	fa0,56(a2)
  102b52:	001a                	c.slli	zero,0x6
  102b54:	5859                	li	a6,-10
  102b56:	fffa                	fsw	ft10,252(sp)
  102b58:	1431                	addi	s0,s0,-20
  102b5a:	ffd9                	bnez	a5,102af8 <ker2+0x2878>
  102b5c:	b37a                	fsd	ft10,416(sp)
  102b5e:	ffe8                	fsw	fa0,124(a5)
  102b60:	ffd8c65b          	0xffd8c65b
  102b64:	90f6                	add	ra,ra,t4
  102b66:	001a                	c.slli	zero,0x6
  102b68:	0375                	addi	t1,t1,29
  102b6a:	0c420003          	lb	zero,196(tp) # c4 <boot+0x4>
  102b6e:	0004                	0x4
  102b70:	b750                	fsd	fa2,168(a4)
  102b72:	0011                	c.nop	4
  102b74:	ffdb6c13          	ori	s8,s6,-3
  102b78:	7cce                	flw	fs9,240(sp)
  102b7a:	0031                	c.nop	12
  102b7c:	ba45                	j	10252c <ker2+0x22ac>
  102b7e:	003d                	c.nop	15
  102b80:	1a0d                	addi	s4,s4,-29
  102b82:	fff0                	fsw	fa2,124(a5)
  102b84:	8295                	srli	a3,a3,0x5
  102b86:	0004                	0x4
  102b88:	000a34ab          	0xa34ab
  102b8c:	b6ed                	j	102776 <ker2+0x24f6>
  102b8e:	000c                	0xc
  102b90:	145c                	addi	a5,sp,548
  102b92:	002c                	addi	a1,sp,8
  102b94:	5559                	li	a0,-10
  102b96:	fff9                	bnez	a5,102b74 <ker2+0x28f4>
  102b98:	5e96                	lw	t4,100(sp)
  102b9a:	ffd8                	fsw	fa4,60(a5)
  102b9c:	b229                	j	1024a6 <ker2+0x2226>
  102b9e:	fffe                	fsw	ft11,252(sp)
  102ba0:	3f80                	fld	fs0,56(a5)
  102ba2:	001e                	c.slli	zero,0x7
  102ba4:	e744                	fsw	fs1,12(a4)
  102ba6:	0038                	addi	a4,sp,8
  102ba8:	4074                	lw	a3,68(s0)
  102baa:	ffed                	bnez	a5,102ba4 <ker2+0x2924>
  102bac:	002a89a7          	0x2a89a7
  102bb0:	d861                	beqz	s0,102b80 <ker2+0x2900>
  102bb2:	0030                	addi	a2,sp,8
  102bb4:	fff02347          	fmsub.q	ft6,ft0,ft11,ft11,rdn
  102bb8:	3750                	fld	fa2,168(a4)
  102bba:	0000                	unimp
  102bbc:	fffe27ef          	jal	a5,e5bba <__BSS_END__+0xc188e>
  102bc0:	9f19                	0x9f19
  102bc2:	fff1                	bnez	a5,102b9e <ker2+0x291e>
  102bc4:	33e8                	fld	fa0,224(a5)
  102bc6:	0001                	nop
  102bc8:	69fa                	flw	fs3,156(sp)
  102bca:	ffe5                	bnez	a5,102bc2 <ker2+0x2942>
  102bcc:	a18c                	fsd	fa1,0(a1)
  102bce:	96470013          	addi	zero,a4,-1692
  102bd2:	001e                	c.slli	zero,0x7
  102bd4:	30e5                	jal	1024bc <ker2+0x223c>
  102bd6:	0005                	c.nop	1
  102bd8:	9ca9                	0x9ca9
  102bda:	fff2                	fsw	ft8,252(sp)
  102bdc:	d37d                	beqz	a4,102bc2 <ker2+0x2942>
  102bde:	ed36ffdb          	0xed36ffdb
  102be2:	ffed                	bnez	a5,102bdc <ker2+0x295c>
  102be4:	86c1                	srai	a3,a3,0x10
  102be6:	fff6                	fsw	ft9,252(sp)
  102be8:	ffe671d3          	0xffe671d3
  102bec:	00162bfb          	0x162bfb
  102bf0:	fa1d                	bnez	a2,102b26 <ker2+0x28a6>
  102bf2:	ffe9                	bnez	a5,102bcc <ker2+0x294c>
  102bf4:	ed5d                	bnez	a0,102cb2 <ker2+0x2a32>
  102bf6:	ffe6                	fsw	fs9,252(sp)
  102bf8:	ac74                	fsd	fa3,216(s0)
  102bfa:	003d                	c.nop	15
  102bfc:	d05e                	sw	s7,32(sp)
  102bfe:	49a9002f          	0x49a9002f
  102c02:	0008                	0x8
  102c04:	81b9                	srli	a1,a1,0xe
  102c06:	0018                	0x18
  102c08:	00212173          	csrrs	sp,frm,sp
  102c0c:	f2a0                	fsw	fs0,96(a3)
  102c0e:	ffff                	0xffff
  102c10:	2cc9                	jal	102ee2 <ker2+0x2c62>
  102c12:	fffd                	bnez	a5,102c10 <ker2+0x2990>
  102c14:	000e7c93          	andi	s9,t3,0
  102c18:	f29f 0017 ffb4      	0xffb40017f29f
  102c1e:	fffa                	fsw	ft10,252(sp)
  102c20:	2790                	fld	fa2,8(a5)
  102c22:	99f40027          	0x99f40027
  102c26:	0001                	nop
  102c28:	deb5                	beqz	a3,102ba4 <ker2+0x2924>
  102c2a:	001d                	c.nop	7
  102c2c:	b659                	j	1027b2 <ker2+0x2532>
  102c2e:	001e                	c.slli	zero,0x7
  102c30:	3656                	fld	fa2,368(sp)
  102c32:	0002                	c.slli64	zero
  102c34:	7c89                	lui	s9,0xfffe2
  102c36:	ffc4                	fsw	fs1,60(a5)
  102c38:	52a8                	lw	a0,96(a3)
  102c3a:	fff6                	fsw	ft9,252(sp)
  102c3c:	623d                	lui	tp,0xf
  102c3e:	0014                	0x14
  102c40:	fe78                	fsw	fa4,124(a2)
  102c42:	ffff                	0xffff
  102c44:	ea06                	fsw	ft1,20(sp)
  102c46:	0011                	c.nop	4
  102c48:	fb41                	bnez	a4,102bd8 <ker2+0x2958>
  102c4a:	4219ffdb          	0x4219ffdb
  102c4e:	0000                	unimp
  102c50:	03de                	slli	t2,t2,0x17
  102c52:	0012                	c.slli	zero,0x4
  102c54:	2f16                	fld	ft10,320(sp)
  102c56:	000d                	c.nop	3
  102c58:	0af2                	slli	s5,s5,0x1c
  102c5a:	fffd                	bnez	a5,102c58 <ker2+0x29d8>
  102c5c:	aa1d                	j	102d92 <ker2+0x2b12>
  102c5e:	ffd0                	fsw	fa2,60(a5)
  102c60:	1580                	addi	s0,sp,736
  102c62:	fff9                	bnez	a5,102c40 <ker2+0x29c0>
  102c64:	bcd5                	j	102758 <ker2+0x24d8>
  102c66:	b492ffd3          	0xb492ffd3
  102c6a:	000d                	c.nop	3
  102c6c:	a316                	fsd	ft5,384(sp)
  102c6e:	bfb30017          	auipc	zero,0xbfb30
  102c72:	001c                	0x1c
  102c74:	b662                	fsd	fs8,296(sp)
  102c76:	74550003          	lb	zero,1861(a0) # 1ac05 <__stack_init+0x19efd>
  102c7a:	0021                	c.nop	8
  102c7c:	0e1a                	slli	t3,t3,0x6
  102c7e:	ffdd                	bnez	a5,102c3c <ker2+0x29bc>
  102c80:	0711                	addi	a4,a4,4
  102c82:	ffe1                	bnez	a5,102c5a <ker2+0x29da>
  102c84:	ffd780af          	0xffd780af
  102c88:	7e14                	flw	fa3,56(a2)
  102c8a:	fff0                	fsw	fa2,124(a5)
  102c8c:	c895                	beqz	s1,102cc0 <ker2+0x2a40>
  102c8e:	001d                	c.nop	7
  102c90:	ac2d                	j	102eca <ker2+0x2c4a>
  102c92:	0011                	c.nop	4
  102c94:	000aeaa7          	vse32.v	v21,(s5),v0.t
  102c98:	065a                	slli	a2,a2,0x16
  102c9a:	ffd8                	fsw	fa4,60(a5)
  102c9c:	18a1                	addi	a7,a7,-24
  102c9e:	0032                	c.slli	zero,0xc
  102ca0:	21b2                	fld	ft3,264(sp)
  102ca2:	ffda                	fsw	fs6,252(sp)
  102ca4:	001270b3          	and	ra,tp,ra
  102ca8:	ff46                	fsw	fa7,188(sp)
  102caa:	0010                	0x10
  102cac:	b135                	j	1028d8 <ker2+0x2658>
  102cae:	c905ffeb          	0xc905ffeb
  102cb2:	941a0027          	0x941a0027
  102cb6:	ffed                	bnez	a5,102cb0 <ker2+0x2a30>
  102cb8:	000686ef          	jal	a3,16acb8 <__VMEM_END+0x5ad78>
  102cbc:	e751                	bnez	a4,102d48 <ker2+0x2ac8>
  102cbe:	0000                	unimp
  102cc0:	62f1                	lui	t0,0x1c
  102cc2:	ffe6                	fsw	fs9,252(sp)
  102cc4:	fffcfc0b          	0xfffcfc0b
  102cc8:	d7ae                	sw	a1,236(sp)
  102cca:	6251ffcf          	fnmadd.d	ft11,ft3,ft5,fa2
  102cce:	001e                	c.slli	zero,0x7
  102cd0:	fee0                	fsw	fs0,124(a3)
  102cd2:	5ad1000f          	0x5ad1000f
  102cd6:	ffed                	bnez	a5,102cd0 <ker2+0x2a50>
  102cd8:	f859                	bnez	s0,102c6e <ker2+0x29ee>
  102cda:	ffca                	fsw	fs2,252(sp)
  102cdc:	2616                	fld	fa2,320(sp)
  102cde:	ff9e                	fsw	ft7,252(sp)
  102ce0:	ffe347af          	0xffe347af
  102ce4:	fe54                	fsw	fa3,60(a2)
  102ce6:	ffbd                	bnez	a5,102c64 <ker2+0x29e4>
  102ce8:	ffdaf75b          	0xffdaf75b
  102cec:	003383bb          	0x3383bb
  102cf0:	0f0c                	addi	a1,sp,912
  102cf2:	fffa                	fsw	ft10,252(sp)
  102cf4:	caa4                	sw	s1,80(a3)
  102cf6:	0004                	0x4
  102cf8:	d5e5                	beqz	a1,102ce0 <ker2+0x2a60>
  102cfa:	0020                	addi	s0,sp,8
  102cfc:	fff75cc3          	fmadd.q	fs9,fa4,ft11,ft11,unknown
  102d00:	f80e                	fsw	ft3,48(sp)
  102d02:	fff9                	bnez	a5,102ce0 <ker2+0x2a60>
  102d04:	2bf1                	jal	1032e0 <ker2+0x3060>
  102d06:	0024                	addi	s1,sp,8
  102d08:	01b4                	addi	a3,sp,200
  102d0a:	8e4dffcb          	fnmsub.q	ft11,fs11,ft4,fa7
  102d0e:	002e                	c.slli	zero,0xb
  102d10:	40b2                	lw	ra,12(sp)
  102d12:	003e                	c.slli	zero,0xf
  102d14:	301c                	fld	fa5,32(s0)
  102d16:	bcc0fffb          	0xbcc0fffb
  102d1a:	1546ffbf 172d0029 	0x172d00291546ffbf
  102d22:	ffe1                	bnez	a5,102cfa <ker2+0x2a7a>
  102d24:	01f8                	addi	a4,sp,204
  102d26:	d55c000f          	0xd55c000f
  102d2a:	ffc1                	bnez	a5,102cc2 <ker2+0x2a42>
  102d2c:	6028                	flw	fa0,64(s0)
  102d2e:	0026                	c.slli	zero,0x9
  102d30:	cd59                	beqz	a0,102dce <ker2+0x2b4e>
  102d32:	003c                	addi	a5,sp,8
  102d34:	4522                	lw	a0,8(sp)
  102d36:	3794ffd3          	0x3794ffd3
  102d3a:	ffd8                	fsw	fa4,60(a5)
  102d3c:	ffd106bb          	0xffd106bb
  102d40:	8e6d                	and	a2,a2,a1
  102d42:	ffb1                	bnez	a5,102c9e <ker2+0x2a1e>
  102d44:	fff6ee47          	fmsub.q	ft8,fa3,ft11,ft11,unknown
  102d48:	2bb9                	jal	1032a6 <ker2+0x3026>
  102d4a:	ffe9                	bnez	a5,102d24 <ker2+0x2aa4>
  102d4c:	c4d6                	sw	s5,72(sp)
  102d4e:	0054                	addi	a3,sp,4
  102d50:	4aa1                	li	s5,8
  102d52:	41ca0003          	lb	zero,1052(s4) # fffe141c <__VREG_END+0xffe6141c>
  102d56:	fff4                	fsw	fa3,124(a5)
  102d58:	80a2                	mv	ra,s0
  102d5a:	ffbe                	fsw	fa5,252(sp)
  102d5c:	96c2                	add	a3,a3,a6
  102d5e:	0009                	c.nop	2
  102d60:	ad9f fff0 a5fc      	0xa5fcfff0ad9f
  102d66:	a5b50037          	lui	zero,0xa5b50
  102d6a:	0000                	unimp
  102d6c:	aac5                	j	102f5c <ker2+0x2cdc>
  102d6e:	0008                	0x8
  102d70:	8168                	0x8168
  102d72:	0010                	0x10
  102d74:	ffe878c3          	fmadd.q	fa7,fa6,ft10,ft11
  102d78:	0025ff93          	andi	t6,a1,2
  102d7c:	fef6                	fsw	ft9,124(sp)
  102d7e:	0025                	c.nop	9
  102d80:	1a5e                	slli	s4,s4,0x37
  102d82:	6e10ffcb          	fnmsub.q	ft11,ft1,ft1,fa3
  102d86:	cdfa0003          	lb	zero,-801(s4)
  102d8a:	ffdf ba7c 000b      	0xbba7cffdf
  102d90:	3834                	fld	fa3,112(s0)
  102d92:	ffe2                	fsw	fs8,252(sp)
  102d94:	ec8e                	fsw	ft3,88(sp)
  102d96:	ffea                	fsw	fs10,252(sp)
  102d98:	c81c                	sw	a5,16(s0)
  102d9a:	0028                	addi	a0,sp,8
  102d9c:	ffd2711b          	0xffd2711b
  102da0:	ab06                	fsd	ft1,400(sp)
  102da2:	0029                	c.nop	10
  102da4:	bddc                	fsd	fa5,184(a1)
  102da6:	ffbd                	bnez	a5,102d24 <ker2+0x2aa4>
  102da8:	ffbe128f          	0xffbe128f
  102dac:	85df ffea f6bf      	0xf6bfffea85df
  102db2:	ffb6                	fsw	fa3,252(sp)
  102db4:	3df5                	jal	102cb0 <ker2+0x2a30>
  102db6:	ffe0                	fsw	fs0,124(a5)
  102db8:	ab80                	fsd	fs0,16(a5)
  102dba:	ffea                	fsw	fs10,252(sp)
  102dbc:	d2b6                	sw	a3,100(sp)
  102dbe:	ffc8                	fsw	fa0,60(a5)
  102dc0:	e369                	bnez	a4,102e82 <ker2+0x2c02>
  102dc2:	0009                	c.nop	2
  102dc4:	472d                	li	a4,11
  102dc6:	6cf9fffb          	0x6cf9fffb
  102dca:	0018                	0x18
  102dcc:	d7dd                	beqz	a5,102d7a <ker2+0x2afa>
  102dce:	000c                	0xc
  102dd0:	ffe5a467          	0xffe5a467
  102dd4:	2a28                	fld	fa0,80(a2)
  102dd6:	000c                	0xc
  102dd8:	831c                	0x831c
  102dda:	000c                	0xc
  102ddc:	001b166f          	jal	a2,1b45dc <__VREG_END+0x345dc>
  102de0:	ae11                	j	1030f4 <ker2+0x2e74>
  102de2:	ffe8                	fsw	fa0,124(a5)
  102de4:	d2d5                	beqz	a3,102d88 <ker2+0x2b08>
  102de6:	fffe                	fsw	ft11,252(sp)
  102de8:	0007a4eb          	0x7a4eb
  102dec:	65b0                	flw	fa2,72(a1)
  102dee:	ffdf e98a 0005      	0x5e98affdf
  102df4:	b094                	fsd	fa3,32(s1)
  102df6:	108d0037          	lui	zero,0x108d0
  102dfa:	b8c5002b          	0xb8c5002b
  102dfe:	8ce4ffe7          	0x8ce4ffe7
  102e02:	917d001b          	0x917d001b
  102e06:	0018                	0x18
  102e08:	9fff                	0x9fff
  102e0a:	0cf0fffb          	0xcf0fffb
  102e0e:	000c                	0xc
  102e10:	2048                	fld	fa0,128(s0)
  102e12:	ffdf a078 ffd8      	0xffd8a078ffdf
  102e18:	8422                	mv	s0,s0
  102e1a:	0011                	c.nop	4
  102e1c:	fff5aacb          	fnmsub.q	fs5,fa1,ft11,ft11,rdn
  102e20:	56e5                	li	a3,-7
  102e22:	450cfffb          	0x450cfffb
  102e26:	0009                	c.nop	2
  102e28:	5ae6                	lw	s5,120(sp)
  102e2a:	0021                	c.nop	8
  102e2c:	2a10                	fld	fa2,16(a2)
  102e2e:	ffd5                	bnez	a5,102dea <ker2+0x2b6a>
  102e30:	e660                	fsw	fs0,76(a2)
  102e32:	f20a0003          	lb	zero,-224(s4)
  102e36:	0014                	0x14
  102e38:	eeba                	fsw	fa4,92(sp)
  102e3a:	001a                	c.slli	zero,0x6
  102e3c:	ca44                	sw	s1,20(a2)
  102e3e:	2e610037          	lui	zero,0x2e610
